--- Raw source ---
// The Great Computer Language Shootout
// http://shootout.alioth.debian.org/
//
// modified by Isaac Gouy

function pad(number,width){
   var s = number.toString();
   var prefixWidth = width - s.length;
   if (prefixWidth>0){
      for (var i=1; i<=prefixWidth; i++) s = " " + s;
   }
   return s;
}

function nsieve(m, isPrime){
   var i, k, count;

   for (i=2; i<=m; i++) { isPrime[i] = true; }
   count = 0;

   for (i=2; i<=m; i++){
      if (isPrime[i]) {
         for (k=i+i; k<=m; k+=i) isPrime[k] = false;
         count++;
      }
   }
   return count;
}

function sieve() {
    var sum = 0;
    for (var i = 1; i <= 3; i++ ) {
        var m = (1<<i)*10000;
        var flags = Array(m+1);
        sum += nsieve(m, flags);
    }
    return sum;
}

var result = sieve();

var expected = 14302;
if (result != expected)
    throw "ERROR: bad result: expected " + expected + " but got " + result;




--- Code ---
source_position = 0
kind = FUNCTION
compiler = full-codegen
Instructions (size = 484)
0x3ea741e3a320     0  55             push rbp                ;; debug: position 0
0x3ea741e3a321     1  4889e5         REX.W movq rbp,rsp
0x3ea741e3a324     4  56             push rsi
0x3ea741e3a325     5  57             push rdi
0x3ea741e3a326     6  41ff75a8       push [r13-0x58]
0x3ea741e3a32a    10  49ba11d43e6d13390000 REX.W movq r10,0x39136d3ed411    ;; object: 0x39136d3ed411 <FixedArray[10]>
0x3ea741e3a334    20  4152           push r10
0x3ea741e3a336    22  6a00           push 0x0
0x3ea741e3a338    24  b802000000     movl rax,0x2
0x3ea741e3a33d    29  48bb201c2a0100000000 REX.W movq rbx,0x12a1c20
0x3ea741e3a347    39  e814e8fcff     call 0x3ea741e08b60     ;; code: STUB, CEntryStub, minor: 0
0x3ea741e3a34c    44  493ba540090000 REX.W cmpq rsp,[r13+0x940]
0x3ea741e3a353    51  7305           jnc 58  (0x3ea741e3a35a)
0x3ea741e3a355    53  e8e6c0ffff     call StackCheck  (0x3ea741e36440)    ;; code: BUILTIN
0x3ea741e3a35a    58  49bac1d03e6d13390000 REX.W movq r10,0x39136d3ed0c1    ;; debug: statement 760
                                                             ;; object: 0x39136d3ed0c1 <String[6]: result>
0x3ea741e3a364    68  4152           push r10
0x3ea741e3a366    70  6a00           push 0x0
0x3ea741e3a368    72  48b961d03e6d13390000 REX.W movq rcx,0x39136d3ed061    ;; debug: position 773
                                                             ;; object: 0x39136d3ed061 <String[5]: sieve>
0x3ea741e3a372    82  488b5627       REX.W movq rdx,[rsi+0x27]
0x3ea741e3a376    86  48b80000000008000000 REX.W movq rax,0x800000000
0x3ea741e3a380    96  e87bdbfeff     call 0x3ea741e27f00     ;; code: contextual, LOAD_IC, DEFAULT
0x3ea741e3a385   101  50             push rax
0x3ea741e3a386   102  49ba8941306d13390000 REX.W movq r10,0x39136d304189    ;; object: 0x39136d304189 <undefined>
0x3ea741e3a390   112  4152           push r10
0x3ea741e3a392   114  48ba000000000e000000 REX.W movq rdx,0xe00000000
0x3ea741e3a39c   124  488b7c2408     REX.W movq rdi,[rsp+0x8]
0x3ea741e3a3a1   129  e8da29ffff     call 0x3ea741e2cd80     ;; code: CALL_IC, DEFAULT
0x3ea741e3a3a6   134  488b75f8       REX.W movq rsi,[rbp-0x8]
0x3ea741e3a3aa   138  48890424       REX.W movq [rsp],rax
0x3ea741e3a3ae   142  b803000000     movl rax,0x3
0x3ea741e3a3b3   147  48bbc0222a0100000000 REX.W movq rbx,0x12a22c0
0x3ea741e3a3bd   157  e89ee7fcff     call 0x3ea741e08b60     ;; code: STUB, CEntryStub, minor: 0
0x3ea741e3a3c2   162  49bae1d03e6d13390000 REX.W movq r10,0x39136d3ed0e1    ;; debug: statement 783
                                                             ;; object: 0x39136d3ed0e1 <String[8]: expected>
0x3ea741e3a3cc   172  4152           push r10
0x3ea741e3a3ce   174  6a00           push 0x0
0x3ea741e3a3d0   176  49ba00000000de370000 REX.W movq r10,0x37de00000000
0x3ea741e3a3da   186  4152           push r10
0x3ea741e3a3dc   188  b803000000     movl rax,0x3
0x3ea741e3a3e1   193  48bbc0222a0100000000 REX.W movq rbx,0x12a22c0
0x3ea741e3a3eb   203  e870e7fcff     call 0x3ea741e08b60     ;; code: STUB, CEntryStub, minor: 0
0x3ea741e3a3f0   208  48b9c1d03e6d13390000 REX.W movq rcx,0x39136d3ed0c1    ;; debug: statement 805
                                                             ;; debug: position 809
                                                             ;; object: 0x39136d3ed0c1 <String[6]: result>
0x3ea741e3a3fa   218  488b5627       REX.W movq rdx,[rsi+0x27]
0x3ea741e3a3fe   222  48b8000000000a000000 REX.W movq rax,0xa00000000
0x3ea741e3a408   232  e8f3dafeff     call 0x3ea741e27f00     ;; code: contextual, LOAD_IC, DEFAULT
0x3ea741e3a40d   237  50             push rax
0x3ea741e3a40e   238  48b9e1d03e6d13390000 REX.W movq rcx,0x39136d3ed0e1    ;; debug: position 819
                                                             ;; object: 0x39136d3ed0e1 <String[8]: expected>
0x3ea741e3a418   248  488b5627       REX.W movq rdx,[rsi+0x27]
0x3ea741e3a41c   252  48b8000000000c000000 REX.W movq rax,0xc00000000
0x3ea741e3a426   262  e8d5dafeff     call 0x3ea741e27f00     ;; code: contextual, LOAD_IC, DEFAULT
0x3ea741e3a42b   267  5a             pop rdx
0x3ea741e3a42c   268  e88f09ffff     call 0x3ea741e2adc0     ;; code: COMPARE_IC, UNINITIALIZED (id = 69)
0x3ea741e3a431   273  90             nop
0x3ea741e3a432   274  eb0f           jmp 291  (0x3ea741e3a443)
0x3ea741e3a434   276  493b45c0       REX.W cmpq rax,[r13-0x40]
0x3ea741e3a438   280  0f848a000000   jz 424  (0x3ea741e3a4c8)
0x3ea741e3a43e   286  e909000000     jmp 300  (0x3ea741e3a44c)
0x3ea741e3a443   291  4885c0         REX.W testq rax,rax
0x3ea741e3a446   294  0f847c000000   jz 424  (0x3ea741e3a4c8)
0x3ea741e3a44c   300  49ba01d13e6d13390000 REX.W movq r10,0x39136d3ed101    ;; debug: statement 833
                                                             ;; object: 0x39136d3ed101 <String[28]: ERROR: bad result: expected >
0x3ea741e3a456   310  4152           push r10
0x3ea741e3a458   312  48b9e1d03e6d13390000 REX.W movq rcx,0x39136d3ed0e1    ;; debug: position 872
                                                             ;; object: 0x39136d3ed0e1 <String[8]: expected>
0x3ea741e3a462   322  488b5627       REX.W movq rdx,[rsi+0x27]
0x3ea741e3a466   326  48b8000000000c000000 REX.W movq rax,0xc00000000
0x3ea741e3a470   336  e88bdafeff     call 0x3ea741e27f00     ;; code: contextual, LOAD_IC, DEFAULT
0x3ea741e3a475   341  5a             pop rdx                 ;; debug: position 870
0x3ea741e3a476   342  e825d6fdff     call 0x3ea741e17aa0     ;; code: BINARY_OP_IC, UNINITIALIZED (id = 89)
0x3ea741e3a47b   347  90             nop
0x3ea741e3a47c   348  50             push rax
0x3ea741e3a47d   349  48b839d13e6d13390000 REX.W movq rax,0x39136d3ed139    ;; object: 0x39136d3ed139 <String[9]:  but got >
0x3ea741e3a487   359  5a             pop rdx                 ;; debug: position 881
0x3ea741e3a488   360  e813d6fdff     call 0x3ea741e17aa0     ;; code: BINARY_OP_IC, UNINITIALIZED (id = 85)
0x3ea741e3a48d   365  90             nop
0x3ea741e3a48e   366  50             push rax
0x3ea741e3a48f   367  48b9c1d03e6d13390000 REX.W movq rcx,0x39136d3ed0c1    ;; debug: position 897
                                                             ;; object: 0x39136d3ed0c1 <String[6]: result>
0x3ea741e3a499   377  488b5627       REX.W movq rdx,[rsi+0x27]
0x3ea741e3a49d   381  48b8000000000a000000 REX.W movq rax,0xa00000000
0x3ea741e3a4a7   391  e854dafeff     call 0x3ea741e27f00     ;; code: contextual, LOAD_IC, DEFAULT
0x3ea741e3a4ac   396  5a             pop rdx                 ;; debug: position 895
0x3ea741e3a4ad   397  e8eed5fdff     call 0x3ea741e17aa0     ;; code: BINARY_OP_IC, UNINITIALIZED (id = 81)
0x3ea741e3a4b2   402  90             nop
0x3ea741e3a4b3   403  50             push rax
0x3ea741e3a4b4   404  b801000000     movl rax,0x1            ;; debug: position 833
0x3ea741e3a4b9   409  48bb1023280100000000 REX.W movq rbx,0x1282310
0x3ea741e3a4c3   419  e898e6fcff     call 0x3ea741e08b60     ;; code: STUB, CEntryStub, minor: 0
0x3ea741e3a4c8   424  498b45a8       REX.W movq rax,[r13-0x58]
0x3ea741e3a4cc   428  48bbf1d13e6d13390000 REX.W movq rbx,0x39136d3ed1f1    ;; object: 0x39136d3ed1f1 Cell for 6144
0x3ea741e3a4d6   438  83430bd1       addl [rbx+0xb],0xd1
0x3ea741e3a4da   442  791f           jns 475  (0x3ea741e3a4fb)
0x3ea741e3a4dc   444  50             push rax
0x3ea741e3a4dd   445  e81ebeffff     call InterruptCheck  (0x3ea741e36300)    ;; code: BUILTIN
0x3ea741e3a4e2   450  58             pop rax
0x3ea741e3a4e3   451  48bbf1d13e6d13390000 REX.W movq rbx,0x39136d3ed1f1    ;; object: 0x39136d3ed1f1 Cell for 6144
0x3ea741e3a4ed   461  49ba0000000000180000 REX.W movq r10,0x180000000000
0x3ea741e3a4f7   471  4c895307       REX.W movq [rbx+0x7],r10
0x3ea741e3a4fb   475  c9             leave                   ;; debug: statement 906
0x3ea741e3a4fc   476  c20800         ret 0x8
0x3ea741e3a4ff   479  90             nop

Deoptimization Output Data (deopt points = 0)

Back edges (size = 0)
ast_id  pc_offset  loop_depth

0x39136d3ed4d9: [TypeFeedbackInfo]
 - ic_total_count: 10, ic_with_type_info_count: 0, ic_generic_count: 0

RelocInfo (size = 83)
0x3ea741e3a320  position  (0)
0x3ea741e3a32c  embedded object  (0x39136d3ed411 <FixedArray[10]>)
0x3ea741e3a348  code target (STUB)  (0x3ea741e08b60)
0x3ea741e3a356  code target (BUILTIN)  (0x3ea741e36440)
0x3ea741e3a35a  statement position  (760)
0x3ea741e3a35c  embedded object  (0x39136d3ed0c1 <String[6]: result>)
0x3ea741e3a368  position  (773)
0x3ea741e3a36a  embedded object  (0x39136d3ed061 <String[5]: sieve>)
0x3ea741e3a381  code target (LOAD_IC)  (0x3ea741e27f00)
0x3ea741e3a388  embedded object  (0x39136d304189 <undefined>)
0x3ea741e3a3a2  code target (CALL_IC)  (0x3ea741e2cd80)
0x3ea741e3a3be  code target (STUB)  (0x3ea741e08b60)
0x3ea741e3a3c2  statement position  (783)
0x3ea741e3a3c4  embedded object  (0x39136d3ed0e1 <String[8]: expected>)
0x3ea741e3a3ec  code target (STUB)  (0x3ea741e08b60)
0x3ea741e3a3f0  statement position  (805)
0x3ea741e3a3f0  position  (809)
0x3ea741e3a3f2  embedded object  (0x39136d3ed0c1 <String[6]: result>)
0x3ea741e3a409  code target (LOAD_IC)  (0x3ea741e27f00)
0x3ea741e3a40e  position  (819)
0x3ea741e3a410  embedded object  (0x39136d3ed0e1 <String[8]: expected>)
0x3ea741e3a427  code target (LOAD_IC)  (0x3ea741e27f00)
0x3ea741e3a42d  code target with id (COMPARE_IC)  (0x3ea741e2adc0) (id=69)
0x3ea741e3a44c  statement position  (833)
0x3ea741e3a44e  embedded object  (0x39136d3ed101 <String[28]: ERROR: bad result: expected >)
0x3ea741e3a458  position  (872)
0x3ea741e3a45a  embedded object  (0x39136d3ed0e1 <String[8]: expected>)
0x3ea741e3a471  code target (LOAD_IC)  (0x3ea741e27f00)
0x3ea741e3a475  position  (870)
0x3ea741e3a477  code target with id (BINARY_OP_IC)  (0x3ea741e17aa0) (id=89)
0x3ea741e3a47f  embedded object  (0x39136d3ed139 <String[9]:  but got >)
0x3ea741e3a487  position  (881)
0x3ea741e3a489  code target with id (BINARY_OP_IC)  (0x3ea741e17aa0) (id=85)
0x3ea741e3a48f  position  (897)
0x3ea741e3a491  embedded object  (0x39136d3ed0c1 <String[6]: result>)
0x3ea741e3a4a8  code target (LOAD_IC)  (0x3ea741e27f00)
0x3ea741e3a4ac  position  (895)
0x3ea741e3a4ae  code target with id (BINARY_OP_IC)  (0x3ea741e17aa0) (id=81)
0x3ea741e3a4b4  position  (833)
0x3ea741e3a4c4  code target (STUB)  (0x3ea741e08b60)
0x3ea741e3a4ce  embedded object  (0x39136d3ed1f1 Cell for 6144)
0x3ea741e3a4de  code target (BUILTIN)  (0x3ea741e36300)
0x3ea741e3a4e5  embedded object  (0x39136d3ed1f1 Cell for 6144)
0x3ea741e3a4fb  statement position  (906)

--- End code ---
--- Raw source ---
() {
    var sum = 0;
    for (var i = 1; i <= 3; i++ ) {
        var m = (1<<i)*10000;
        var flags = Array(m+1);
        sum += nsieve(m, flags);
    }
    return sum;
}


--- Code ---
source_position = 582
kind = FUNCTION
name = sieve
compiler = full-codegen
Instructions (size = 688)
0x3ea741e3a580     0  55             push rbp                ;; debug: position 582
0x3ea741e3a581     1  4889e5         REX.W movq rbp,rsp
0x3ea741e3a584     4  56             push rsi
0x3ea741e3a585     5  57             push rdi
0x3ea741e3a586     6  498b55a8       REX.W movq rdx,[r13-0x58]
0x3ea741e3a58a    10  52             push rdx
0x3ea741e3a58b    11  52             push rdx
0x3ea741e3a58c    12  52             push rdx
0x3ea741e3a58d    13  52             push rdx
0x3ea741e3a58e    14  493ba540090000 REX.W cmpq rsp,[r13+0x940]
0x3ea741e3a595    21  7305           jnc 28  (0x3ea741e3a59c)
0x3ea741e3a597    23  e8a4beffff     call StackCheck  (0x3ea741e36440)    ;; code: BUILTIN
0x3ea741e3a59c    28  48b80000000000000000 REX.W movq rax,(nil)    ;; debug: statement 591
0x3ea741e3a5a6    38  488945e8       REX.W movq [rbp-0x18],rax
0x3ea741e3a5aa    42  48b80000000001000000 REX.W movq rax,0x100000000    ;; debug: statement 608
                                                             ;; debug: statement 613
0x3ea741e3a5b4    52  488945e0       REX.W movq [rbp-0x20],rax
0x3ea741e3a5b8    56  e9d6010000     jmp 531  (0x3ea741e3a793)
0x3ea741e3a5bd    61  49ba0000000001000000 REX.W movq r10,0x100000000    ;; debug: statement 648
0x3ea741e3a5c7    71  4152           push r10
0x3ea741e3a5c9    73  488b45e0       REX.W movq rax,[rbp-0x20]    ;; debug: position 660
0x3ea741e3a5cd    77  5a             pop rdx                 ;; debug: position 658
0x3ea741e3a5ce    78  488bc8         REX.W movq rcx,rax
0x3ea741e3a5d1    81  480bc2         REX.W orq rax,rdx
0x3ea741e3a5d4    84  a801           test al,0x1
0x3ea741e3a5d6    86  720c           jc 100  (0x3ea741e3a5e4)
0x3ea741e3a5d8    88  488bc1         REX.W movq rax,rcx
0x3ea741e3a5db    91  e8408bfeff     call 0x3ea741e23120     ;; code: BINARY_OP_IC, UNINITIALIZED (id = 85)
0x3ea741e3a5e0    96  a80a           test al,0xa
0x3ea741e3a5e2    98  eb0e           jmp 114  (0x3ea741e3a5f2)
0x3ea741e3a5e4   100  488bc2         REX.W movq rax,rdx
0x3ea741e3a5e7   103  48c1e920       REX.W shrq rcx, 32
0x3ea741e3a5eb   107  4883e11f       REX.W andq rcx,0x1f
0x3ea741e3a5ef   111  48d3e0         REX.W shlq rax, cl
0x3ea741e3a5f2   114  50             push rax
0x3ea741e3a5f3   115  48b80000000010270000 REX.W movq rax,0x271000000000
0x3ea741e3a5fd   125  5a             pop rdx                 ;; debug: position 662
0x3ea741e3a5fe   126  488bc8         REX.W movq rcx,rax
0x3ea741e3a601   129  480bc2         REX.W orq rax,rdx
0x3ea741e3a604   132  a801           test al,0x1
0x3ea741e3a606   134  720c           jc 148  (0x3ea741e3a614)
0x3ea741e3a608   136  488bc1         REX.W movq rax,rcx
0x3ea741e3a60b   139  e8106fffff     call 0x3ea741e31520     ;; code: BINARY_OP_IC, UNINITIALIZED (id = 81)
0x3ea741e3a610   144  a80a           test al,0xa
0x3ea741e3a612   146  eb22           jmp 182  (0x3ea741e3a636)
0x3ea741e3a614   148  488bc2         REX.W movq rax,rdx
0x3ea741e3a617   151  48c1f820       REX.W sarq rax, 32
0x3ea741e3a61b   155  480fafc1       REX.W imulq rax,rcx
0x3ea741e3a61f   159  0f80e3ffffff   jo 136  (0x3ea741e3a608)
0x3ea741e3a625   165  4885c0         REX.W testq rax,rax
0x3ea741e3a628   168  750c           jnz 182  (0x3ea741e3a636)
0x3ea741e3a62a   170  4c8bd2         REX.W movq r10,rdx
0x3ea741e3a62d   173  4c33d1         REX.W xorq r10,rcx
0x3ea741e3a630   176  0f88d2ffffff   js 136  (0x3ea741e3a608)
0x3ea741e3a636   182  488945d8       REX.W movq [rbp-0x28],rax    ;; debug: position 648
0x3ea741e3a63a   186  48b96936396d13390000 REX.W movq rcx,0x39136d393669    ;; debug: statement 678
                                                             ;; debug: position 690
                                                             ;; object: 0x39136d393669 <String[5]: Array>
0x3ea741e3a644   196  488b5627       REX.W movq rdx,[rsi+0x27]
0x3ea741e3a648   200  48b80000000006000000 REX.W movq rax,0x600000000
0x3ea741e3a652   210  e8a9d8feff     call 0x3ea741e27f00     ;; code: contextual, LOAD_IC, DEFAULT
0x3ea741e3a657   215  50             push rax
0x3ea741e3a658   216  49ba8941306d13390000 REX.W movq r10,0x39136d304189    ;; object: 0x39136d304189 <undefined>
0x3ea741e3a662   226  4152           push r10
0x3ea741e3a664   228  ff75d8         push [rbp-0x28]         ;; debug: position 696
0x3ea741e3a667   231  48b80000000001000000 REX.W movq rax,0x100000000
0x3ea741e3a671   241  5a             pop rdx                 ;; debug: position 697
0x3ea741e3a672   242  488bc8         REX.W movq rcx,rax
0x3ea741e3a675   245  480bc2         REX.W orq rax,rdx
0x3ea741e3a678   248  a801           test al,0x1
0x3ea741e3a67a   250  720c           jc 264  (0x3ea741e3a688)
0x3ea741e3a67c   252  488bc1         REX.W movq rax,rcx
0x3ea741e3a67f   255  e81cd4fdff     call 0x3ea741e17aa0     ;; code: BINARY_OP_IC, UNINITIALIZED (id = 116)
0x3ea741e3a684   260  a80a           test al,0xa
0x3ea741e3a686   262  eb0c           jmp 276  (0x3ea741e3a694)
0x3ea741e3a688   264  488bc2         REX.W movq rax,rdx
0x3ea741e3a68b   267  4803c1         REX.W addq rax,rcx
0x3ea741e3a68e   270  0f80e8ffffff   jo 252  (0x3ea741e3a67c)
0x3ea741e3a694   276  50             push rax
0x3ea741e3a695   277  48ba0000000004000000 REX.W movq rdx,0x400000000    ;; debug: position 690
0x3ea741e3a69f   287  488b7c2410     REX.W movq rdi,[rsp+0x10]
0x3ea741e3a6a4   292  e8f773ffff     call 0x3ea741e31aa0     ;; code: CALL_IC, DEFAULT
0x3ea741e3a6a9   297  488b75f8       REX.W movq rsi,[rbp-0x8]
0x3ea741e3a6ad   301  4883c408       REX.W addq rsp,0x8
0x3ea741e3a6b1   305  488945d0       REX.W movq [rbp-0x30],rax    ;; debug: position 678
0x3ea741e3a6b5   309  488b45e8       REX.W movq rax,[rbp-0x18]    ;; debug: statement 710
                                                             ;; debug: position 710
0x3ea741e3a6b9   313  50             push rax
0x3ea741e3a6ba   314  48b901d03e6d13390000 REX.W movq rcx,0x39136d3ed001    ;; debug: position 717
                                                             ;; object: 0x39136d3ed001 <String[6]: nsieve>
0x3ea741e3a6c4   324  488b5627       REX.W movq rdx,[rsi+0x27]
0x3ea741e3a6c8   328  48b8000000000a000000 REX.W movq rax,0xa00000000
0x3ea741e3a6d2   338  e829d8feff     call 0x3ea741e27f00     ;; code: contextual, LOAD_IC, DEFAULT
0x3ea741e3a6d7   343  50             push rax
0x3ea741e3a6d8   344  49ba8941306d13390000 REX.W movq r10,0x39136d304189    ;; object: 0x39136d304189 <undefined>
0x3ea741e3a6e2   354  4152           push r10
0x3ea741e3a6e4   356  ff75d8         push [rbp-0x28]         ;; debug: position 724
0x3ea741e3a6e7   359  ff75d0         push [rbp-0x30]         ;; debug: position 727
0x3ea741e3a6ea   362  48ba000000000c000000 REX.W movq rdx,0xc00000000    ;; debug: position 717
0x3ea741e3a6f4   372  488b7c2418     REX.W movq rdi,[rsp+0x18]
0x3ea741e3a6f9   377  e8828dfdff     call 0x3ea741e13480     ;; code: CALL_IC, DEFAULT
0x3ea741e3a6fe   382  488b75f8       REX.W movq rsi,[rbp-0x8]
0x3ea741e3a702   386  4883c408       REX.W addq rsp,0x8
0x3ea741e3a706   390  5a             pop rdx
0x3ea741e3a707   391  488bc8         REX.W movq rcx,rax
0x3ea741e3a70a   394  480bc2         REX.W orq rax,rdx
0x3ea741e3a70d   397  a801           test al,0x1
0x3ea741e3a70f   399  720c           jc 413  (0x3ea741e3a71d)
0x3ea741e3a711   401  488bc1         REX.W movq rax,rcx
0x3ea741e3a714   404  e887d3fdff     call 0x3ea741e17aa0     ;; code: BINARY_OP_IC, UNINITIALIZED (id = 130)
0x3ea741e3a719   409  a80a           test al,0xa
0x3ea741e3a71b   411  eb0c           jmp 425  (0x3ea741e3a729)
0x3ea741e3a71d   413  488bc2         REX.W movq rax,rdx
0x3ea741e3a720   416  4803c1         REX.W addq rax,rcx
0x3ea741e3a723   419  0f80e8ffffff   jo 401  (0x3ea741e3a711)
0x3ea741e3a729   425  488945e8       REX.W movq [rbp-0x18],rax    ;; debug: position 714
0x3ea741e3a72d   429  488b45e0       REX.W movq rax,[rbp-0x20]    ;; debug: statement 633
                                                             ;; debug: position 632
0x3ea741e3a731   433  a801           test al,0x1
0x3ea741e3a733   435  7314           jnc 457  (0x3ea741e3a749)
0x3ea741e3a735   437  49ba0000000001000000 REX.W movq r10,0x100000000
0x3ea741e3a73f   447  4903c2         REX.W addq rax,r10
0x3ea741e3a742   450  711e           jno 482  (0x3ea741e3a762)
0x3ea741e3a744   452  492bc2         REX.W subq rax,r10
0x3ea741e3a747   455  eb05           jmp 462  (0x3ea741e3a74e)
0x3ea741e3a749   457  e8d282feff     call 0x3ea741e22a20     ;; code: STUB, ToNumberStub, minor: 0
0x3ea741e3a74e   462  488bd0         REX.W movq rdx,rax      ;; debug: position 633
0x3ea741e3a751   465  48b80000000001000000 REX.W movq rax,0x100000000
0x3ea741e3a75b   475  e840d3fdff     call 0x3ea741e17aa0     ;; code: BINARY_OP_IC, UNINITIALIZED (id = 60)
0x3ea741e3a760   480  a82d           test al,0x2d
0x3ea741e3a762   482  488945e0       REX.W movq [rbp-0x20],rax
0x3ea741e3a766   486  48bbf1d83e6d13390000 REX.W movq rbx,0x39136d3ed8f1    ;; object: 0x39136d3ed8f1 Cell for 6144
0x3ea741e3a770   496  83430bfe       addl [rbx+0xb],0xfe
0x3ea741e3a774   500  791d           jns 531  (0x3ea741e3a793)
0x3ea741e3a776   502  e885bbffff     call InterruptCheck  (0x3ea741e36300)    ;; code: BUILTIN
0x3ea741e3a77b   507  48bbf1d83e6d13390000 REX.W movq rbx,0x39136d3ed8f1    ;; object: 0x39136d3ed8f1 Cell for 6144
0x3ea741e3a785   517  49ba0000000000180000 REX.W movq r10,0x180000000000
0x3ea741e3a78f   527  4c895307       REX.W movq [rbx+0x7],r10
0x3ea741e3a793   531  ff75e0         push [rbp-0x20]         ;; debug: statement 626
                                                             ;; debug: position 624
0x3ea741e3a796   534  48b80000000003000000 REX.W movq rax,0x300000000
0x3ea741e3a7a0   544  5a             pop rdx
0x3ea741e3a7a1   545  488bca         REX.W movq rcx,rdx
0x3ea741e3a7a4   548  480bc8         REX.W orq rcx,rax
0x3ea741e3a7a7   551  f6c101         testb rcx,0x1
0x3ea741e3a7aa   554  730e           jnc 570  (0x3ea741e3a7ba)
0x3ea741e3a7ac   556  483bd0         REX.W cmpq rdx,rax
0x3ea741e3a7af   559  0f8e08feffff   jle 61  (0x3ea741e3a5bd)
0x3ea741e3a7b5   565  e921000000     jmp 603  (0x3ea741e3a7db)
0x3ea741e3a7ba   570  e8a1c0feff     call 0x3ea741e26860     ;; code: COMPARE_IC, UNINITIALIZED (id = 49)
0x3ea741e3a7bf   575  a815           test al,0x15
0x3ea741e3a7c1   577  eb0f           jmp 594  (0x3ea741e3a7d2)
0x3ea741e3a7c3   579  493b45c0       REX.W cmpq rax,[r13-0x40]
0x3ea741e3a7c7   583  0f84f0fdffff   jz 61  (0x3ea741e3a5bd)
0x3ea741e3a7cd   589  e909000000     jmp 603  (0x3ea741e3a7db)
0x3ea741e3a7d2   594  4885c0         REX.W testq rax,rax
0x3ea741e3a7d5   597  0f8ee2fdffff   jle 61  (0x3ea741e3a5bd)
0x3ea741e3a7db   603  488b45e8       REX.W movq rax,[rbp-0x18]    ;; debug: statement 745
                                                             ;; debug: position 752
0x3ea741e3a7df   607  48bbf1d83e6d13390000 REX.W movq rbx,0x39136d3ed8f1    ;; object: 0x39136d3ed8f1 Cell for 6144
0x3ea741e3a7e9   617  83430bfd       addl [rbx+0xb],0xfd
0x3ea741e3a7ed   621  791f           jns 654  (0x3ea741e3a80e)
0x3ea741e3a7ef   623  50             push rax
0x3ea741e3a7f0   624  e80bbbffff     call InterruptCheck  (0x3ea741e36300)    ;; code: BUILTIN
0x3ea741e3a7f5   629  58             pop rax
0x3ea741e3a7f6   630  48bbf1d83e6d13390000 REX.W movq rbx,0x39136d3ed8f1    ;; object: 0x39136d3ed8f1 Cell for 6144
0x3ea741e3a800   640  49ba0000000000180000 REX.W movq r10,0x180000000000
0x3ea741e3a80a   650  4c895307       REX.W movq [rbx+0x7],r10
0x3ea741e3a80e   654  c9             leave                   ;; debug: statement 757
0x3ea741e3a80f   655  c20800         ret 0x8
0x3ea741e3a812   658  498b45a8       REX.W movq rax,[r13-0x58]
0x3ea741e3a816   662  e9c4ffffff     jmp 607  (0x3ea741e3a7df)
0x3ea741e3a81b   667  0f1f440000     nop

Deoptimization Output Data (deopt points = 0)

Back edges (size = 1)
ast_id  pc_offset  loop_depth
    31        507           1

0x39136d3ed989: [TypeFeedbackInfo]
 - ic_total_count: 10, ic_with_type_info_count: 0, ic_generic_count: 0

RelocInfo (size = 120)
0x3ea741e3a580  position  (582)
0x3ea741e3a598  code target (BUILTIN)  (0x3ea741e36440)
0x3ea741e3a59c  statement position  (591)
0x3ea741e3a5aa  statement position  (608)
0x3ea741e3a5aa  statement position  (613)
0x3ea741e3a5bd  statement position  (648)
0x3ea741e3a5c9  position  (660)
0x3ea741e3a5cd  position  (658)
0x3ea741e3a5dc  code target with id (BINARY_OP_IC)  (0x3ea741e23120) (id=85)
0x3ea741e3a5fd  position  (662)
0x3ea741e3a60c  code target with id (BINARY_OP_IC)  (0x3ea741e31520) (id=81)
0x3ea741e3a636  position  (648)
0x3ea741e3a63a  statement position  (678)
0x3ea741e3a63a  position  (690)
0x3ea741e3a63c  embedded object  (0x39136d393669 <String[5]: Array>)
0x3ea741e3a653  code target (LOAD_IC)  (0x3ea741e27f00)
0x3ea741e3a65a  embedded object  (0x39136d304189 <undefined>)
0x3ea741e3a664  position  (696)
0x3ea741e3a671  position  (697)
0x3ea741e3a680  code target with id (BINARY_OP_IC)  (0x3ea741e17aa0) (id=116)
0x3ea741e3a695  position  (690)
0x3ea741e3a6a5  code target (CALL_IC)  (0x3ea741e31aa0)
0x3ea741e3a6b1  position  (678)
0x3ea741e3a6b5  statement position  (710)
0x3ea741e3a6b5  position  (710)
0x3ea741e3a6ba  position  (717)
0x3ea741e3a6bc  embedded object  (0x39136d3ed001 <String[6]: nsieve>)
0x3ea741e3a6d3  code target (LOAD_IC)  (0x3ea741e27f00)
0x3ea741e3a6da  embedded object  (0x39136d304189 <undefined>)
0x3ea741e3a6e4  position  (724)
0x3ea741e3a6e7  position  (727)
0x3ea741e3a6ea  position  (717)
0x3ea741e3a6fa  code target (CALL_IC)  (0x3ea741e13480)
0x3ea741e3a715  code target with id (BINARY_OP_IC)  (0x3ea741e17aa0) (id=130)
0x3ea741e3a729  position  (714)
0x3ea741e3a72d  statement position  (633)
0x3ea741e3a72d  position  (632)
0x3ea741e3a74a  code target (STUB)  (0x3ea741e22a20)
0x3ea741e3a74e  position  (633)
0x3ea741e3a75c  code target with id (BINARY_OP_IC)  (0x3ea741e17aa0) (id=60)
0x3ea741e3a768  embedded object  (0x39136d3ed8f1 Cell for 6144)
0x3ea741e3a777  code target (BUILTIN)  (0x3ea741e36300)
0x3ea741e3a77d  embedded object  (0x39136d3ed8f1 Cell for 6144)
0x3ea741e3a793  statement position  (626)
0x3ea741e3a793  position  (624)
0x3ea741e3a7bb  code target with id (COMPARE_IC)  (0x3ea741e26860) (id=49)
0x3ea741e3a7db  statement position  (745)
0x3ea741e3a7db  position  (752)
0x3ea741e3a7e1  embedded object  (0x39136d3ed8f1 Cell for 6144)
0x3ea741e3a7f1  code target (BUILTIN)  (0x3ea741e36300)
0x3ea741e3a7f8  embedded object  (0x39136d3ed8f1 Cell for 6144)
0x3ea741e3a80e  statement position  (757)

--- End code ---
--- Raw source ---
(h){
var i=(typeof(this)==='number')?this:%non_number_to_number(this);
if(!(typeof(h)==='number'))h=%non_number_to_number(h);
return %NumberShl(i,h);
}


--- Code ---
source_position = 6434
kind = FUNCTION
name = SHL
compiler = full-codegen
Instructions (size = 316)
0x3ea741e3a980     0  55             push rbp                ;; debug: position 6434
0x3ea741e3a981     1  4889e5         REX.W movq rbp,rsp
0x3ea741e3a984     4  56             push rsi
0x3ea741e3a985     5  57             push rdi
0x3ea741e3a986     6  41ff75a8       push [r13-0x58]
0x3ea741e3a98a    10  493ba540090000 REX.W cmpq rsp,[r13+0x940]
0x3ea741e3a991    17  7305           jnc 24  (0x3ea741e3a998)
0x3ea741e3a993    19  e8a8baffff     call StackCheck  (0x3ea741e36440)    ;; code: BUILTIN
0x3ea741e3a998    24  488b4518       REX.W movq rax,[rbp+0x18]    ;; debug: statement 6439
                                                             ;; debug: position 6453
0x3ea741e3a99c    28  eb0f           jmp 45  (0x3ea741e3a9ad)
0x3ea741e3a99e    30  493b45c0       REX.W cmpq rax,[r13-0x40]
0x3ea741e3a9a2    34  0f841b000000   jz 67  (0x3ea741e3a9c3)
0x3ea741e3a9a8    40  e91f000000     jmp 76  (0x3ea741e3a9cc)
0x3ea741e3a9ad    45  a801           test al,0x1
0x3ea741e3a9af    47  0f840e000000   jz 67  (0x3ea741e3a9c3)
0x3ea741e3a9b5    53  488b40ff       REX.W movq rax,[rax-0x1]
0x3ea741e3a9b9    57  493b4508       REX.W cmpq rax,[r13+0x8]
0x3ea741e3a9bd    61  0f8509000000   jnz 76  (0x3ea741e3a9cc)
0x3ea741e3a9c3    67  488b4518       REX.W movq rax,[rbp+0x18]    ;; debug: position 6471
0x3ea741e3a9c7    71  e930000000     jmp 124  (0x3ea741e3a9fc)
0x3ea741e3a9cc    76  41ff75a8       push [r13-0x58]         ;; debug: position 6476
0x3ea741e3a9d0    80  488b4627       REX.W movq rax,[rsi+0x27]
0x3ea741e3a9d4    84  488b401f       REX.W movq rax,[rax+0x1f]
0x3ea741e3a9d8    88  488b80d7020000 REX.W movq rax,[rax+0x2d7]
0x3ea741e3a9df    95  ff3424         push [rsp]
0x3ea741e3a9e2    98  4889442408     REX.W movq [rsp+0x8],rax
0x3ea741e3a9e7   103  ff7518         push [rbp+0x18]         ;; debug: position 6498
0x3ea741e3a9ea   106  488b7c2410     REX.W movq rdi,[rsp+0x10]    ;; debug: position 6476
0x3ea741e3a9ef   111  e82c55ffff     call 0x3ea741e2ff20     ;; code: STUB, CallFunctionStub, minor: 4
0x3ea741e3a9f4   116  488b75f8       REX.W movq rsi,[rbp-0x8]
0x3ea741e3a9f8   120  4883c408       REX.W addq rsp,0x8
0x3ea741e3a9fc   124  488945e8       REX.W movq [rbp-0x18],rax    ;; debug: position 6439
0x3ea741e3aa00   128  488b4510       REX.W movq rax,[rbp+0x10]    ;; debug: statement 6505
                                                             ;; debug: position 6517
0x3ea741e3aa04   132  eb0f           jmp 149  (0x3ea741e3aa15)
0x3ea741e3aa06   134  493b45c0       REX.W cmpq rax,[r13-0x40]
0x3ea741e3aa0a   138  0f844f000000   jz 223  (0x3ea741e3aa5f)
0x3ea741e3aa10   144  e916000000     jmp 171  (0x3ea741e3aa2b)
0x3ea741e3aa15   149  a801           test al,0x1
0x3ea741e3aa17   151  0f8442000000   jz 223  (0x3ea741e3aa5f)
0x3ea741e3aa1d   157  488b40ff       REX.W movq rax,[rax-0x1]
0x3ea741e3aa21   161  493b4508       REX.W cmpq rax,[r13+0x8]
0x3ea741e3aa25   165  0f8434000000   jz 223  (0x3ea741e3aa5f)
0x3ea741e3aa2b   171  41ff75a8       push [r13-0x58]         ;; debug: statement 6532
                                                             ;; debug: position 6533
0x3ea741e3aa2f   175  488b4627       REX.W movq rax,[rsi+0x27]
0x3ea741e3aa33   179  488b401f       REX.W movq rax,[rax+0x1f]
0x3ea741e3aa37   183  488b80d7020000 REX.W movq rax,[rax+0x2d7]
0x3ea741e3aa3e   190  ff3424         push [rsp]
0x3ea741e3aa41   193  4889442408     REX.W movq [rsp+0x8],rax
0x3ea741e3aa46   198  ff7510         push [rbp+0x10]         ;; debug: position 6556
0x3ea741e3aa49   201  488b7c2410     REX.W movq rdi,[rsp+0x10]    ;; debug: position 6534
0x3ea741e3aa4e   206  e8cd54ffff     call 0x3ea741e2ff20     ;; code: STUB, CallFunctionStub, minor: 4
0x3ea741e3aa53   211  488b75f8       REX.W movq rsi,[rbp-0x8]
0x3ea741e3aa57   215  4883c408       REX.W addq rsp,0x8
0x3ea741e3aa5b   219  48894510       REX.W movq [rbp+0x10],rax    ;; debug: position 6533
0x3ea741e3aa5f   223  ff75e8         push [rbp-0x18]         ;; debug: statement 6560
                                                             ;; debug: position 6578
0x3ea741e3aa62   226  ff7510         push [rbp+0x10]         ;; debug: position 6580
0x3ea741e3aa65   229  b802000000     movl rax,0x2
0x3ea741e3aa6a   234  48bba037290100000000 REX.W movq rbx,0x12937a0
0x3ea741e3aa74   244  e8e7e0fcff     call 0x3ea741e08b60     ;; code: STUB, CEntryStub, minor: 0
0x3ea741e3aa79   249  48bb29da3e6d13390000 REX.W movq rbx,0x39136d3eda29    ;; object: 0x39136d3eda29 Cell for 6144
0x3ea741e3aa83   259  83430bff       addl [rbx+0xb],0xff
0x3ea741e3aa87   263  791f           jns 296  (0x3ea741e3aaa8)
0x3ea741e3aa89   265  50             push rax
0x3ea741e3aa8a   266  e871b8ffff     call InterruptCheck  (0x3ea741e36300)    ;; code: BUILTIN
0x3ea741e3aa8f   271  58             pop rax
0x3ea741e3aa90   272  48bb29da3e6d13390000 REX.W movq rbx,0x39136d3eda29    ;; object: 0x39136d3eda29 Cell for 6144
0x3ea741e3aa9a   282  49ba0000000000180000 REX.W movq r10,0x180000000000
0x3ea741e3aaa4   292  4c895307       REX.W movq [rbx+0x7],r10
0x3ea741e3aaa8   296  c9             leave                   ;; debug: statement 6584
0x3ea741e3aaa9   297  c21000         ret 0x10
0x3ea741e3aaac   300  498b45a8       REX.W movq rax,[r13-0x58]
0x3ea741e3aab0   304  e9c4ffffff     jmp 249  (0x3ea741e3aa79)
0x3ea741e3aab5   309  0f1f00         nop

Deoptimization Output Data (deopt points = 0)

Back edges (size = 0)
ast_id  pc_offset  loop_depth

0x39136d3eda89: [TypeFeedbackInfo]
 - ic_total_count: 0, ic_with_type_info_count: 0, ic_generic_count: 0

RelocInfo (size = 57)
0x3ea741e3a980  position  (6434)
0x3ea741e3a994  code target (BUILTIN)  (0x3ea741e36440)
0x3ea741e3a998  statement position  (6439)
0x3ea741e3a998  position  (6453)
0x3ea741e3a9c3  position  (6471)
0x3ea741e3a9cc  position  (6476)
0x3ea741e3a9e7  position  (6498)
0x3ea741e3a9ea  position  (6476)
0x3ea741e3a9f0  code target (STUB)  (0x3ea741e2ff20)
0x3ea741e3a9fc  position  (6439)
0x3ea741e3aa00  statement position  (6505)
0x3ea741e3aa00  position  (6517)
0x3ea741e3aa2b  statement position  (6532)
0x3ea741e3aa2b  position  (6533)
0x3ea741e3aa46  position  (6556)
0x3ea741e3aa49  position  (6534)
0x3ea741e3aa4f  code target (STUB)  (0x3ea741e2ff20)
0x3ea741e3aa5b  position  (6533)
0x3ea741e3aa5f  statement position  (6560)
0x3ea741e3aa5f  position  (6578)
0x3ea741e3aa62  position  (6580)
0x3ea741e3aa75  code target (STUB)  (0x3ea741e08b60)
0x3ea741e3aa7b  embedded object  (0x39136d3eda29 Cell for 6144)
0x3ea741e3aa8b  code target (BUILTIN)  (0x3ea741e36300)
0x3ea741e3aa92  embedded object  (0x39136d3eda29 Cell for 6144)
0x3ea741e3aaa8  statement position  (6584)

--- End code ---
--- Raw source ---
(h){
var i=(typeof(this)==='number')?this:%non_number_to_number(this);
if(!(typeof(h)==='number'))h=%non_number_to_number(h);
return %NumberMul(i,h);
}


--- Code ---
source_position = 4476
kind = FUNCTION
name = MUL
compiler = full-codegen
Instructions (size = 316)
0x3ea741e3ab20     0  55             push rbp                ;; debug: position 4476
0x3ea741e3ab21     1  4889e5         REX.W movq rbp,rsp
0x3ea741e3ab24     4  56             push rsi
0x3ea741e3ab25     5  57             push rdi
0x3ea741e3ab26     6  41ff75a8       push [r13-0x58]
0x3ea741e3ab2a    10  493ba540090000 REX.W cmpq rsp,[r13+0x940]
0x3ea741e3ab31    17  7305           jnc 24  (0x3ea741e3ab38)
0x3ea741e3ab33    19  e808b9ffff     call StackCheck  (0x3ea741e36440)    ;; code: BUILTIN
0x3ea741e3ab38    24  488b4518       REX.W movq rax,[rbp+0x18]    ;; debug: statement 4481
                                                             ;; debug: position 4495
0x3ea741e3ab3c    28  eb0f           jmp 45  (0x3ea741e3ab4d)
0x3ea741e3ab3e    30  493b45c0       REX.W cmpq rax,[r13-0x40]
0x3ea741e3ab42    34  0f841b000000   jz 67  (0x3ea741e3ab63)
0x3ea741e3ab48    40  e91f000000     jmp 76  (0x3ea741e3ab6c)
0x3ea741e3ab4d    45  a801           test al,0x1
0x3ea741e3ab4f    47  0f840e000000   jz 67  (0x3ea741e3ab63)
0x3ea741e3ab55    53  488b40ff       REX.W movq rax,[rax-0x1]
0x3ea741e3ab59    57  493b4508       REX.W cmpq rax,[r13+0x8]
0x3ea741e3ab5d    61  0f8509000000   jnz 76  (0x3ea741e3ab6c)
0x3ea741e3ab63    67  488b4518       REX.W movq rax,[rbp+0x18]    ;; debug: position 4513
0x3ea741e3ab67    71  e930000000     jmp 124  (0x3ea741e3ab9c)
0x3ea741e3ab6c    76  41ff75a8       push [r13-0x58]         ;; debug: position 4518
0x3ea741e3ab70    80  488b4627       REX.W movq rax,[rsi+0x27]
0x3ea741e3ab74    84  488b401f       REX.W movq rax,[rax+0x1f]
0x3ea741e3ab78    88  488b80d7020000 REX.W movq rax,[rax+0x2d7]
0x3ea741e3ab7f    95  ff3424         push [rsp]
0x3ea741e3ab82    98  4889442408     REX.W movq [rsp+0x8],rax
0x3ea741e3ab87   103  ff7518         push [rbp+0x18]         ;; debug: position 4540
0x3ea741e3ab8a   106  488b7c2410     REX.W movq rdi,[rsp+0x10]    ;; debug: position 4518
0x3ea741e3ab8f   111  e88c53ffff     call 0x3ea741e2ff20     ;; code: STUB, CallFunctionStub, minor: 4
0x3ea741e3ab94   116  488b75f8       REX.W movq rsi,[rbp-0x8]
0x3ea741e3ab98   120  4883c408       REX.W addq rsp,0x8
0x3ea741e3ab9c   124  488945e8       REX.W movq [rbp-0x18],rax    ;; debug: position 4481
0x3ea741e3aba0   128  488b4510       REX.W movq rax,[rbp+0x10]    ;; debug: statement 4547
                                                             ;; debug: position 4559
0x3ea741e3aba4   132  eb0f           jmp 149  (0x3ea741e3abb5)
0x3ea741e3aba6   134  493b45c0       REX.W cmpq rax,[r13-0x40]
0x3ea741e3abaa   138  0f844f000000   jz 223  (0x3ea741e3abff)
0x3ea741e3abb0   144  e916000000     jmp 171  (0x3ea741e3abcb)
0x3ea741e3abb5   149  a801           test al,0x1
0x3ea741e3abb7   151  0f8442000000   jz 223  (0x3ea741e3abff)
0x3ea741e3abbd   157  488b40ff       REX.W movq rax,[rax-0x1]
0x3ea741e3abc1   161  493b4508       REX.W cmpq rax,[r13+0x8]
0x3ea741e3abc5   165  0f8434000000   jz 223  (0x3ea741e3abff)
0x3ea741e3abcb   171  41ff75a8       push [r13-0x58]         ;; debug: statement 4574
                                                             ;; debug: position 4575
0x3ea741e3abcf   175  488b4627       REX.W movq rax,[rsi+0x27]
0x3ea741e3abd3   179  488b401f       REX.W movq rax,[rax+0x1f]
0x3ea741e3abd7   183  488b80d7020000 REX.W movq rax,[rax+0x2d7]
0x3ea741e3abde   190  ff3424         push [rsp]
0x3ea741e3abe1   193  4889442408     REX.W movq [rsp+0x8],rax
0x3ea741e3abe6   198  ff7510         push [rbp+0x10]         ;; debug: position 4598
0x3ea741e3abe9   201  488b7c2410     REX.W movq rdi,[rsp+0x10]    ;; debug: position 4576
0x3ea741e3abee   206  e82d53ffff     call 0x3ea741e2ff20     ;; code: STUB, CallFunctionStub, minor: 4
0x3ea741e3abf3   211  488b75f8       REX.W movq rsi,[rbp-0x8]
0x3ea741e3abf7   215  4883c408       REX.W addq rsp,0x8
0x3ea741e3abfb   219  48894510       REX.W movq [rbp+0x10],rax    ;; debug: position 4575
0x3ea741e3abff   223  ff75e8         push [rbp-0x18]         ;; debug: statement 4602
                                                             ;; debug: position 4620
0x3ea741e3ac02   226  ff7510         push [rbp+0x10]         ;; debug: position 4622
0x3ea741e3ac05   229  b802000000     movl rax,0x2
0x3ea741e3ac0a   234  48bb702a290100000000 REX.W movq rbx,0x1292a70
0x3ea741e3ac14   244  e847dffcff     call 0x3ea741e08b60     ;; code: STUB, CEntryStub, minor: 0
0x3ea741e3ac19   249  48bb09db3e6d13390000 REX.W movq rbx,0x39136d3edb09    ;; object: 0x39136d3edb09 Cell for 6144
0x3ea741e3ac23   259  83430bff       addl [rbx+0xb],0xff
0x3ea741e3ac27   263  791f           jns 296  (0x3ea741e3ac48)
0x3ea741e3ac29   265  50             push rax
0x3ea741e3ac2a   266  e8d1b6ffff     call InterruptCheck  (0x3ea741e36300)    ;; code: BUILTIN
0x3ea741e3ac2f   271  58             pop rax
0x3ea741e3ac30   272  48bb09db3e6d13390000 REX.W movq rbx,0x39136d3edb09    ;; object: 0x39136d3edb09 Cell for 6144
0x3ea741e3ac3a   282  49ba0000000000180000 REX.W movq r10,0x180000000000
0x3ea741e3ac44   292  4c895307       REX.W movq [rbx+0x7],r10
0x3ea741e3ac48   296  c9             leave                   ;; debug: statement 4626
0x3ea741e3ac49   297  c21000         ret 0x10
0x3ea741e3ac4c   300  498b45a8       REX.W movq rax,[r13-0x58]
0x3ea741e3ac50   304  e9c4ffffff     jmp 249  (0x3ea741e3ac19)
0x3ea741e3ac55   309  0f1f00         nop

Deoptimization Output Data (deopt points = 0)

Back edges (size = 0)
ast_id  pc_offset  loop_depth

0x39136d3edb69: [TypeFeedbackInfo]
 - ic_total_count: 0, ic_with_type_info_count: 0, ic_generic_count: 0

RelocInfo (size = 57)
0x3ea741e3ab20  position  (4476)
0x3ea741e3ab34  code target (BUILTIN)  (0x3ea741e36440)
0x3ea741e3ab38  statement position  (4481)
0x3ea741e3ab38  position  (4495)
0x3ea741e3ab63  position  (4513)
0x3ea741e3ab6c  position  (4518)
0x3ea741e3ab87  position  (4540)
0x3ea741e3ab8a  position  (4518)
0x3ea741e3ab90  code target (STUB)  (0x3ea741e2ff20)
0x3ea741e3ab9c  position  (4481)
0x3ea741e3aba0  statement position  (4547)
0x3ea741e3aba0  position  (4559)
0x3ea741e3abcb  statement position  (4574)
0x3ea741e3abcb  position  (4575)
0x3ea741e3abe6  position  (4598)
0x3ea741e3abe9  position  (4576)
0x3ea741e3abef  code target (STUB)  (0x3ea741e2ff20)
0x3ea741e3abfb  position  (4575)
0x3ea741e3abff  statement position  (4602)
0x3ea741e3abff  position  (4620)
0x3ea741e3ac02  position  (4622)
0x3ea741e3ac15  code target (STUB)  (0x3ea741e08b60)
0x3ea741e3ac1b  embedded object  (0x39136d3edb09 Cell for 6144)
0x3ea741e3ac2b  code target (BUILTIN)  (0x3ea741e36300)
0x3ea741e3ac32  embedded object  (0x39136d3edb09 Cell for 6144)
0x3ea741e3ac48  statement position  (4626)

--- End code ---
--- Raw source ---
(m, isPrime){
   var i, k, count;

   for (i=2; i<=m; i++) { isPrime[i] = true; }
   count = 0;

   for (i=2; i<=m; i++){
      if (isPrime[i]) {
         for (k=i+i; k<=m; k+=i) isPrime[k] = false;
         count++;
      }
   }
   return count;
}


--- Code ---
source_position = 318
kind = FUNCTION
name = nsieve
compiler = full-codegen
Instructions (size = 872)
0x3ea741e3acc0     0  55             push rbp                ;; debug: position 318
0x3ea741e3acc1     1  4889e5         REX.W movq rbp,rsp
0x3ea741e3acc4     4  56             push rsi
0x3ea741e3acc5     5  57             push rdi
0x3ea741e3acc6     6  498b55a8       REX.W movq rdx,[r13-0x58]
0x3ea741e3acca    10  52             push rdx
0x3ea741e3accb    11  52             push rdx
0x3ea741e3accc    12  52             push rdx
0x3ea741e3accd    13  493ba540090000 REX.W cmpq rsp,[r13+0x940]
0x3ea741e3acd4    20  7305           jnc 27  (0x3ea741e3acdb)
0x3ea741e3acd6    22  e865b7ffff     call StackCheck  (0x3ea741e36440)    ;; code: BUILTIN
0x3ea741e3acdb    27  48b80000000002000000 REX.W movq rax,0x200000000    ;; debug: statement 335
                                                             ;; debug: statement 356
                                                             ;; debug: statement 361
                                                             ;; debug: position 362
0x3ea741e3ace5    37  488945e8       REX.W movq [rbp-0x18],rax
0x3ea741e3ace9    41  e97d000000     jmp 171  (0x3ea741e3ad6b)
0x3ea741e3acee    46  ff7510         push [rbp+0x10]         ;; debug: statement 379
                                                             ;; debug: position 379
0x3ea741e3acf1    49  ff75e8         push [rbp-0x18]         ;; debug: position 387
0x3ea741e3acf4    52  48b83142306d13390000 REX.W movq rax,0x39136d304231    ;; object: 0x39136d304231 <true>
0x3ea741e3acfe    62  59             pop rcx                 ;; debug: position 390
0x3ea741e3acff    63  5a             pop rdx
0x3ea741e3ad00    64  e8db96ffff     call KeyedStoreIC_Initialize  (0x3ea741e343e0)    ;; code: KEYED_STORE_IC, UNINITIALIZED (id = 55)
0x3ea741e3ad05    69  488b45e8       REX.W movq rax,[rbp-0x18]    ;; debug: statement 373
                                                             ;; debug: position 372
0x3ea741e3ad09    73  a801           test al,0x1
0x3ea741e3ad0b    75  7314           jnc 97  (0x3ea741e3ad21)
0x3ea741e3ad0d    77  49ba0000000001000000 REX.W movq r10,0x100000000
0x3ea741e3ad17    87  4903c2         REX.W addq rax,r10
0x3ea741e3ad1a    90  711e           jno 122  (0x3ea741e3ad3a)
0x3ea741e3ad1c    92  492bc2         REX.W subq rax,r10
0x3ea741e3ad1f    95  eb05           jmp 102  (0x3ea741e3ad26)
0x3ea741e3ad21    97  e8fa7cfeff     call 0x3ea741e22a20     ;; code: STUB, ToNumberStub, minor: 0
0x3ea741e3ad26   102  488bd0         REX.W movq rdx,rax      ;; debug: position 373
0x3ea741e3ad29   105  48b80000000001000000 REX.W movq rax,0x100000000
0x3ea741e3ad33   115  e868cdfdff     call 0x3ea741e17aa0     ;; code: BINARY_OP_IC, UNINITIALIZED (id = 44)
0x3ea741e3ad38   120  a82d           test al,0x2d
0x3ea741e3ad3a   122  488945e8       REX.W movq [rbp-0x18],rax
0x3ea741e3ad3e   126  48bb79dc3e6d13390000 REX.W movq rbx,0x39136d3edc79    ;; object: 0x39136d3edc79 Cell for 6144
0x3ea741e3ad48   136  83430bff       addl [rbx+0xb],0xff
0x3ea741e3ad4c   140  791d           jns 171  (0x3ea741e3ad6b)
0x3ea741e3ad4e   142  e8adb5ffff     call InterruptCheck  (0x3ea741e36300)    ;; code: BUILTIN
0x3ea741e3ad53   147  48bb79dc3e6d13390000 REX.W movq rbx,0x39136d3edc79    ;; object: 0x39136d3edc79 Cell for 6144
0x3ea741e3ad5d   157  49ba0000000000180000 REX.W movq r10,0x180000000000
0x3ea741e3ad67   167  4c895307       REX.W movq [rbx+0x7],r10
0x3ea741e3ad6b   171  ff75e8         push [rbp-0x18]         ;; debug: statement 367
                                                             ;; debug: position 366
0x3ea741e3ad6e   174  488b4518       REX.W movq rax,[rbp+0x18]    ;; debug: position 369
0x3ea741e3ad72   178  5a             pop rdx
0x3ea741e3ad73   179  488bca         REX.W movq rcx,rdx
0x3ea741e3ad76   182  480bc8         REX.W orq rcx,rax
0x3ea741e3ad79   185  f6c101         testb rcx,0x1
0x3ea741e3ad7c   188  730e           jnc 204  (0x3ea741e3ad8c)
0x3ea741e3ad7e   190  483bd0         REX.W cmpq rdx,rax
0x3ea741e3ad81   193  0f8e67ffffff   jle 46  (0x3ea741e3acee)
0x3ea741e3ad87   199  e921000000     jmp 237  (0x3ea741e3adad)
0x3ea741e3ad8c   204  e8cfbafeff     call 0x3ea741e26860     ;; code: COMPARE_IC, UNINITIALIZED (id = 33)
0x3ea741e3ad91   209  a815           test al,0x15
0x3ea741e3ad93   211  eb0f           jmp 228  (0x3ea741e3ada4)
0x3ea741e3ad95   213  493b45c0       REX.W cmpq rax,[r13-0x40]
0x3ea741e3ad99   217  0f844fffffff   jz 46  (0x3ea741e3acee)
0x3ea741e3ad9f   223  e909000000     jmp 237  (0x3ea741e3adad)
0x3ea741e3ada4   228  4885c0         REX.W testq rax,rax
0x3ea741e3ada7   231  0f8e41ffffff   jle 46  (0x3ea741e3acee)
0x3ea741e3adad   237  48b80000000000000000 REX.W movq rax,(nil)    ;; debug: statement 403
                                                             ;; debug: position 409
0x3ea741e3adb7   247  488945d8       REX.W movq [rbp-0x28],rax
0x3ea741e3adbb   251  48b80000000002000000 REX.W movq rax,0x200000000    ;; debug: statement 418
                                                             ;; debug: statement 423
                                                             ;; debug: position 424
0x3ea741e3adc5   261  488945e8       REX.W movq [rbp-0x18],rax
0x3ea741e3adc9   265  e9b0010000     jmp 702  (0x3ea741e3af7e)
0x3ea741e3adce   270  ff7510         push [rbp+0x10]         ;; debug: statement 446
                                                             ;; debug: position 450
0x3ea741e3add1   273  488b45e8       REX.W movq rax,[rbp-0x18]    ;; debug: position 458
0x3ea741e3add5   277  488bc8         REX.W movq rcx,rax
0x3ea741e3add8   280  5a             pop rdx
0x3ea741e3add9   281  48b80000000004000000 REX.W movq rax,0x400000000    ;; debug: position 457
0x3ea741e3ade3   291  e81807feff     call 0x3ea741e1b500     ;; code: KEYED_LOAD_IC, DEFAULT
0x3ea741e3ade8   296  e873a0feff     call 0x3ea741e24e60     ;; code: TO_BOOLEAN_IC, UNINITIALIZED (id = 118)
0x3ea741e3aded   301  4885c0         REX.W testq rax,rax
0x3ea741e3adf0   304  0f8422010000   jz 600  (0x3ea741e3af18)
0x3ea741e3adf6   310  ff75e8         push [rbp-0x18]         ;; debug: statement 473
                                                             ;; debug: statement 478
                                                             ;; debug: position 480
0x3ea741e3adf9   313  488b45e8       REX.W movq rax,[rbp-0x18]    ;; debug: position 482
0x3ea741e3adfd   317  5a             pop rdx                 ;; debug: position 481
0x3ea741e3adfe   318  488bc8         REX.W movq rcx,rax
0x3ea741e3ae01   321  480bc2         REX.W orq rax,rdx
0x3ea741e3ae04   324  a801           test al,0x1
0x3ea741e3ae06   326  720c           jc 340  (0x3ea741e3ae14)
0x3ea741e3ae08   328  488bc1         REX.W movq rax,rcx
0x3ea741e3ae0b   331  e890ccfdff     call 0x3ea741e17aa0     ;; code: BINARY_OP_IC, UNINITIALIZED (id = 144)
0x3ea741e3ae10   336  a80a           test al,0xa
0x3ea741e3ae12   338  eb0c           jmp 352  (0x3ea741e3ae20)
0x3ea741e3ae14   340  488bc2         REX.W movq rax,rdx
0x3ea741e3ae17   343  4803c1         REX.W addq rax,rcx
0x3ea741e3ae1a   346  0f80e8ffffff   jo 328  (0x3ea741e3ae08)
0x3ea741e3ae20   352  488945e0       REX.W movq [rbp-0x20],rax    ;; debug: position 479
0x3ea741e3ae24   356  e974000000     jmp 477  (0x3ea741e3ae9d)
0x3ea741e3ae29   361  ff7510         push [rbp+0x10]         ;; debug: statement 497
                                                             ;; debug: position 497
0x3ea741e3ae2c   364  ff75e0         push [rbp-0x20]         ;; debug: position 505
0x3ea741e3ae2f   367  48b89942306d13390000 REX.W movq rax,0x39136d304299    ;; object: 0x39136d304299 <false>
0x3ea741e3ae39   377  59             pop rcx                 ;; debug: position 508
0x3ea741e3ae3a   378  5a             pop rdx
0x3ea741e3ae3b   379  e8a095ffff     call KeyedStoreIC_Initialize  (0x3ea741e343e0)    ;; code: KEYED_STORE_IC, UNINITIALIZED (id = 183)
0x3ea741e3ae40   384  488b45e0       REX.W movq rax,[rbp-0x20]    ;; debug: statement 492
                                                             ;; debug: position 491
0x3ea741e3ae44   388  50             push rax
0x3ea741e3ae45   389  488b45e8       REX.W movq rax,[rbp-0x18]    ;; debug: position 494
0x3ea741e3ae49   393  5a             pop rdx
0x3ea741e3ae4a   394  488bc8         REX.W movq rcx,rax
0x3ea741e3ae4d   397  480bc2         REX.W orq rax,rdx
0x3ea741e3ae50   400  a801           test al,0x1
0x3ea741e3ae52   402  720c           jc 416  (0x3ea741e3ae60)
0x3ea741e3ae54   404  488bc1         REX.W movq rax,rcx
0x3ea741e3ae57   407  e844ccfdff     call 0x3ea741e17aa0     ;; code: BINARY_OP_IC, UNINITIALIZED (id = 167)
0x3ea741e3ae5c   412  a80a           test al,0xa
0x3ea741e3ae5e   414  eb0c           jmp 428  (0x3ea741e3ae6c)
0x3ea741e3ae60   416  488bc2         REX.W movq rax,rdx
0x3ea741e3ae63   419  4803c1         REX.W addq rax,rcx
0x3ea741e3ae66   422  0f80e8ffffff   jo 404  (0x3ea741e3ae54)
0x3ea741e3ae6c   428  488945e0       REX.W movq [rbp-0x20],rax    ;; debug: position 492
0x3ea741e3ae70   432  48bb79dc3e6d13390000 REX.W movq rbx,0x39136d3edc79    ;; object: 0x39136d3edc79 Cell for 6144
0x3ea741e3ae7a   442  83430bff       addl [rbx+0xb],0xff
0x3ea741e3ae7e   446  791d           jns 477  (0x3ea741e3ae9d)
0x3ea741e3ae80   448  e87bb4ffff     call InterruptCheck  (0x3ea741e36300)    ;; code: BUILTIN
0x3ea741e3ae85   453  48bb79dc3e6d13390000 REX.W movq rbx,0x39136d3edc79    ;; object: 0x39136d3edc79 Cell for 6144
0x3ea741e3ae8f   463  49ba0000000000180000 REX.W movq r10,0x180000000000
0x3ea741e3ae99   473  4c895307       REX.W movq [rbx+0x7],r10
0x3ea741e3ae9d   477  ff75e0         push [rbp-0x20]         ;; debug: statement 486
                                                             ;; debug: position 485
0x3ea741e3aea0   480  488b4518       REX.W movq rax,[rbp+0x18]    ;; debug: position 488
0x3ea741e3aea4   484  5a             pop rdx
0x3ea741e3aea5   485  488bca         REX.W movq rcx,rdx
0x3ea741e3aea8   488  480bc8         REX.W orq rcx,rax
0x3ea741e3aeab   491  f6c101         testb rcx,0x1
0x3ea741e3aeae   494  730e           jnc 510  (0x3ea741e3aebe)
0x3ea741e3aeb0   496  483bd0         REX.W cmpq rdx,rax
0x3ea741e3aeb3   499  0f8e70ffffff   jle 361  (0x3ea741e3ae29)
0x3ea741e3aeb9   505  e921000000     jmp 543  (0x3ea741e3aedf)
0x3ea741e3aebe   510  e89db9feff     call 0x3ea741e26860     ;; code: COMPARE_IC, UNINITIALIZED (id = 153)
0x3ea741e3aec3   515  a815           test al,0x15
0x3ea741e3aec5   517  eb0f           jmp 534  (0x3ea741e3aed6)
0x3ea741e3aec7   519  493b45c0       REX.W cmpq rax,[r13-0x40]
0x3ea741e3aecb   523  0f8458ffffff   jz 361  (0x3ea741e3ae29)
0x3ea741e3aed1   529  e909000000     jmp 543  (0x3ea741e3aedf)
0x3ea741e3aed6   534  4885c0         REX.W testq rax,rax
0x3ea741e3aed9   537  0f8e4affffff   jle 361  (0x3ea741e3ae29)
0x3ea741e3aedf   543  488b45d8       REX.W movq rax,[rbp-0x28]    ;; debug: statement 526
0x3ea741e3aee3   547  a801           test al,0x1
0x3ea741e3aee5   549  7314           jnc 571  (0x3ea741e3aefb)
0x3ea741e3aee7   551  49ba0000000001000000 REX.W movq r10,0x100000000
0x3ea741e3aef1   561  4903c2         REX.W addq rax,r10
0x3ea741e3aef4   564  711e           jno 596  (0x3ea741e3af14)
0x3ea741e3aef6   566  492bc2         REX.W subq rax,r10
0x3ea741e3aef9   569  eb05           jmp 576  (0x3ea741e3af00)
0x3ea741e3aefb   571  e8207bfeff     call 0x3ea741e22a20     ;; code: STUB, ToNumberStub, minor: 0
0x3ea741e3af00   576  488bd0         REX.W movq rdx,rax      ;; debug: position 531
0x3ea741e3af03   579  48b80000000001000000 REX.W movq rax,0x100000000
0x3ea741e3af0d   589  e88ecbfdff     call 0x3ea741e17aa0     ;; code: BINARY_OP_IC, UNINITIALIZED (id = 200)
0x3ea741e3af12   594  a82d           test al,0x2d
0x3ea741e3af14   596  488945d8       REX.W movq [rbp-0x28],rax
0x3ea741e3af18   600  488b45e8       REX.W movq rax,[rbp-0x18]    ;; debug: statement 435
                                                             ;; debug: position 434
0x3ea741e3af1c   604  a801           test al,0x1
0x3ea741e3af1e   606  7314           jnc 628  (0x3ea741e3af34)
0x3ea741e3af20   608  49ba0000000001000000 REX.W movq r10,0x100000000
0x3ea741e3af2a   618  4903c2         REX.W addq rax,r10
0x3ea741e3af2d   621  711e           jno 653  (0x3ea741e3af4d)
0x3ea741e3af2f   623  492bc2         REX.W subq rax,r10
0x3ea741e3af32   626  eb05           jmp 633  (0x3ea741e3af39)
0x3ea741e3af34   628  e8e77afeff     call 0x3ea741e22a20     ;; code: STUB, ToNumberStub, minor: 0
0x3ea741e3af39   633  488bd0         REX.W movq rdx,rax      ;; debug: position 435
0x3ea741e3af3c   636  48b80000000001000000 REX.W movq rax,0x100000000
0x3ea741e3af46   646  e855cbfdff     call 0x3ea741e17aa0     ;; code: BINARY_OP_IC, UNINITIALIZED (id = 106)
0x3ea741e3af4b   651  a82d           test al,0x2d
0x3ea741e3af4d   653  488945e8       REX.W movq [rbp-0x18],rax
0x3ea741e3af51   657  48bb79dc3e6d13390000 REX.W movq rbx,0x39136d3edc79    ;; object: 0x39136d3edc79 Cell for 6144
0x3ea741e3af5b   667  83430bfe       addl [rbx+0xb],0xfe
0x3ea741e3af5f   671  791d           jns 702  (0x3ea741e3af7e)
0x3ea741e3af61   673  e89ab3ffff     call InterruptCheck  (0x3ea741e36300)    ;; code: BUILTIN
0x3ea741e3af66   678  48bb79dc3e6d13390000 REX.W movq rbx,0x39136d3edc79    ;; object: 0x39136d3edc79 Cell for 6144
0x3ea741e3af70   688  49ba0000000000180000 REX.W movq r10,0x180000000000
0x3ea741e3af7a   698  4c895307       REX.W movq [rbx+0x7],r10
0x3ea741e3af7e   702  ff75e8         push [rbp-0x18]         ;; debug: statement 429
                                                             ;; debug: position 428
0x3ea741e3af81   705  488b4518       REX.W movq rax,[rbp+0x18]    ;; debug: position 431
0x3ea741e3af85   709  5a             pop rdx
0x3ea741e3af86   710  488bca         REX.W movq rcx,rdx
0x3ea741e3af89   713  480bc8         REX.W orq rcx,rax
0x3ea741e3af8c   716  f6c101         testb rcx,0x1
0x3ea741e3af8f   719  730e           jnc 735  (0x3ea741e3af9f)
0x3ea741e3af91   721  483bd0         REX.W cmpq rdx,rax
0x3ea741e3af94   724  0f8e34feffff   jle 270  (0x3ea741e3adce)
0x3ea741e3af9a   730  e921000000     jmp 768  (0x3ea741e3afc0)
0x3ea741e3af9f   735  e8bcb8feff     call 0x3ea741e26860     ;; code: COMPARE_IC, UNINITIALIZED (id = 95)
0x3ea741e3afa4   740  a815           test al,0x15
0x3ea741e3afa6   742  eb0f           jmp 759  (0x3ea741e3afb7)
0x3ea741e3afa8   744  493b45c0       REX.W cmpq rax,[r13-0x40]
0x3ea741e3afac   748  0f841cfeffff   jz 270  (0x3ea741e3adce)
0x3ea741e3afb2   754  e909000000     jmp 768  (0x3ea741e3afc0)
0x3ea741e3afb7   759  4885c0         REX.W testq rax,rax
0x3ea741e3afba   762  0f8e0efeffff   jle 270  (0x3ea741e3adce)
0x3ea741e3afc0   768  488b45d8       REX.W movq rax,[rbp-0x28]    ;; debug: statement 551
                                                             ;; debug: position 558
0x3ea741e3afc4   772  48bb79dc3e6d13390000 REX.W movq rbx,0x39136d3edc79    ;; object: 0x39136d3edc79 Cell for 6144
0x3ea741e3afce   782  83430bfc       addl [rbx+0xb],0xfc
0x3ea741e3afd2   786  791f           jns 819  (0x3ea741e3aff3)
0x3ea741e3afd4   788  50             push rax
0x3ea741e3afd5   789  e826b3ffff     call InterruptCheck  (0x3ea741e36300)    ;; code: BUILTIN
0x3ea741e3afda   794  58             pop rax
0x3ea741e3afdb   795  48bb79dc3e6d13390000 REX.W movq rbx,0x39136d3edc79    ;; object: 0x39136d3edc79 Cell for 6144
0x3ea741e3afe5   805  49ba0000000000180000 REX.W movq r10,0x180000000000
0x3ea741e3afef   815  4c895307       REX.W movq [rbx+0x7],r10
0x3ea741e3aff3   819  c9             leave                   ;; debug: statement 565
0x3ea741e3aff4   820  c21800         ret 0x18
0x3ea741e3aff7   823  498b45a8       REX.W movq rax,[r13-0x58]
0x3ea741e3affb   827  e9c4ffffff     jmp 772  (0x3ea741e3afc4)

Deoptimization Output Data (deopt points = 0)

Back edges (size = 3)
ast_id  pc_offset  loop_depth
    18        147           1
   131        453           2
    80        678           1

0x39136d3edd59: [TypeFeedbackInfo]
 - ic_total_count: 12, ic_with_type_info_count: 0, ic_generic_count: 0

RelocInfo (size = 185)
0x3ea741e3acc0  position  (318)
0x3ea741e3acd7  code target (BUILTIN)  (0x3ea741e36440)
0x3ea741e3acdb  statement position  (335)
0x3ea741e3acdb  statement position  (356)
0x3ea741e3acdb  statement position  (361)
0x3ea741e3acdb  position  (362)
0x3ea741e3acee  statement position  (379)
0x3ea741e3acee  position  (379)
0x3ea741e3acf1  position  (387)
0x3ea741e3acf6  embedded object  (0x39136d304231 <true>)
0x3ea741e3acfe  position  (390)
0x3ea741e3ad01  code target with id (KEYED_STORE_IC)  (0x3ea741e343e0) (id=55)
0x3ea741e3ad05  statement position  (373)
0x3ea741e3ad05  position  (372)
0x3ea741e3ad22  code target (STUB)  (0x3ea741e22a20)
0x3ea741e3ad26  position  (373)
0x3ea741e3ad34  code target with id (BINARY_OP_IC)  (0x3ea741e17aa0) (id=44)
0x3ea741e3ad40  embedded object  (0x39136d3edc79 Cell for 6144)
0x3ea741e3ad4f  code target (BUILTIN)  (0x3ea741e36300)
0x3ea741e3ad55  embedded object  (0x39136d3edc79 Cell for 6144)
0x3ea741e3ad6b  statement position  (367)
0x3ea741e3ad6b  position  (366)
0x3ea741e3ad6e  position  (369)
0x3ea741e3ad8d  code target with id (COMPARE_IC)  (0x3ea741e26860) (id=33)
0x3ea741e3adad  statement position  (403)
0x3ea741e3adad  position  (409)
0x3ea741e3adbb  statement position  (418)
0x3ea741e3adbb  statement position  (423)
0x3ea741e3adbb  position  (424)
0x3ea741e3adce  statement position  (446)
0x3ea741e3adce  position  (450)
0x3ea741e3add1  position  (458)
0x3ea741e3add9  position  (457)
0x3ea741e3ade4  code target (KEYED_LOAD_IC)  (0x3ea741e1b500)
0x3ea741e3ade9  code target with id (TO_BOOLEAN_IC)  (0x3ea741e24e60) (id=118)
0x3ea741e3adf6  statement position  (473)
0x3ea741e3adf6  statement position  (478)
0x3ea741e3adf6  position  (480)
0x3ea741e3adf9  position  (482)
0x3ea741e3adfd  position  (481)
0x3ea741e3ae0c  code target with id (BINARY_OP_IC)  (0x3ea741e17aa0) (id=144)
0x3ea741e3ae20  position  (479)
0x3ea741e3ae29  statement position  (497)
0x3ea741e3ae29  position  (497)
0x3ea741e3ae2c  position  (505)
0x3ea741e3ae31  embedded object  (0x39136d304299 <false>)
0x3ea741e3ae39  position  (508)
0x3ea741e3ae3c  code target with id (KEYED_STORE_IC)  (0x3ea741e343e0) (id=183)
0x3ea741e3ae40  statement position  (492)
0x3ea741e3ae40  position  (491)
0x3ea741e3ae45  position  (494)
0x3ea741e3ae58  code target with id (BINARY_OP_IC)  (0x3ea741e17aa0) (id=167)
0x3ea741e3ae6c  position  (492)
0x3ea741e3ae72  embedded object  (0x39136d3edc79 Cell for 6144)
0x3ea741e3ae81  code target (BUILTIN)  (0x3ea741e36300)
0x3ea741e3ae87  embedded object  (0x39136d3edc79 Cell for 6144)
0x3ea741e3ae9d  statement position  (486)
0x3ea741e3ae9d  position  (485)
0x3ea741e3aea0  position  (488)
0x3ea741e3aebf  code target with id (COMPARE_IC)  (0x3ea741e26860) (id=153)
0x3ea741e3aedf  statement position  (526)
0x3ea741e3aefc  code target (STUB)  (0x3ea741e22a20)
0x3ea741e3af00  position  (531)
0x3ea741e3af0e  code target with id (BINARY_OP_IC)  (0x3ea741e17aa0) (id=200)
0x3ea741e3af18  statement position  (435)
0x3ea741e3af18  position  (434)
0x3ea741e3af35  code target (STUB)  (0x3ea741e22a20)
0x3ea741e3af39  position  (435)
0x3ea741e3af47  code target with id (BINARY_OP_IC)  (0x3ea741e17aa0) (id=106)
0x3ea741e3af53  embedded object  (0x39136d3edc79 Cell for 6144)
0x3ea741e3af62  code target (BUILTIN)  (0x3ea741e36300)
0x3ea741e3af68  embedded object  (0x39136d3edc79 Cell for 6144)
0x3ea741e3af7e  statement position  (429)
0x3ea741e3af7e  position  (428)
0x3ea741e3af81  position  (431)
0x3ea741e3afa0  code target with id (COMPARE_IC)  (0x3ea741e26860) (id=95)
0x3ea741e3afc0  statement position  (551)
0x3ea741e3afc0  position  (558)
0x3ea741e3afc6  embedded object  (0x39136d3edc79 Cell for 6144)
0x3ea741e3afd6  code target (BUILTIN)  (0x3ea741e36300)
0x3ea741e3afdd  embedded object  (0x39136d3edc79 Cell for 6144)
0x3ea741e3aff3  statement position  (565)

--- End code ---
--- Raw source ---
(m, isPrime){
   var i, k, count;

   for (i=2; i<=m; i++) { isPrime[i] = true; }
   count = 0;

   for (i=2; i<=m; i++){
      if (isPrime[i]) {
         for (k=i+i; k<=m; k+=i) isPrime[k] = false;
         count++;
      }
   }
   return count;
}


--- Code ---
source_position = 318
kind = FUNCTION
name = nsieve
compiler = full-codegen
Instructions (size = 872)
0x3ea741e3b140     0  55             push rbp                ;; debug: position 318
0x3ea741e3b141     1  4889e5         REX.W movq rbp,rsp
0x3ea741e3b144     4  56             push rsi
0x3ea741e3b145     5  57             push rdi
0x3ea741e3b146     6  498b55a8       REX.W movq rdx,[r13-0x58]
0x3ea741e3b14a    10  52             push rdx
0x3ea741e3b14b    11  52             push rdx
0x3ea741e3b14c    12  52             push rdx
0x3ea741e3b14d    13  493ba540090000 REX.W cmpq rsp,[r13+0x940]
0x3ea741e3b154    20  7305           jnc 27  (0x3ea741e3b15b)
0x3ea741e3b156    22  e8e5b2ffff     call StackCheck  (0x3ea741e36440)    ;; code: BUILTIN
0x3ea741e3b15b    27  48b80000000002000000 REX.W movq rax,0x200000000    ;; debug: statement 335
                                                             ;; debug: statement 356
                                                             ;; debug: statement 361
                                                             ;; debug: position 362
0x3ea741e3b165    37  488945e8       REX.W movq [rbp-0x18],rax
0x3ea741e3b169    41  e97d000000     jmp 171  (0x3ea741e3b1eb)
0x3ea741e3b16e    46  ff7510         push [rbp+0x10]         ;; debug: statement 379
                                                             ;; debug: position 379
0x3ea741e3b171    49  ff75e8         push [rbp-0x18]         ;; debug: position 387
0x3ea741e3b174    52  48b83142306d13390000 REX.W movq rax,0x39136d304231    ;; object: 0x39136d304231 <true>
0x3ea741e3b17e    62  59             pop rcx                 ;; debug: position 390
0x3ea741e3b17f    63  5a             pop rdx
0x3ea741e3b180    64  e85b92ffff     call KeyedStoreIC_Initialize  (0x3ea741e343e0)    ;; code: KEYED_STORE_IC, UNINITIALIZED (id = 55)
0x3ea741e3b185    69  488b45e8       REX.W movq rax,[rbp-0x18]    ;; debug: statement 373
                                                             ;; debug: position 372
0x3ea741e3b189    73  a801           test al,0x1
0x3ea741e3b18b    75  7314           jnc 97  (0x3ea741e3b1a1)
0x3ea741e3b18d    77  49ba0000000001000000 REX.W movq r10,0x100000000
0x3ea741e3b197    87  4903c2         REX.W addq rax,r10
0x3ea741e3b19a    90  711e           jno 122  (0x3ea741e3b1ba)
0x3ea741e3b19c    92  492bc2         REX.W subq rax,r10
0x3ea741e3b19f    95  eb05           jmp 102  (0x3ea741e3b1a6)
0x3ea741e3b1a1    97  e87a78feff     call 0x3ea741e22a20     ;; code: STUB, ToNumberStub, minor: 0
0x3ea741e3b1a6   102  488bd0         REX.W movq rdx,rax      ;; debug: position 373
0x3ea741e3b1a9   105  48b80000000001000000 REX.W movq rax,0x100000000
0x3ea741e3b1b3   115  e8e8c8fdff     call 0x3ea741e17aa0     ;; code: BINARY_OP_IC, UNINITIALIZED (id = 44)
0x3ea741e3b1b8   120  a82d           test al,0x2d
0x3ea741e3b1ba   122  488945e8       REX.W movq [rbp-0x18],rax
0x3ea741e3b1be   126  48bb19de3e6d13390000 REX.W movq rbx,0x39136d3ede19    ;; object: 0x39136d3ede19 Cell for 6144
0x3ea741e3b1c8   136  83430bff       addl [rbx+0xb],0xff
0x3ea741e3b1cc   140  791d           jns 171  (0x3ea741e3b1eb)
0x3ea741e3b1ce   142  e82db1ffff     call InterruptCheck  (0x3ea741e36300)    ;; code: BUILTIN
0x3ea741e3b1d3   147  48bb19de3e6d13390000 REX.W movq rbx,0x39136d3ede19    ;; object: 0x39136d3ede19 Cell for 6144
0x3ea741e3b1dd   157  49ba0000000000180000 REX.W movq r10,0x180000000000
0x3ea741e3b1e7   167  4c895307       REX.W movq [rbx+0x7],r10
0x3ea741e3b1eb   171  ff75e8         push [rbp-0x18]         ;; debug: statement 367
                                                             ;; debug: position 366
0x3ea741e3b1ee   174  488b4518       REX.W movq rax,[rbp+0x18]    ;; debug: position 369
0x3ea741e3b1f2   178  5a             pop rdx
0x3ea741e3b1f3   179  488bca         REX.W movq rcx,rdx
0x3ea741e3b1f6   182  480bc8         REX.W orq rcx,rax
0x3ea741e3b1f9   185  f6c101         testb rcx,0x1
0x3ea741e3b1fc   188  730e           jnc 204  (0x3ea741e3b20c)
0x3ea741e3b1fe   190  483bd0         REX.W cmpq rdx,rax
0x3ea741e3b201   193  0f8e67ffffff   jle 46  (0x3ea741e3b16e)
0x3ea741e3b207   199  e921000000     jmp 237  (0x3ea741e3b22d)
0x3ea741e3b20c   204  e84fb6feff     call 0x3ea741e26860     ;; code: COMPARE_IC, UNINITIALIZED (id = 33)
0x3ea741e3b211   209  a815           test al,0x15
0x3ea741e3b213   211  eb0f           jmp 228  (0x3ea741e3b224)
0x3ea741e3b215   213  493b45c0       REX.W cmpq rax,[r13-0x40]
0x3ea741e3b219   217  0f844fffffff   jz 46  (0x3ea741e3b16e)
0x3ea741e3b21f   223  e909000000     jmp 237  (0x3ea741e3b22d)
0x3ea741e3b224   228  4885c0         REX.W testq rax,rax
0x3ea741e3b227   231  0f8e41ffffff   jle 46  (0x3ea741e3b16e)
0x3ea741e3b22d   237  48b80000000000000000 REX.W movq rax,(nil)    ;; debug: statement 403
                                                             ;; debug: position 409
0x3ea741e3b237   247  488945d8       REX.W movq [rbp-0x28],rax
0x3ea741e3b23b   251  48b80000000002000000 REX.W movq rax,0x200000000    ;; debug: statement 418
                                                             ;; debug: statement 423
                                                             ;; debug: position 424
0x3ea741e3b245   261  488945e8       REX.W movq [rbp-0x18],rax
0x3ea741e3b249   265  e9b0010000     jmp 702  (0x3ea741e3b3fe)
0x3ea741e3b24e   270  ff7510         push [rbp+0x10]         ;; debug: statement 446
                                                             ;; debug: position 450
0x3ea741e3b251   273  488b45e8       REX.W movq rax,[rbp-0x18]    ;; debug: position 458
0x3ea741e3b255   277  488bc8         REX.W movq rcx,rax
0x3ea741e3b258   280  5a             pop rdx
0x3ea741e3b259   281  48b80000000004000000 REX.W movq rax,0x400000000    ;; debug: position 457
0x3ea741e3b263   291  e89802feff     call 0x3ea741e1b500     ;; code: KEYED_LOAD_IC, DEFAULT
0x3ea741e3b268   296  e8f39bfeff     call 0x3ea741e24e60     ;; code: TO_BOOLEAN_IC, UNINITIALIZED (id = 118)
0x3ea741e3b26d   301  4885c0         REX.W testq rax,rax
0x3ea741e3b270   304  0f8422010000   jz 600  (0x3ea741e3b398)
0x3ea741e3b276   310  ff75e8         push [rbp-0x18]         ;; debug: statement 473
                                                             ;; debug: statement 478
                                                             ;; debug: position 480
0x3ea741e3b279   313  488b45e8       REX.W movq rax,[rbp-0x18]    ;; debug: position 482
0x3ea741e3b27d   317  5a             pop rdx                 ;; debug: position 481
0x3ea741e3b27e   318  488bc8         REX.W movq rcx,rax
0x3ea741e3b281   321  480bc2         REX.W orq rax,rdx
0x3ea741e3b284   324  a801           test al,0x1
0x3ea741e3b286   326  720c           jc 340  (0x3ea741e3b294)
0x3ea741e3b288   328  488bc1         REX.W movq rax,rcx
0x3ea741e3b28b   331  e810c8fdff     call 0x3ea741e17aa0     ;; code: BINARY_OP_IC, UNINITIALIZED (id = 144)
0x3ea741e3b290   336  a80a           test al,0xa
0x3ea741e3b292   338  eb0c           jmp 352  (0x3ea741e3b2a0)
0x3ea741e3b294   340  488bc2         REX.W movq rax,rdx
0x3ea741e3b297   343  4803c1         REX.W addq rax,rcx
0x3ea741e3b29a   346  0f80e8ffffff   jo 328  (0x3ea741e3b288)
0x3ea741e3b2a0   352  488945e0       REX.W movq [rbp-0x20],rax    ;; debug: position 479
0x3ea741e3b2a4   356  e974000000     jmp 477  (0x3ea741e3b31d)
0x3ea741e3b2a9   361  ff7510         push [rbp+0x10]         ;; debug: statement 497
                                                             ;; debug: position 497
0x3ea741e3b2ac   364  ff75e0         push [rbp-0x20]         ;; debug: position 505
0x3ea741e3b2af   367  48b89942306d13390000 REX.W movq rax,0x39136d304299    ;; object: 0x39136d304299 <false>
0x3ea741e3b2b9   377  59             pop rcx                 ;; debug: position 508
0x3ea741e3b2ba   378  5a             pop rdx
0x3ea741e3b2bb   379  e82091ffff     call KeyedStoreIC_Initialize  (0x3ea741e343e0)    ;; code: KEYED_STORE_IC, UNINITIALIZED (id = 183)
0x3ea741e3b2c0   384  488b45e0       REX.W movq rax,[rbp-0x20]    ;; debug: statement 492
                                                             ;; debug: position 491
0x3ea741e3b2c4   388  50             push rax
0x3ea741e3b2c5   389  488b45e8       REX.W movq rax,[rbp-0x18]    ;; debug: position 494
0x3ea741e3b2c9   393  5a             pop rdx
0x3ea741e3b2ca   394  488bc8         REX.W movq rcx,rax
0x3ea741e3b2cd   397  480bc2         REX.W orq rax,rdx
0x3ea741e3b2d0   400  a801           test al,0x1
0x3ea741e3b2d2   402  720c           jc 416  (0x3ea741e3b2e0)
0x3ea741e3b2d4   404  488bc1         REX.W movq rax,rcx
0x3ea741e3b2d7   407  e8c4c7fdff     call 0x3ea741e17aa0     ;; code: BINARY_OP_IC, UNINITIALIZED (id = 167)
0x3ea741e3b2dc   412  a80a           test al,0xa
0x3ea741e3b2de   414  eb0c           jmp 428  (0x3ea741e3b2ec)
0x3ea741e3b2e0   416  488bc2         REX.W movq rax,rdx
0x3ea741e3b2e3   419  4803c1         REX.W addq rax,rcx
0x3ea741e3b2e6   422  0f80e8ffffff   jo 404  (0x3ea741e3b2d4)
0x3ea741e3b2ec   428  488945e0       REX.W movq [rbp-0x20],rax    ;; debug: position 492
0x3ea741e3b2f0   432  48bb19de3e6d13390000 REX.W movq rbx,0x39136d3ede19    ;; object: 0x39136d3ede19 Cell for 6144
0x3ea741e3b2fa   442  83430bff       addl [rbx+0xb],0xff
0x3ea741e3b2fe   446  791d           jns 477  (0x3ea741e3b31d)
0x3ea741e3b300   448  e8fbafffff     call InterruptCheck  (0x3ea741e36300)    ;; code: BUILTIN
0x3ea741e3b305   453  48bb19de3e6d13390000 REX.W movq rbx,0x39136d3ede19    ;; object: 0x39136d3ede19 Cell for 6144
0x3ea741e3b30f   463  49ba0000000000180000 REX.W movq r10,0x180000000000
0x3ea741e3b319   473  4c895307       REX.W movq [rbx+0x7],r10
0x3ea741e3b31d   477  ff75e0         push [rbp-0x20]         ;; debug: statement 486
                                                             ;; debug: position 485
0x3ea741e3b320   480  488b4518       REX.W movq rax,[rbp+0x18]    ;; debug: position 488
0x3ea741e3b324   484  5a             pop rdx
0x3ea741e3b325   485  488bca         REX.W movq rcx,rdx
0x3ea741e3b328   488  480bc8         REX.W orq rcx,rax
0x3ea741e3b32b   491  f6c101         testb rcx,0x1
0x3ea741e3b32e   494  730e           jnc 510  (0x3ea741e3b33e)
0x3ea741e3b330   496  483bd0         REX.W cmpq rdx,rax
0x3ea741e3b333   499  0f8e70ffffff   jle 361  (0x3ea741e3b2a9)
0x3ea741e3b339   505  e921000000     jmp 543  (0x3ea741e3b35f)
0x3ea741e3b33e   510  e81db5feff     call 0x3ea741e26860     ;; code: COMPARE_IC, UNINITIALIZED (id = 153)
0x3ea741e3b343   515  a815           test al,0x15
0x3ea741e3b345   517  eb0f           jmp 534  (0x3ea741e3b356)
0x3ea741e3b347   519  493b45c0       REX.W cmpq rax,[r13-0x40]
0x3ea741e3b34b   523  0f8458ffffff   jz 361  (0x3ea741e3b2a9)
0x3ea741e3b351   529  e909000000     jmp 543  (0x3ea741e3b35f)
0x3ea741e3b356   534  4885c0         REX.W testq rax,rax
0x3ea741e3b359   537  0f8e4affffff   jle 361  (0x3ea741e3b2a9)
0x3ea741e3b35f   543  488b45d8       REX.W movq rax,[rbp-0x28]    ;; debug: statement 526
0x3ea741e3b363   547  a801           test al,0x1
0x3ea741e3b365   549  7314           jnc 571  (0x3ea741e3b37b)
0x3ea741e3b367   551  49ba0000000001000000 REX.W movq r10,0x100000000
0x3ea741e3b371   561  4903c2         REX.W addq rax,r10
0x3ea741e3b374   564  711e           jno 596  (0x3ea741e3b394)
0x3ea741e3b376   566  492bc2         REX.W subq rax,r10
0x3ea741e3b379   569  eb05           jmp 576  (0x3ea741e3b380)
0x3ea741e3b37b   571  e8a076feff     call 0x3ea741e22a20     ;; code: STUB, ToNumberStub, minor: 0
0x3ea741e3b380   576  488bd0         REX.W movq rdx,rax      ;; debug: position 531
0x3ea741e3b383   579  48b80000000001000000 REX.W movq rax,0x100000000
0x3ea741e3b38d   589  e80ec7fdff     call 0x3ea741e17aa0     ;; code: BINARY_OP_IC, UNINITIALIZED (id = 200)
0x3ea741e3b392   594  a82d           test al,0x2d
0x3ea741e3b394   596  488945d8       REX.W movq [rbp-0x28],rax
0x3ea741e3b398   600  488b45e8       REX.W movq rax,[rbp-0x18]    ;; debug: statement 435
                                                             ;; debug: position 434
0x3ea741e3b39c   604  a801           test al,0x1
0x3ea741e3b39e   606  7314           jnc 628  (0x3ea741e3b3b4)
0x3ea741e3b3a0   608  49ba0000000001000000 REX.W movq r10,0x100000000
0x3ea741e3b3aa   618  4903c2         REX.W addq rax,r10
0x3ea741e3b3ad   621  711e           jno 653  (0x3ea741e3b3cd)
0x3ea741e3b3af   623  492bc2         REX.W subq rax,r10
0x3ea741e3b3b2   626  eb05           jmp 633  (0x3ea741e3b3b9)
0x3ea741e3b3b4   628  e86776feff     call 0x3ea741e22a20     ;; code: STUB, ToNumberStub, minor: 0
0x3ea741e3b3b9   633  488bd0         REX.W movq rdx,rax      ;; debug: position 435
0x3ea741e3b3bc   636  48b80000000001000000 REX.W movq rax,0x100000000
0x3ea741e3b3c6   646  e8d5c6fdff     call 0x3ea741e17aa0     ;; code: BINARY_OP_IC, UNINITIALIZED (id = 106)
0x3ea741e3b3cb   651  a82d           test al,0x2d
0x3ea741e3b3cd   653  488945e8       REX.W movq [rbp-0x18],rax
0x3ea741e3b3d1   657  48bb19de3e6d13390000 REX.W movq rbx,0x39136d3ede19    ;; object: 0x39136d3ede19 Cell for 6144
0x3ea741e3b3db   667  83430bfe       addl [rbx+0xb],0xfe
0x3ea741e3b3df   671  791d           jns 702  (0x3ea741e3b3fe)
0x3ea741e3b3e1   673  e81aafffff     call InterruptCheck  (0x3ea741e36300)    ;; code: BUILTIN
0x3ea741e3b3e6   678  48bb19de3e6d13390000 REX.W movq rbx,0x39136d3ede19    ;; object: 0x39136d3ede19 Cell for 6144
0x3ea741e3b3f0   688  49ba0000000000180000 REX.W movq r10,0x180000000000
0x3ea741e3b3fa   698  4c895307       REX.W movq [rbx+0x7],r10
0x3ea741e3b3fe   702  ff75e8         push [rbp-0x18]         ;; debug: statement 429
                                                             ;; debug: position 428
0x3ea741e3b401   705  488b4518       REX.W movq rax,[rbp+0x18]    ;; debug: position 431
0x3ea741e3b405   709  5a             pop rdx
0x3ea741e3b406   710  488bca         REX.W movq rcx,rdx
0x3ea741e3b409   713  480bc8         REX.W orq rcx,rax
0x3ea741e3b40c   716  f6c101         testb rcx,0x1
0x3ea741e3b40f   719  730e           jnc 735  (0x3ea741e3b41f)
0x3ea741e3b411   721  483bd0         REX.W cmpq rdx,rax
0x3ea741e3b414   724  0f8e34feffff   jle 270  (0x3ea741e3b24e)
0x3ea741e3b41a   730  e921000000     jmp 768  (0x3ea741e3b440)
0x3ea741e3b41f   735  e83cb4feff     call 0x3ea741e26860     ;; code: COMPARE_IC, UNINITIALIZED (id = 95)
0x3ea741e3b424   740  a815           test al,0x15
0x3ea741e3b426   742  eb0f           jmp 759  (0x3ea741e3b437)
0x3ea741e3b428   744  493b45c0       REX.W cmpq rax,[r13-0x40]
0x3ea741e3b42c   748  0f841cfeffff   jz 270  (0x3ea741e3b24e)
0x3ea741e3b432   754  e909000000     jmp 768  (0x3ea741e3b440)
0x3ea741e3b437   759  4885c0         REX.W testq rax,rax
0x3ea741e3b43a   762  0f8e0efeffff   jle 270  (0x3ea741e3b24e)
0x3ea741e3b440   768  488b45d8       REX.W movq rax,[rbp-0x28]    ;; debug: statement 551
                                                             ;; debug: position 558
0x3ea741e3b444   772  48bb19de3e6d13390000 REX.W movq rbx,0x39136d3ede19    ;; object: 0x39136d3ede19 Cell for 6144
0x3ea741e3b44e   782  83430bfc       addl [rbx+0xb],0xfc
0x3ea741e3b452   786  791f           jns 819  (0x3ea741e3b473)
0x3ea741e3b454   788  50             push rax
0x3ea741e3b455   789  e8a6aeffff     call InterruptCheck  (0x3ea741e36300)    ;; code: BUILTIN
0x3ea741e3b45a   794  58             pop rax
0x3ea741e3b45b   795  48bb19de3e6d13390000 REX.W movq rbx,0x39136d3ede19    ;; object: 0x39136d3ede19 Cell for 6144
0x3ea741e3b465   805  49ba0000000000180000 REX.W movq r10,0x180000000000
0x3ea741e3b46f   815  4c895307       REX.W movq [rbx+0x7],r10
0x3ea741e3b473   819  c9             leave                   ;; debug: statement 565
0x3ea741e3b474   820  c21800         ret 0x18
0x3ea741e3b477   823  498b45a8       REX.W movq rax,[r13-0x58]
0x3ea741e3b47b   827  e9c4ffffff     jmp 772  (0x3ea741e3b444)

Deoptimization Output Data (deopt points = 104)
ast id        pc  state
     1        13  NO_REGISTERS
     2        13  NO_REGISTERS
     3        13  NO_REGISTERS
    13        27  NO_REGISTERS
    14        27  NO_REGISTERS
    28        37  TOS_REG
    23        41  TOS_REG
    21        41  NO_REGISTERS
    20        46  NO_REGISTERS
    49        46  NO_REGISTERS
    64        46  NO_REGISTERS
    62        49  NO_REGISTERS
    61        49  NO_REGISTERS
    59        52  NO_REGISTERS
    65        62  TOS_REG
    54        69  TOS_REG
    52        69  NO_REGISTERS
    50        69  NO_REGISTERS
    19        69  NO_REGISTERS
    48        69  NO_REGISTERS
    46        73  TOS_REG
    43       102  TOS_REG
    42       126  TOS_REG
    40       126  NO_REGISTERS
    16       171  NO_REGISTERS
    18       171  NO_REGISTERS
    36       171  NO_REGISTERS
    34       174  NO_REGISTERS
    39       174  NO_REGISTERS
    37       178  TOS_REG
    31       213  TOS_REG
    17       237  NO_REGISTERS
    75       247  TOS_REG
    70       251  TOS_REG
    68       251  NO_REGISTERS
    90       261  TOS_REG
    85       265  TOS_REG
    83       265  NO_REGISTERS
    82       270  NO_REGISTERS
   111       270  NO_REGISTERS
   125       270  NO_REGISTERS
   123       273  NO_REGISTERS
   122       273  NO_REGISTERS
   120       277  TOS_REG
   119       296  TOS_REG
   117       296  TOS_REG
   115       310  NO_REGISTERS
   126       310  NO_REGISTERS
   147       310  NO_REGISTERS
   145       313  NO_REGISTERS
   150       313  NO_REGISTERS
   148       317  TOS_REG
   141       352  TOS_REG
   136       356  TOS_REG
   134       356  NO_REGISTERS
   133       361  NO_REGISTERS
   192       361  NO_REGISTERS
   190       364  NO_REGISTERS
   189       364  NO_REGISTERS
   187       367  NO_REGISTERS
   193       377  TOS_REG
   182       384  TOS_REG
   180       384  NO_REGISTERS
   132       384  NO_REGISTERS
   176       384  NO_REGISTERS
   174       388  TOS_REG
   179       389  NO_REGISTERS
   177       393  TOS_REG
   164       428  TOS_REG
   162       432  TOS_REG
   160       432  NO_REGISTERS
   129       477  NO_REGISTERS
   131       477  NO_REGISTERS
   156       477  NO_REGISTERS
   154       480  NO_REGISTERS
   159       480  NO_REGISTERS
   157       484  TOS_REG
   151       519  TOS_REG
   130       543  NO_REGISTERS
   204       543  NO_REGISTERS
   202       547  TOS_REG
   199       576  TOS_REG
   198       600  TOS_REG
   196       600  NO_REGISTERS
   127       600  NO_REGISTERS
   116       600  NO_REGISTERS
   114       600  NO_REGISTERS
   112       600  NO_REGISTERS
    81       600  NO_REGISTERS
   110       600  NO_REGISTERS
   108       604  TOS_REG
   105       633  TOS_REG
   104       657  TOS_REG
   102       657  NO_REGISTERS
    78       702  NO_REGISTERS
    80       702  NO_REGISTERS
    98       702  NO_REGISTERS
    96       705  NO_REGISTERS
   101       705  NO_REGISTERS
    99       709  TOS_REG
    93       744  TOS_REG
    79       768  NO_REGISTERS
   207       768  NO_REGISTERS
   205       772  TOS_REG

Back edges (size = 3)
ast_id  pc_offset  loop_depth
    18        147           1
   131        453           2
    80        678           1

0x39136d3ee589: [TypeFeedbackInfo]
 - ic_total_count: 12, ic_with_type_info_count: 0, ic_generic_count: 0

RelocInfo (size = 185)
0x3ea741e3b140  position  (318)
0x3ea741e3b157  code target (BUILTIN)  (0x3ea741e36440)
0x3ea741e3b15b  statement position  (335)
0x3ea741e3b15b  statement position  (356)
0x3ea741e3b15b  statement position  (361)
0x3ea741e3b15b  position  (362)
0x3ea741e3b16e  statement position  (379)
0x3ea741e3b16e  position  (379)
0x3ea741e3b171  position  (387)
0x3ea741e3b176  embedded object  (0x39136d304231 <true>)
0x3ea741e3b17e  position  (390)
0x3ea741e3b181  code target with id (KEYED_STORE_IC)  (0x3ea741e343e0) (id=55)
0x3ea741e3b185  statement position  (373)
0x3ea741e3b185  position  (372)
0x3ea741e3b1a2  code target (STUB)  (0x3ea741e22a20)
0x3ea741e3b1a6  position  (373)
0x3ea741e3b1b4  code target with id (BINARY_OP_IC)  (0x3ea741e17aa0) (id=44)
0x3ea741e3b1c0  embedded object  (0x39136d3ede19 Cell for 6144)
0x3ea741e3b1cf  code target (BUILTIN)  (0x3ea741e36300)
0x3ea741e3b1d5  embedded object  (0x39136d3ede19 Cell for 6144)
0x3ea741e3b1eb  statement position  (367)
0x3ea741e3b1eb  position  (366)
0x3ea741e3b1ee  position  (369)
0x3ea741e3b20d  code target with id (COMPARE_IC)  (0x3ea741e26860) (id=33)
0x3ea741e3b22d  statement position  (403)
0x3ea741e3b22d  position  (409)
0x3ea741e3b23b  statement position  (418)
0x3ea741e3b23b  statement position  (423)
0x3ea741e3b23b  position  (424)
0x3ea741e3b24e  statement position  (446)
0x3ea741e3b24e  position  (450)
0x3ea741e3b251  position  (458)
0x3ea741e3b259  position  (457)
0x3ea741e3b264  code target (KEYED_LOAD_IC)  (0x3ea741e1b500)
0x3ea741e3b269  code target with id (TO_BOOLEAN_IC)  (0x3ea741e24e60) (id=118)
0x3ea741e3b276  statement position  (473)
0x3ea741e3b276  statement position  (478)
0x3ea741e3b276  position  (480)
0x3ea741e3b279  position  (482)
0x3ea741e3b27d  position  (481)
0x3ea741e3b28c  code target with id (BINARY_OP_IC)  (0x3ea741e17aa0) (id=144)
0x3ea741e3b2a0  position  (479)
0x3ea741e3b2a9  statement position  (497)
0x3ea741e3b2a9  position  (497)
0x3ea741e3b2ac  position  (505)
0x3ea741e3b2b1  embedded object  (0x39136d304299 <false>)
0x3ea741e3b2b9  position  (508)
0x3ea741e3b2bc  code target with id (KEYED_STORE_IC)  (0x3ea741e343e0) (id=183)
0x3ea741e3b2c0  statement position  (492)
0x3ea741e3b2c0  position  (491)
0x3ea741e3b2c5  position  (494)
0x3ea741e3b2d8  code target with id (BINARY_OP_IC)  (0x3ea741e17aa0) (id=167)
0x3ea741e3b2ec  position  (492)
0x3ea741e3b2f2  embedded object  (0x39136d3ede19 Cell for 6144)
0x3ea741e3b301  code target (BUILTIN)  (0x3ea741e36300)
0x3ea741e3b307  embedded object  (0x39136d3ede19 Cell for 6144)
0x3ea741e3b31d  statement position  (486)
0x3ea741e3b31d  position  (485)
0x3ea741e3b320  position  (488)
0x3ea741e3b33f  code target with id (COMPARE_IC)  (0x3ea741e26860) (id=153)
0x3ea741e3b35f  statement position  (526)
0x3ea741e3b37c  code target (STUB)  (0x3ea741e22a20)
0x3ea741e3b380  position  (531)
0x3ea741e3b38e  code target with id (BINARY_OP_IC)  (0x3ea741e17aa0) (id=200)
0x3ea741e3b398  statement position  (435)
0x3ea741e3b398  position  (434)
0x3ea741e3b3b5  code target (STUB)  (0x3ea741e22a20)
0x3ea741e3b3b9  position  (435)
0x3ea741e3b3c7  code target with id (BINARY_OP_IC)  (0x3ea741e17aa0) (id=106)
0x3ea741e3b3d3  embedded object  (0x39136d3ede19 Cell for 6144)
0x3ea741e3b3e2  code target (BUILTIN)  (0x3ea741e36300)
0x3ea741e3b3e8  embedded object  (0x39136d3ede19 Cell for 6144)
0x3ea741e3b3fe  statement position  (429)
0x3ea741e3b3fe  position  (428)
0x3ea741e3b401  position  (431)
0x3ea741e3b420  code target with id (COMPARE_IC)  (0x3ea741e26860) (id=95)
0x3ea741e3b440  statement position  (551)
0x3ea741e3b440  position  (558)
0x3ea741e3b446  embedded object  (0x39136d3ede19 Cell for 6144)
0x3ea741e3b456  code target (BUILTIN)  (0x3ea741e36300)
0x3ea741e3b45d  embedded object  (0x39136d3ede19 Cell for 6144)
0x3ea741e3b473  statement position  (565)

--- End code ---
--- Raw source ---
(m, isPrime){
   var i, k, count;

   for (i=2; i<=m; i++) { isPrime[i] = true; }
   count = 0;

   for (i=2; i<=m; i++){
      if (isPrime[i]) {
         for (k=i+i; k<=m; k+=i) isPrime[k] = false;
         count++;
      }
   }
   return count;
}


--- Optimized code ---
optimization_id = 0
source_position = 318
kind = OPTIMIZED_FUNCTION
name = nsieve
stack_slots = 4
compiler = crankshaft
Instructions (size = 1132)
0x3ea741e3b520     0  55             push rbp
0x3ea741e3b521     1  4889e5         REX.W movq rbp,rsp
0x3ea741e3b524     4  56             push rsi
0x3ea741e3b525     5  57             push rdi
0x3ea741e3b526     6  4883ec20       REX.W subq rsp,0x20
0x3ea741e3b52a    10  488b45f8       REX.W movq rax,[rbp-0x8]
0x3ea741e3b52e    14  488945d0       REX.W movq [rbp-0x30],rax
0x3ea741e3b532    18  488bf0         REX.W movq rsi,rax
0x3ea741e3b535    21  6690           nop
0x3ea741e3b537    23  493ba540090000 REX.W cmpq rsp,[r13+0x940]
0x3ea741e3b53e    30  7305           jnc 37  (0x3ea741e3b545)
0x3ea741e3b540    32  e8fbaeffff     call StackCheck  (0x3ea741e36440)    ;; code: BUILTIN
0x3ea741e3b545    37  488b4518       REX.W movq rax,[rbp+0x18]
0x3ea741e3b549    41  a801           test al,0x1             ;; debug: position 367
0x3ea741e3b54b    43  0f85fb010000   jnz 556  (0x3ea741e3b74c)
0x3ea741e3b551    49  48c1e820       REX.W shrq rax, 32
0x3ea741e3b555    53  488b5d10       REX.W movq rbx,[rbp+0x10]
0x3ea741e3b559    57  f6c301         testb rbx,0x1
0x3ea741e3b55c    60  0f849a030000   jz 988  (0x3ea741e3b8fc)
0x3ea741e3b562    66  49ba01af1073f7380000 REX.W movq r10,0x38f77310af01    ;; object: 0x38f77310af01 <Map(FAST_HOLEY_ELEMENTS)>
0x3ea741e3b56c    76  4c3953ff       REX.W cmpq [rbx-0x1],r10
0x3ea741e3b570    80  0f858b030000   jnz 993  (0x3ea741e3b901)
0x3ea741e3b576    86  488b530f       REX.W movq rdx,[rbx+0xf]
0x3ea741e3b57a    90  49ba09421073f7380000 REX.W movq r10,0x38f773104209    ;; object: 0x38f773104209 <Map(FAST_SMI_ELEMENTS)>
0x3ea741e3b584   100  4c3952ff       REX.W cmpq [rdx-0x1],r10
0x3ea741e3b588   104  0f8578030000   jnz 998  (0x3ea741e3b906)
0x3ea741e3b58e   110  8b4b1b         movl rcx,[rbx+0x1b]
0x3ea741e3b591   113  be02000000     movl rsi,0x2
0x3ea741e3b596   118  3bf0           cmpl rsi,rax
0x3ea741e3b598   120  0f8f89000000   jg 263  (0x3ea741e3b627)
0x3ea741e3b59e   126  493ba540090000 REX.W cmpq rsp,[r13+0x940]
0x3ea741e3b5a5   133  0f82d4010000   jc 607  (0x3ea741e3b77f)
0x3ea741e3b5ab   139  3bce           cmpl rcx,rsi
0x3ea741e3b5ad   141  0f8658030000   jna 1003  (0x3ea741e3b90b)
0x3ea741e3b5b3   147  49ba3142306d13390000 REX.W movq r10,0x39136d304231    ;; object: 0x39136d304231 <true>
0x3ea741e3b5bd   157  4c8954f20f     REX.W movq [rdx+rsi*8+0xf],r10
0x3ea741e3b5c2   162  488bfe         REX.W movq rdi,rsi
0x3ea741e3b5c5   165  83c701         addl rdi,0x1            ;; debug: position 373
0x3ea741e3b5c8   168  0f8042030000   jo 1008  (0x3ea741e3b910)
0x3ea741e3b5ce   174  488bf7         REX.W movq rsi,rdi
0x3ea741e3b5d1   177  ebc3           jmp 118  (0x3ea741e3b596)
0x3ea741e3b5d3   179  4883ec08       REX.W subq rsp,0x8
0x3ea741e3b5d7   183  488b45f8       REX.W movq rax,[rbp-0x8]
0x3ea741e3b5db   187  488b5d18       REX.W movq rbx,[rbp+0x18]
0x3ea741e3b5df   191  f6c301         testb rbx,0x1
0x3ea741e3b5e2   194  0f85dc010000   jnz 676  (0x3ea741e3b7c4)
0x3ea741e3b5e8   200  48c1eb20       REX.W shrq rbx, 32
0x3ea741e3b5ec   204  488b55e8       REX.W movq rdx,[rbp-0x18]
0x3ea741e3b5f0   208  f6c201         testb rdx,0x1
0x3ea741e3b5f3   211  0f85fe010000   jnz 727  (0x3ea741e3b7f7)
0x3ea741e3b5f9   217  48c1ea20       REX.W shrq rdx, 32
0x3ea741e3b5fd   221  488b4dd8       REX.W movq rcx,[rbp-0x28]
0x3ea741e3b601   225  f6c101         testb rcx,0x1
0x3ea741e3b604   228  0f8520020000   jnz 778  (0x3ea741e3b82a)
0x3ea741e3b60a   234  48c1e920       REX.W shrq rcx, 32
0x3ea741e3b60e   238  488b7d20       REX.W movq rdi,[rbp+0x20]
0x3ea741e3b612   242  488bf3         REX.W movq rsi,rbx
0x3ea741e3b615   245  488bda         REX.W movq rbx,rdx
0x3ea741e3b618   248  488bd0         REX.W movq rdx,rax
0x3ea741e3b61b   251  488bc1         REX.W movq rax,rcx
0x3ea741e3b61e   254  488b4d10       REX.W movq rcx,[rbp+0x10]
0x3ea741e3b622   258  e915000000     jmp 284  (0x3ea741e3b63c)
0x3ea741e3b627   263  488b7d20       REX.W movq rdi,[rbp+0x20]
0x3ea741e3b62b   267  488bf0         REX.W movq rsi,rax
0x3ea741e3b62e   270  488bcb         REX.W movq rcx,rbx
0x3ea741e3b631   273  488b55d0       REX.W movq rdx,[rbp-0x30]
0x3ea741e3b635   277  bb02000000     movl rbx,0x2
0x3ea741e3b63a   282  33c0           xorl rax,rax
0x3ea741e3b63c   284  f6c101         testb rcx,0x1           ;; debug: position 429
0x3ea741e3b63f   287  0f84d0020000   jz 1013  (0x3ea741e3b915)
0x3ea741e3b645   293  49ba01af1073f7380000 REX.W movq r10,0x38f77310af01    ;; object: 0x38f77310af01 <Map(FAST_HOLEY_ELEMENTS)>
0x3ea741e3b64f   303  4c3951ff       REX.W cmpq [rcx-0x1],r10
0x3ea741e3b653   307  0f85c1020000   jnz 1018  (0x3ea741e3b91a)
0x3ea741e3b659   313  4c8b410f       REX.W movq r8,[rcx+0xf]
0x3ea741e3b65d   317  448b491b       movl r9,[rcx+0x1b]
0x3ea741e3b661   321  49ba09421073f7380000 REX.W movq r10,0x38f773104209    ;; debug: position 486
                                                             ;; object: 0x38f773104209 <Map(FAST_SMI_ELEMENTS)>
0x3ea741e3b66b   331  4d3950ff       REX.W cmpq [r8-0x1],r10
0x3ea741e3b66f   335  0f85aa020000   jnz 1023  (0x3ea741e3b91f)
0x3ea741e3b675   341  3bde           cmpl rbx,rsi            ;; debug: position 429
0x3ea741e3b677   343  0f8fbf000000   jg 540  (0x3ea741e3b73c)
0x3ea741e3b67d   349  493ba540090000 REX.W cmpq rsp,[r13+0x940]
0x3ea741e3b684   356  0f82e8010000   jc 850  (0x3ea741e3b872)
0x3ea741e3b68a   362  443bcb         cmpl r9,rbx
0x3ea741e3b68d   365  0f8691020000   jna 1028  (0x3ea741e3b924)
0x3ea741e3b693   371  4d8b5cd80f     REX.W movq r11,[r8+rbx*8+0xf]
0x3ea741e3b698   376  4d3b5db0       REX.W cmpq r11,[r13-0x50]
0x3ea741e3b69c   380  0f850a000000   jnz 396  (0x3ea741e3b6ac)
0x3ea741e3b6a2   386  49bb8941306d13390000 REX.W movq r11,0x39136d304189    ;; object: 0x39136d304189 <undefined>
0x3ea741e3b6ac   396  4d3b5dc0       REX.W cmpq r11,[r13-0x40]
0x3ea741e3b6b0   400  0f8417000000   jz 429  (0x3ea741e3b6cd)
0x3ea741e3b6b6   406  4d3b5dc8       REX.W cmpq r11,[r13-0x38]
0x3ea741e3b6ba   410  0f8405000000   jz 421  (0x3ea741e3b6c5)
0x3ea741e3b6c0   416  e8c7a9ccff     call 0x3ea741b0608c     ;; deoptimization bailout 14
0x3ea741e3b6c5   421  4c8bd8         REX.W movq r11,rax      ;; debug: position 531
0x3ea741e3b6c8   424  e958000000     jmp 517  (0x3ea741e3b725)
0x3ea741e3b6cd   429  4c8bdb         REX.W movq r11,rbx      ;; debug: position 429
0x3ea741e3b6d0   432  4403db         addl r11,rbx            ;; debug: position 481
0x3ea741e3b6d3   435  0f8050020000   jo 1033  (0x3ea741e3b929)
0x3ea741e3b6d9   441  443bde         cmpl r11,rsi            ;; debug: position 486
0x3ea741e3b6dc   444  0f8f36000000   jg 504  (0x3ea741e3b718)
0x3ea741e3b6e2   450  493ba540090000 REX.W cmpq rsp,[r13+0x940]
0x3ea741e3b6e9   457  0f82c8010000   jc 919  (0x3ea741e3b8b7)
0x3ea741e3b6ef   463  453bcb         cmpl r9,r11
0x3ea741e3b6f2   466  0f8636020000   jna 1038  (0x3ea741e3b92e)
0x3ea741e3b6f8   472  49ba9942306d13390000 REX.W movq r10,0x39136d304299    ;; object: 0x39136d304299 <false>
0x3ea741e3b702   482  4f8954d80f     REX.W movq [r8+r11*8+0xf],r10
0x3ea741e3b707   487  4d8be3         REX.W movq r12,r11
0x3ea741e3b70a   490  4403e3         addl r12,rbx            ;; debug: position 493
0x3ea741e3b70d   493  0f8020020000   jo 1043  (0x3ea741e3b933)
0x3ea741e3b713   499  4d89e3         REX.W movq r11,r12
0x3ea741e3b716   502  ebc1           jmp 441  (0x3ea741e3b6d9)
0x3ea741e3b718   504  4c8bd8         REX.W movq r11,rax      ;; debug: position 531
0x3ea741e3b71b   507  4183c301       addl r11,0x1
0x3ea741e3b71f   511  0f8013020000   jo 1048  (0x3ea741e3b938)
0x3ea741e3b725   517  488bc3         REX.W movq rax,rbx      ;; debug: position 435
0x3ea741e3b728   520  83c001         addl rax,0x1
0x3ea741e3b72b   523  0f800c020000   jo 1053  (0x3ea741e3b93d)
0x3ea741e3b731   529  488bd8         REX.W movq rbx,rax
0x3ea741e3b734   532  498bc3         REX.W movq rax,r11
0x3ea741e3b737   535  e939ffffff     jmp 341  (0x3ea741e3b675)
0x3ea741e3b73c   540  8bd8           movl rbx,rax
0x3ea741e3b73e   542  48c1e320       REX.W shlq rbx, 32
0x3ea741e3b742   546  488bc3         REX.W movq rax,rbx
0x3ea741e3b745   549  488be5         REX.W movq rsp,rbp
0x3ea741e3b748   552  5d             pop rbp
0x3ea741e3b749   553  c21800         ret 0x18
0x3ea741e3b74c   556  4d8b5508       REX.W movq r10,[r13+0x8]    ;; debug: position 367
0x3ea741e3b750   560  4c3950ff       REX.W cmpq [rax-0x1],r10
0x3ea741e3b754   564  0f85e8010000   jnz 1058  (0x3ea741e3b942)
0x3ea741e3b75a   570  f20f104007     movsd xmm0,[rax+0x7]
0x3ea741e3b75f   575  f20f2cc0       cvttsd2sil rax,xmm0
0x3ea741e3b763   579  0f57c9         xorps xmm1,xmm1
0x3ea741e3b766   582  f20f2ac8       cvtsi2sd xmm1,rax
0x3ea741e3b76a   586  660f2ec1       ucomisd xmm0,xmm1
0x3ea741e3b76e   590  0f85ce010000   jnz 1058  (0x3ea741e3b942)
0x3ea741e3b774   596  0f8ac8010000   jpe 1058  (0x3ea741e3b942)
0x3ea741e3b77a   602  e9d6fdffff     jmp 53  (0x3ea741e3b555)
0x3ea741e3b77f   607  50             push rax
0x3ea741e3b780   608  51             push rcx
0x3ea741e3b781   609  52             push rdx
0x3ea741e3b782   610  53             push rbx
0x3ea741e3b783   611  56             push rsi
0x3ea741e3b784   612  57             push rdi
0x3ea741e3b785   613  4150           push r8
0x3ea741e3b787   615  4151           push r9
0x3ea741e3b789   617  4153           push r11
0x3ea741e3b78b   619  4154           push r12
0x3ea741e3b78d   621  4156           push r14
0x3ea741e3b78f   623  4157           push r15
0x3ea741e3b791   625  488d6424e0     REX.W leaq rsp,[rsp-0x20]
0x3ea741e3b796   630  488b75f8       REX.W movq rsi,[rbp-0x8]
0x3ea741e3b79a   634  33c0           xorl rax,rax
0x3ea741e3b79c   636  498d9d08523bfe REX.W leaq rbx,[r13-0x1c4adf8]
0x3ea741e3b7a3   643  e8f8aafcff     call 0x3ea741e062a0     ;; code: STUB, CEntryStub, minor: 1
0x3ea741e3b7a8   648  488d642420     REX.W leaq rsp,[rsp+0x20]
0x3ea741e3b7ad   653  415f           pop r15
0x3ea741e3b7af   655  415e           pop r14
0x3ea741e3b7b1   657  415c           pop r12
0x3ea741e3b7b3   659  415b           pop r11
0x3ea741e3b7b5   661  4159           pop r9
0x3ea741e3b7b7   663  4158           pop r8
0x3ea741e3b7b9   665  5f             pop rdi
0x3ea741e3b7ba   666  5e             pop rsi
0x3ea741e3b7bb   667  5b             pop rbx
0x3ea741e3b7bc   668  5a             pop rdx
0x3ea741e3b7bd   669  59             pop rcx
0x3ea741e3b7be   670  58             pop rax
0x3ea741e3b7bf   671  e9e7fdffff     jmp 139  (0x3ea741e3b5ab)
0x3ea741e3b7c4   676  4d8b5508       REX.W movq r10,[r13+0x8]    ;; debug: position 373
0x3ea741e3b7c8   680  4c3953ff       REX.W cmpq [rbx-0x1],r10
0x3ea741e3b7cc   684  0f8575010000   jnz 1063  (0x3ea741e3b947)
0x3ea741e3b7d2   690  f20f104307     movsd xmm0,[rbx+0x7]
0x3ea741e3b7d7   695  f20f2cd8       cvttsd2sil rbx,xmm0
0x3ea741e3b7db   699  0f57c9         xorps xmm1,xmm1
0x3ea741e3b7de   702  f20f2acb       cvtsi2sd xmm1,rbx
0x3ea741e3b7e2   706  660f2ec1       ucomisd xmm0,xmm1
0x3ea741e3b7e6   710  0f855b010000   jnz 1063  (0x3ea741e3b947)
0x3ea741e3b7ec   716  0f8a55010000   jpe 1063  (0x3ea741e3b947)
0x3ea741e3b7f2   722  e9f5fdffff     jmp 204  (0x3ea741e3b5ec)
0x3ea741e3b7f7   727  4d8b5508       REX.W movq r10,[r13+0x8]
0x3ea741e3b7fb   731  4c3952ff       REX.W cmpq [rdx-0x1],r10
0x3ea741e3b7ff   735  0f8547010000   jnz 1068  (0x3ea741e3b94c)
0x3ea741e3b805   741  f20f104207     movsd xmm0,[rdx+0x7]
0x3ea741e3b80a   746  f20f2cd0       cvttsd2sil rdx,xmm0
0x3ea741e3b80e   750  0f57c9         xorps xmm1,xmm1
0x3ea741e3b811   753  f20f2aca       cvtsi2sd xmm1,rdx
0x3ea741e3b815   757  660f2ec1       ucomisd xmm0,xmm1
0x3ea741e3b819   761  0f852d010000   jnz 1068  (0x3ea741e3b94c)
0x3ea741e3b81f   767  0f8a27010000   jpe 1068  (0x3ea741e3b94c)
0x3ea741e3b825   773  e9d3fdffff     jmp 221  (0x3ea741e3b5fd)
0x3ea741e3b82a   778  4d8b5508       REX.W movq r10,[r13+0x8]
0x3ea741e3b82e   782  4c3951ff       REX.W cmpq [rcx-0x1],r10
0x3ea741e3b832   786  0f8519010000   jnz 1073  (0x3ea741e3b951)
0x3ea741e3b838   792  f20f104107     movsd xmm0,[rcx+0x7]
0x3ea741e3b83d   797  f20f2cc8       cvttsd2sil rcx,xmm0
0x3ea741e3b841   801  0f57c9         xorps xmm1,xmm1
0x3ea741e3b844   804  f20f2ac9       cvtsi2sd xmm1,rcx
0x3ea741e3b848   808  660f2ec1       ucomisd xmm0,xmm1
0x3ea741e3b84c   812  0f85ff000000   jnz 1073  (0x3ea741e3b951)
0x3ea741e3b852   818  0f8af9000000   jpe 1073  (0x3ea741e3b951)
0x3ea741e3b858   824  85c9           testl rcx,rcx
0x3ea741e3b85a   826  0f85aefdffff   jnz 238  (0x3ea741e3b60e)
0x3ea741e3b860   832  660f50c8       movmskpd rcx,xmm0
0x3ea741e3b864   836  83e101         andl rcx,0x1
0x3ea741e3b867   839  0f85e4000000   jnz 1073  (0x3ea741e3b951)
0x3ea741e3b86d   845  e99cfdffff     jmp 238  (0x3ea741e3b60e)
0x3ea741e3b872   850  50             push rax                ;; debug: position 429
0x3ea741e3b873   851  51             push rcx
0x3ea741e3b874   852  52             push rdx
0x3ea741e3b875   853  53             push rbx
0x3ea741e3b876   854  56             push rsi
0x3ea741e3b877   855  57             push rdi
0x3ea741e3b878   856  4150           push r8
0x3ea741e3b87a   858  4151           push r9
0x3ea741e3b87c   860  4153           push r11
0x3ea741e3b87e   862  4154           push r12
0x3ea741e3b880   864  4156           push r14
0x3ea741e3b882   866  4157           push r15
0x3ea741e3b884   868  488d6424e0     REX.W leaq rsp,[rsp-0x20]
0x3ea741e3b889   873  488b75f8       REX.W movq rsi,[rbp-0x8]
0x3ea741e3b88d   877  33c0           xorl rax,rax
0x3ea741e3b88f   879  498d9d08523bfe REX.W leaq rbx,[r13-0x1c4adf8]
0x3ea741e3b896   886  e805aafcff     call 0x3ea741e062a0     ;; code: STUB, CEntryStub, minor: 1
0x3ea741e3b89b   891  488d642420     REX.W leaq rsp,[rsp+0x20]
0x3ea741e3b8a0   896  415f           pop r15
0x3ea741e3b8a2   898  415e           pop r14
0x3ea741e3b8a4   900  415c           pop r12
0x3ea741e3b8a6   902  415b           pop r11
0x3ea741e3b8a8   904  4159           pop r9
0x3ea741e3b8aa   906  4158           pop r8
0x3ea741e3b8ac   908  5f             pop rdi
0x3ea741e3b8ad   909  5e             pop rsi
0x3ea741e3b8ae   910  5b             pop rbx
0x3ea741e3b8af   911  5a             pop rdx
0x3ea741e3b8b0   912  59             pop rcx
0x3ea741e3b8b1   913  58             pop rax
0x3ea741e3b8b2   914  e9d3fdffff     jmp 362  (0x3ea741e3b68a)
0x3ea741e3b8b7   919  50             push rax                ;; debug: position 486
0x3ea741e3b8b8   920  51             push rcx
0x3ea741e3b8b9   921  52             push rdx
0x3ea741e3b8ba   922  53             push rbx
0x3ea741e3b8bb   923  56             push rsi
0x3ea741e3b8bc   924  57             push rdi
0x3ea741e3b8bd   925  4150           push r8
0x3ea741e3b8bf   927  4151           push r9
0x3ea741e3b8c1   929  4153           push r11
0x3ea741e3b8c3   931  4154           push r12
0x3ea741e3b8c5   933  4156           push r14
0x3ea741e3b8c7   935  4157           push r15
0x3ea741e3b8c9   937  488d6424e0     REX.W leaq rsp,[rsp-0x20]
0x3ea741e3b8ce   942  488b75f8       REX.W movq rsi,[rbp-0x8]
0x3ea741e3b8d2   946  33c0           xorl rax,rax
0x3ea741e3b8d4   948  498d9d08523bfe REX.W leaq rbx,[r13-0x1c4adf8]
0x3ea741e3b8db   955  e8c0a9fcff     call 0x3ea741e062a0     ;; code: STUB, CEntryStub, minor: 1
0x3ea741e3b8e0   960  488d642420     REX.W leaq rsp,[rsp+0x20]
0x3ea741e3b8e5   965  415f           pop r15
0x3ea741e3b8e7   967  415e           pop r14
0x3ea741e3b8e9   969  415c           pop r12
0x3ea741e3b8eb   971  415b           pop r11
0x3ea741e3b8ed   973  4159           pop r9
0x3ea741e3b8ef   975  4158           pop r8
0x3ea741e3b8f1   977  5f             pop rdi
0x3ea741e3b8f2   978  5e             pop rsi
0x3ea741e3b8f3   979  5b             pop rbx
0x3ea741e3b8f4   980  5a             pop rdx
0x3ea741e3b8f5   981  59             pop rcx
0x3ea741e3b8f6   982  58             pop rax
0x3ea741e3b8f7   983  e9f3fdffff     jmp 463  (0x3ea741e3b6ef)
0x3ea741e3b8fc   988  e813a7ccff     call 0x3ea741b06014     ;; deoptimization bailout 2
0x3ea741e3b901   993  e818a7ccff     call 0x3ea741b0601e     ;; deoptimization bailout 3
0x3ea741e3b906   998  e81da7ccff     call 0x3ea741b06028     ;; deoptimization bailout 4
0x3ea741e3b90b  1003  e82ca7ccff     call 0x3ea741b0603c     ;; deoptimization bailout 6
0x3ea741e3b910  1008  e831a7ccff     call 0x3ea741b06046     ;; deoptimization bailout 7
0x3ea741e3b915  1013  e840a7ccff     call 0x3ea741b0605a     ;; deoptimization bailout 9
0x3ea741e3b91a  1018  e845a7ccff     call 0x3ea741b06064     ;; deoptimization bailout 10
0x3ea741e3b91f  1023  e84aa7ccff     call 0x3ea741b0606e     ;; deoptimization bailout 11
0x3ea741e3b924  1028  e859a7ccff     call 0x3ea741b06082     ;; deoptimization bailout 13
0x3ea741e3b929  1033  e868a7ccff     call 0x3ea741b06096     ;; deoptimization bailout 15
0x3ea741e3b92e  1038  e877a7ccff     call 0x3ea741b060aa     ;; deoptimization bailout 17
0x3ea741e3b933  1043  e87ca7ccff     call 0x3ea741b060b4     ;; deoptimization bailout 18
0x3ea741e3b938  1048  e881a7ccff     call 0x3ea741b060be     ;; deoptimization bailout 19
0x3ea741e3b93d  1053  e886a7ccff     call 0x3ea741b060c8     ;; deoptimization bailout 20
0x3ea741e3b942  1058  e88ba7ccff     call 0x3ea741b060d2     ;; deoptimization bailout 21
0x3ea741e3b947  1063  e890a7ccff     call 0x3ea741b060dc     ;; deoptimization bailout 22
0x3ea741e3b94c  1068  e895a7ccff     call 0x3ea741b060e6     ;; deoptimization bailout 23
0x3ea741e3b951  1073  e89aa7ccff     call 0x3ea741b060f0     ;; deoptimization bailout 24
0x3ea741e3b956  1078  6690           nop

Inlined functions (count = 0)

Deoptimization Input Data (deopt points = 25)
 index  ast id    argc     pc
     0       1       0     10
     1       3       0     37
     2      16       0     -1
     3      16       0     -1
     4      16       0     -1
     5      20       0    139
     6      20       0     -1
     7      52       0     -1
     8      80       0     -1
     9      78       0     -1
    10      78       0     -1
    11      78       0     -1
    12      82       0    362
    13      82       0     -1
    14      82       0     -1
    15     115       0     -1
    16     133       0    463
    17     133       0     -1
    18     180       0     -1
    19     130       0     -1
    20     114       0     -1
    21      16       0     -1
    22      78       0     -1
    23      78       0     -1
    24      78       0     -1

Safepoints (size = 52)
0x3ea741e3b545    37  1000 (sp -> fp)       1
0x3ea741e3b7a8   648  1000 | rdx | rbx (sp -> fp)       5
0x3ea741e3b89b   891  0000 | rcx | rdx | rdi | r8 (sp -> fp)      12
0x3ea741e3b8e0   960  0000 | rcx | rdx | rdi | r8 (sp -> fp)      16

RelocInfo (size = 135)
0x3ea741e3b541  code target (BUILTIN)  (0x3ea741e36440)
0x3ea741e3b549  position  (367)
0x3ea741e3b564  embedded object  (0x38f77310af01 <Map(FAST_HOLEY_ELEMENTS)>)
0x3ea741e3b57c  embedded object  (0x38f773104209 <Map(FAST_SMI_ELEMENTS)>)
0x3ea741e3b5b5  embedded object  (0x39136d304231 <true>)
0x3ea741e3b5c5  position  (373)
0x3ea741e3b63c  position  (429)
0x3ea741e3b647  embedded object  (0x38f77310af01 <Map(FAST_HOLEY_ELEMENTS)>)
0x3ea741e3b661  position  (486)
0x3ea741e3b663  embedded object  (0x38f773104209 <Map(FAST_SMI_ELEMENTS)>)
0x3ea741e3b675  position  (429)
0x3ea741e3b6a4  embedded object  (0x39136d304189 <undefined>)
0x3ea741e3b6c1  runtime entry  (deoptimization bailout 14)
0x3ea741e3b6c5  position  (531)
0x3ea741e3b6cd  position  (429)
0x3ea741e3b6d0  position  (481)
0x3ea741e3b6d9  position  (486)
0x3ea741e3b6fa  embedded object  (0x39136d304299 <false>)
0x3ea741e3b70a  position  (493)
0x3ea741e3b718  position  (531)
0x3ea741e3b725  position  (435)
0x3ea741e3b74c  position  (367)
0x3ea741e3b7a4  code target (STUB)  (0x3ea741e062a0)
0x3ea741e3b7c4  position  (373)
0x3ea741e3b872  position  (429)
0x3ea741e3b897  code target (STUB)  (0x3ea741e062a0)
0x3ea741e3b8b7  position  (486)
0x3ea741e3b8dc  code target (STUB)  (0x3ea741e062a0)
0x3ea741e3b8fd  runtime entry  (deoptimization bailout 2)
0x3ea741e3b902  runtime entry  (deoptimization bailout 3)
0x3ea741e3b907  runtime entry  (deoptimization bailout 4)
0x3ea741e3b90c  runtime entry  (deoptimization bailout 6)
0x3ea741e3b911  runtime entry  (deoptimization bailout 7)
0x3ea741e3b916  runtime entry  (deoptimization bailout 9)
0x3ea741e3b91b  runtime entry  (deoptimization bailout 10)
0x3ea741e3b920  runtime entry  (deoptimization bailout 11)
0x3ea741e3b925  runtime entry  (deoptimization bailout 13)
0x3ea741e3b92a  runtime entry  (deoptimization bailout 15)
0x3ea741e3b92f  runtime entry  (deoptimization bailout 17)
0x3ea741e3b934  runtime entry  (deoptimization bailout 18)
0x3ea741e3b939  runtime entry  (deoptimization bailout 19)
0x3ea741e3b93e  runtime entry  (deoptimization bailout 20)
0x3ea741e3b943  runtime entry  (deoptimization bailout 21)
0x3ea741e3b948  runtime entry  (deoptimization bailout 22)
0x3ea741e3b94d  runtime entry  (deoptimization bailout 23)
0x3ea741e3b952  runtime entry  (deoptimization bailout 24)

--- End code ---
--- Code ---
kind = HANDLER
major_key = <NoCache>Stub
name = ElementsTransitionAndStoreStub
compiler = crankshaft
Instructions (size = 356)
0x3ea741e3d080     0  55             push rbp
0x3ea741e3d081     1  4889e5         REX.W movq rbp,rsp
0x3ea741e3d084     4  56             push rsi
0x3ea741e3d085     5  49ba0000000006000000 REX.W movq r10,0x600000000
0x3ea741e3d08f    15  4152           push r10
0x3ea741e3d091    17  4883ec08       REX.W subq rsp,0x8
0x3ea741e3d095    21  f20f110c24     movsd [rsp],xmm1
0x3ea741e3d09a    26  488d7a2f       REX.W leaq rdi,[rdx+0x2f]
0x3ea741e3d09e    30  49ba0000009adf130000 REX.W movq r10,0x13df9a000000
0x3ea741e3d0a8    40  493bfa         REX.W cmpq rdi,r10
0x3ea741e3d0ab    43  0f8c1e000000   jl 79  (0x3ea741e3d0cf)
0x3ea741e3d0b1    49  493bbd480c0000 REX.W cmpq rdi,[r13+0xc48]
0x3ea741e3d0b8    56  0f8f11000000   jg 79  (0x3ea741e3d0cf)
0x3ea741e3d0be    62  4d8b95f0080000 REX.W movq r10,[r13+0x8f0]
0x3ea741e3d0c5    69  4c3957f0       REX.W cmpq [rdi-0x10],r10
0x3ea741e3d0c9    73  0f84e2000000   jz 305  (0x3ea741e3d1b1)
0x3ea741e3d0cf    79  488bfb         REX.W movq rdi,rbx
0x3ea741e3d0d2    82  48897aff       REX.W movq [rdx-0x1],rdi
0x3ea741e3d0d6    86  40f6c701       testb rdi,0x1
0x3ea741e3d0da    90  0f8426000000   jz 134  (0x3ea741e3d106)
0x3ea741e3d0e0    96  4c8d42ff       REX.W leaq r8,[rdx-0x1]
0x3ea741e3d0e4   100  4881e70000f0ff REX.W andq rdi,0xfffffffffff00000
0x3ea741e3d0eb   107  f6470804       testb [rdi+0x8],0x4
0x3ea741e3d0ef   111  7415           jz 134  (0x3ea741e3d106)
0x3ea741e3d0f1   113  48c7c70000f0ff REX.W movq rdi,0xfff00000
0x3ea741e3d0f8   120  4823fa         REX.W andq rdi,rdx
0x3ea741e3d0fb   123  f6470808       testb [rdi+0x8],0x8
0x3ea741e3d0ff   127  7405           jz 134  (0x3ea741e3d106)
0x3ea741e3d101   129  e87aeaffff     call 0x3ea741e3bb80     ;; code: STUB, RecordWriteStub, minor: 10354
0x3ea741e3d106   134  488b7a0f       REX.W movq rdi,[rdx+0xf]
0x3ea741e3d10a   138  49ba09421073f7380000 REX.W movq r10,0x38f773104209    ;; object: 0x38f773104209 <Map(FAST_SMI_ELEMENTS)>
0x3ea741e3d114   148  4c3957ff       REX.W cmpq [rdi-0x1],r10
0x3ea741e3d118   152  0f859d000000   jnz 315  (0x3ea741e3d1bb)
0x3ea741e3d11e   158  448b421b       movl r8,[rdx+0x1b]
0x3ea741e3d122   162  4c8bca         REX.W movq r9,rdx
0x3ea741e3d125   165  41f6c101       testb r9,0x1
0x3ea741e3d129   169  0f854f000000   jnz 254  (0x3ea741e3d17e)
0x3ea741e3d12f   175  49c1e920       REX.W shrq r9, 32
0x3ea741e3d133   179  453bc1         cmpl r8,r9
0x3ea741e3d136   182  0f8689000000   jna 325  (0x3ea741e3d1c5)
0x3ea741e3d13c   188  488bd8         REX.W movq rbx,rax
0x3ea741e3d13f   191  4a895ccf0f     REX.W movq [rdi+r9*8+0xf],rbx
0x3ea741e3d144   196  4e8d4ccf0f     REX.W leaq r9,[rdi+r9*8+0xf]
0x3ea741e3d149   201  f6c301         testb rbx,0x1
0x3ea741e3d14c   204  0f8422000000   jz 244  (0x3ea741e3d174)
0x3ea741e3d152   210  4881e30000f0ff REX.W andq rbx,0xfffffffffff00000
0x3ea741e3d159   217  f6430804       testb [rbx+0x8],0x4
0x3ea741e3d15d   221  7415           jz 244  (0x3ea741e3d174)
0x3ea741e3d15f   223  48c7c30000f0ff REX.W movq rbx,0xfff00000
0x3ea741e3d166   230  4823df         REX.W andq rbx,rdi
0x3ea741e3d169   233  f6430808       testb [rbx+0x8],0x8
0x3ea741e3d16d   237  7405           jz 244  (0x3ea741e3d174)
0x3ea741e3d16f   239  e88cf4ffff     call 0x3ea741e3c600     ;; code: STUB, RecordWriteStub, minor: 10551
0x3ea741e3d174   244  f20f100c24     movsd xmm1,[rsp]
0x3ea741e3d179   249  488be5         REX.W movq rsp,rbp
0x3ea741e3d17c   252  5d             pop rbp
0x3ea741e3d17d   253  c3             ret
0x3ea741e3d17e   254  4d8b5508       REX.W movq r10,[r13+0x8]
0x3ea741e3d182   258  4d3951ff       REX.W cmpq [r9-0x1],r10
0x3ea741e3d186   262  0f8543000000   jnz 335  (0x3ea741e3d1cf)
0x3ea741e3d18c   268  f2410f104107   movsd xmm0,[r9+0x7]
0x3ea741e3d192   274  f2440f2cc8     cvttsd2sil r9,xmm0
0x3ea741e3d197   279  0f57c9         xorps xmm1,xmm1
0x3ea741e3d19a   282  f2410f2ac9     cvtsi2sd xmm1,r9
0x3ea741e3d19f   287  660f2ec1       ucomisd xmm0,xmm1
0x3ea741e3d1a3   291  0f8526000000   jnz 335  (0x3ea741e3d1cf)
0x3ea741e3d1a9   297  0f8a20000000   jpe 335  (0x3ea741e3d1cf)
0x3ea741e3d1af   303  eb82           jmp 179  (0x3ea741e3d133)
0x3ea741e3d1b1   305  f20f100c24     movsd xmm1,[rsp]
0x3ea741e3d1b6   310  e8458edcff     call 0x3ea741c06000     ;; lazy deoptimization bailout 0
0x3ea741e3d1bb   315  f20f100c24     movsd xmm1,[rsp]
0x3ea741e3d1c0   320  e8458edcff     call 0x3ea741c0600a     ;; lazy deoptimization bailout 1
0x3ea741e3d1c5   325  f20f100c24     movsd xmm1,[rsp]
0x3ea741e3d1ca   330  e8458edcff     call 0x3ea741c06014     ;; lazy deoptimization bailout 2
0x3ea741e3d1cf   335  f20f100c24     movsd xmm1,[rsp]
0x3ea741e3d1d4   340  e8458edcff     call 0x3ea741c0601e     ;; lazy deoptimization bailout 3
0x3ea741e3d1d9   345  0f1f00         nop


Safepoints (size = 8)

RelocInfo (size = 17)
0x3ea741e3d102  code target (STUB)  (0x3ea741e3bb80)
0x3ea741e3d10c  embedded object  (0x38f773104209 <Map(FAST_SMI_ELEMENTS)>)
0x3ea741e3d170  code target (STUB)  (0x3ea741e3c600)
0x3ea741e3d1b7  runtime entry
0x3ea741e3d1c1  runtime entry
0x3ea741e3d1cb  runtime entry
0x3ea741e3d1d5  runtime entry

--- End code ---
--- Raw source ---
(m, isPrime){
   var i, k, count;

   for (i=2; i<=m; i++) { isPrime[i] = true; }
   count = 0;

   for (i=2; i<=m; i++){
      if (isPrime[i]) {
         for (k=i+i; k<=m; k+=i) isPrime[k] = false;
         count++;
      }
   }
   return count;
}


--- Optimized code ---
optimization_id = 1
source_position = 318
kind = OPTIMIZED_FUNCTION
name = nsieve
stack_slots = 4
compiler = crankshaft
Instructions (size = 1040)
0x3ea741e3d640     0  55             push rbp
0x3ea741e3d641     1  4889e5         REX.W movq rbp,rsp
0x3ea741e3d644     4  56             push rsi
0x3ea741e3d645     5  57             push rdi
0x3ea741e3d646     6  4883ec20       REX.W subq rsp,0x20
0x3ea741e3d64a    10  488b45f8       REX.W movq rax,[rbp-0x8]
0x3ea741e3d64e    14  488945d0       REX.W movq [rbp-0x30],rax
0x3ea741e3d652    18  488bf0         REX.W movq rsi,rax
0x3ea741e3d655    21  6690           nop
0x3ea741e3d657    23  493ba540090000 REX.W cmpq rsp,[r13+0x940]
0x3ea741e3d65e    30  7305           jnc 37  (0x3ea741e3d665)
0x3ea741e3d660    32  e8db8dffff     call StackCheck  (0x3ea741e36440)    ;; code: BUILTIN
0x3ea741e3d665    37  e940000000     jmp 106  (0x3ea741e3d6aa)
0x3ea741e3d66a    42  4883ec08       REX.W subq rsp,0x8
0x3ea741e3d66e    46  488b45f8       REX.W movq rax,[rbp-0x8]
0x3ea741e3d672    50  488b5d18       REX.W movq rbx,[rbp+0x18]
0x3ea741e3d676    54  f6c301         testb rbx,0x1
0x3ea741e3d679    57  0f85ef010000   jnz 558  (0x3ea741e3d86e)
0x3ea741e3d67f    63  48c1eb20       REX.W shrq rbx, 32
0x3ea741e3d683    67  488b55e8       REX.W movq rdx,[rbp-0x18]
0x3ea741e3d687    71  f6c201         testb rdx,0x1
0x3ea741e3d68a    74  0f8511020000   jnz 609  (0x3ea741e3d8a1)
0x3ea741e3d690    80  48c1ea20       REX.W shrq rdx, 32
0x3ea741e3d694    84  488b7520       REX.W movq rsi,[rbp+0x20]
0x3ea741e3d698    88  488bcb         REX.W movq rcx,rbx
0x3ea741e3d69b    91  488bd8         REX.W movq rbx,rax
0x3ea741e3d69e    94  488bc2         REX.W movq rax,rdx
0x3ea741e3d6a1    97  488b5510       REX.W movq rdx,[rbp+0x10]
0x3ea741e3d6a5   101  e924000000     jmp 142  (0x3ea741e3d6ce)
0x3ea741e3d6aa   106  488b4518       REX.W movq rax,[rbp+0x18]
0x3ea741e3d6ae   110  a801           test al,0x1
0x3ea741e3d6b0   112  0f851e020000   jnz 660  (0x3ea741e3d8d4)
0x3ea741e3d6b6   118  48c1e820       REX.W shrq rax, 32
0x3ea741e3d6ba   122  488b7520       REX.W movq rsi,[rbp+0x20]
0x3ea741e3d6be   126  488bc8         REX.W movq rcx,rax
0x3ea741e3d6c1   129  488b5510       REX.W movq rdx,[rbp+0x10]
0x3ea741e3d6c5   133  488b5dd0       REX.W movq rbx,[rbp-0x30]
0x3ea741e3d6c9   137  b802000000     movl rax,0x2
0x3ea741e3d6ce   142  f6c201         testb rdx,0x1           ;; debug: position 367
0x3ea741e3d6d1   145  0f84ff020000   jz 918  (0x3ea741e3d9d6)
0x3ea741e3d6d7   151  49baf9ad1073f7380000 REX.W movq r10,0x38f77310adf9    ;; object: 0x38f77310adf9 <Map(FAST_HOLEY_SMI_ELEMENTS)>
0x3ea741e3d6e1   161  4c3952ff       REX.W cmpq [rdx-0x1],r10
0x3ea741e3d6e5   165  0f8525000000   jnz 208  (0x3ea741e3d710)
0x3ea741e3d6eb   171  49b801af1073f7380000 REX.W movq r8,0x38f77310af01    ;; object: 0x38f77310af01 <Map(FAST_HOLEY_ELEMENTS)>
0x3ea741e3d6f5   181  4c8942ff       REX.W movq [rdx-0x1],r8
0x3ea741e3d6f9   185  488d7aff       REX.W leaq rdi,[rdx-0x1]
0x3ea741e3d6fd   189  4981e00000f0ff REX.W andq r8,0xfffffffffff00000
0x3ea741e3d704   196  41f6400804     testb [r8+0x8],0x4
0x3ea741e3d709   201  7405           jz 208  (0x3ea741e3d710)
0x3ea741e3d70b   203  e810fcffff     call 0x3ea741e3d320     ;; code: STUB, RecordWriteStub, minor: 6018
0x3ea741e3d710   208  49ba01af1073f7380000 REX.W movq r10,0x38f77310af01    ;; object: 0x38f77310af01 <Map(FAST_HOLEY_ELEMENTS)>
0x3ea741e3d71a   218  4c3952ff       REX.W cmpq [rdx-0x1],r10
0x3ea741e3d71e   222  0f85b7020000   jnz 923  (0x3ea741e3d9db)
0x3ea741e3d724   228  488b7a0f       REX.W movq rdi,[rdx+0xf]
0x3ea741e3d728   232  49ba09421073f7380000 REX.W movq r10,0x38f773104209    ;; object: 0x38f773104209 <Map(FAST_SMI_ELEMENTS)>
0x3ea741e3d732   242  4c3957ff       REX.W cmpq [rdi-0x1],r10
0x3ea741e3d736   246  0f85a4020000   jnz 928  (0x3ea741e3d9e0)
0x3ea741e3d73c   252  448b421b       movl r8,[rdx+0x1b]
0x3ea741e3d740   256  3bc1           cmpl rax,rcx
0x3ea741e3d742   258  0f8f37000000   jg 319  (0x3ea741e3d77f)
0x3ea741e3d748   264  493ba540090000 REX.W cmpq rsp,[r13+0x940]
0x3ea741e3d74f   271  0f82b2010000   jc 711  (0x3ea741e3d907)
0x3ea741e3d755   277  443bc0         cmpl r8,rax
0x3ea741e3d758   280  0f8687020000   jna 933  (0x3ea741e3d9e5)
0x3ea741e3d75e   286  49ba3142306d13390000 REX.W movq r10,0x39136d304231    ;; object: 0x39136d304231 <true>
0x3ea741e3d768   296  4c8954c70f     REX.W movq [rdi+rax*8+0xf],r10
0x3ea741e3d76d   301  4c8bc8         REX.W movq r9,rax
0x3ea741e3d770   304  4183c101       addl r9,0x1             ;; debug: position 373
0x3ea741e3d774   308  0f8070020000   jo 938  (0x3ea741e3d9ea)
0x3ea741e3d77a   314  498bc1         REX.W movq rax,r9
0x3ea741e3d77d   317  ebc1           jmp 256  (0x3ea741e3d740)
0x3ea741e3d77f   319  488b420f       REX.W movq rax,[rdx+0xf]    ;; debug: position 429
0x3ea741e3d783   323  8b7a1b         movl rdi,[rdx+0x1b]
0x3ea741e3d786   326  49ba09421073f7380000 REX.W movq r10,0x38f773104209    ;; debug: position 486
                                                             ;; object: 0x38f773104209 <Map(FAST_SMI_ELEMENTS)>
0x3ea741e3d790   336  4c3950ff       REX.W cmpq [rax-0x1],r10
0x3ea741e3d794   340  0f8555020000   jnz 943  (0x3ea741e3d9ef)
0x3ea741e3d79a   346  41b902000000   movl r9,0x2             ;; debug: position 373
0x3ea741e3d7a0   352  4533c0         xorl r8,r8
0x3ea741e3d7a3   355  443bc9         cmpl r9,rcx             ;; debug: position 429
0x3ea741e3d7a6   358  0f8fb4000000   jg 544  (0x3ea741e3d860)
0x3ea741e3d7ac   364  493ba540090000 REX.W cmpq rsp,[r13+0x940]
0x3ea741e3d7b3   371  0f8293010000   jc 780  (0x3ea741e3d94c)
0x3ea741e3d7b9   377  413bf9         cmpl rdi,r9
0x3ea741e3d7bc   380  0f8632020000   jna 948  (0x3ea741e3d9f4)
0x3ea741e3d7c2   386  4e8b5cc80f     REX.W movq r11,[rax+r9*8+0xf]
0x3ea741e3d7c7   391  4d3b5db0       REX.W cmpq r11,[r13-0x50]
0x3ea741e3d7cb   395  0f850a000000   jnz 411  (0x3ea741e3d7db)
0x3ea741e3d7d1   401  49bb8941306d13390000 REX.W movq r11,0x39136d304189    ;; object: 0x39136d304189 <undefined>
0x3ea741e3d7db   411  4d3b5dc0       REX.W cmpq r11,[r13-0x40]
0x3ea741e3d7df   415  0f8417000000   jz 444  (0x3ea741e3d7fc)
0x3ea741e3d7e5   421  4d3b5dc8       REX.W cmpq r11,[r13-0x38]
0x3ea741e3d7e9   425  0f8405000000   jz 436  (0x3ea741e3d7f4)
0x3ea741e3d7ef   431  e88488ccff     call 0x3ea741b06078     ;; deoptimization bailout 12
0x3ea741e3d7f4   436  4d8bd8         REX.W movq r11,r8       ;; debug: position 531
0x3ea741e3d7f7   439  e958000000     jmp 532  (0x3ea741e3d854)
0x3ea741e3d7fc   444  4d8bd9         REX.W movq r11,r9       ;; debug: position 429
0x3ea741e3d7ff   447  4503d9         addl r11,r9             ;; debug: position 481
0x3ea741e3d802   450  0f80f1010000   jo 953  (0x3ea741e3d9f9)
0x3ea741e3d808   456  443bd9         cmpl r11,rcx            ;; debug: position 486
0x3ea741e3d80b   459  0f8f36000000   jg 519  (0x3ea741e3d847)
0x3ea741e3d811   465  493ba540090000 REX.W cmpq rsp,[r13+0x940]
0x3ea741e3d818   472  0f8273010000   jc 849  (0x3ea741e3d991)
0x3ea741e3d81e   478  413bfb         cmpl rdi,r11
0x3ea741e3d821   481  0f86d7010000   jna 958  (0x3ea741e3d9fe)
0x3ea741e3d827   487  49ba9942306d13390000 REX.W movq r10,0x39136d304299    ;; object: 0x39136d304299 <false>
0x3ea741e3d831   497  4e8954d80f     REX.W movq [rax+r11*8+0xf],r10
0x3ea741e3d836   502  4d8be3         REX.W movq r12,r11
0x3ea741e3d839   505  4503e1         addl r12,r9             ;; debug: position 493
0x3ea741e3d83c   508  0f80c1010000   jo 963  (0x3ea741e3da03)
0x3ea741e3d842   514  4d89e3         REX.W movq r11,r12
0x3ea741e3d845   517  ebc1           jmp 456  (0x3ea741e3d808)
0x3ea741e3d847   519  4d8bd8         REX.W movq r11,r8       ;; debug: position 531
0x3ea741e3d84a   522  4183c301       addl r11,0x1
0x3ea741e3d84e   526  0f80b4010000   jo 968  (0x3ea741e3da08)
0x3ea741e3d854   532  4183c101       addl r9,0x1             ;; debug: position 435
0x3ea741e3d858   536  4d8bc3         REX.W movq r8,r11
0x3ea741e3d85b   539  e943ffffff     jmp 355  (0x3ea741e3d7a3)
0x3ea741e3d860   544  418bc0         movl rax,r8
0x3ea741e3d863   547  48c1e020       REX.W shlq rax, 32
0x3ea741e3d867   551  488be5         REX.W movq rsp,rbp
0x3ea741e3d86a   554  5d             pop rbp
0x3ea741e3d86b   555  c21800         ret 0x18
0x3ea741e3d86e   558  4d8b5508       REX.W movq r10,[r13+0x8]
0x3ea741e3d872   562  4c3953ff       REX.W cmpq [rbx-0x1],r10
0x3ea741e3d876   566  0f8591010000   jnz 973  (0x3ea741e3da0d)
0x3ea741e3d87c   572  f20f104307     movsd xmm0,[rbx+0x7]
0x3ea741e3d881   577  f20f2cd8       cvttsd2sil rbx,xmm0
0x3ea741e3d885   581  0f57c9         xorps xmm1,xmm1
0x3ea741e3d888   584  f20f2acb       cvtsi2sd xmm1,rbx
0x3ea741e3d88c   588  660f2ec1       ucomisd xmm0,xmm1
0x3ea741e3d890   592  0f8577010000   jnz 973  (0x3ea741e3da0d)
0x3ea741e3d896   598  0f8a71010000   jpe 973  (0x3ea741e3da0d)
0x3ea741e3d89c   604  e9e2fdffff     jmp 67  (0x3ea741e3d683)
0x3ea741e3d8a1   609  4d8b5508       REX.W movq r10,[r13+0x8]
0x3ea741e3d8a5   613  4c3952ff       REX.W cmpq [rdx-0x1],r10
0x3ea741e3d8a9   617  0f8563010000   jnz 978  (0x3ea741e3da12)
0x3ea741e3d8af   623  f20f104207     movsd xmm0,[rdx+0x7]
0x3ea741e3d8b4   628  f20f2cd0       cvttsd2sil rdx,xmm0
0x3ea741e3d8b8   632  0f57c9         xorps xmm1,xmm1
0x3ea741e3d8bb   635  f20f2aca       cvtsi2sd xmm1,rdx
0x3ea741e3d8bf   639  660f2ec1       ucomisd xmm0,xmm1
0x3ea741e3d8c3   643  0f8549010000   jnz 978  (0x3ea741e3da12)
0x3ea741e3d8c9   649  0f8a43010000   jpe 978  (0x3ea741e3da12)
0x3ea741e3d8cf   655  e9c0fdffff     jmp 84  (0x3ea741e3d694)
0x3ea741e3d8d4   660  4d8b5508       REX.W movq r10,[r13+0x8]
0x3ea741e3d8d8   664  4c3950ff       REX.W cmpq [rax-0x1],r10
0x3ea741e3d8dc   668  0f8535010000   jnz 983  (0x3ea741e3da17)
0x3ea741e3d8e2   674  f20f104007     movsd xmm0,[rax+0x7]
0x3ea741e3d8e7   679  f20f2cc0       cvttsd2sil rax,xmm0
0x3ea741e3d8eb   683  0f57c9         xorps xmm1,xmm1
0x3ea741e3d8ee   686  f20f2ac8       cvtsi2sd xmm1,rax
0x3ea741e3d8f2   690  660f2ec1       ucomisd xmm0,xmm1
0x3ea741e3d8f6   694  0f851b010000   jnz 983  (0x3ea741e3da17)
0x3ea741e3d8fc   700  0f8a15010000   jpe 983  (0x3ea741e3da17)
0x3ea741e3d902   706  e9b3fdffff     jmp 122  (0x3ea741e3d6ba)
0x3ea741e3d907   711  50             push rax                ;; debug: position 367
0x3ea741e3d908   712  51             push rcx
0x3ea741e3d909   713  52             push rdx
0x3ea741e3d90a   714  53             push rbx
0x3ea741e3d90b   715  56             push rsi
0x3ea741e3d90c   716  57             push rdi
0x3ea741e3d90d   717  4150           push r8
0x3ea741e3d90f   719  4151           push r9
0x3ea741e3d911   721  4153           push r11
0x3ea741e3d913   723  4154           push r12
0x3ea741e3d915   725  4156           push r14
0x3ea741e3d917   727  4157           push r15
0x3ea741e3d919   729  488d6424e0     REX.W leaq rsp,[rsp-0x20]
0x3ea741e3d91e   734  488b75f8       REX.W movq rsi,[rbp-0x8]
0x3ea741e3d922   738  33c0           xorl rax,rax
0x3ea741e3d924   740  498d9d08523bfe REX.W leaq rbx,[r13-0x1c4adf8]
0x3ea741e3d92b   747  e87089fcff     call 0x3ea741e062a0     ;; code: STUB, CEntryStub, minor: 1
0x3ea741e3d930   752  488d642420     REX.W leaq rsp,[rsp+0x20]
0x3ea741e3d935   757  415f           pop r15
0x3ea741e3d937   759  415e           pop r14
0x3ea741e3d939   761  415c           pop r12
0x3ea741e3d93b   763  415b           pop r11
0x3ea741e3d93d   765  4159           pop r9
0x3ea741e3d93f   767  4158           pop r8
0x3ea741e3d941   769  5f             pop rdi
0x3ea741e3d942   770  5e             pop rsi
0x3ea741e3d943   771  5b             pop rbx
0x3ea741e3d944   772  5a             pop rdx
0x3ea741e3d945   773  59             pop rcx
0x3ea741e3d946   774  58             pop rax
0x3ea741e3d947   775  e909feffff     jmp 277  (0x3ea741e3d755)
0x3ea741e3d94c   780  50             push rax                ;; debug: position 429
0x3ea741e3d94d   781  51             push rcx
0x3ea741e3d94e   782  52             push rdx
0x3ea741e3d94f   783  53             push rbx
0x3ea741e3d950   784  56             push rsi
0x3ea741e3d951   785  57             push rdi
0x3ea741e3d952   786  4150           push r8
0x3ea741e3d954   788  4151           push r9
0x3ea741e3d956   790  4153           push r11
0x3ea741e3d958   792  4154           push r12
0x3ea741e3d95a   794  4156           push r14
0x3ea741e3d95c   796  4157           push r15
0x3ea741e3d95e   798  488d6424e0     REX.W leaq rsp,[rsp-0x20]
0x3ea741e3d963   803  488b75f8       REX.W movq rsi,[rbp-0x8]
0x3ea741e3d967   807  33c0           xorl rax,rax
0x3ea741e3d969   809  498d9d08523bfe REX.W leaq rbx,[r13-0x1c4adf8]
0x3ea741e3d970   816  e82b89fcff     call 0x3ea741e062a0     ;; code: STUB, CEntryStub, minor: 1
0x3ea741e3d975   821  488d642420     REX.W leaq rsp,[rsp+0x20]
0x3ea741e3d97a   826  415f           pop r15
0x3ea741e3d97c   828  415e           pop r14
0x3ea741e3d97e   830  415c           pop r12
0x3ea741e3d980   832  415b           pop r11
0x3ea741e3d982   834  4159           pop r9
0x3ea741e3d984   836  4158           pop r8
0x3ea741e3d986   838  5f             pop rdi
0x3ea741e3d987   839  5e             pop rsi
0x3ea741e3d988   840  5b             pop rbx
0x3ea741e3d989   841  5a             pop rdx
0x3ea741e3d98a   842  59             pop rcx
0x3ea741e3d98b   843  58             pop rax
0x3ea741e3d98c   844  e928feffff     jmp 377  (0x3ea741e3d7b9)
0x3ea741e3d991   849  50             push rax                ;; debug: position 486
0x3ea741e3d992   850  51             push rcx
0x3ea741e3d993   851  52             push rdx
0x3ea741e3d994   852  53             push rbx
0x3ea741e3d995   853  56             push rsi
0x3ea741e3d996   854  57             push rdi
0x3ea741e3d997   855  4150           push r8
0x3ea741e3d999   857  4151           push r9
0x3ea741e3d99b   859  4153           push r11
0x3ea741e3d99d   861  4154           push r12
0x3ea741e3d99f   863  4156           push r14
0x3ea741e3d9a1   865  4157           push r15
0x3ea741e3d9a3   867  488d6424e0     REX.W leaq rsp,[rsp-0x20]
0x3ea741e3d9a8   872  488b75f8       REX.W movq rsi,[rbp-0x8]
0x3ea741e3d9ac   876  33c0           xorl rax,rax
0x3ea741e3d9ae   878  498d9d08523bfe REX.W leaq rbx,[r13-0x1c4adf8]
0x3ea741e3d9b5   885  e8e688fcff     call 0x3ea741e062a0     ;; code: STUB, CEntryStub, minor: 1
0x3ea741e3d9ba   890  488d642420     REX.W leaq rsp,[rsp+0x20]
0x3ea741e3d9bf   895  415f           pop r15
0x3ea741e3d9c1   897  415e           pop r14
0x3ea741e3d9c3   899  415c           pop r12
0x3ea741e3d9c5   901  415b           pop r11
0x3ea741e3d9c7   903  4159           pop r9
0x3ea741e3d9c9   905  4158           pop r8
0x3ea741e3d9cb   907  5f             pop rdi
0x3ea741e3d9cc   908  5e             pop rsi
0x3ea741e3d9cd   909  5b             pop rbx
0x3ea741e3d9ce   910  5a             pop rdx
0x3ea741e3d9cf   911  59             pop rcx
0x3ea741e3d9d0   912  58             pop rax
0x3ea741e3d9d1   913  e948feffff     jmp 478  (0x3ea741e3d81e)
0x3ea741e3d9d6   918  e84386ccff     call 0x3ea741b0601e     ;; deoptimization bailout 3
0x3ea741e3d9db   923  e84886ccff     call 0x3ea741b06028     ;; deoptimization bailout 4
0x3ea741e3d9e0   928  e84d86ccff     call 0x3ea741b06032     ;; deoptimization bailout 5
0x3ea741e3d9e5   933  e85c86ccff     call 0x3ea741b06046     ;; deoptimization bailout 7
0x3ea741e3d9ea   938  e86186ccff     call 0x3ea741b06050     ;; deoptimization bailout 8
0x3ea741e3d9ef   943  e86686ccff     call 0x3ea741b0605a     ;; deoptimization bailout 9
0x3ea741e3d9f4   948  e87586ccff     call 0x3ea741b0606e     ;; deoptimization bailout 11
0x3ea741e3d9f9   953  e88486ccff     call 0x3ea741b06082     ;; deoptimization bailout 13
0x3ea741e3d9fe   958  e89386ccff     call 0x3ea741b06096     ;; deoptimization bailout 15
0x3ea741e3da03   963  e89886ccff     call 0x3ea741b060a0     ;; deoptimization bailout 16
0x3ea741e3da08   968  e89d86ccff     call 0x3ea741b060aa     ;; deoptimization bailout 17
0x3ea741e3da0d   973  e8a286ccff     call 0x3ea741b060b4     ;; deoptimization bailout 18
0x3ea741e3da12   978  e8a786ccff     call 0x3ea741b060be     ;; deoptimization bailout 19
0x3ea741e3da17   983  e8ac86ccff     call 0x3ea741b060c8     ;; deoptimization bailout 20

Inlined functions (count = 0)

Deoptimization Input Data (deopt points = 21)
 index  ast id    argc     pc
     0       1       0     10
     1       3       0     37
     2      18       0     -1
     3      16       0     -1
     4      16       0     -1
     5      16       0     -1
     6      20       0    277
     7      20       0     -1
     8      52       0     -1
     9      78       0     -1
    10      82       0    377
    11      82       0     -1
    12      82       0     -1
    13     115       0     -1
    14     133       0    478
    15     133       0     -1
    16     180       0     -1
    17     130       0     -1
    18      16       0     -1
    19      16       0     -1
    20      16       0     -1

Safepoints (size = 52)
0x3ea741e3d665    37  1000 (sp -> fp)       1
0x3ea741e3d930   752  0000 | rdx | rbx | rsi | rdi (sp -> fp)       6
0x3ea741e3d975   821  0000 | rax | rdx | rbx | rsi (sp -> fp)      10
0x3ea741e3d9ba   890  0000 | rax | rdx | rbx | rsi (sp -> fp)      14

RelocInfo (size = 131)
0x3ea741e3d661  code target (BUILTIN)  (0x3ea741e36440)
0x3ea741e3d6ce  position  (367)
0x3ea741e3d6d9  embedded object  (0x38f77310adf9 <Map(FAST_HOLEY_SMI_ELEMENTS)>)
0x3ea741e3d6ed  embedded object  (0x38f77310af01 <Map(FAST_HOLEY_ELEMENTS)>)
0x3ea741e3d70c  code target (STUB)  (0x3ea741e3d320)
0x3ea741e3d712  embedded object  (0x38f77310af01 <Map(FAST_HOLEY_ELEMENTS)>)
0x3ea741e3d72a  embedded object  (0x38f773104209 <Map(FAST_SMI_ELEMENTS)>)
0x3ea741e3d760  embedded object  (0x39136d304231 <true>)
0x3ea741e3d770  position  (373)
0x3ea741e3d77f  position  (429)
0x3ea741e3d786  position  (486)
0x3ea741e3d788  embedded object  (0x38f773104209 <Map(FAST_SMI_ELEMENTS)>)
0x3ea741e3d79a  position  (373)
0x3ea741e3d7a3  position  (429)
0x3ea741e3d7d3  embedded object  (0x39136d304189 <undefined>)
0x3ea741e3d7f0  runtime entry  (deoptimization bailout 12)
0x3ea741e3d7f4  position  (531)
0x3ea741e3d7fc  position  (429)
0x3ea741e3d7ff  position  (481)
0x3ea741e3d808  position  (486)
0x3ea741e3d829  embedded object  (0x39136d304299 <false>)
0x3ea741e3d839  position  (493)
0x3ea741e3d847  position  (531)
0x3ea741e3d854  position  (435)
0x3ea741e3d907  position  (367)
0x3ea741e3d92c  code target (STUB)  (0x3ea741e062a0)
0x3ea741e3d94c  position  (429)
0x3ea741e3d971  code target (STUB)  (0x3ea741e062a0)
0x3ea741e3d991  position  (486)
0x3ea741e3d9b6  code target (STUB)  (0x3ea741e062a0)
0x3ea741e3d9d7  runtime entry  (deoptimization bailout 3)
0x3ea741e3d9dc  runtime entry  (deoptimization bailout 4)
0x3ea741e3d9e1  runtime entry  (deoptimization bailout 5)
0x3ea741e3d9e6  runtime entry  (deoptimization bailout 7)
0x3ea741e3d9eb  runtime entry  (deoptimization bailout 8)
0x3ea741e3d9f0  runtime entry  (deoptimization bailout 9)
0x3ea741e3d9f5  runtime entry  (deoptimization bailout 11)
0x3ea741e3d9fa  runtime entry  (deoptimization bailout 13)
0x3ea741e3d9ff  runtime entry  (deoptimization bailout 15)
0x3ea741e3da04  runtime entry  (deoptimization bailout 16)
0x3ea741e3da09  runtime entry  (deoptimization bailout 17)
0x3ea741e3da0e  runtime entry  (deoptimization bailout 18)
0x3ea741e3da13  runtime entry  (deoptimization bailout 19)
0x3ea741e3da18  runtime entry  (deoptimization bailout 20)

--- End code ---
