--- Raw source ---
bitwiseAndValue=4294967296;for(var a=0;6E5>a;a++)bitwiseAndValue&=a;var b=bitwiseAndValue;if(0!=b)throw"ERROR: bad result: expected 0 but got "+b;


--- Code ---
source_position = 0
kind = FUNCTION
compiler = full-codegen
Instructions (size = 776)
0x3caeba73a700     0  55             push rbp                ;; debug: position 0
0x3caeba73a701     1  4889e5         REX.W movq rbp,rsp
0x3caeba73a704     4  56             push rsi
0x3caeba73a705     5  57             push rdi
0x3caeba73a706     6  41ff75a8       push [r13-0x58]
0x3caeba73a70a    10  49ba59e5de42040b0000 REX.W movq r10,0xb0442dee559    ;; object: 0xb0442dee559 <FixedArray[4]>
0x3caeba73a714    20  4152           push r10
0x3caeba73a716    22  6a00           push 0x0
0x3caeba73a718    24  b802000000     movl rax,0x2
0x3caeba73a71d    29  48bb10ac8a0001000000 REX.W movq rbx,0x1008aac10
0x3caeba73a727    39  e8f4f4fcff     call 0x3caeba709c20     ;; code: STUB, CEntryStub, minor: 0
0x3caeba73a72c    44  493ba540090000 REX.W cmpq rsp,[r13+0x940]
0x3caeba73a733    51  7305           jnc 58  (0x3caeba73a73a)
0x3caeba73a735    53  e8e6c0ffff     call StackCheck  (0x3caeba736820)    ;; code: BUILTIN
0x3caeba73a73a    58  48b8d9e4de42040b0000 REX.W movq rax,0xb0442dee4d9    ;; debug: statement 0
                                                             ;; debug: position 15
                                                             ;; object: 0xb0442dee4d9 <Number: 4.29497e+09>
0x3caeba73a744    68  48b971e4de42040b0000 REX.W movq rcx,0xb0442dee471    ;; object: 0xb0442dee471 <String[15]: bitwiseAndValue>
0x3caeba73a74e    78  488b5627       REX.W movq rdx,[rsi+0x27]
0x3caeba73a752    82  e8c979ffff     call 0x3caeba732120     ;; code: STORE_IC, UNINITIALIZED
0x3caeba73a757    87  488945e8       REX.W movq [rbp-0x18],rax
0x3caeba73a75b    91  48b80000000000000000 REX.W movq rax,0x0    ;; debug: statement 27
                                                             ;; debug: statement 31
0x3caeba73a765   101  48b9d97ad442040b0000 REX.W movq rcx,0xb0442d47ad9    ;; object: 0xb0442d47ad9 <String[1]: a>
0x3caeba73a76f   111  488b5627       REX.W movq rdx,[rsi+0x27]
0x3caeba73a773   115  e8a879ffff     call 0x3caeba732120     ;; code: STORE_IC, UNINITIALIZED
0x3caeba73a778   120  e9fd000000     jmp 378  (0x3caeba73a87a)
0x3caeba73a77d   125  48b971e4de42040b0000 REX.W movq rcx,0xb0442dee471    ;; debug: statement 49
                                                             ;; debug: position 49
                                                             ;; object: 0xb0442dee471 <String[15]: bitwiseAndValue>
0x3caeba73a787   135  488b5627       REX.W movq rdx,[rsi+0x27]
0x3caeba73a78b   139  48b80000000008000000 REX.W movq rax,0x800000000
0x3caeba73a795   149  e8665bfeff     call 0x3caeba720300     ;; code: contextual, LOAD_IC, DEFAULT
0x3caeba73a79a   154  50             push rax
0x3caeba73a79b   155  48b9d97ad442040b0000 REX.W movq rcx,0xb0442d47ad9    ;; debug: position 66
                                                             ;; object: 0xb0442d47ad9 <String[1]: a>
0x3caeba73a7a5   165  488b5627       REX.W movq rdx,[rsi+0x27]
0x3caeba73a7a9   169  48b80000000004000000 REX.W movq rax,0x400000000
0x3caeba73a7b3   179  e8485bfeff     call 0x3caeba720300     ;; code: contextual, LOAD_IC, DEFAULT
0x3caeba73a7b8   184  5a             pop rdx
0x3caeba73a7b9   185  488bc8         REX.W movq rcx,rax
0x3caeba73a7bc   188  480bc2         REX.W orq rax,rdx
0x3caeba73a7bf   191  a801           test al,0x1
0x3caeba73a7c1   193  720c           jc 207  (0x3caeba73a7cf)
0x3caeba73a7c3   195  488bc1         REX.W movq rax,rcx
0x3caeba73a7c6   198  e8f551ffff     call 0x3caeba72f9c0     ;; code: BINARY_OP_IC, UNINITIALIZED (id = 77)
0x3caeba73a7cb   203  a80a           test al,0xa
0x3caeba73a7cd   205  eb06           jmp 213  (0x3caeba73a7d5)
0x3caeba73a7cf   207  488bc2         REX.W movq rax,rdx
0x3caeba73a7d2   210  4823c1         REX.W andq rax,rcx
0x3caeba73a7d5   213  48b971e4de42040b0000 REX.W movq rcx,0xb0442dee471    ;; debug: position 64
                                                             ;; object: 0xb0442dee471 <String[15]: bitwiseAndValue>
0x3caeba73a7df   223  488b5627       REX.W movq rdx,[rsi+0x27]
0x3caeba73a7e3   227  e83879ffff     call 0x3caeba732120     ;; code: STORE_IC, UNINITIALIZED
0x3caeba73a7e8   232  488945e8       REX.W movq [rbp-0x18],rax
0x3caeba73a7ec   236  48b9d97ad442040b0000 REX.W movq rcx,0xb0442d47ad9    ;; debug: statement 46
                                                             ;; debug: position 45
                                                             ;; object: 0xb0442d47ad9 <String[1]: a>
0x3caeba73a7f6   246  488b5627       REX.W movq rdx,[rsi+0x27]
0x3caeba73a7fa   250  48b80000000004000000 REX.W movq rax,0x400000000
0x3caeba73a804   260  e8f75afeff     call 0x3caeba720300     ;; code: contextual, LOAD_IC, DEFAULT
0x3caeba73a809   265  a801           test al,0x1
0x3caeba73a80b   267  7314           jnc 289  (0x3caeba73a821)
0x3caeba73a80d   269  49ba0000000001000000 REX.W movq r10,0x100000000
0x3caeba73a817   279  4903c2         REX.W addq rax,r10
0x3caeba73a81a   282  711e           jno 314  (0x3caeba73a83a)
0x3caeba73a81c   284  492bc2         REX.W subq rax,r10
0x3caeba73a81f   287  eb05           jmp 294  (0x3caeba73a826)
0x3caeba73a821   289  e8ba03ffff     call 0x3caeba72abe0     ;; code: STUB, ToNumberStub, minor: 0
0x3caeba73a826   294  488bd0         REX.W movq rdx,rax      ;; debug: position 46
0x3caeba73a829   297  48b80000000001000000 REX.W movq rax,0x100000000
0x3caeba73a833   307  e80885fdff     call 0x3caeba712d40     ;; code: BINARY_OP_IC, UNINITIALIZED (id = 58)
0x3caeba73a838   312  a82d           test al,0x2d
0x3caeba73a83a   314  48b9d97ad442040b0000 REX.W movq rcx,0xb0442d47ad9    ;; object: 0xb0442d47ad9 <String[1]: a>
0x3caeba73a844   324  488b5627       REX.W movq rdx,[rsi+0x27]
0x3caeba73a848   328  e8d378ffff     call 0x3caeba732120     ;; code: STORE_IC, UNINITIALIZED
0x3caeba73a84d   333  48bb49e5de42040b0000 REX.W movq rbx,0xb0442dee549    ;; object: 0xb0442dee549 Cell for 6144
0x3caeba73a857   343  83430bff       addl [rbx+0xb],0xff
0x3caeba73a85b   347  791d           jns 378  (0x3caeba73a87a)
0x3caeba73a85d   349  e87ebeffff     call InterruptCheck  (0x3caeba7366e0)    ;; code: BUILTIN
0x3caeba73a862   354  48bb49e5de42040b0000 REX.W movq rbx,0xb0442dee549    ;; object: 0xb0442dee549 Cell for 6144
0x3caeba73a86c   364  49ba0000000000180000 REX.W movq r10,0x180000000000
0x3caeba73a876   374  4c895307       REX.W movq [rbx+0x7],r10
0x3caeba73a87a   378  49ba00000000528e3c03 REX.W movq r10,0x33c8e5200000000    ;; debug: statement 42
0x3caeba73a884   388  4152           push r10
0x3caeba73a886   390  49ba0000000092a93503 REX.W movq r10,0x335a99200000000
0x3caeba73a890   400  4c311424       REX.W xorq [rsp],r10
0x3caeba73a894   404  48b9d97ad442040b0000 REX.W movq rcx,0xb0442d47ad9    ;; debug: position 43
                                                             ;; object: 0xb0442d47ad9 <String[1]: a>
0x3caeba73a89e   414  488b5627       REX.W movq rdx,[rsi+0x27]
0x3caeba73a8a2   418  48b80000000004000000 REX.W movq rax,0x400000000
0x3caeba73a8ac   428  e84f5afeff     call 0x3caeba720300     ;; code: contextual, LOAD_IC, DEFAULT
0x3caeba73a8b1   433  5a             pop rdx
0x3caeba73a8b2   434  488bca         REX.W movq rcx,rdx
0x3caeba73a8b5   437  480bc8         REX.W orq rcx,rax
0x3caeba73a8b8   440  f6c101         testb rcx,0x1
0x3caeba73a8bb   443  730e           jnc 459  (0x3caeba73a8cb)
0x3caeba73a8bd   445  483bd0         REX.W cmpq rdx,rax
0x3caeba73a8c0   448  0f8fb7feffff   jg 125  (0x3caeba73a77d)
0x3caeba73a8c6   454  e921000000     jmp 492  (0x3caeba73a8ec)
0x3caeba73a8cb   459  e8b053ffff     call 0x3caeba72fc80     ;; code: COMPARE_IC, UNINITIALIZED (id = 47)
0x3caeba73a8d0   464  a815           test al,0x15
0x3caeba73a8d2   466  eb0f           jmp 483  (0x3caeba73a8e3)
0x3caeba73a8d4   468  493b45c0       REX.W cmpq rax,[r13-0x40]
0x3caeba73a8d8   472  0f849ffeffff   jz 125  (0x3caeba73a77d)
0x3caeba73a8de   478  e909000000     jmp 492  (0x3caeba73a8ec)
0x3caeba73a8e3   483  4885c0         REX.W testq rax,rax
0x3caeba73a8e6   486  0f8f91feffff   jg 125  (0x3caeba73a77d)
0x3caeba73a8ec   492  49baf97ad442040b0000 REX.W movq r10,0xb0442d47af9    ;; debug: statement 68
                                                             ;; object: 0xb0442d47af9 <String[1]: b>
0x3caeba73a8f6   502  4152           push r10
0x3caeba73a8f8   504  6a00           push 0x0
0x3caeba73a8fa   506  48b971e4de42040b0000 REX.W movq rcx,0xb0442dee471    ;; debug: position 74
                                                             ;; object: 0xb0442dee471 <String[15]: bitwiseAndValue>
0x3caeba73a904   516  488b5627       REX.W movq rdx,[rsi+0x27]
0x3caeba73a908   520  48b80000000008000000 REX.W movq rax,0x800000000
0x3caeba73a912   530  e8e959feff     call 0x3caeba720300     ;; code: contextual, LOAD_IC, DEFAULT
0x3caeba73a917   535  50             push rax
0x3caeba73a918   536  b803000000     movl rax,0x3
0x3caeba73a91d   541  48bba0b28a0001000000 REX.W movq rbx,0x1008ab2a0
0x3caeba73a927   551  e8f4f2fcff     call 0x3caeba709c20     ;; code: STUB, CEntryStub, minor: 0
0x3caeba73a92c   556  6a00           push 0x0                ;; debug: statement 90
                                                             ;; debug: position 94
0x3caeba73a92e   558  48b9f97ad442040b0000 REX.W movq rcx,0xb0442d47af9    ;; debug: position 96
                                                             ;; object: 0xb0442d47af9 <String[1]: b>
0x3caeba73a938   568  488b5627       REX.W movq rdx,[rsi+0x27]
0x3caeba73a93c   572  48b80000000006000000 REX.W movq rax,0x600000000
0x3caeba73a946   582  e8b559feff     call 0x3caeba720300     ;; code: contextual, LOAD_IC, DEFAULT
0x3caeba73a94b   587  5a             pop rdx
0x3caeba73a94c   588  e80f1cfeff     call 0x3caeba71c560     ;; code: COMPARE_IC, UNINITIALIZED (id = 114)
0x3caeba73a951   593  90             nop
0x3caeba73a952   594  eb0f           jmp 611  (0x3caeba73a963)
0x3caeba73a954   596  493b45c0       REX.W cmpq rax,[r13-0x40]
0x3caeba73a958   600  0f8453000000   jz 689  (0x3caeba73a9b1)
0x3caeba73a95e   606  e909000000     jmp 620  (0x3caeba73a96c)
0x3caeba73a963   611  4885c0         REX.W testq rax,rax
0x3caeba73a966   614  0f8445000000   jz 689  (0x3caeba73a9b1)
0x3caeba73a96c   620  49ba99e4de42040b0000 REX.W movq r10,0xb0442dee499    ;; debug: statement 98
                                                             ;; object: 0xb0442dee499 <String[38]: ERROR: bad result: expected 0 but got >
0x3caeba73a976   630  4152           push r10
0x3caeba73a978   632  48b9f97ad442040b0000 REX.W movq rcx,0xb0442d47af9    ;; debug: position 144
                                                             ;; object: 0xb0442d47af9 <String[1]: b>
0x3caeba73a982   642  488b5627       REX.W movq rdx,[rsi+0x27]
0x3caeba73a986   646  48b80000000006000000 REX.W movq rax,0x600000000
0x3caeba73a990   656  e86b59feff     call 0x3caeba720300     ;; code: contextual, LOAD_IC, DEFAULT
0x3caeba73a995   661  5a             pop rdx                 ;; debug: position 143
0x3caeba73a996   662  e8a583fdff     call 0x3caeba712d40     ;; code: BINARY_OP_IC, UNINITIALIZED (id = 126)
0x3caeba73a99b   667  90             nop
0x3caeba73a99c   668  50             push rax
0x3caeba73a99d   669  b801000000     movl rax,0x1            ;; debug: position 98
0x3caeba73a9a2   674  48bb7098870001000000 REX.W movq rbx,0x100879870
0x3caeba73a9ac   684  e86ff2fcff     call 0x3caeba709c20     ;; code: STUB, CEntryStub, minor: 0
0x3caeba73a9b1   689  488b45e8       REX.W movq rax,[rbp-0x18]    ;; debug: statement 147
0x3caeba73a9b5   693  48bb49e5de42040b0000 REX.W movq rbx,0xb0442dee549    ;; object: 0xb0442dee549 Cell for 6144
0x3caeba73a9bf   703  83430bfc       addl [rbx+0xb],0xfc
0x3caeba73a9c3   707  791f           jns 740  (0x3caeba73a9e4)
0x3caeba73a9c5   709  50             push rax
0x3caeba73a9c6   710  e815bdffff     call InterruptCheck  (0x3caeba7366e0)    ;; code: BUILTIN
0x3caeba73a9cb   715  58             pop rax
0x3caeba73a9cc   716  48bb49e5de42040b0000 REX.W movq rbx,0xb0442dee549    ;; object: 0xb0442dee549 Cell for 6144
0x3caeba73a9d6   726  49ba0000000000180000 REX.W movq r10,0x180000000000
0x3caeba73a9e0   736  4c895307       REX.W movq [rbx+0x7],r10
0x3caeba73a9e4   740  c9             leave                   ;; debug: statement 146
0x3caeba73a9e5   741  c20800         ret 0x8
0x3caeba73a9e8   744  498b45a8       REX.W movq rax,[r13-0x58]
0x3caeba73a9ec   748  e9c4ffffff     jmp 693  (0x3caeba73a9b5)
0x3caeba73a9f1   753  0f1f8000000000 nop

Deoptimization Output Data (deopt points = 0)

Back edges (size = 1)
ast_id  pc_offset  loop_depth
    29        354           1

0xb0442dee611: [TypeFeedbackInfo]
 - ic_total_count: 16, ic_with_type_info_count: 0, ic_generic_count: 0

RelocInfo (size = 117)
0x3caeba73a700  position  (0)
0x3caeba73a70c  embedded object  (0xb0442dee559 <FixedArray[4]>)
0x3caeba73a728  code target (STUB)  (0x3caeba709c20)
0x3caeba73a736  code target (BUILTIN)  (0x3caeba736820)
0x3caeba73a73a  statement position  (0)
0x3caeba73a73a  position  (15)
0x3caeba73a73c  embedded object  (0xb0442dee4d9 <Number: 4.29497e+09>)
0x3caeba73a746  embedded object  (0xb0442dee471 <String[15]: bitwiseAndValue>)
0x3caeba73a753  code target (STORE_IC)  (0x3caeba732120)
0x3caeba73a75b  statement position  (27)
0x3caeba73a75b  statement position  (31)
0x3caeba73a767  embedded object  (0xb0442d47ad9 <String[1]: a>)
0x3caeba73a774  code target (STORE_IC)  (0x3caeba732120)
0x3caeba73a77d  statement position  (49)
0x3caeba73a77d  position  (49)
0x3caeba73a77f  embedded object  (0xb0442dee471 <String[15]: bitwiseAndValue>)
0x3caeba73a796  code target (LOAD_IC)  (0x3caeba720300)
0x3caeba73a79b  position  (66)
0x3caeba73a79d  embedded object  (0xb0442d47ad9 <String[1]: a>)
0x3caeba73a7b4  code target (LOAD_IC)  (0x3caeba720300)
0x3caeba73a7c7  code target with id (BINARY_OP_IC)  (0x3caeba72f9c0) (id=77)
0x3caeba73a7d5  position  (64)
0x3caeba73a7d7  embedded object  (0xb0442dee471 <String[15]: bitwiseAndValue>)
0x3caeba73a7e4  code target (STORE_IC)  (0x3caeba732120)
0x3caeba73a7ec  statement position  (46)
0x3caeba73a7ec  position  (45)
0x3caeba73a7ee  embedded object  (0xb0442d47ad9 <String[1]: a>)
0x3caeba73a805  code target (LOAD_IC)  (0x3caeba720300)
0x3caeba73a822  code target (STUB)  (0x3caeba72abe0)
0x3caeba73a826  position  (46)
0x3caeba73a834  code target with id (BINARY_OP_IC)  (0x3caeba712d40) (id=58)
0x3caeba73a83c  embedded object  (0xb0442d47ad9 <String[1]: a>)
0x3caeba73a849  code target (STORE_IC)  (0x3caeba732120)
0x3caeba73a84f  embedded object  (0xb0442dee549 Cell for 6144)
0x3caeba73a85e  code target (BUILTIN)  (0x3caeba7366e0)
0x3caeba73a864  embedded object  (0xb0442dee549 Cell for 6144)
0x3caeba73a87a  statement position  (42)
0x3caeba73a894  position  (43)
0x3caeba73a896  embedded object  (0xb0442d47ad9 <String[1]: a>)
0x3caeba73a8ad  code target (LOAD_IC)  (0x3caeba720300)
0x3caeba73a8cc  code target with id (COMPARE_IC)  (0x3caeba72fc80) (id=47)
0x3caeba73a8ec  statement position  (68)
0x3caeba73a8ee  embedded object  (0xb0442d47af9 <String[1]: b>)
0x3caeba73a8fa  position  (74)
0x3caeba73a8fc  embedded object  (0xb0442dee471 <String[15]: bitwiseAndValue>)
0x3caeba73a913  code target (LOAD_IC)  (0x3caeba720300)
0x3caeba73a928  code target (STUB)  (0x3caeba709c20)
0x3caeba73a92c  statement position  (90)
0x3caeba73a92c  position  (94)
0x3caeba73a92e  position  (96)
0x3caeba73a930  embedded object  (0xb0442d47af9 <String[1]: b>)
0x3caeba73a947  code target (LOAD_IC)  (0x3caeba720300)
0x3caeba73a94d  code target with id (COMPARE_IC)  (0x3caeba71c560) (id=114)
0x3caeba73a96c  statement position  (98)
0x3caeba73a96e  embedded object  (0xb0442dee499 <String[38]: ERROR: bad result: expected 0 but got >)
0x3caeba73a978  position  (144)
0x3caeba73a97a  embedded object  (0xb0442d47af9 <String[1]: b>)
0x3caeba73a991  code target (LOAD_IC)  (0x3caeba720300)
0x3caeba73a995  position  (143)
0x3caeba73a997  code target with id (BINARY_OP_IC)  (0x3caeba712d40) (id=126)
0x3caeba73a99d  position  (98)
0x3caeba73a9ad  code target (STUB)  (0x3caeba709c20)
0x3caeba73a9b1  statement position  (147)
0x3caeba73a9b7  embedded object  (0xb0442dee549 Cell for 6144)
0x3caeba73a9c7  code target (BUILTIN)  (0x3caeba7366e0)
0x3caeba73a9ce  embedded object  (0xb0442dee549 Cell for 6144)
0x3caeba73a9e4  statement position  (146)

--- End code ---
--- Raw source ---
(h){
var i;
if((typeof(this)==='number')){
i=this;
if(!(typeof(h)==='number'))h=%non_number_to_number(h);
}else{
i=%non_number_to_number(this);
if(!(typeof(h)==='number'))h=%non_number_to_number(h);
if((!%_IsSmi(%IS_VAR(i))&&!(i==i)))return 0;
}
return %NumberAnd(i,h);
}


--- Code ---
source_position = 5696
kind = FUNCTION
name = BIT_AND
compiler = full-codegen
Instructions (size = 508)
0x3caeba73ac20     0  55             push rbp                ;; debug: position 5696
0x3caeba73ac21     1  4889e5         REX.W movq rbp,rsp
0x3caeba73ac24     4  56             push rsi
0x3caeba73ac25     5  57             push rdi
0x3caeba73ac26     6  41ff75a8       push [r13-0x58]
0x3caeba73ac2a    10  493ba540090000 REX.W cmpq rsp,[r13+0x940]
0x3caeba73ac31    17  7305           jnc 24  (0x3caeba73ac38)
0x3caeba73ac33    19  e8e8bbffff     call StackCheck  (0x3caeba736820)    ;; code: BUILTIN
0x3caeba73ac38    24  488b4518       REX.W movq rax,[rbp+0x18]    ;; debug: statement 5701
                                                             ;; debug: statement 5708
                                                             ;; debug: position 5719
0x3caeba73ac3c    28  eb0f           jmp 45  (0x3caeba73ac4d)
0x3caeba73ac3e    30  493b45c0       REX.W cmpq rax,[r13-0x40]
0x3caeba73ac42    34  0f841b000000   jz 67  (0x3caeba73ac63)
0x3caeba73ac48    40  e982000000     jmp 175  (0x3caeba73accf)
0x3caeba73ac4d    45  a801           test al,0x1
0x3caeba73ac4f    47  0f840e000000   jz 67  (0x3caeba73ac63)
0x3caeba73ac55    53  488b40ff       REX.W movq rax,[rax-0x1]
0x3caeba73ac59    57  493b4508       REX.W cmpq rax,[r13+0x8]
0x3caeba73ac5d    61  0f856c000000   jnz 175  (0x3caeba73accf)
0x3caeba73ac63    67  488b4518       REX.W movq rax,[rbp+0x18]    ;; debug: statement 5739
                                                             ;; debug: position 5741
0x3caeba73ac67    71  488945e8       REX.W movq [rbp-0x18],rax    ;; debug: position 5740
0x3caeba73ac6b    75  488b4510       REX.W movq rax,[rbp+0x10]    ;; debug: statement 5747
                                                             ;; debug: position 5759
0x3caeba73ac6f    79  eb0f           jmp 96  (0x3caeba73ac80)
0x3caeba73ac71    81  493b45c0       REX.W cmpq rax,[r13-0x40]
0x3caeba73ac75    85  0f844f000000   jz 170  (0x3caeba73acca)
0x3caeba73ac7b    91  e916000000     jmp 118  (0x3caeba73ac96)
0x3caeba73ac80    96  a801           test al,0x1
0x3caeba73ac82    98  0f8442000000   jz 170  (0x3caeba73acca)
0x3caeba73ac88   104  488b40ff       REX.W movq rax,[rax-0x1]
0x3caeba73ac8c   108  493b4508       REX.W cmpq rax,[r13+0x8]
0x3caeba73ac90   112  0f8434000000   jz 170  (0x3caeba73acca)
0x3caeba73ac96   118  41ff75a8       push [r13-0x58]         ;; debug: statement 5774
                                                             ;; debug: position 5775
0x3caeba73ac9a   122  488b4627       REX.W movq rax,[rsi+0x27]
0x3caeba73ac9e   126  488b401f       REX.W movq rax,[rax+0x1f]
0x3caeba73aca2   130  488b80cf020000 REX.W movq rax,[rax+0x2cf]
0x3caeba73aca9   137  ff3424         push [rsp]
0x3caeba73acac   140  4889442408     REX.W movq [rsp+0x8],rax
0x3caeba73acb1   145  ff7510         push [rbp+0x10]         ;; debug: position 5798
0x3caeba73acb4   148  488b7c2410     REX.W movq rdi,[rsp+0x10]    ;; debug: position 5776
0x3caeba73acb9   153  e8a24dffff     call 0x3caeba72fa60     ;; code: STUB, CallFunctionStub, minor: 4
0x3caeba73acbe   158  488b75f8       REX.W movq rsi,[rbp-0x8]
0x3caeba73acc2   162  4883c408       REX.W addq rsp,0x8
0x3caeba73acc6   166  48894510       REX.W movq [rbp+0x10],rax    ;; debug: position 5775
0x3caeba73acca   170  e91a010000     jmp 457  (0x3caeba73ade9)
0x3caeba73accf   175  41ff75a8       push [r13-0x58]         ;; debug: statement 5809
                                                             ;; debug: position 5810
0x3caeba73acd3   179  488b4627       REX.W movq rax,[rsi+0x27]
0x3caeba73acd7   183  488b401f       REX.W movq rax,[rax+0x1f]
0x3caeba73acdb   187  488b80cf020000 REX.W movq rax,[rax+0x2cf]
0x3caeba73ace2   194  ff3424         push [rsp]
0x3caeba73ace5   197  4889442408     REX.W movq [rsp+0x8],rax
0x3caeba73acea   202  ff7518         push [rbp+0x18]         ;; debug: position 5833
0x3caeba73aced   205  488b7c2410     REX.W movq rdi,[rsp+0x10]    ;; debug: position 5811
0x3caeba73acf2   210  e8694dffff     call 0x3caeba72fa60     ;; code: STUB, CallFunctionStub, minor: 4
0x3caeba73acf7   215  488b75f8       REX.W movq rsi,[rbp-0x8]
0x3caeba73acfb   219  4883c408       REX.W addq rsp,0x8
0x3caeba73acff   223  488945e8       REX.W movq [rbp-0x18],rax    ;; debug: position 5810
0x3caeba73ad03   227  488b4510       REX.W movq rax,[rbp+0x10]    ;; debug: statement 5840
                                                             ;; debug: position 5852
0x3caeba73ad07   231  eb0f           jmp 248  (0x3caeba73ad18)
0x3caeba73ad09   233  493b45c0       REX.W cmpq rax,[r13-0x40]
0x3caeba73ad0d   237  0f844f000000   jz 322  (0x3caeba73ad62)
0x3caeba73ad13   243  e916000000     jmp 270  (0x3caeba73ad2e)
0x3caeba73ad18   248  a801           test al,0x1
0x3caeba73ad1a   250  0f8442000000   jz 322  (0x3caeba73ad62)
0x3caeba73ad20   256  488b40ff       REX.W movq rax,[rax-0x1]
0x3caeba73ad24   260  493b4508       REX.W cmpq rax,[r13+0x8]
0x3caeba73ad28   264  0f8434000000   jz 322  (0x3caeba73ad62)
0x3caeba73ad2e   270  41ff75a8       push [r13-0x58]         ;; debug: statement 5867
                                                             ;; debug: position 5868
0x3caeba73ad32   274  488b4627       REX.W movq rax,[rsi+0x27]
0x3caeba73ad36   278  488b401f       REX.W movq rax,[rax+0x1f]
0x3caeba73ad3a   282  488b80cf020000 REX.W movq rax,[rax+0x2cf]
0x3caeba73ad41   289  ff3424         push [rsp]
0x3caeba73ad44   292  4889442408     REX.W movq [rsp+0x8],rax
0x3caeba73ad49   297  ff7510         push [rbp+0x10]         ;; debug: position 5891
0x3caeba73ad4c   300  488b7c2410     REX.W movq rdi,[rsp+0x10]    ;; debug: position 5869
0x3caeba73ad51   305  e80a4dffff     call 0x3caeba72fa60     ;; code: STUB, CallFunctionStub, minor: 4
0x3caeba73ad56   310  488b75f8       REX.W movq rsi,[rbp-0x8]
0x3caeba73ad5a   314  4883c408       REX.W addq rsp,0x8
0x3caeba73ad5e   318  48894510       REX.W movq [rbp+0x10],rax    ;; debug: position 5868
0x3caeba73ad62   322  488b45e8       REX.W movq rax,[rbp-0x18]    ;; debug: statement 5895
                                                             ;; debug: position 5916
0x3caeba73ad66   326  eb0f           jmp 343  (0x3caeba73ad77)
0x3caeba73ad68   328  493b45c0       REX.W cmpq rax,[r13-0x40]
0x3caeba73ad6c   332  0f8477000000   jz 457  (0x3caeba73ade9)
0x3caeba73ad72   338  e90d000000     jmp 356  (0x3caeba73ad84)
0x3caeba73ad77   343  a801           test al,0x1
0x3caeba73ad79   345  0f846a000000   jz 457  (0x3caeba73ade9)
0x3caeba73ad7f   351  e900000000     jmp 356  (0x3caeba73ad84)
0x3caeba73ad84   356  ff75e8         push [rbp-0x18]         ;; debug: position 5923
0x3caeba73ad87   359  488b45e8       REX.W movq rax,[rbp-0x18]    ;; debug: position 5926
0x3caeba73ad8b   363  5a             pop rdx
0x3caeba73ad8c   364  e8cf17feff     call 0x3caeba71c560     ;; code: COMPARE_IC, UNINITIALIZED (id = 144)
0x3caeba73ad91   369  90             nop
0x3caeba73ad92   370  eb0f           jmp 387  (0x3caeba73ada3)
0x3caeba73ad94   372  493b45c0       REX.W cmpq rax,[r13-0x40]
0x3caeba73ad98   376  0f844b000000   jz 457  (0x3caeba73ade9)
0x3caeba73ad9e   382  e909000000     jmp 396  (0x3caeba73adac)
0x3caeba73ada3   387  4885c0         REX.W testq rax,rax
0x3caeba73ada6   390  0f843d000000   jz 457  (0x3caeba73ade9)
0x3caeba73adac   396  48b80000000000000000 REX.W movq rax,0x0    ;; debug: statement 5930
0x3caeba73adb6   406  48bbd9e8de42040b0000 REX.W movq rbx,0xb0442dee8d9    ;; object: 0xb0442dee8d9 Cell for 6144
0x3caeba73adc0   416  83430bfe       addl [rbx+0xb],0xfe
0x3caeba73adc4   420  791f           jns 453  (0x3caeba73ade5)
0x3caeba73adc6   422  50             push rax
0x3caeba73adc7   423  e814b9ffff     call InterruptCheck  (0x3caeba7366e0)    ;; code: BUILTIN
0x3caeba73adcc   428  58             pop rax
0x3caeba73adcd   429  48bbd9e8de42040b0000 REX.W movq rbx,0xb0442dee8d9    ;; object: 0xb0442dee8d9 Cell for 6144
0x3caeba73add7   439  49ba0000000000180000 REX.W movq r10,0x180000000000
0x3caeba73ade1   449  4c895307       REX.W movq [rbx+0x7],r10
0x3caeba73ade5   453  c9             leave                   ;; debug: statement 5966
0x3caeba73ade6   454  c21000         ret 0x10
0x3caeba73ade9   457  ff75e8         push [rbp-0x18]         ;; debug: statement 5942
                                                             ;; debug: position 5960
0x3caeba73adec   460  ff7510         push [rbp+0x10]         ;; debug: position 5962
0x3caeba73adef   463  b802000000     movl rax,0x2
0x3caeba73adf4   468  48bb90db880001000000 REX.W movq rbx,0x10088db90
0x3caeba73adfe   478  e81deefcff     call 0x3caeba709c20     ;; code: STUB, CEntryStub, minor: 0
0x3caeba73ae03   483  e9aeffffff     jmp 406  (0x3caeba73adb6)
0x3caeba73ae08   488  498b45a8       REX.W movq rax,[r13-0x58]
0x3caeba73ae0c   492  e9a5ffffff     jmp 406  (0x3caeba73adb6)
0x3caeba73ae11   497  0f1f8000000000 nop

Deoptimization Output Data (deopt points = 0)

Back edges (size = 0)
ast_id  pc_offset  loop_depth

0xb0442dee959: [TypeFeedbackInfo]
 - ic_total_count: 1, ic_with_type_info_count: 0, ic_generic_count: 0

RelocInfo (size = 96)
0x3caeba73ac20  position  (5696)
0x3caeba73ac34  code target (BUILTIN)  (0x3caeba736820)
0x3caeba73ac38  statement position  (5701)
0x3caeba73ac38  statement position  (5708)
0x3caeba73ac38  position  (5719)
0x3caeba73ac63  statement position  (5739)
0x3caeba73ac63  position  (5741)
0x3caeba73ac67  position  (5740)
0x3caeba73ac6b  statement position  (5747)
0x3caeba73ac6b  position  (5759)
0x3caeba73ac96  statement position  (5774)
0x3caeba73ac96  position  (5775)
0x3caeba73acb1  position  (5798)
0x3caeba73acb4  position  (5776)
0x3caeba73acba  code target (STUB)  (0x3caeba72fa60)
0x3caeba73acc6  position  (5775)
0x3caeba73accf  statement position  (5809)
0x3caeba73accf  position  (5810)
0x3caeba73acea  position  (5833)
0x3caeba73aced  position  (5811)
0x3caeba73acf3  code target (STUB)  (0x3caeba72fa60)
0x3caeba73acff  position  (5810)
0x3caeba73ad03  statement position  (5840)
0x3caeba73ad03  position  (5852)
0x3caeba73ad2e  statement position  (5867)
0x3caeba73ad2e  position  (5868)
0x3caeba73ad49  position  (5891)
0x3caeba73ad4c  position  (5869)
0x3caeba73ad52  code target (STUB)  (0x3caeba72fa60)
0x3caeba73ad5e  position  (5868)
0x3caeba73ad62  statement position  (5895)
0x3caeba73ad62  position  (5916)
0x3caeba73ad84  position  (5923)
0x3caeba73ad87  position  (5926)
0x3caeba73ad8d  code target with id (COMPARE_IC)  (0x3caeba71c560) (id=144)
0x3caeba73adac  statement position  (5930)
0x3caeba73adb8  embedded object  (0xb0442dee8d9 Cell for 6144)
0x3caeba73adc8  code target (BUILTIN)  (0x3caeba7366e0)
0x3caeba73adcf  embedded object  (0xb0442dee8d9 Cell for 6144)
0x3caeba73ade5  statement position  (5966)
0x3caeba73ade9  statement position  (5942)
0x3caeba73ade9  position  (5960)
0x3caeba73adec  position  (5962)
0x3caeba73adff  code target (STUB)  (0x3caeba709c20)

--- End code ---
--- Code ---
kind = HANDLER
major_key = <NoCache>Stub
name = StoreGlobalStub
compiler = crankshaft
Instructions (size = 192)
0x3caeba73b9e0     0  48bb21eade42040b0000 REX.W movq rbx,0xb0442deea21    ;; object: 0xb0442deea21 WeakCell for 0xb0442d04311 <Odd Oddball>
0x3caeba73b9ea    10  488b5b07       REX.W movq rbx,[rbx+0x7]
0x3caeba73b9ee    14  f6c301         testb rbx,0x1
0x3caeba73b9f1    17  0f8453000000   jz 106  (0x3caeba73ba4a)
0x3caeba73b9f7    23  488b7b0f       REX.W movq rdi,[rbx+0xf]
0x3caeba73b9fb    27  49bae941d042040b0000 REX.W movq r10,0xb0442d041e9    ;; object: 0xb0442d041e9 <the hole>
0x3caeba73ba05    37  493bfa         REX.W cmpq rdi,r10
0x3caeba73ba08    40  0f8437000000   jz 101  (0x3caeba73ba45)
0x3caeba73ba0e    46  488bd0         REX.W movq rdx,rax
0x3caeba73ba11    49  4889530f       REX.W movq [rbx+0xf],rdx
0x3caeba73ba15    53  f6c201         testb rdx,0x1
0x3caeba73ba18    56  0f8426000000   jz 100  (0x3caeba73ba44)
0x3caeba73ba1e    62  488d4b0f       REX.W leaq rcx,[rbx+0xf]
0x3caeba73ba22    66  4881e20000f0ff REX.W andq rdx,0xfffffffffff00000
0x3caeba73ba29    73  f6420804       testb [rdx+0x8],0x4
0x3caeba73ba2d    77  7415           jz 100  (0x3caeba73ba44)
0x3caeba73ba2f    79  48c7c20000f0ff REX.W movq rdx,0xfff00000
0x3caeba73ba36    86  4823d3         REX.W andq rdx,rbx
0x3caeba73ba39    89  f6420808       testb [rdx+0x8],0x8
0x3caeba73ba3d    93  7405           jz 100  (0x3caeba73ba44)
0x3caeba73ba3f    95  e8fcf4ffff     call 0x3caeba73af40     ;; code: STUB, RecordWriteStub, minor: 8483
0x3caeba73ba44   100  c3             ret
0x3caeba73ba45   101  e90f000000     jmp 121  (0x3caeba73ba59)
0x3caeba73ba4a   106  49ba006050baae3c0000 REX.W movq r10,0x3caeba506000
0x3caeba73ba54   116  e80f000000     call 136  (0x3caeba73ba68)
0x3caeba73ba59   121  49ba0a6050baae3c0000 REX.W movq r10,0x3caeba50600a
0x3caeba73ba63   131  e800000000     call 136  (0x3caeba73ba68)
0x3caeba73ba68   136  4883ec10       REX.W subq rsp,0x10
0x3caeba73ba6c   140  ff742410       push [rsp+0x10]
0x3caeba73ba70   144  4152           push r10
0x3caeba73ba72   146  4c8b55f8       REX.W movq r10,[rbp-0x8]
0x3caeba73ba76   150  4c89542418     REX.W movq [rsp+0x18],r10
0x3caeba73ba7b   155  48896c2420     REX.W movq [rsp+0x20],rbp
0x3caeba73ba80   160  488d6c2420     REX.W leaq rbp,[rsp+0x20]
0x3caeba73ba85   165  49ba0000000006000000 REX.W movq r10,0x600000000
0x3caeba73ba8f   175  4c89542410     REX.W movq [rsp+0x10],r10
0x3caeba73ba94   180  c3             ret
0x3caeba73ba95   181  0f1f00         nop


Safepoints (size = 8)

RelocInfo (size = 5)
0x3caeba73b9e2  embedded object  (0xb0442deea21 WeakCell for 0xb0442d04311 <Odd Oddball>)
0x3caeba73b9fd  embedded object  (0xb0442d041e9 <the hole>)
0x3caeba73ba40  code target (STUB)  (0x3caeba73af40)

--- End code ---
--- Code ---
kind = HANDLER
major_key = <NoCache>Stub
name = StoreGlobalStub
compiler = crankshaft
Instructions (size = 168)
0x3caeba73bcc0     0  48bb81ebde42040b0000 REX.W movq rbx,0xb0442deeb81    ;; object: 0xb0442deeb81 WeakCell for 0xb0442d04311 <Odd Oddball>
0x3caeba73bcca    10  488b5b07       REX.W movq rbx,[rbx+0x7]
0x3caeba73bcce    14  f6c301         testb rbx,0x1
0x3caeba73bcd1    17  0f842e000000   jz 69  (0x3caeba73bd05)
0x3caeba73bcd7    23  488b7b0f       REX.W movq rdi,[rbx+0xf]
0x3caeba73bcdb    27  49bae941d042040b0000 REX.W movq r10,0xb0442d041e9    ;; object: 0xb0442d041e9 <the hole>
0x3caeba73bce5    37  493bfa         REX.W cmpq rdi,r10
0x3caeba73bce8    40  0f8412000000   jz 64  (0x3caeba73bd00)
0x3caeba73bcee    46  488bf8         REX.W movq rdi,rax
0x3caeba73bcf1    49  40f6c701       testb rdi,0x1
0x3caeba73bcf5    53  0f8519000000   jnz 84  (0x3caeba73bd14)
0x3caeba73bcfb    59  48897b0f       REX.W movq [rbx+0xf],rdi
0x3caeba73bcff    63  c3             ret
0x3caeba73bd00    64  e91e000000     jmp 99  (0x3caeba73bd23)
0x3caeba73bd05    69  49ba006050baae3c0000 REX.W movq r10,0x3caeba506000
0x3caeba73bd0f    79  e81e000000     call 114  (0x3caeba73bd32)
0x3caeba73bd14    84  49ba0a6050baae3c0000 REX.W movq r10,0x3caeba50600a
0x3caeba73bd1e    94  e80f000000     call 114  (0x3caeba73bd32)
0x3caeba73bd23    99  49ba146050baae3c0000 REX.W movq r10,0x3caeba506014
0x3caeba73bd2d   109  e800000000     call 114  (0x3caeba73bd32)
0x3caeba73bd32   114  4883ec10       REX.W subq rsp,0x10
0x3caeba73bd36   118  ff742410       push [rsp+0x10]
0x3caeba73bd3a   122  4152           push r10
0x3caeba73bd3c   124  4c8b55f8       REX.W movq r10,[rbp-0x8]
0x3caeba73bd40   128  4c89542418     REX.W movq [rsp+0x18],r10
0x3caeba73bd45   133  48896c2420     REX.W movq [rsp+0x20],rbp
0x3caeba73bd4a   138  488d6c2420     REX.W leaq rbp,[rsp+0x20]
0x3caeba73bd4f   143  49ba0000000006000000 REX.W movq r10,0x600000000
0x3caeba73bd59   153  4c89542410     REX.W movq [rsp+0x10],r10
0x3caeba73bd5e   158  c3             ret
0x3caeba73bd5f   159  90             nop


Safepoints (size = 8)

RelocInfo (size = 2)
0x3caeba73bcc2  embedded object  (0xb0442deeb81 WeakCell for 0xb0442d04311 <Odd Oddball>)
0x3caeba73bcdd  embedded object  (0xb0442d041e9 <the hole>)

--- End code ---
--- Raw source ---
bitwiseAndValue=4294967296;for(var a=0;6E5>a;a++)bitwiseAndValue&=a;var b=bitwiseAndValue;if(0!=b)throw"ERROR: bad result: expected 0 but got "+b;


--- Code ---
source_position = 0
kind = FUNCTION
compiler = full-codegen
Instructions (size = 776)
0x3caeba73bfa0     0  55             push rbp                ;; debug: position 0
0x3caeba73bfa1     1  4889e5         REX.W movq rbp,rsp
0x3caeba73bfa4     4  56             push rsi
0x3caeba73bfa5     5  57             push rdi
0x3caeba73bfa6     6  41ff75a8       push [r13-0x58]
0x3caeba73bfaa    10  49bad1ecde42040b0000 REX.W movq r10,0xb0442deecd1    ;; object: 0xb0442deecd1 <FixedArray[4]>
0x3caeba73bfb4    20  4152           push r10
0x3caeba73bfb6    22  6a00           push 0x0
0x3caeba73bfb8    24  b802000000     movl rax,0x2
0x3caeba73bfbd    29  48bb10ac8a0001000000 REX.W movq rbx,0x1008aac10
0x3caeba73bfc7    39  e854dcfcff     call 0x3caeba709c20     ;; code: STUB, CEntryStub, minor: 0
0x3caeba73bfcc    44  493ba540090000 REX.W cmpq rsp,[r13+0x940]
0x3caeba73bfd3    51  7305           jnc 58  (0x3caeba73bfda)
0x3caeba73bfd5    53  e846a8ffff     call StackCheck  (0x3caeba736820)    ;; code: BUILTIN
0x3caeba73bfda    58  48b8b1ecde42040b0000 REX.W movq rax,0xb0442deecb1    ;; debug: statement 0
                                                             ;; debug: position 15
                                                             ;; object: 0xb0442deecb1 <Number: 4.29497e+09>
0x3caeba73bfe4    68  48b971e4de42040b0000 REX.W movq rcx,0xb0442dee471    ;; object: 0xb0442dee471 <String[15]: bitwiseAndValue>
0x3caeba73bfee    78  488b5627       REX.W movq rdx,[rsi+0x27]
0x3caeba73bff2    82  e82961ffff     call 0x3caeba732120     ;; code: STORE_IC, UNINITIALIZED
0x3caeba73bff7    87  488945e8       REX.W movq [rbp-0x18],rax
0x3caeba73bffb    91  48b80000000000000000 REX.W movq rax,0x0    ;; debug: statement 27
                                                             ;; debug: statement 31
0x3caeba73c005   101  48b9d97ad442040b0000 REX.W movq rcx,0xb0442d47ad9    ;; object: 0xb0442d47ad9 <String[1]: a>
0x3caeba73c00f   111  488b5627       REX.W movq rdx,[rsi+0x27]
0x3caeba73c013   115  e80861ffff     call 0x3caeba732120     ;; code: STORE_IC, UNINITIALIZED
0x3caeba73c018   120  e9fd000000     jmp 378  (0x3caeba73c11a)
0x3caeba73c01d   125  48b971e4de42040b0000 REX.W movq rcx,0xb0442dee471    ;; debug: statement 49
                                                             ;; debug: position 49
                                                             ;; object: 0xb0442dee471 <String[15]: bitwiseAndValue>
0x3caeba73c027   135  488b5627       REX.W movq rdx,[rsi+0x27]
0x3caeba73c02b   139  48b80000000008000000 REX.W movq rax,0x800000000
0x3caeba73c035   149  e8c642feff     call 0x3caeba720300     ;; code: contextual, LOAD_IC, DEFAULT
0x3caeba73c03a   154  50             push rax
0x3caeba73c03b   155  48b9d97ad442040b0000 REX.W movq rcx,0xb0442d47ad9    ;; debug: position 66
                                                             ;; object: 0xb0442d47ad9 <String[1]: a>
0x3caeba73c045   165  488b5627       REX.W movq rdx,[rsi+0x27]
0x3caeba73c049   169  48b80000000004000000 REX.W movq rax,0x400000000
0x3caeba73c053   179  e8a842feff     call 0x3caeba720300     ;; code: contextual, LOAD_IC, DEFAULT
0x3caeba73c058   184  5a             pop rdx
0x3caeba73c059   185  488bc8         REX.W movq rcx,rax
0x3caeba73c05c   188  480bc2         REX.W orq rax,rdx
0x3caeba73c05f   191  a801           test al,0x1
0x3caeba73c061   193  720c           jc 207  (0x3caeba73c06f)
0x3caeba73c063   195  488bc1         REX.W movq rax,rcx
0x3caeba73c066   198  e85539ffff     call 0x3caeba72f9c0     ;; code: BINARY_OP_IC, UNINITIALIZED (id = 77)
0x3caeba73c06b   203  a80a           test al,0xa
0x3caeba73c06d   205  eb06           jmp 213  (0x3caeba73c075)
0x3caeba73c06f   207  488bc2         REX.W movq rax,rdx
0x3caeba73c072   210  4823c1         REX.W andq rax,rcx
0x3caeba73c075   213  48b971e4de42040b0000 REX.W movq rcx,0xb0442dee471    ;; debug: position 64
                                                             ;; object: 0xb0442dee471 <String[15]: bitwiseAndValue>
0x3caeba73c07f   223  488b5627       REX.W movq rdx,[rsi+0x27]
0x3caeba73c083   227  e89860ffff     call 0x3caeba732120     ;; code: STORE_IC, UNINITIALIZED
0x3caeba73c088   232  488945e8       REX.W movq [rbp-0x18],rax
0x3caeba73c08c   236  48b9d97ad442040b0000 REX.W movq rcx,0xb0442d47ad9    ;; debug: statement 46
                                                             ;; debug: position 45
                                                             ;; object: 0xb0442d47ad9 <String[1]: a>
0x3caeba73c096   246  488b5627       REX.W movq rdx,[rsi+0x27]
0x3caeba73c09a   250  48b80000000004000000 REX.W movq rax,0x400000000
0x3caeba73c0a4   260  e85742feff     call 0x3caeba720300     ;; code: contextual, LOAD_IC, DEFAULT
0x3caeba73c0a9   265  a801           test al,0x1
0x3caeba73c0ab   267  7314           jnc 289  (0x3caeba73c0c1)
0x3caeba73c0ad   269  49ba0000000001000000 REX.W movq r10,0x100000000
0x3caeba73c0b7   279  4903c2         REX.W addq rax,r10
0x3caeba73c0ba   282  711e           jno 314  (0x3caeba73c0da)
0x3caeba73c0bc   284  492bc2         REX.W subq rax,r10
0x3caeba73c0bf   287  eb05           jmp 294  (0x3caeba73c0c6)
0x3caeba73c0c1   289  e81aebfeff     call 0x3caeba72abe0     ;; code: STUB, ToNumberStub, minor: 0
0x3caeba73c0c6   294  488bd0         REX.W movq rdx,rax      ;; debug: position 46
0x3caeba73c0c9   297  48b80000000001000000 REX.W movq rax,0x100000000
0x3caeba73c0d3   307  e8686cfdff     call 0x3caeba712d40     ;; code: BINARY_OP_IC, UNINITIALIZED (id = 58)
0x3caeba73c0d8   312  a82d           test al,0x2d
0x3caeba73c0da   314  48b9d97ad442040b0000 REX.W movq rcx,0xb0442d47ad9    ;; object: 0xb0442d47ad9 <String[1]: a>
0x3caeba73c0e4   324  488b5627       REX.W movq rdx,[rsi+0x27]
0x3caeba73c0e8   328  e83360ffff     call 0x3caeba732120     ;; code: STORE_IC, UNINITIALIZED
0x3caeba73c0ed   333  48bbc1ecde42040b0000 REX.W movq rbx,0xb0442deecc1    ;; object: 0xb0442deecc1 Cell for 6144
0x3caeba73c0f7   343  83430bff       addl [rbx+0xb],0xff
0x3caeba73c0fb   347  791d           jns 378  (0x3caeba73c11a)
0x3caeba73c0fd   349  e8dea5ffff     call InterruptCheck  (0x3caeba7366e0)    ;; code: BUILTIN
0x3caeba73c102   354  48bbc1ecde42040b0000 REX.W movq rbx,0xb0442deecc1    ;; object: 0xb0442deecc1 Cell for 6144
0x3caeba73c10c   364  49ba0000000000180000 REX.W movq r10,0x180000000000
0x3caeba73c116   374  4c895307       REX.W movq [rbx+0x7],r10
0x3caeba73c11a   378  49ba00000000488ec446 REX.W movq r10,0x46c48e4800000000    ;; debug: statement 42
0x3caeba73c124   388  4152           push r10
0x3caeba73c126   390  49ba0000000088a9cd46 REX.W movq r10,0x46cda98800000000
0x3caeba73c130   400  4c311424       REX.W xorq [rsp],r10
0x3caeba73c134   404  48b9d97ad442040b0000 REX.W movq rcx,0xb0442d47ad9    ;; debug: position 43
                                                             ;; object: 0xb0442d47ad9 <String[1]: a>
0x3caeba73c13e   414  488b5627       REX.W movq rdx,[rsi+0x27]
0x3caeba73c142   418  48b80000000004000000 REX.W movq rax,0x400000000
0x3caeba73c14c   428  e8af41feff     call 0x3caeba720300     ;; code: contextual, LOAD_IC, DEFAULT
0x3caeba73c151   433  5a             pop rdx
0x3caeba73c152   434  488bca         REX.W movq rcx,rdx
0x3caeba73c155   437  480bc8         REX.W orq rcx,rax
0x3caeba73c158   440  f6c101         testb rcx,0x1
0x3caeba73c15b   443  730e           jnc 459  (0x3caeba73c16b)
0x3caeba73c15d   445  483bd0         REX.W cmpq rdx,rax
0x3caeba73c160   448  0f8fb7feffff   jg 125  (0x3caeba73c01d)
0x3caeba73c166   454  e921000000     jmp 492  (0x3caeba73c18c)
0x3caeba73c16b   459  e8103bffff     call 0x3caeba72fc80     ;; code: COMPARE_IC, UNINITIALIZED (id = 47)
0x3caeba73c170   464  a815           test al,0x15
0x3caeba73c172   466  eb0f           jmp 483  (0x3caeba73c183)
0x3caeba73c174   468  493b45c0       REX.W cmpq rax,[r13-0x40]
0x3caeba73c178   472  0f849ffeffff   jz 125  (0x3caeba73c01d)
0x3caeba73c17e   478  e909000000     jmp 492  (0x3caeba73c18c)
0x3caeba73c183   483  4885c0         REX.W testq rax,rax
0x3caeba73c186   486  0f8f91feffff   jg 125  (0x3caeba73c01d)
0x3caeba73c18c   492  49baf97ad442040b0000 REX.W movq r10,0xb0442d47af9    ;; debug: statement 68
                                                             ;; object: 0xb0442d47af9 <String[1]: b>
0x3caeba73c196   502  4152           push r10
0x3caeba73c198   504  6a00           push 0x0
0x3caeba73c19a   506  48b971e4de42040b0000 REX.W movq rcx,0xb0442dee471    ;; debug: position 74
                                                             ;; object: 0xb0442dee471 <String[15]: bitwiseAndValue>
0x3caeba73c1a4   516  488b5627       REX.W movq rdx,[rsi+0x27]
0x3caeba73c1a8   520  48b80000000008000000 REX.W movq rax,0x800000000
0x3caeba73c1b2   530  e84941feff     call 0x3caeba720300     ;; code: contextual, LOAD_IC, DEFAULT
0x3caeba73c1b7   535  50             push rax
0x3caeba73c1b8   536  b803000000     movl rax,0x3
0x3caeba73c1bd   541  48bba0b28a0001000000 REX.W movq rbx,0x1008ab2a0
0x3caeba73c1c7   551  e854dafcff     call 0x3caeba709c20     ;; code: STUB, CEntryStub, minor: 0
0x3caeba73c1cc   556  6a00           push 0x0                ;; debug: statement 90
                                                             ;; debug: position 94
0x3caeba73c1ce   558  48b9f97ad442040b0000 REX.W movq rcx,0xb0442d47af9    ;; debug: position 96
                                                             ;; object: 0xb0442d47af9 <String[1]: b>
0x3caeba73c1d8   568  488b5627       REX.W movq rdx,[rsi+0x27]
0x3caeba73c1dc   572  48b80000000006000000 REX.W movq rax,0x600000000
0x3caeba73c1e6   582  e81541feff     call 0x3caeba720300     ;; code: contextual, LOAD_IC, DEFAULT
0x3caeba73c1eb   587  5a             pop rdx
0x3caeba73c1ec   588  e86f03feff     call 0x3caeba71c560     ;; code: COMPARE_IC, UNINITIALIZED (id = 114)
0x3caeba73c1f1   593  90             nop
0x3caeba73c1f2   594  eb0f           jmp 611  (0x3caeba73c203)
0x3caeba73c1f4   596  493b45c0       REX.W cmpq rax,[r13-0x40]
0x3caeba73c1f8   600  0f8453000000   jz 689  (0x3caeba73c251)
0x3caeba73c1fe   606  e909000000     jmp 620  (0x3caeba73c20c)
0x3caeba73c203   611  4885c0         REX.W testq rax,rax
0x3caeba73c206   614  0f8445000000   jz 689  (0x3caeba73c251)
0x3caeba73c20c   620  49ba99e4de42040b0000 REX.W movq r10,0xb0442dee499    ;; debug: statement 98
                                                             ;; object: 0xb0442dee499 <String[38]: ERROR: bad result: expected 0 but got >
0x3caeba73c216   630  4152           push r10
0x3caeba73c218   632  48b9f97ad442040b0000 REX.W movq rcx,0xb0442d47af9    ;; debug: position 144
                                                             ;; object: 0xb0442d47af9 <String[1]: b>
0x3caeba73c222   642  488b5627       REX.W movq rdx,[rsi+0x27]
0x3caeba73c226   646  48b80000000006000000 REX.W movq rax,0x600000000
0x3caeba73c230   656  e8cb40feff     call 0x3caeba720300     ;; code: contextual, LOAD_IC, DEFAULT
0x3caeba73c235   661  5a             pop rdx                 ;; debug: position 143
0x3caeba73c236   662  e8056bfdff     call 0x3caeba712d40     ;; code: BINARY_OP_IC, UNINITIALIZED (id = 126)
0x3caeba73c23b   667  90             nop
0x3caeba73c23c   668  50             push rax
0x3caeba73c23d   669  b801000000     movl rax,0x1            ;; debug: position 98
0x3caeba73c242   674  48bb7098870001000000 REX.W movq rbx,0x100879870
0x3caeba73c24c   684  e8cfd9fcff     call 0x3caeba709c20     ;; code: STUB, CEntryStub, minor: 0
0x3caeba73c251   689  488b45e8       REX.W movq rax,[rbp-0x18]    ;; debug: statement 147
0x3caeba73c255   693  48bbc1ecde42040b0000 REX.W movq rbx,0xb0442deecc1    ;; object: 0xb0442deecc1 Cell for 6144
0x3caeba73c25f   703  83430bfc       addl [rbx+0xb],0xfc
0x3caeba73c263   707  791f           jns 740  (0x3caeba73c284)
0x3caeba73c265   709  50             push rax
0x3caeba73c266   710  e875a4ffff     call InterruptCheck  (0x3caeba7366e0)    ;; code: BUILTIN
0x3caeba73c26b   715  58             pop rax
0x3caeba73c26c   716  48bbc1ecde42040b0000 REX.W movq rbx,0xb0442deecc1    ;; object: 0xb0442deecc1 Cell for 6144
0x3caeba73c276   726  49ba0000000000180000 REX.W movq r10,0x180000000000
0x3caeba73c280   736  4c895307       REX.W movq [rbx+0x7],r10
0x3caeba73c284   740  c9             leave                   ;; debug: statement 146
0x3caeba73c285   741  c20800         ret 0x8
0x3caeba73c288   744  498b45a8       REX.W movq rax,[r13-0x58]
0x3caeba73c28c   748  e9c4ffffff     jmp 693  (0x3caeba73c255)
0x3caeba73c291   753  0f1f8000000000 nop

Deoptimization Output Data (deopt points = 57)
ast id        pc  state
     2        10  NO_REGISTERS
     3        44  NO_REGISTERS
    24        68  TOS_REG
    19        87  TOS_REG
    17        87  TOS_REG
    12        91  TOS_REG
    10        91  NO_REGISTERS
    32        91  NO_REGISTERS
    42       101  TOS_REG
    37       120  TOS_REG
    35       120  NO_REGISTERS
    33       120  NO_REGISTERS
    31       125  NO_REGISTERS
    86       125  NO_REGISTERS
    84       154  TOS_REG
    89       155  NO_REGISTERS
    87       184  TOS_REG
    74       213  TOS_REG
    72       232  TOS_REG
    70       232  TOS_REG
    65       236  TOS_REG
    63       236  NO_REGISTERS
    30       236  NO_REGISTERS
    62       236  NO_REGISTERS
    60       265  TOS_REG
    57       294  TOS_REG
    56       333  TOS_REG
    54       333  NO_REGISTERS
    27       378  NO_REGISTERS
    29       378  NO_REGISTERS
    48       404  NO_REGISTERS
    53       404  NO_REGISTERS
    51       433  TOS_REG
    45       468  TOS_REG
    28       492  NO_REGISTERS
    90       492  NO_REGISTERS
    96       504  NO_REGISTERS
    99       506  NO_REGISTERS
   104       506  NO_REGISTERS
   102       536  NO_REGISTERS
    95       536  NO_REGISTERS
    93       556  NO_REGISTERS
    91       556  NO_REGISTERS
   115       558  NO_REGISTERS
   120       558  NO_REGISTERS
   118       587  TOS_REG
   112       596  TOS_REG
   106       620  NO_REGISTERS
   127       632  NO_REGISTERS
   132       632  NO_REGISTERS
   130       661  TOS_REG
   123       669  NO_REGISTERS
   121       689  NO_REGISTERS
   107       689  NO_REGISTERS
   105       689  NO_REGISTERS
   135       689  NO_REGISTERS
   133       693  TOS_REG

Back edges (size = 1)
ast_id  pc_offset  loop_depth
    29        354           1

0xb0442def129: [TypeFeedbackInfo]
 - ic_total_count: 16, ic_with_type_info_count: 0, ic_generic_count: 0

RelocInfo (size = 117)
0x3caeba73bfa0  position  (0)
0x3caeba73bfac  embedded object  (0xb0442deecd1 <FixedArray[4]>)
0x3caeba73bfc8  code target (STUB)  (0x3caeba709c20)
0x3caeba73bfd6  code target (BUILTIN)  (0x3caeba736820)
0x3caeba73bfda  statement position  (0)
0x3caeba73bfda  position  (15)
0x3caeba73bfdc  embedded object  (0xb0442deecb1 <Number: 4.29497e+09>)
0x3caeba73bfe6  embedded object  (0xb0442dee471 <String[15]: bitwiseAndValue>)
0x3caeba73bff3  code target (STORE_IC)  (0x3caeba732120)
0x3caeba73bffb  statement position  (27)
0x3caeba73bffb  statement position  (31)
0x3caeba73c007  embedded object  (0xb0442d47ad9 <String[1]: a>)
0x3caeba73c014  code target (STORE_IC)  (0x3caeba732120)
0x3caeba73c01d  statement position  (49)
0x3caeba73c01d  position  (49)
0x3caeba73c01f  embedded object  (0xb0442dee471 <String[15]: bitwiseAndValue>)
0x3caeba73c036  code target (LOAD_IC)  (0x3caeba720300)
0x3caeba73c03b  position  (66)
0x3caeba73c03d  embedded object  (0xb0442d47ad9 <String[1]: a>)
0x3caeba73c054  code target (LOAD_IC)  (0x3caeba720300)
0x3caeba73c067  code target with id (BINARY_OP_IC)  (0x3caeba72f9c0) (id=77)
0x3caeba73c075  position  (64)
0x3caeba73c077  embedded object  (0xb0442dee471 <String[15]: bitwiseAndValue>)
0x3caeba73c084  code target (STORE_IC)  (0x3caeba732120)
0x3caeba73c08c  statement position  (46)
0x3caeba73c08c  position  (45)
0x3caeba73c08e  embedded object  (0xb0442d47ad9 <String[1]: a>)
0x3caeba73c0a5  code target (LOAD_IC)  (0x3caeba720300)
0x3caeba73c0c2  code target (STUB)  (0x3caeba72abe0)
0x3caeba73c0c6  position  (46)
0x3caeba73c0d4  code target with id (BINARY_OP_IC)  (0x3caeba712d40) (id=58)
0x3caeba73c0dc  embedded object  (0xb0442d47ad9 <String[1]: a>)
0x3caeba73c0e9  code target (STORE_IC)  (0x3caeba732120)
0x3caeba73c0ef  embedded object  (0xb0442deecc1 Cell for 6144)
0x3caeba73c0fe  code target (BUILTIN)  (0x3caeba7366e0)
0x3caeba73c104  embedded object  (0xb0442deecc1 Cell for 6144)
0x3caeba73c11a  statement position  (42)
0x3caeba73c134  position  (43)
0x3caeba73c136  embedded object  (0xb0442d47ad9 <String[1]: a>)
0x3caeba73c14d  code target (LOAD_IC)  (0x3caeba720300)
0x3caeba73c16c  code target with id (COMPARE_IC)  (0x3caeba72fc80) (id=47)
0x3caeba73c18c  statement position  (68)
0x3caeba73c18e  embedded object  (0xb0442d47af9 <String[1]: b>)
0x3caeba73c19a  position  (74)
0x3caeba73c19c  embedded object  (0xb0442dee471 <String[15]: bitwiseAndValue>)
0x3caeba73c1b3  code target (LOAD_IC)  (0x3caeba720300)
0x3caeba73c1c8  code target (STUB)  (0x3caeba709c20)
0x3caeba73c1cc  statement position  (90)
0x3caeba73c1cc  position  (94)
0x3caeba73c1ce  position  (96)
0x3caeba73c1d0  embedded object  (0xb0442d47af9 <String[1]: b>)
0x3caeba73c1e7  code target (LOAD_IC)  (0x3caeba720300)
0x3caeba73c1ed  code target with id (COMPARE_IC)  (0x3caeba71c560) (id=114)
0x3caeba73c20c  statement position  (98)
0x3caeba73c20e  embedded object  (0xb0442dee499 <String[38]: ERROR: bad result: expected 0 but got >)
0x3caeba73c218  position  (144)
0x3caeba73c21a  embedded object  (0xb0442d47af9 <String[1]: b>)
0x3caeba73c231  code target (LOAD_IC)  (0x3caeba720300)
0x3caeba73c235  position  (143)
0x3caeba73c237  code target with id (BINARY_OP_IC)  (0x3caeba712d40) (id=126)
0x3caeba73c23d  position  (98)
0x3caeba73c24d  code target (STUB)  (0x3caeba709c20)
0x3caeba73c251  statement position  (147)
0x3caeba73c257  embedded object  (0xb0442deecc1 Cell for 6144)
0x3caeba73c267  code target (BUILTIN)  (0x3caeba7366e0)
0x3caeba73c26e  embedded object  (0xb0442deecc1 Cell for 6144)
0x3caeba73c284  statement position  (146)

--- End code ---
--- Raw source ---
bitwiseAndValue=4294967296;for(var a=0;6E5>a;a++)bitwiseAndValue&=a;var b=bitwiseAndValue;if(0!=b)throw"ERROR: bad result: expected 0 but got "+b;


--- Optimized code ---
optimization_id = 0
source_position = 0
kind = OPTIMIZED_FUNCTION
stack_slots = 4
compiler = crankshaft
Instructions (size = 684)
0x3caeba73ce60     0  55             push rbp
0x3caeba73ce61     1  4889e5         REX.W movq rbp,rsp
0x3caeba73ce64     4  56             push rsi
0x3caeba73ce65     5  57             push rdi
0x3caeba73ce66     6  4883ec20       REX.W subq rsp,0x20
0x3caeba73ce6a    10  488b45f8       REX.W movq rax,[rbp-0x8]
0x3caeba73ce6e    14  488945e0       REX.W movq [rbp-0x20],rax
0x3caeba73ce72    18  488bf0         REX.W movq rsi,rax
0x3caeba73ce75    21  49ba49f1de42040b0000 REX.W movq r10,0xb0442def149    ;; object: 0xb0442def149 <FixedArray[4]>
0x3caeba73ce7f    31  4152           push r10
0x3caeba73ce81    33  6a00           push 0x0
0x3caeba73ce83    35  b802000000     movl rax,0x2
0x3caeba73ce88    40  498d9d586989fd REX.W leaq rbx,[r13-0x27696a8]
0x3caeba73ce8f    47  e88ccdfcff     call 0x3caeba709c20     ;; code: STUB, CEntryStub, minor: 0
0x3caeba73ce94    52  488b75e0       REX.W movq rsi,[rbp-0x20]
0x3caeba73ce98    56  660f1f840000000000 nop
0x3caeba73cea1    65  493ba540090000 REX.W cmpq rsp,[r13+0x940]
0x3caeba73cea8    72  7305           jnc 79  (0x3caeba73ceaf)
0x3caeba73ceaa    74  e87199ffff     call StackCheck  (0x3caeba736820)    ;; code: BUILTIN
0x3caeba73ceaf    79  49ba000000000000f041 REX.W movq r10,0x41f0000000000000
0x3caeba73ceb9    89  66490f6eca     REX.W movq xmm1,r10
0x3caeba73cebe    94  48b819e8de42040b0000 REX.W movq rax,0xb0442dee819    ;; object: 0xb0442dee819 PropertyCell for 0 (data, dictionary_index: 171, attrs: [WEC])
0x3caeba73cec8   104  48bbb1ecde42040b0000 REX.W movq rbx,0xb0442deecb1    ;; object: 0xb0442deecb1 <Number: 4.29497e+09>
0x3caeba73ced2   114  4889580f       REX.W movq [rax+0xf],rbx
0x3caeba73ced6   118  f6c301         testb rbx,0x1
0x3caeba73ced9   121  0f8426000000   jz 165  (0x3caeba73cf05)
0x3caeba73cedf   127  488d500f       REX.W leaq rdx,[rax+0xf]
0x3caeba73cee3   131  4881e30000f0ff REX.W andq rbx,0xfffffffffff00000
0x3caeba73ceea   138  f6430804       testb [rbx+0x8],0x4
0x3caeba73ceee   142  7415           jz 165  (0x3caeba73cf05)
0x3caeba73cef0   144  48c7c30000f0ff REX.W movq rbx,0xfff00000
0x3caeba73cef7   151  4823d8         REX.W andq rbx,rax
0x3caeba73cefa   154  f6430808       testb [rbx+0x8],0x8
0x3caeba73cefe   158  7405           jz 165  (0x3caeba73cf05)
0x3caeba73cf00   160  e81bf4ffff     call 0x3caeba73c320     ;; code: STUB, RecordWriteStub, minor: 8752
0x3caeba73cf05   165  48b899e7de42040b0000 REX.W movq rax,0xb0442dee799    ;; object: 0xb0442dee799 PropertyCell for 18436 (data, dictionary_index: 165, attrs: [WE_])
0x3caeba73cf0f   175  4533d2         xorl r10,r10
0x3caeba73cf12   178  4c89500f       REX.W movq [rax+0xf],r10
0x3caeba73cf16   182  e940000000     jmp 251  (0x3caeba73cf5b)
0x3caeba73cf1b   187  4883ec18       REX.W subq rsp,0x18
0x3caeba73cf1f   191  488b75f8       REX.W movq rsi,[rbp-0x8]
0x3caeba73cf23   195  488b45e8       REX.W movq rax,[rbp-0x18]
0x3caeba73cf27   199  a801           test al,0x1
0x3caeba73cf29   201  7415           jz 224  (0x3caeba73cf40)
0x3caeba73cf2b   203  4d8b5508       REX.W movq r10,[r13+0x8]
0x3caeba73cf2f   207  4c3950ff       REX.W cmpq [rax-0x1],r10
0x3caeba73cf33   211  f20f104807     movsd xmm1,[rax+0x7]
0x3caeba73cf38   216  0f8590010000   jnz 622  (0x3caeba73d0ce)
0x3caeba73cf3e   222  eb0f           jmp 239  (0x3caeba73cf4f)
0x3caeba73cf40   224  4c8bd0         REX.W movq r10,rax
0x3caeba73cf43   227  49c1ea20       REX.W shrq r10, 32
0x3caeba73cf47   231  0f57c9         xorps xmm1,xmm1
0x3caeba73cf4a   234  f2410f2aca     cvtsi2sd xmm1,r10
0x3caeba73cf4f   239  488b5d10       REX.W movq rbx,[rbp+0x10]
0x3caeba73cf53   243  488bc6         REX.W movq rax,rsi
0x3caeba73cf56   246  e908000000     jmp 259  (0x3caeba73cf63)
0x3caeba73cf5b   251  488b5d10       REX.W movq rbx,[rbp+0x10]
0x3caeba73cf5f   255  488b45e0       REX.W movq rax,[rbp-0x20]
0x3caeba73cf63   259  48895dd8       REX.W movq [rbp-0x28],rbx
0x3caeba73cf67   263  488945e8       REX.W movq [rbp-0x18],rax
0x3caeba73cf6b   267  f20f114dd0     movsd [rbp-0x30],xmm1    ;; debug: position 42
0x3caeba73cf70   272  48ba99e7de42040b0000 REX.W movq rdx,0xb0442dee799    ;; object: 0xb0442dee799 PropertyCell for 18436 (data, dictionary_index: 165, attrs: [WE_])
0x3caeba73cf7a   282  8b5213         movl rdx,[rdx+0x13]
0x3caeba73cf7d   285  81fac0270900   cmpl rdx,0x927c0
0x3caeba73cf83   291  0f8d61000000   jge 394  (0x3caeba73cfea)
0x3caeba73cf89   297  493ba540090000 REX.W cmpq rsp,[r13+0x940]
0x3caeba73cf90   304  0f8292000000   jc 456  (0x3caeba73d028)
0x3caeba73cf96   310  48b919e8de42040b0000 REX.W movq rcx,0xb0442dee819    ;; object: 0xb0442dee819 PropertyCell for 0 (data, dictionary_index: 171, attrs: [WEC])
0x3caeba73cfa0   320  488b490f       REX.W movq rcx,[rcx+0xf]
0x3caeba73cfa4   324  f6c101         testb rcx,0x1           ;; debug: position 65
0x3caeba73cfa7   327  0f85c0000000   jnz 525  (0x3caeba73d06d)
0x3caeba73cfad   333  48c1e920       REX.W shrq rcx, 32
0x3caeba73cfb1   337  488bf1         REX.W movq rsi,rcx
0x3caeba73cfb4   340  23f2           andl rsi,rdx
0x3caeba73cfb6   342  8bfe           movl rdi,rsi
0x3caeba73cfb8   344  48c1e720       REX.W shlq rdi, 32
0x3caeba73cfbc   348  48b919e8de42040b0000 REX.W movq rcx,0xb0442dee819    ;; debug: position 42
                                                             ;; object: 0xb0442dee819 PropertyCell for 0 (data, dictionary_index: 171, attrs: [WEC])
0x3caeba73cfc6   358  4889790f       REX.W movq [rcx+0xf],rdi    ;; debug: position 65
0x3caeba73cfca   362  83c201         addl rdx,0x1            ;; debug: position 46
0x3caeba73cfcd   365  8bca           movl rcx,rdx
0x3caeba73cfcf   367  48c1e120       REX.W shlq rcx, 32
0x3caeba73cfd3   371  48ba99e7de42040b0000 REX.W movq rdx,0xb0442dee799    ;; debug: position 42
                                                             ;; object: 0xb0442dee799 PropertyCell for 18436 (data, dictionary_index: 165, attrs: [WE_])
0x3caeba73cfdd   381  48894a0f       REX.W movq [rdx+0xf],rcx    ;; debug: position 46
0x3caeba73cfe1   385  0f57c9         xorps xmm1,xmm1         ;; debug: position 42
0x3caeba73cfe4   388  f20f2ace       cvtsi2sd xmm1,rsi
0x3caeba73cfe8   392  eb81           jmp 267  (0x3caeba73cf6b)    ;; debug: position 46
0x3caeba73cfea   394  48b919e8de42040b0000 REX.W movq rcx,0xb0442dee819    ;; debug: position 42
                                                             ;; object: 0xb0442dee819 PropertyCell for 0 (data, dictionary_index: 171, attrs: [WEC])
0x3caeba73cff4   404  488b510f       REX.W movq rdx,[rcx+0xf]    ;; debug: position 46
0x3caeba73cff8   408  49baf97ad442040b0000 REX.W movq r10,0xb0442d47af9    ;; object: 0xb0442d47af9 <String[1]: b>
0x3caeba73d002   418  4152           push r10
0x3caeba73d004   420  6a00           push 0x0
0x3caeba73d006   422  52             push rdx
0x3caeba73d007   423  488bf0         REX.W movq rsi,rax
0x3caeba73d00a   426  b803000000     movl rax,0x3
0x3caeba73d00f   431  498d9de86f89fd REX.W leaq rbx,[r13-0x2769018]
0x3caeba73d016   438  e805ccfcff     call 0x3caeba709c20     ;; code: STUB, CEntryStub, minor: 0
0x3caeba73d01b   443  e81c90ecff     call 0x3caeba60603c     ;; debug: position 94
                                                             ;; soft deoptimization bailout 6
0x3caeba73d020   448  0f1f840000000000 nop
0x3caeba73d028   456  50             push rax                ;; debug: position 42
0x3caeba73d029   457  51             push rcx
0x3caeba73d02a   458  52             push rdx
0x3caeba73d02b   459  53             push rbx
0x3caeba73d02c   460  56             push rsi
0x3caeba73d02d   461  57             push rdi
0x3caeba73d02e   462  4150           push r8
0x3caeba73d030   464  4151           push r9
0x3caeba73d032   466  4153           push r11
0x3caeba73d034   468  4154           push r12
0x3caeba73d036   470  4156           push r14
0x3caeba73d038   472  4157           push r15
0x3caeba73d03a   474  488d6424e0     REX.W leaq rsp,[rsp-0x20]
0x3caeba73d03f   479  488b75f8       REX.W movq rsi,[rbp-0x8]
0x3caeba73d043   483  33c0           xorl rax,rax
0x3caeba73d045   485  498d9d686b86fd REX.W leaq rbx,[r13-0x2799498]
0x3caeba73d04c   492  e82f92fcff     call 0x3caeba706280     ;; code: STUB, CEntryStub, minor: 1
0x3caeba73d051   497  488d642420     REX.W leaq rsp,[rsp+0x20]
0x3caeba73d056   502  415f           pop r15
0x3caeba73d058   504  415e           pop r14
0x3caeba73d05a   506  415c           pop r12
0x3caeba73d05c   508  415b           pop r11
0x3caeba73d05e   510  4159           pop r9
0x3caeba73d060   512  4158           pop r8
0x3caeba73d062   514  5f             pop rdi
0x3caeba73d063   515  5e             pop rsi
0x3caeba73d064   516  5b             pop rbx
0x3caeba73d065   517  5a             pop rdx
0x3caeba73d066   518  59             pop rcx
0x3caeba73d067   519  58             pop rax
0x3caeba73d068   520  e929ffffff     jmp 310  (0x3caeba73cf96)
0x3caeba73d06d   525  4d8b5508       REX.W movq r10,[r13+0x8]    ;; debug: position 65
0x3caeba73d071   529  4c3951ff       REX.W cmpq [rcx-0x1],r10
0x3caeba73d075   533  7529           jnz 576  (0x3caeba73d0a0)
0x3caeba73d077   535  f20f104107     movsd xmm0,[rcx+0x7]
0x3caeba73d07c   540  f2480f2cc8     REX.W cvttsd2siq rcx,xmm0
0x3caeba73d081   545  4883f901       REX.W cmpq rcx,0x1
0x3caeba73d085   549  7112           jno 569  (0x3caeba73d099)
0x3caeba73d087   551  4883ec08       REX.W subq rsp,0x8
0x3caeba73d08b   555  f20f110424     movsd [rsp],xmm0
0x3caeba73d090   560  e80bfdffff     call 0x3caeba73cda0     ;; code: STUB, DoubleToIStub, minor: 135236
0x3caeba73d095   565  4883c408       REX.W addq rsp,0x8
0x3caeba73d099   569  8bc9           movl rcx,rcx
0x3caeba73d09b   571  e911ffffff     jmp 337  (0x3caeba73cfb1)
0x3caeba73d0a0   576  493b4da8       REX.W cmpq rcx,[r13-0x58]
0x3caeba73d0a4   580  7507           jnz 589  (0x3caeba73d0ad)
0x3caeba73d0a6   582  33c9           xorl rcx,rcx
0x3caeba73d0a8   584  e904ffffff     jmp 337  (0x3caeba73cfb1)
0x3caeba73d0ad   589  493b4dc0       REX.W cmpq rcx,[r13-0x40]
0x3caeba73d0b1   593  750a           jnz 605  (0x3caeba73d0bd)
0x3caeba73d0b3   595  b901000000     movl rcx,0x1
0x3caeba73d0b8   600  e9f4feffff     jmp 337  (0x3caeba73cfb1)
0x3caeba73d0bd   605  493b4dc8       REX.W cmpq rcx,[r13-0x38]
0x3caeba73d0c1   609  0f850c000000   jnz 627  (0x3caeba73d0d3)
0x3caeba73d0c7   615  33c9           xorl rcx,rcx
0x3caeba73d0c9   617  e9e3feffff     jmp 337  (0x3caeba73cfb1)
0x3caeba73d0ce   622  e84b8fccff     call 0x3caeba40601e     ;; deoptimization bailout 3
0x3caeba73d0d3   627  e86e8fccff     call 0x3caeba406046     ;; deoptimization bailout 7

Inlined functions (count = 0)

Deoptimization Input Data (deopt points = 8)
 index  ast id    argc     pc
     0       3       0     52
     1       3       0     79
     2      29       0     -1
     3      27       0     -1
     4      31       0    310
     5      93       0    443
     6      93       0     -1
     7      31       0     -1

Safepoints (size = 52)
0x3caeba73ce94    52  0010 (sp -> fp)       0
0x3caeba73ceaf    79  0010 (sp -> fp)       1
0x3caeba73d01b   443  0101 (sp -> fp)       5
0x3caeba73d051   497  0101 | rax | rbx (sp -> fp)       4

RelocInfo (size = 64)
0x3caeba73ce77  embedded object  (0xb0442def149 <FixedArray[4]>)
0x3caeba73ce90  code target (STUB)  (0x3caeba709c20)
0x3caeba73ceab  code target (BUILTIN)  (0x3caeba736820)
0x3caeba73cec0  embedded object  (0xb0442dee819 PropertyCell for 0 (data, dictionary_index: 171, attrs: [WEC]))
0x3caeba73ceca  embedded object  (0xb0442deecb1 <Number: 4.29497e+09>)
0x3caeba73cf01  code target (STUB)  (0x3caeba73c320)
0x3caeba73cf07  embedded object  (0xb0442dee799 PropertyCell for 18436 (data, dictionary_index: 165, attrs: [WE_]))
0x3caeba73cf6b  position  (42)
0x3caeba73cf72  embedded object  (0xb0442dee799 PropertyCell for 18436 (data, dictionary_index: 165, attrs: [WE_]))
0x3caeba73cf98  embedded object  (0xb0442dee819 PropertyCell for 0 (data, dictionary_index: 171, attrs: [WEC]))
0x3caeba73cfa4  position  (65)
0x3caeba73cfbc  position  (42)
0x3caeba73cfbe  embedded object  (0xb0442dee819 PropertyCell for 0 (data, dictionary_index: 171, attrs: [WEC]))
0x3caeba73cfc6  position  (65)
0x3caeba73cfca  position  (46)
0x3caeba73cfd3  position  (42)
0x3caeba73cfd5  embedded object  (0xb0442dee799 PropertyCell for 18436 (data, dictionary_index: 165, attrs: [WE_]))
0x3caeba73cfdd  position  (46)
0x3caeba73cfe1  position  (42)
0x3caeba73cfe8  position  (46)
0x3caeba73cfea  position  (42)
0x3caeba73cfec  embedded object  (0xb0442dee819 PropertyCell for 0 (data, dictionary_index: 171, attrs: [WEC]))
0x3caeba73cff4  position  (46)
0x3caeba73cffa  embedded object  (0xb0442d47af9 <String[1]: b>)
0x3caeba73d017  code target (STUB)  (0x3caeba709c20)
0x3caeba73d01b  position  (94)
0x3caeba73d01c  runtime entry
0x3caeba73d028  position  (42)
0x3caeba73d04d  code target (STUB)  (0x3caeba706280)
0x3caeba73d06d  position  (65)
0x3caeba73d091  code target (STUB)  (0x3caeba73cda0)
0x3caeba73d0cf  runtime entry  (deoptimization bailout 3)
0x3caeba73d0d4  runtime entry  (deoptimization bailout 7)

--- End code ---
