--- Raw source ---
/*
 * A JavaScript implementation of the Secure Hash Algorithm, SHA-1, as defined
 * in FIPS PUB 180-1
 * Version 2.1a Copyright Paul Johnston 2000 - 2002.
 * Other contributors: Greg Holt, Andrew Kepert, Ydnar, Lostinet
 * Distributed under the BSD License
 * See http://pajhome.org.uk/crypt/md5 for details.
 */

/*
 * Configurable variables. You may need to tweak these to be compatible with
 * the server-side, but the defaults work in most cases.
 */
var hexcase = 0;  /* hex output format. 0 - lowercase; 1 - uppercase        */
var b64pad  = ""; /* base-64 pad character. "=" for strict RFC compliance   */
var chrsz   = 8;  /* bits per input character. 8 - ASCII; 16 - Unicode      */

/*
 * These are the functions you'll usually want to call
 * They take string arguments and return either hex or base-64 encoded strings
 */
function hex_sha1(s){return binb2hex(core_sha1(str2binb(s),s.length * chrsz));}
function b64_sha1(s){return binb2b64(core_sha1(str2binb(s),s.length * chrsz));}
function str_sha1(s){return binb2str(core_sha1(str2binb(s),s.length * chrsz));}
function hex_hmac_sha1(key, data){ return binb2hex(core_hmac_sha1(key, data));}
function b64_hmac_sha1(key, data){ return binb2b64(core_hmac_sha1(key, data));}
function str_hmac_sha1(key, data){ return binb2str(core_hmac_sha1(key, data));}

/*
 * Perform a simple self-test to see if the VM is working
 */
function sha1_vm_test()
{
  return hex_sha1("abc") == "a9993e364706816aba3e25717850c26c9cd0d89d";
}

/*
 * Calculate the SHA-1 of an array of big-endian words, and a bit length
 */
function core_sha1(x, len)
{
  /* append padding */
  x[len >> 5] |= 0x80 << (24 - len % 32);
  x[((len + 64 >> 9) << 4) + 15] = len;

  var w = Array(80);
  var a =  1732584193;
  var b = -271733879;
  var c = -1732584194;
  var d =  271733878;
  var e = -1009589776;

  for(var i = 0; i < x.length; i += 16)
  {
    var olda = a;
    var oldb = b;
    var oldc = c;
    var oldd = d;
    var olde = e;

    for(var j = 0; j < 80; j++)
    {
      if(j < 16) w[j] = x[i + j];
      else w[j] = rol(w[j-3] ^ w[j-8] ^ w[j-14] ^ w[j-16], 1);
      var t = safe_add(safe_add(rol(a, 5), sha1_ft(j, b, c, d)),
                       safe_add(safe_add(e, w[j]), sha1_kt(j)));
      e = d;
      d = c;
      c = rol(b, 30);
      b = a;
      a = t;
    }

    a = safe_add(a, olda);
    b = safe_add(b, oldb);
    c = safe_add(c, oldc);
    d = safe_add(d, oldd);
    e = safe_add(e, olde);
  }
  return Array(a, b, c, d, e);

}

/*
 * Perform the appropriate triplet combination function for the current
 * iteration
 */
function sha1_ft(t, b, c, d)
{
  if(t < 20) return (b & c) | ((~b) & d);
  if(t < 40) return b ^ c ^ d;
  if(t < 60) return (b & c) | (b & d) | (c & d);
  return b ^ c ^ d;
}

/*
 * Determine the appropriate additive constant for the current iteration
 */
function sha1_kt(t)
{
  return (t < 20) ?  1518500249 : (t < 40) ?  1859775393 :
         (t < 60) ? -1894007588 : -899497514;
}

/*
 * Calculate the HMAC-SHA1 of a key and some data
 */
function core_hmac_sha1(key, data)
{
  var bkey = str2binb(key);
  if(bkey.length > 16) bkey = core_sha1(bkey, key.length * chrsz);

  var ipad = Array(16), opad = Array(16);
  for(var i = 0; i < 16; i++)
  {
    ipad[i] = bkey[i] ^ 0x36363636;
    opad[i] = bkey[i] ^ 0x5C5C5C5C;
  }

  var hash = core_sha1(ipad.concat(str2binb(data)), 512 + data.length * chrsz);
  return core_sha1(opad.concat(hash), 512 + 160);
}

/*
 * Add integers, wrapping at 2^32. This uses 16-bit operations internally
 * to work around bugs in some JS interpreters.
 */
function safe_add(x, y)
{
  var lsw = (x & 0xFFFF) + (y & 0xFFFF);
  var msw = (x >> 16) + (y >> 16) + (lsw >> 16);
  return (msw << 16) | (lsw & 0xFFFF);
}

/*
 * Bitwise rotate a 32-bit number to the left.
 */
function rol(num, cnt)
{
  return (num << cnt) | (num >>> (32 - cnt));
}

/*
 * Convert an 8-bit or 16-bit string to an array of big-endian words
 * In 8-bit function, characters >255 have their hi-byte silently ignored.
 */
function str2binb(str)
{
  var bin = Array();
  var mask = (1 << chrsz) - 1;
  for(var i = 0; i < str.length * chrsz; i += chrsz)
    bin[i>>5] |= (str.charCodeAt(i / chrsz) & mask) << (32 - chrsz - i%32);
  return bin;
}

/*
 * Convert an array of big-endian words to a string
 */
function binb2str(bin)
{
  var str = "";
  var mask = (1 << chrsz) - 1;
  for(var i = 0; i < bin.length * 32; i += chrsz)
    str += String.fromCharCode((bin[i>>5] >>> (32 - chrsz - i%32)) & mask);
  return str;
}

/*
 * Convert an array of big-endian words to a hex string.
 */
function binb2hex(binarray)
{
  var hex_tab = hexcase ? "0123456789ABCDEF" : "0123456789abcdef";
  var str = "";
  for(var i = 0; i < binarray.length * 4; i++)
  {
    str += hex_tab.charAt((binarray[i>>2] >> ((3 - i%4)*8+4)) & 0xF) +
           hex_tab.charAt((binarray[i>>2] >> ((3 - i%4)*8  )) & 0xF);
  }
  return str;
}

/*
 * Convert an array of big-endian words to a base-64 string
 */
function binb2b64(binarray)
{
  var tab = "ABCDEFGHIJKLMNOPQRSTUVWXYZabcdefghijklmnopqrstuvwxyz0123456789+/";
  var str = "";
  for(var i = 0; i < binarray.length * 4; i += 3)
  {
    var triplet = (((binarray[i   >> 2] >> 8 * (3 -  i   %4)) & 0xFF) << 16)
                | (((binarray[i+1 >> 2] >> 8 * (3 - (i+1)%4)) & 0xFF) << 8 )
                |  ((binarray[i+2 >> 2] >> 8 * (3 - (i+2)%4)) & 0xFF);
    for(var j = 0; j < 4; j++)
    {
      if(i * 8 + j * 6 > binarray.length * 32) str += b64pad;
      else str += tab.charAt((triplet >> 6*(3-j)) & 0x3F);
    }
  }
  return str;
}


var plainText = "Two households, both alike in dignity,\x5cn\x5c
In fair Verona, where we lay our scene,\x5cn\x5c
From ancient grudge break to new mutiny,\x5cn\x5c
Where civil blood makes civil hands unclean.\x5cn\x5c
From forth the fatal loins of these two foes\x5cn\x5c
A pair of star-cross'd lovers take their life;\x5cn\x5c
Whole misadventured piteous overthrows\x5cn\x5c
Do with their death bury their parents' strife.\x5cn\x5c
The fearful passage of their death-mark'd love,\x5cn\x5c
And the continuance of their parents' rage,\x5cn\x5c
Which, but their children's end, nought could remove,\x5cn\x5c
Is now the two hours' traffic of our stage;\x5cn\x5c
The which if you with patient ears attend,\x5cn\x5c
What here shall miss, our toil shall strive to mend.";

for (var i = 0; i <4; i++) {
    plainText += plainText;
}

var sha1Output = hex_sha1(plainText);

var expected = "2524d264def74cce2498bf112bedf00e6c0b796d";
if (sha1Output != expected)
    throw "ERROR: bad result: expected " + expected + " but got " + sha1Output;


--- Code ---
source_position = 0
kind = FUNCTION
compiler = full-codegen
Instructions (size = 928)
0x75d07d39f40     0  55             push rbp                 ;; debug: position 0
0x75d07d39f41     1  4889e5         REX.W movq rbp,rsp
0x75d07d39f44     4  56             push rsi
0x75d07d39f45     5  57             push rdi
0x75d07d39f46     6  41ff75a8       push [r13-0x58]
0x75d07d39f4a    10  57             push rdi
0x75d07d39f4b    11  49ba99b4aefe40250000 REX.W movq r10,0x2540feaeb499    ;; object: 0x2540feaeb499 <FixedArray[56]>
0x75d07d39f55    21  4152           push r10
0x75d07d39f57    23  b802000000     movl rax,0x2
0x75d07d39f5c    28  48bbb0852b0100000000 REX.W movq rbx,0x12b85b0
0x75d07d39f66    38  e875ebfcff     call 0x75d07d08ae0       ;; code: STUB, CEntryStub, minor: 0
0x75d07d39f6b    43  488bf0         REX.W movq rsi,rax
0x75d07d39f6e    46  488945f8       REX.W movq [rbp-0x8],rax
0x75d07d39f72    50  49ba19c2aefe40250000 REX.W movq r10,0x2540feaec219    ;; object: 0x2540feaec219 <FixedArray[48]>
0x75d07d39f7c    60  4152           push r10
0x75d07d39f7e    62  6a00           push 0x0
0x75d07d39f80    64  b802000000     movl rax,0x2
0x75d07d39f85    69  48bbf05d2b0100000000 REX.W movq rbx,0x12b5df0
0x75d07d39f8f    79  e84cebfcff     call 0x75d07d08ae0       ;; code: STUB, CEntryStub, minor: 0
0x75d07d39f94    84  493ba548090000 REX.W cmpq rsp,[r13+0x948]
0x75d07d39f9b    91  7305           jnc 98  (0x75d07d39fa2)
0x75d07d39f9d    93  e8decaffff     call StackCheck  (0x75d07d36a80)    ;; code: BUILTIN
0x75d07d39fa2    98  49baf9acaefe40250000 REX.W movq r10,0x2540feaeacf9    ;; debug: statement 456
                                                             ;; object: 0x2540feaeacf9 <String[7]: hexcase>
0x75d07d39fac   108  4152           push r10
0x75d07d39fae   110  6a00           push 0x0
0x75d07d39fb0   112  6a00           push 0x0
0x75d07d39fb2   114  b803000000     movl rax,0x3
0x75d07d39fb7   119  48bb90642b0100000000 REX.W movq rbx,0x12b6490
0x75d07d39fc1   129  e81aebfcff     call 0x75d07d08ae0       ;; code: STUB, CEntryStub, minor: 0
0x75d07d39fc6   134  49ba19adaefe40250000 REX.W movq r10,0x2540feaead19    ;; debug: statement 535
                                                             ;; object: 0x2540feaead19 <String[6]: b64pad>
0x75d07d39fd0   144  4152           push r10
0x75d07d39fd2   146  6a00           push 0x0
0x75d07d39fd4   148  49bae142a0fe40250000 REX.W movq r10,0x2540fea042e1    ;; object: 0x2540fea042e1 <String[0]: >
0x75d07d39fde   158  4152           push r10
0x75d07d39fe0   160  b803000000     movl rax,0x3
0x75d07d39fe5   165  48bb90642b0100000000 REX.W movq rbx,0x12b6490
0x75d07d39fef   175  e8eceafcff     call 0x75d07d08ae0       ;; code: STUB, CEntryStub, minor: 0
0x75d07d39ff4   180  49ba39adaefe40250000 REX.W movq r10,0x2540feaead39    ;; debug: statement 614
                                                             ;; object: 0x2540feaead39 <String[5]: chrsz>
0x75d07d39ffe   190  4152           push r10
0x75d07d3a000   192  6a00           push 0x0
0x75d07d3a002   194  49ba0000000008000000 REX.W movq r10,0x800000000
0x75d07d3a00c   204  4152           push r10
0x75d07d3a00e   206  b803000000     movl rax,0x3
0x75d07d3a013   211  48bb90642b0100000000 REX.W movq rbx,0x12b6490
0x75d07d3a01d   221  e8beeafcff     call 0x75d07d08ae0       ;; code: STUB, CEntryStub, minor: 0
0x75d07d3a022   226  49baa9b0aefe40250000 REX.W movq r10,0x2540feaeb0a9    ;; debug: statement 5552
                                                             ;; object: 0x2540feaeb0a9 <String[9]: plainText>
0x75d07d3a02c   236  4152           push r10
0x75d07d3a02e   238  6a00           push 0x0
0x75d07d3a030   240  49bad1b0aefe40250000 REX.W movq r10,0x2540feaeb0d1    ;; object: 0x2540feaeb0d1 <String[629]\: Two households, both alike in dignity,\nIn fair Verona, where we lay our scene,\nFrom ancient grudge break to new mutiny,\nWhere civil blood makes civil hands unclean.\nFrom forth the fatal loins of these two foes\nA pair of star-cross'd lovers take their life;\nWhole misadventured piteous overthrows\nDo with their death bury their parents' strife.\nThe fearful passage of their death-mark'd love,\nAnd the continuance of their parents' rage,\nWhich, but their children's end, nought could remove,\nIs now the two hours' traffic of our stage;\nThe which if you with patient ears attend,\nWhat here shall miss, our toil shall strive to mend.>
0x75d07d3a03a   250  4152           push r10
0x75d07d3a03c   252  b803000000     movl rax,0x3
0x75d07d3a041   257  48bb90642b0100000000 REX.W movq rbx,0x12b6490
0x75d07d3a04b   267  e890eafcff     call 0x75d07d08ae0       ;; code: STUB, CEntryStub, minor: 0
0x75d07d3a050   272  48b80000000000000000 REX.W movq rax,(nil)    ;; debug: statement 6241
                                                             ;; debug: statement 6246
0x75d07d3a05a   282  bb19000000     movl rbx,0x19
0x75d07d3a05f   287  e8dcfdffff     call 0x75d07d39e40       ;; code: STUB, StoreGlobalViaContextStub, minor: 0
0x75d07d3a064   292  e9b8000000     jmp 481  (0x75d07d3a121)
0x75d07d3a069   297  bb18000000     movl rbx,0x18            ;; debug: statement 6274
                                                             ;; debug: position 6274
0x75d07d3a06e   302  e86d06ffff     call 0x75d07d2a6e0       ;; code: STUB, LoadGlobalViaContextStub, minor: 0
0x75d07d3a073   307  50             push rax
0x75d07d3a074   308  bb18000000     movl rbx,0x18            ;; debug: position 6287
0x75d07d3a079   313  e86206ffff     call 0x75d07d2a6e0       ;; code: STUB, LoadGlobalViaContextStub, minor: 0
0x75d07d3a07e   318  5a             pop rdx
0x75d07d3a07f   319  488bc8         REX.W movq rcx,rax
0x75d07d3a082   322  480bc2         REX.W orq rax,rdx
0x75d07d3a085   325  a801           test al,0x1
0x75d07d3a087   327  720c           jc 341  (0x75d07d3a095)
0x75d07d3a089   329  488bc1         REX.W movq rax,rcx
0x75d07d3a08c   332  e8efe4fdff     call 0x75d07d18580       ;; code: BINARY_OP_IC, UNINITIALIZED (id = 223)
0x75d07d3a091   337  a80a           test al,0xa
0x75d07d3a093   339  eb0c           jmp 353  (0x75d07d3a0a1)
0x75d07d3a095   341  488bc2         REX.W movq rax,rdx
0x75d07d3a098   344  4803c1         REX.W addq rax,rcx
0x75d07d3a09b   347  0f80e8ffffff   jo 329  (0x75d07d3a089)
0x75d07d3a0a1   353  bb18000000     movl rbx,0x18            ;; debug: position 6284
0x75d07d3a0a6   358  e895fdffff     call 0x75d07d39e40       ;; code: STUB, StoreGlobalViaContextStub, minor: 0
0x75d07d3a0ab   363  488945e8       REX.W movq [rbp-0x18],rax
0x75d07d3a0af   367  bb19000000     movl rbx,0x19            ;; debug: statement 6264
                                                             ;; debug: position 6263
0x75d07d3a0b4   372  e82706ffff     call 0x75d07d2a6e0       ;; code: STUB, LoadGlobalViaContextStub, minor: 0
0x75d07d3a0b9   377  a801           test al,0x1
0x75d07d3a0bb   379  7314           jnc 401  (0x75d07d3a0d1)
0x75d07d3a0bd   381  49ba0000000001000000 REX.W movq r10,0x100000000
0x75d07d3a0c7   391  4903c2         REX.W addq rax,r10
0x75d07d3a0ca   394  711e           jno 426  (0x75d07d3a0ea)
0x75d07d3a0cc   396  492bc2         REX.W subq rax,r10
0x75d07d3a0cf   399  eb05           jmp 406  (0x75d07d3a0d6)
0x75d07d3a0d1   401  e82a8efeff     call 0x75d07d22f00       ;; code: STUB, ToNumberStub, minor: 0
0x75d07d3a0d6   406  488bd0         REX.W movq rdx,rax       ;; debug: position 6264
0x75d07d3a0d9   409  48b80000000001000000 REX.W movq rax,0x100000000
0x75d07d3a0e3   419  e898e4fdff     call 0x75d07d18580       ;; code: BINARY_OP_IC, UNINITIALIZED (id = 201)
0x75d07d3a0e8   424  a82d           test al,0x2d
0x75d07d3a0ea   426  bb19000000     movl rbx,0x19
0x75d07d3a0ef   431  e84cfdffff     call 0x75d07d39e40       ;; code: STUB, StoreGlobalViaContextStub, minor: 0
0x75d07d3a0f4   436  48bb89b4aefe40250000 REX.W movq rbx,0x2540feaeb489    ;; object: 0x2540feaeb489 Cell for 6144
0x75d07d3a0fe   446  83430bff       addl [rbx+0xb],0xff
0x75d07d3a102   450  791d           jns 481  (0x75d07d3a121)
0x75d07d3a104   452  e837c8ffff     call InterruptCheck  (0x75d07d36940)    ;; code: BUILTIN
0x75d07d3a109   457  48bb89b4aefe40250000 REX.W movq rbx,0x2540feaeb489    ;; object: 0x2540feaeb489 Cell for 6144
0x75d07d3a113   467  49ba0000000000180000 REX.W movq r10,0x180000000000
0x75d07d3a11d   477  4c895307       REX.W movq [rbx+0x7],r10
0x75d07d3a121   481  bb19000000     movl rbx,0x19            ;; debug: statement 6259
                                                             ;; debug: position 6257
0x75d07d3a126   486  e8b505ffff     call 0x75d07d2a6e0       ;; code: STUB, LoadGlobalViaContextStub, minor: 0
0x75d07d3a12b   491  50             push rax
0x75d07d3a12c   492  48b80000000004000000 REX.W movq rax,0x400000000
0x75d07d3a136   502  5a             pop rdx
0x75d07d3a137   503  488bca         REX.W movq rcx,rdx
0x75d07d3a13a   506  480bc8         REX.W orq rcx,rax
0x75d07d3a13d   509  f6c101         testb rcx,0x1
0x75d07d3a140   512  730e           jnc 528  (0x75d07d3a150)
0x75d07d3a142   514  483bd0         REX.W cmpq rdx,rax
0x75d07d3a145   517  0f8c1effffff   jl 297  (0x75d07d3a069)
0x75d07d3a14b   523  e921000000     jmp 561  (0x75d07d3a171)
0x75d07d3a150   528  e86b27feff     call 0x75d07d1c8c0       ;; code: COMPARE_IC, UNINITIALIZED (id = 190)
0x75d07d3a155   533  a815           test al,0x15
0x75d07d3a157   535  eb0f           jmp 552  (0x75d07d3a168)
0x75d07d3a159   537  493b45c0       REX.W cmpq rax,[r13-0x40]
0x75d07d3a15d   541  0f8406ffffff   jz 297  (0x75d07d3a069)
0x75d07d3a163   547  e909000000     jmp 561  (0x75d07d3a171)
0x75d07d3a168   552  4885c0         REX.W testq rax,rax
0x75d07d3a16b   555  0f8cf8feffff   jl 297  (0x75d07d3a069)
0x75d07d3a171   561  49ba61b3aefe40250000 REX.W movq r10,0x2540feaeb361    ;; debug: statement 6301
                                                             ;; object: 0x2540feaeb361 <String[10]: sha1Output>
0x75d07d3a17b   571  4152           push r10
0x75d07d3a17d   573  6a00           push 0x0
0x75d07d3a17f   575  bb07000000     movl rbx,0x7             ;; debug: position 6318
0x75d07d3a184   580  e85705ffff     call 0x75d07d2a6e0       ;; code: STUB, LoadGlobalViaContextStub, minor: 0
0x75d07d3a189   585  50             push rax
0x75d07d3a18a   586  49ba8941a0fe40250000 REX.W movq r10,0x2540fea04189    ;; object: 0x2540fea04189 <undefined>
0x75d07d3a194   596  4152           push r10
0x75d07d3a196   598  bb18000000     movl rbx,0x18            ;; debug: position 6327
0x75d07d3a19b   603  e84005ffff     call 0x75d07d2a6e0       ;; code: STUB, LoadGlobalViaContextStub, minor: 0
0x75d07d3a1a0   608  50             push rax
0x75d07d3a1a1   609  48ba0000000004000000 REX.W movq rdx,0x400000000    ;; debug: position 6318
0x75d07d3a1ab   619  488b7c2410     REX.W movq rdi,[rsp+0x10]
0x75d07d3a1b0   624  e88b7dffff     call 0x75d07d31f40       ;; code: CALL_IC, DEFAULT
0x75d07d3a1b5   629  488b75f8       REX.W movq rsi,[rbp-0x8]
0x75d07d3a1b9   633  48890424       REX.W movq [rsp],rax
0x75d07d3a1bd   637  b803000000     movl rax,0x3
0x75d07d3a1c2   642  48bb90642b0100000000 REX.W movq rbx,0x12b6490
0x75d07d3a1cc   652  e80fe9fcff     call 0x75d07d08ae0       ;; code: STUB, CEntryStub, minor: 0
0x75d07d3a1d1   657  49ba89b3aefe40250000 REX.W movq r10,0x2540feaeb389    ;; debug: statement 6340
                                                             ;; object: 0x2540feaeb389 <String[8]: expected>
0x75d07d3a1db   667  4152           push r10
0x75d07d3a1dd   669  6a00           push 0x0
0x75d07d3a1df   671  49baa9b3aefe40250000 REX.W movq r10,0x2540feaeb3a9    ;; object: 0x2540feaeb3a9 <String[40]: 2524d264def74cce2498bf112bedf00e6c0b796d>
0x75d07d3a1e9   681  4152           push r10
0x75d07d3a1eb   683  b803000000     movl rax,0x3
0x75d07d3a1f0   688  48bb90642b0100000000 REX.W movq rbx,0x12b6490
0x75d07d3a1fa   698  e8e1e8fcff     call 0x75d07d08ae0       ;; code: STUB, CEntryStub, minor: 0
0x75d07d3a1ff   703  bb1a000000     movl rbx,0x1a            ;; debug: statement 6399
                                                             ;; debug: position 6403
0x75d07d3a204   708  e8d704ffff     call 0x75d07d2a6e0       ;; code: STUB, LoadGlobalViaContextStub, minor: 0
0x75d07d3a209   713  50             push rax
0x75d07d3a20a   714  bb1b000000     movl rbx,0x1b            ;; debug: position 6417
0x75d07d3a20f   719  e8cc04ffff     call 0x75d07d2a6e0       ;; code: STUB, LoadGlobalViaContextStub, minor: 0
0x75d07d3a214   724  5a             pop rdx
0x75d07d3a215   725  e86611ffff     call 0x75d07d2b380       ;; code: COMPARE_IC, UNINITIALIZED (id = 283)
0x75d07d3a21a   730  90             nop
0x75d07d3a21b   731  eb0f           jmp 748  (0x75d07d3a22c)
0x75d07d3a21d   733  493b45c0       REX.W cmpq rax,[r13-0x40]
0x75d07d3a221   737  0f8464000000   jz 843  (0x75d07d3a28b)
0x75d07d3a227   743  e909000000     jmp 757  (0x75d07d3a235)
0x75d07d3a22c   748  4885c0         REX.W testq rax,rax
0x75d07d3a22f   751  0f8456000000   jz 843  (0x75d07d3a28b)
0x75d07d3a235   757  49bae9b3aefe40250000 REX.W movq r10,0x2540feaeb3e9    ;; debug: statement 6431
                                                             ;; object: 0x2540feaeb3e9 <String[28]: ERROR: bad result: expected >
0x75d07d3a23f   767  4152           push r10
0x75d07d3a241   769  bb1b000000     movl rbx,0x1b            ;; debug: position 6470
0x75d07d3a246   774  e89504ffff     call 0x75d07d2a6e0       ;; code: STUB, LoadGlobalViaContextStub, minor: 0
0x75d07d3a24b   779  5a             pop rdx                  ;; debug: position 6468
0x75d07d3a24c   780  e82fe3fdff     call 0x75d07d18580       ;; code: BINARY_OP_IC, UNINITIALIZED (id = 303)
0x75d07d3a251   785  90             nop
0x75d07d3a252   786  50             push rax
0x75d07d3a253   787  48b821b4aefe40250000 REX.W movq rax,0x2540feaeb421    ;; object: 0x2540feaeb421 <String[9]:  but got >
0x75d07d3a25d   797  5a             pop rdx                  ;; debug: position 6479
0x75d07d3a25e   798  e81de3fdff     call 0x75d07d18580       ;; code: BINARY_OP_IC, UNINITIALIZED (id = 299)
0x75d07d3a263   803  90             nop
0x75d07d3a264   804  50             push rax
0x75d07d3a265   805  bb1a000000     movl rbx,0x1a            ;; debug: position 6495
0x75d07d3a26a   810  e87104ffff     call 0x75d07d2a6e0       ;; code: STUB, LoadGlobalViaContextStub, minor: 0
0x75d07d3a26f   815  5a             pop rdx                  ;; debug: position 6493
0x75d07d3a270   816  e80be3fdff     call 0x75d07d18580       ;; code: BINARY_OP_IC, UNINITIALIZED (id = 295)
0x75d07d3a275   821  90             nop
0x75d07d3a276   822  50             push rax
0x75d07d3a277   823  b801000000     movl rax,0x1             ;; debug: position 6431
0x75d07d3a27c   828  48bb9038290100000000 REX.W movq rbx,0x1293890
0x75d07d3a286   838  e855e8fcff     call 0x75d07d08ae0       ;; code: STUB, CEntryStub, minor: 0
0x75d07d3a28b   843  488b45e8       REX.W movq rax,[rbp-0x18]    ;; debug: statement 6507
0x75d07d3a28f   847  48bb89b4aefe40250000 REX.W movq rbx,0x2540feaeb489    ;; object: 0x2540feaeb489 Cell for 6144
0x75d07d3a299   857  83430bfb       addl [rbx+0xb],0xfb
0x75d07d3a29d   861  791f           jns 894  (0x75d07d3a2be)
0x75d07d3a29f   863  50             push rax
0x75d07d3a2a0   864  e89bc6ffff     call InterruptCheck  (0x75d07d36940)    ;; code: BUILTIN
0x75d07d3a2a5   869  58             pop rax
0x75d07d3a2a6   870  48bb89b4aefe40250000 REX.W movq rbx,0x2540feaeb489    ;; object: 0x2540feaeb489 Cell for 6144
0x75d07d3a2b0   880  49ba0000000000180000 REX.W movq r10,0x180000000000
0x75d07d3a2ba   890  4c895307       REX.W movq [rbx+0x7],r10
0x75d07d3a2be   894  c9             leave                    ;; debug: statement 6506
0x75d07d3a2bf   895  c20800         ret 0x8
0x75d07d3a2c2   898  498b45a8       REX.W movq rax,[r13-0x58]
0x75d07d3a2c6   902  e9c4ffffff     jmp 847  (0x75d07d3a28f)
0x75d07d3a2cb   907  0f1f440000     nop

Deoptimization Output Data (deopt points = 0)

Back edges (size = 1)
ast_id  pc_offset  loop_depth
   172        457           1

0x2540feaec481: [TypeFeedbackInfo]
 - ic_total_count: 8, ic_with_type_info_count: 0, ic_generic_count: 0

RelocInfo (size = 173)
0x75d07d39f40  position  (0)
0x75d07d39f4d  embedded object  (0x2540feaeb499 <FixedArray[56]>)
0x75d07d39f67  code target (STUB)  (0x75d07d08ae0)
0x75d07d39f74  embedded object  (0x2540feaec219 <FixedArray[48]>)
0x75d07d39f90  code target (STUB)  (0x75d07d08ae0)
0x75d07d39f9e  code target (BUILTIN)  (0x75d07d36a80)
0x75d07d39fa2  statement position  (456)
0x75d07d39fa4  embedded object  (0x2540feaeacf9 <String[7]: hexcase>)
0x75d07d39fc2  code target (STUB)  (0x75d07d08ae0)
0x75d07d39fc6  statement position  (535)
0x75d07d39fc8  embedded object  (0x2540feaead19 <String[6]: b64pad>)
0x75d07d39fd6  embedded object  (0x2540fea042e1 <String[0]: >)
0x75d07d39ff0  code target (STUB)  (0x75d07d08ae0)
0x75d07d39ff4  statement position  (614)
0x75d07d39ff6  embedded object  (0x2540feaead39 <String[5]: chrsz>)
0x75d07d3a01e  code target (STUB)  (0x75d07d08ae0)
0x75d07d3a022  statement position  (5552)
0x75d07d3a024  embedded object  (0x2540feaeb0a9 <String[9]: plainText>)
0x75d07d3a032  embedded object  (0x2540feaeb0d1 <String[629]\: Two households, both alike in dignity,\nIn fair Verona, where we lay our scene,\nFrom ancient grudge break to new mutiny,\nWhere civil blood makes civil hands unclean.\nFrom forth the fatal loins of these two foes\nA pair of star-cross'd lovers take their life;\nWhole misadventured piteous overthrows\nDo with their death bury their parents' strife.\nThe fearful passage of their death-mark'd love,\nAnd the continuance of their parents' rage,\nWhich, but their children's end, nought could remove,\nIs now the two hours' traffic of our stage;\nThe which if you with patient ears attend,\nWhat here shall miss, our toil shall strive to mend.>)
0x75d07d3a04c  code target (STUB)  (0x75d07d08ae0)
0x75d07d3a050  statement position  (6241)
0x75d07d3a050  statement position  (6246)
0x75d07d3a060  code target (STUB)  (0x75d07d39e40)
0x75d07d3a069  statement position  (6274)
0x75d07d3a069  position  (6274)
0x75d07d3a06f  code target (STUB)  (0x75d07d2a6e0)
0x75d07d3a074  position  (6287)
0x75d07d3a07a  code target (STUB)  (0x75d07d2a6e0)
0x75d07d3a08d  code target with id (BINARY_OP_IC)  (0x75d07d18580) (id=223)
0x75d07d3a0a1  position  (6284)
0x75d07d3a0a7  code target (STUB)  (0x75d07d39e40)
0x75d07d3a0af  statement position  (6264)
0x75d07d3a0af  position  (6263)
0x75d07d3a0b5  code target (STUB)  (0x75d07d2a6e0)
0x75d07d3a0d2  code target (STUB)  (0x75d07d22f00)
0x75d07d3a0d6  position  (6264)
0x75d07d3a0e4  code target with id (BINARY_OP_IC)  (0x75d07d18580) (id=201)
0x75d07d3a0f0  code target (STUB)  (0x75d07d39e40)
0x75d07d3a0f6  embedded object  (0x2540feaeb489 Cell for 6144)
0x75d07d3a105  code target (BUILTIN)  (0x75d07d36940)
0x75d07d3a10b  embedded object  (0x2540feaeb489 Cell for 6144)
0x75d07d3a121  statement position  (6259)
0x75d07d3a121  position  (6257)
0x75d07d3a127  code target (STUB)  (0x75d07d2a6e0)
0x75d07d3a151  code target with id (COMPARE_IC)  (0x75d07d1c8c0) (id=190)
0x75d07d3a171  statement position  (6301)
0x75d07d3a173  embedded object  (0x2540feaeb361 <String[10]: sha1Output>)
0x75d07d3a17f  position  (6318)
0x75d07d3a185  code target (STUB)  (0x75d07d2a6e0)
0x75d07d3a18c  embedded object  (0x2540fea04189 <undefined>)
0x75d07d3a196  position  (6327)
0x75d07d3a19c  code target (STUB)  (0x75d07d2a6e0)
0x75d07d3a1a1  position  (6318)
0x75d07d3a1b1  code target (CALL_IC)  (0x75d07d31f40)
0x75d07d3a1cd  code target (STUB)  (0x75d07d08ae0)
0x75d07d3a1d1  statement position  (6340)
0x75d07d3a1d3  embedded object  (0x2540feaeb389 <String[8]: expected>)
0x75d07d3a1e1  embedded object  (0x2540feaeb3a9 <String[40]: 2524d264def74cce2498bf112bedf00e6c0b796d>)
0x75d07d3a1fb  code target (STUB)  (0x75d07d08ae0)
0x75d07d3a1ff  statement position  (6399)
0x75d07d3a1ff  position  (6403)
0x75d07d3a205  code target (STUB)  (0x75d07d2a6e0)
0x75d07d3a20a  position  (6417)
0x75d07d3a210  code target (STUB)  (0x75d07d2a6e0)
0x75d07d3a216  code target with id (COMPARE_IC)  (0x75d07d2b380) (id=283)
0x75d07d3a235  statement position  (6431)
0x75d07d3a237  embedded object  (0x2540feaeb3e9 <String[28]: ERROR: bad result: expected >)
0x75d07d3a241  position  (6470)
0x75d07d3a247  code target (STUB)  (0x75d07d2a6e0)
0x75d07d3a24b  position  (6468)
0x75d07d3a24d  code target with id (BINARY_OP_IC)  (0x75d07d18580) (id=303)
0x75d07d3a255  embedded object  (0x2540feaeb421 <String[9]:  but got >)
0x75d07d3a25d  position  (6479)
0x75d07d3a25f  code target with id (BINARY_OP_IC)  (0x75d07d18580) (id=299)
0x75d07d3a265  position  (6495)
0x75d07d3a26b  code target (STUB)  (0x75d07d2a6e0)
0x75d07d3a26f  position  (6493)
0x75d07d3a271  code target with id (BINARY_OP_IC)  (0x75d07d18580) (id=295)
0x75d07d3a277  position  (6431)
0x75d07d3a287  code target (STUB)  (0x75d07d08ae0)
0x75d07d3a28b  statement position  (6507)
0x75d07d3a291  embedded object  (0x2540feaeb489 Cell for 6144)
0x75d07d3a2a1  code target (BUILTIN)  (0x75d07d36940)
0x75d07d3a2a8  embedded object  (0x2540feaeb489 Cell for 6144)
0x75d07d3a2be  statement position  (6506)

--- End code ---
--- Raw source ---
(s){return binb2hex(core_sha1(str2binb(s),s.length * chrsz));}


--- Code ---
source_position = 852
kind = FUNCTION
name = hex_sha1
compiler = full-codegen
Instructions (size = 292)
0x75d07d3a3c0     0  55             push rbp                 ;; debug: position 852
0x75d07d3a3c1     1  4889e5         REX.W movq rbp,rsp
0x75d07d3a3c4     4  56             push rsi
0x75d07d3a3c5     5  57             push rdi
0x75d07d3a3c6     6  493ba548090000 REX.W cmpq rsp,[r13+0x948]
0x75d07d3a3cd    13  7305           jnc 20  (0x75d07d3a3d4)
0x75d07d3a3cf    15  e8acc6ffff     call StackCheck  (0x75d07d36a80)    ;; code: BUILTIN
0x75d07d3a3d4    20  bb16000000     movl rbx,0x16            ;; debug: statement 856
                                                             ;; debug: position 863
0x75d07d3a3d9    25  e80203ffff     call 0x75d07d2a6e0       ;; code: STUB, LoadGlobalViaContextStub, minor: 0
0x75d07d3a3de    30  50             push rax
0x75d07d3a3df    31  49ba8941a0fe40250000 REX.W movq r10,0x2540fea04189    ;; object: 0x2540fea04189 <undefined>
0x75d07d3a3e9    41  4152           push r10
0x75d07d3a3eb    43  bb0e000000     movl rbx,0xe             ;; debug: position 872
0x75d07d3a3f0    48  e8eb02ffff     call 0x75d07d2a6e0       ;; code: STUB, LoadGlobalViaContextStub, minor: 0
0x75d07d3a3f5    53  50             push rax
0x75d07d3a3f6    54  49ba8941a0fe40250000 REX.W movq r10,0x2540fea04189    ;; object: 0x2540fea04189 <undefined>
0x75d07d3a400    64  4152           push r10
0x75d07d3a402    66  bb14000000     movl rbx,0x14            ;; debug: position 882
0x75d07d3a407    71  e8d402ffff     call 0x75d07d2a6e0       ;; code: STUB, LoadGlobalViaContextStub, minor: 0
0x75d07d3a40c    76  50             push rax
0x75d07d3a40d    77  49ba8941a0fe40250000 REX.W movq r10,0x2540fea04189    ;; object: 0x2540fea04189 <undefined>
0x75d07d3a417    87  4152           push r10
0x75d07d3a419    89  ff7510         push [rbp+0x10]          ;; debug: position 891
0x75d07d3a41c    92  48ba0000000008000000 REX.W movq rdx,0x800000000    ;; debug: position 882
0x75d07d3a426   102  488b7c2410     REX.W movq rdi,[rsp+0x10]
0x75d07d3a42b   107  e8107bffff     call 0x75d07d31f40       ;; code: CALL_IC, DEFAULT
0x75d07d3a430   112  488b75f8       REX.W movq rsi,[rbp-0x8]
0x75d07d3a434   116  48890424       REX.W movq [rsp],rax
0x75d07d3a438   120  488b4510       REX.W movq rax,[rbp+0x10]    ;; debug: position 894
0x75d07d3a43c   124  488bd0         REX.W movq rdx,rax
0x75d07d3a43f   127  48b97107a9fe40250000 REX.W movq rcx,0x2540fea90771    ;; debug: position 895
                                                             ;; object: 0x2540fea90771 <String[6]: length>
0x75d07d3a449   137  48b8000000000a000000 REX.W movq rax,0xa00000000
0x75d07d3a453   147  e808e1feff     call 0x75d07d28560       ;; code: contextual, LOAD_IC, DEFAULT
0x75d07d3a458   152  50             push rax
0x75d07d3a459   153  bb06000000     movl rbx,0x6             ;; debug: position 905
0x75d07d3a45e   158  e87d02ffff     call 0x75d07d2a6e0       ;; code: STUB, LoadGlobalViaContextStub, minor: 0
0x75d07d3a463   163  5a             pop rdx                  ;; debug: position 903
0x75d07d3a464   164  e8d774ffff     call 0x75d07d31940       ;; code: BINARY_OP_IC, UNINITIALIZED (id = 34)
0x75d07d3a469   169  90             nop
0x75d07d3a46a   170  50             push rax
0x75d07d3a46b   171  48ba0000000006000000 REX.W movq rdx,0x600000000    ;; debug: position 872
0x75d07d3a475   181  488b7c2418     REX.W movq rdi,[rsp+0x18]
0x75d07d3a47a   186  e88193fdff     call 0x75d07d13800       ;; code: CALL_IC, DEFAULT
0x75d07d3a47f   191  488b75f8       REX.W movq rsi,[rbp-0x8]
0x75d07d3a483   195  48890424       REX.W movq [rsp],rax
0x75d07d3a487   199  48ba0000000004000000 REX.W movq rdx,0x400000000    ;; debug: position 863
0x75d07d3a491   209  488b7c2410     REX.W movq rdi,[rsp+0x10]
0x75d07d3a496   214  e8a57affff     call 0x75d07d31f40       ;; code: CALL_IC, DEFAULT
0x75d07d3a49b   219  488b75f8       REX.W movq rsi,[rbp-0x8]
0x75d07d3a49f   223  4883c408       REX.W addq rsp,0x8
0x75d07d3a4a3   227  48bb61d8aefe40250000 REX.W movq rbx,0x2540feaed861    ;; object: 0x2540feaed861 Cell for 6144
0x75d07d3a4ad   237  83430bd1       addl [rbx+0xb],0xd1
0x75d07d3a4b1   241  791f           jns 274  (0x75d07d3a4d2)
0x75d07d3a4b3   243  50             push rax
0x75d07d3a4b4   244  e887c4ffff     call InterruptCheck  (0x75d07d36940)    ;; code: BUILTIN
0x75d07d3a4b9   249  58             pop rax
0x75d07d3a4ba   250  48bb61d8aefe40250000 REX.W movq rbx,0x2540feaed861    ;; object: 0x2540feaed861 Cell for 6144
0x75d07d3a4c4   260  49ba0000000000180000 REX.W movq r10,0x180000000000
0x75d07d3a4ce   270  4c895307       REX.W movq [rbx+0x7],r10
0x75d07d3a4d2   274  c9             leave                    ;; debug: statement 913
0x75d07d3a4d3   275  c21000         ret 0x10
0x75d07d3a4d6   278  498b45a8       REX.W movq rax,[r13-0x58]
0x75d07d3a4da   282  e9c4ffffff     jmp 227  (0x75d07d3a4a3)
0x75d07d3a4df   287  90             nop

Deoptimization Output Data (deopt points = 0)

Back edges (size = 0)
ast_id  pc_offset  loop_depth

0x2540feaed8c1: [TypeFeedbackInfo]
 - ic_total_count: 5, ic_with_type_info_count: 0, ic_generic_count: 0

RelocInfo (size = 58)
0x75d07d3a3c0  position  (852)
0x75d07d3a3d0  code target (BUILTIN)  (0x75d07d36a80)
0x75d07d3a3d4  statement position  (856)
0x75d07d3a3d4  position  (863)
0x75d07d3a3da  code target (STUB)  (0x75d07d2a6e0)
0x75d07d3a3e1  embedded object  (0x2540fea04189 <undefined>)
0x75d07d3a3eb  position  (872)
0x75d07d3a3f1  code target (STUB)  (0x75d07d2a6e0)
0x75d07d3a3f8  embedded object  (0x2540fea04189 <undefined>)
0x75d07d3a402  position  (882)
0x75d07d3a408  code target (STUB)  (0x75d07d2a6e0)
0x75d07d3a40f  embedded object  (0x2540fea04189 <undefined>)
0x75d07d3a419  position  (891)
0x75d07d3a41c  position  (882)
0x75d07d3a42c  code target (CALL_IC)  (0x75d07d31f40)
0x75d07d3a438  position  (894)
0x75d07d3a43f  position  (895)
0x75d07d3a441  embedded object  (0x2540fea90771 <String[6]: length>)
0x75d07d3a454  code target (LOAD_IC)  (0x75d07d28560)
0x75d07d3a459  position  (905)
0x75d07d3a45f  code target (STUB)  (0x75d07d2a6e0)
0x75d07d3a463  position  (903)
0x75d07d3a465  code target with id (BINARY_OP_IC)  (0x75d07d31940) (id=34)
0x75d07d3a46b  position  (872)
0x75d07d3a47b  code target (CALL_IC)  (0x75d07d13800)
0x75d07d3a487  position  (863)
0x75d07d3a497  code target (CALL_IC)  (0x75d07d31f40)
0x75d07d3a4a5  embedded object  (0x2540feaed861 Cell for 6144)
0x75d07d3a4b5  code target (BUILTIN)  (0x75d07d36940)
0x75d07d3a4bc  embedded object  (0x2540feaed861 Cell for 6144)
0x75d07d3a4d2  statement position  (913)

--- End code ---
--- Raw source ---
(str)
{
  var bin = Array();
  var mask = (1 << chrsz) - 1;
  for(var i = 0; i < str.length * chrsz; i += chrsz)
    bin[i>>5] |= (str.charCodeAt(i / chrsz) & mask) << (32 - chrsz - i%32);
  return bin;
}


--- Code ---
source_position = 4024
kind = FUNCTION
name = str2binb
compiler = full-codegen
Instructions (size = 904)
0x75d07d3a560     0  55             push rbp                 ;; debug: position 4024
0x75d07d3a561     1  4889e5         REX.W movq rbp,rsp
0x75d07d3a564     4  56             push rsi
0x75d07d3a565     5  57             push rdi
0x75d07d3a566     6  498b55a8       REX.W movq rdx,[r13-0x58]
0x75d07d3a56a    10  52             push rdx
0x75d07d3a56b    11  52             push rdx
0x75d07d3a56c    12  52             push rdx
0x75d07d3a56d    13  493ba548090000 REX.W cmpq rsp,[r13+0x948]
0x75d07d3a574    20  7305           jnc 27  (0x75d07d3a57b)
0x75d07d3a576    22  e805c5ffff     call StackCheck  (0x75d07d36a80)    ;; code: BUILTIN
0x75d07d3a57b    27  48b9d91fa9fe40250000 REX.W movq rcx,0x2540fea91fd9    ;; debug: statement 4034
                                                             ;; debug: position 4044
                                                             ;; object: 0x2540fea91fd9 <String[5]: Array>
0x75d07d3a585    37  488b5627       REX.W movq rdx,[rsi+0x27]
0x75d07d3a589    41  48b80000000006000000 REX.W movq rax,0x600000000
0x75d07d3a593    51  e8c8dffeff     call 0x75d07d28560       ;; code: contextual, LOAD_IC, DEFAULT
0x75d07d3a598    56  50             push rax
0x75d07d3a599    57  49ba8941a0fe40250000 REX.W movq r10,0x2540fea04189    ;; object: 0x2540fea04189 <undefined>
0x75d07d3a5a3    67  4152           push r10
0x75d07d3a5a5    69  48ba0000000004000000 REX.W movq rdx,0x400000000
0x75d07d3a5af    79  488b7c2408     REX.W movq rdi,[rsp+0x8]
0x75d07d3a5b4    84  e8872bffff     call 0x75d07d2d140       ;; code: CALL_IC, DEFAULT
0x75d07d3a5b9    89  488b75f8       REX.W movq rsi,[rbp-0x8]
0x75d07d3a5bd    93  4883c408       REX.W addq rsp,0x8
0x75d07d3a5c1    97  488945e8       REX.W movq [rbp-0x18],rax    ;; debug: position 4034
0x75d07d3a5c5   101  49ba0000000001000000 REX.W movq r10,0x100000000    ;; debug: statement 4055
0x75d07d3a5cf   111  4152           push r10
0x75d07d3a5d1   113  bb06000000     movl rbx,0x6             ;; debug: position 4072
0x75d07d3a5d6   118  e80501ffff     call 0x75d07d2a6e0       ;; code: STUB, LoadGlobalViaContextStub, minor: 0
0x75d07d3a5db   123  5a             pop rdx                  ;; debug: position 4069
0x75d07d3a5dc   124  e8df8ffeff     call 0x75d07d235c0       ;; code: BINARY_OP_IC, UNINITIALIZED (id = 48)
0x75d07d3a5e1   129  90             nop
0x75d07d3a5e2   130  50             push rax
0x75d07d3a5e3   131  48b80000000001000000 REX.W movq rax,0x100000000
0x75d07d3a5ed   141  5a             pop rdx                  ;; debug: position 4079
0x75d07d3a5ee   142  e84de4fcff     call 0x75d07d08a40       ;; code: BINARY_OP_IC, UNINITIALIZED (id = 44)
0x75d07d3a5f3   147  90             nop
0x75d07d3a5f4   148  488945e0       REX.W movq [rbp-0x20],rax    ;; debug: position 4055
0x75d07d3a5f8   152  48b80000000000000000 REX.W movq rax,(nil)    ;; debug: statement 4086
                                                             ;; debug: statement 4090
0x75d07d3a602   162  488945d8       REX.W movq [rbp-0x28],rax
0x75d07d3a606   166  e9ea010000     jmp 661  (0x75d07d3a7f5)
0x75d07d3a60b   171  ff75e8         push [rbp-0x18]          ;; debug: statement 4141
                                                             ;; debug: position 4141
0x75d07d3a60e   174  ff75d8         push [rbp-0x28]          ;; debug: position 4145
0x75d07d3a611   177  48b80000000005000000 REX.W movq rax,0x500000000
0x75d07d3a61b   187  5a             pop rdx                  ;; debug: position 4146
0x75d07d3a61c   188  488bc8         REX.W movq rcx,rax
0x75d07d3a61f   191  480bc2         REX.W orq rax,rdx
0x75d07d3a622   194  a801           test al,0x1
0x75d07d3a624   196  720c           jc 210  (0x75d07d3a632)
0x75d07d3a626   198  488bc1         REX.W movq rax,rcx
0x75d07d3a629   201  e8f238ffff     call 0x75d07d2df20       ;; code: BINARY_OP_IC, UNINITIALIZED (id = 207)
0x75d07d3a62e   206  a80a           test al,0xa
0x75d07d3a630   208  eb11           jmp 227  (0x75d07d3a643)
0x75d07d3a632   210  48c1e920       REX.W shrq rcx, 32
0x75d07d3a636   214  488bc2         REX.W movq rax,rdx
0x75d07d3a639   217  48c1e820       REX.W shrq rax, 32
0x75d07d3a63d   221  d3f8           sarl rax, cl
0x75d07d3a63f   223  48c1e020       REX.W shlq rax, 32
0x75d07d3a643   227  50             push rax
0x75d07d3a644   228  488b542408     REX.W movq rdx,[rsp+0x8]
0x75d07d3a649   233  488b0c24       REX.W movq rcx,[rsp]
0x75d07d3a64d   237  48b8000000000a000000 REX.W movq rax,0xa00000000    ;; debug: position 4144
0x75d07d3a657   247  e8641afeff     call 0x75d07d1c0c0       ;; code: KEYED_LOAD_IC, DEFAULT
0x75d07d3a65c   252  50             push rax
0x75d07d3a65d   253  ff7510         push [rbp+0x10]          ;; debug: position 4155
0x75d07d3a660   256  488b1424       REX.W movq rdx,[rsp]
0x75d07d3a664   260  48b9f1b6a5fe40250000 REX.W movq rcx,0x2540fea5b6f1    ;; debug: position 4158
                                                             ;; object: 0x2540fea5b6f1 <String[10]: charCodeAt>
0x75d07d3a66e   270  48b80000000012000000 REX.W movq rax,0x1200000000
0x75d07d3a678   280  e8e3defeff     call 0x75d07d28560       ;; code: contextual, LOAD_IC, DEFAULT
0x75d07d3a67d   285  ff3424         push [rsp]
0x75d07d3a680   288  4889442408     REX.W movq [rsp+0x8],rax
0x75d07d3a685   293  ff75d8         push [rbp-0x28]          ;; debug: position 4170
0x75d07d3a688   296  bb06000000     movl rbx,0x6             ;; debug: position 4174
0x75d07d3a68d   301  e84e00ffff     call 0x75d07d2a6e0       ;; code: STUB, LoadGlobalViaContextStub, minor: 0
0x75d07d3a692   306  5a             pop rdx                  ;; debug: position 4172
0x75d07d3a693   307  e8e837fdff     call 0x75d07d0de80       ;; code: BINARY_OP_IC, UNINITIALIZED (id = 242)
0x75d07d3a698   312  90             nop
0x75d07d3a699   313  50             push rax
0x75d07d3a69a   314  48ba0000000010000000 REX.W movq rdx,0x1000000000    ;; debug: position 4159
0x75d07d3a6a4   324  488b7c2410     REX.W movq rdi,[rsp+0x10]
0x75d07d3a6a9   329  e8127afeff     call 0x75d07d220c0       ;; code: CALL_IC, DEFAULT
0x75d07d3a6ae   334  488b75f8       REX.W movq rsi,[rbp-0x8]
0x75d07d3a6b2   338  48890424       REX.W movq [rsp],rax
0x75d07d3a6b6   342  488b45e0       REX.W movq rax,[rbp-0x20]    ;; debug: position 4183
0x75d07d3a6ba   346  5a             pop rdx                  ;; debug: position 4181
0x75d07d3a6bb   347  488bc8         REX.W movq rcx,rax
0x75d07d3a6be   350  480bc2         REX.W orq rax,rdx
0x75d07d3a6c1   353  a801           test al,0x1
0x75d07d3a6c3   355  720c           jc 369  (0x75d07d3a6d1)
0x75d07d3a6c5   357  488bc1         REX.W movq rax,rcx
0x75d07d3a6c8   360  e8333ffeff     call 0x75d07d1e600       ;; code: BINARY_OP_IC, UNINITIALIZED (id = 224)
0x75d07d3a6cd   365  a80a           test al,0xa
0x75d07d3a6cf   367  eb06           jmp 375  (0x75d07d3a6d7)
0x75d07d3a6d1   369  488bc2         REX.W movq rax,rdx
0x75d07d3a6d4   372  4823c1         REX.W andq rax,rcx
0x75d07d3a6d7   375  50             push rax
0x75d07d3a6d8   376  49ba0000000020000000 REX.W movq r10,0x2000000000
0x75d07d3a6e2   386  4152           push r10
0x75d07d3a6e4   388  bb06000000     movl rbx,0x6             ;; debug: position 4198
0x75d07d3a6e9   393  e8f2fffeff     call 0x75d07d2a6e0       ;; code: STUB, LoadGlobalViaContextStub, minor: 0
0x75d07d3a6ee   398  5a             pop rdx                  ;; debug: position 4196
0x75d07d3a6ef   399  488bc8         REX.W movq rcx,rax
0x75d07d3a6f2   402  480bc2         REX.W orq rax,rdx
0x75d07d3a6f5   405  a801           test al,0x1
0x75d07d3a6f7   407  720c           jc 421  (0x75d07d3a705)
0x75d07d3a6f9   409  488bc1         REX.W movq rax,rcx
0x75d07d3a6fc   412  e83fe3fcff     call 0x75d07d08a40       ;; code: BINARY_OP_IC, UNINITIALIZED (id = 259)
0x75d07d3a701   417  a80a           test al,0xa
0x75d07d3a703   419  eb0c           jmp 433  (0x75d07d3a711)
0x75d07d3a705   421  488bc2         REX.W movq rax,rdx
0x75d07d3a708   424  482bc1         REX.W subq rax,rcx
0x75d07d3a70b   427  0f80e8ffffff   jo 409  (0x75d07d3a6f9)
0x75d07d3a711   433  50             push rax
0x75d07d3a712   434  ff75d8         push [rbp-0x28]          ;; debug: position 4206
0x75d07d3a715   437  48b80000000020000000 REX.W movq rax,0x2000000000
0x75d07d3a71f   447  5a             pop rdx                  ;; debug: position 4207
0x75d07d3a720   448  e89bdbfeff     call 0x75d07d282c0       ;; code: BINARY_OP_IC, UNINITIALIZED (id = 269)
0x75d07d3a725   453  90             nop
0x75d07d3a726   454  5a             pop rdx                  ;; debug: position 4204
0x75d07d3a727   455  488bc8         REX.W movq rcx,rax
0x75d07d3a72a   458  480bc2         REX.W orq rax,rdx
0x75d07d3a72d   461  a801           test al,0x1
0x75d07d3a72f   463  720c           jc 477  (0x75d07d3a73d)
0x75d07d3a731   465  488bc1         REX.W movq rax,rcx
0x75d07d3a734   468  e807e3fcff     call 0x75d07d08a40       ;; code: BINARY_OP_IC, UNINITIALIZED (id = 255)
0x75d07d3a739   473  a80a           test al,0xa
0x75d07d3a73b   475  eb0c           jmp 489  (0x75d07d3a749)
0x75d07d3a73d   477  488bc2         REX.W movq rax,rdx
0x75d07d3a740   480  482bc1         REX.W subq rax,rcx
0x75d07d3a743   483  0f80e8ffffff   jo 465  (0x75d07d3a731)
0x75d07d3a749   489  5a             pop rdx                  ;; debug: position 4189
0x75d07d3a74a   490  488bc8         REX.W movq rcx,rax
0x75d07d3a74d   493  480bc2         REX.W orq rax,rdx
0x75d07d3a750   496  a801           test al,0x1
0x75d07d3a752   498  720c           jc 512  (0x75d07d3a760)
0x75d07d3a754   500  488bc1         REX.W movq rax,rcx
0x75d07d3a757   503  e8648efeff     call 0x75d07d235c0       ;; code: BINARY_OP_IC, UNINITIALIZED (id = 220)
0x75d07d3a75c   508  a80a           test al,0xa
0x75d07d3a75e   510  eb0e           jmp 526  (0x75d07d3a76e)
0x75d07d3a760   512  488bc2         REX.W movq rax,rdx
0x75d07d3a763   515  48c1e920       REX.W shrq rcx, 32
0x75d07d3a767   519  4883e11f       REX.W andq rcx,0x1f
0x75d07d3a76b   523  48d3e0         REX.W shlq rax, cl
0x75d07d3a76e   526  5a             pop rdx
0x75d07d3a76f   527  488bc8         REX.W movq rcx,rax
0x75d07d3a772   530  480bc2         REX.W orq rax,rdx
0x75d07d3a775   533  a801           test al,0x1
0x75d07d3a777   535  720c           jc 549  (0x75d07d3a785)
0x75d07d3a779   537  488bc1         REX.W movq rax,rcx
0x75d07d3a77c   540  e87f4effff     call 0x75d07d2f600       ;; code: BINARY_OP_IC, UNINITIALIZED (id = 125)
0x75d07d3a781   545  a80a           test al,0xa
0x75d07d3a783   547  eb06           jmp 555  (0x75d07d3a78b)
0x75d07d3a785   549  488bc2         REX.W movq rax,rdx
0x75d07d3a788   552  480bc1         REX.W orq rax,rcx
0x75d07d3a78b   555  59             pop rcx                  ;; debug: position 4151
0x75d07d3a78c   556  5a             pop rdx
0x75d07d3a78d   557  e80ea3ffff     call KeyedStoreIC_Initialize  (0x75d07d34aa0)    ;; code: KEYED_STORE_IC, UNINITIALIZED (id = 121)
0x75d07d3a792   562  488b45d8       REX.W movq rax,[rbp-0x28]    ;; debug: statement 4127
                                                             ;; debug: position 4125
0x75d07d3a796   566  50             push rax
0x75d07d3a797   567  bb06000000     movl rbx,0x6             ;; debug: position 4130
0x75d07d3a79c   572  e83ffffeff     call 0x75d07d2a6e0       ;; code: STUB, LoadGlobalViaContextStub, minor: 0
0x75d07d3a7a1   577  5a             pop rdx
0x75d07d3a7a2   578  488bc8         REX.W movq rcx,rax
0x75d07d3a7a5   581  480bc2         REX.W orq rax,rdx
0x75d07d3a7a8   584  a801           test al,0x1
0x75d07d3a7aa   586  720c           jc 600  (0x75d07d3a7b8)
0x75d07d3a7ac   588  488bc1         REX.W movq rax,rcx
0x75d07d3a7af   591  e8ccddfdff     call 0x75d07d18580       ;; code: BINARY_OP_IC, UNINITIALIZED (id = 105)
0x75d07d3a7b4   596  a80a           test al,0xa
0x75d07d3a7b6   598  eb0c           jmp 612  (0x75d07d3a7c4)
0x75d07d3a7b8   600  488bc2         REX.W movq rax,rdx
0x75d07d3a7bb   603  4803c1         REX.W addq rax,rcx
0x75d07d3a7be   606  0f80e8ffffff   jo 588  (0x75d07d3a7ac)
0x75d07d3a7c4   612  488945d8       REX.W movq [rbp-0x28],rax    ;; debug: position 4127
0x75d07d3a7c8   616  48bb19daaefe40250000 REX.W movq rbx,0x2540feaeda19    ;; object: 0x2540feaeda19 Cell for 6144
0x75d07d3a7d2   626  83430bfe       addl [rbx+0xb],0xfe
0x75d07d3a7d6   630  791d           jns 661  (0x75d07d3a7f5)
0x75d07d3a7d8   632  e863c1ffff     call InterruptCheck  (0x75d07d36940)    ;; code: BUILTIN
0x75d07d3a7dd   637  48bb19daaefe40250000 REX.W movq rbx,0x2540feaeda19    ;; object: 0x2540feaeda19 Cell for 6144
0x75d07d3a7e7   647  49ba0000000000180000 REX.W movq r10,0x180000000000
0x75d07d3a7f1   657  4c895307       REX.W movq [rbx+0x7],r10
0x75d07d3a7f5   661  ff75d8         push [rbp-0x28]          ;; debug: statement 4103
                                                             ;; debug: position 4101
0x75d07d3a7f8   664  488b4510       REX.W movq rax,[rbp+0x10]    ;; debug: position 4105
0x75d07d3a7fc   668  488bd0         REX.W movq rdx,rax
0x75d07d3a7ff   671  48b97107a9fe40250000 REX.W movq rcx,0x2540fea90771    ;; debug: position 4108
                                                             ;; object: 0x2540fea90771 <String[6]: length>
0x75d07d3a809   681  48b80000000008000000 REX.W movq rax,0x800000000
0x75d07d3a813   691  e848ddfeff     call 0x75d07d28560       ;; code: contextual, LOAD_IC, DEFAULT
0x75d07d3a818   696  50             push rax
0x75d07d3a819   697  bb06000000     movl rbx,0x6             ;; debug: position 4118
0x75d07d3a81e   702  e8bdfefeff     call 0x75d07d2a6e0       ;; code: STUB, LoadGlobalViaContextStub, minor: 0
0x75d07d3a823   707  5a             pop rdx                  ;; debug: position 4116
0x75d07d3a824   708  488bc8         REX.W movq rcx,rax
0x75d07d3a827   711  480bc2         REX.W orq rax,rdx
0x75d07d3a82a   714  a801           test al,0x1
0x75d07d3a82c   716  720c           jc 730  (0x75d07d3a83a)
0x75d07d3a82e   718  488bc1         REX.W movq rax,rcx
0x75d07d3a831   721  e80a71ffff     call 0x75d07d31940       ;; code: BINARY_OP_IC, UNINITIALIZED (id = 85)
0x75d07d3a836   726  a80a           test al,0xa
0x75d07d3a838   728  eb22           jmp 764  (0x75d07d3a85c)
0x75d07d3a83a   730  488bc2         REX.W movq rax,rdx
0x75d07d3a83d   733  48c1f820       REX.W sarq rax, 32
0x75d07d3a841   737  480fafc1       REX.W imulq rax,rcx
0x75d07d3a845   741  0f80e3ffffff   jo 718  (0x75d07d3a82e)
0x75d07d3a84b   747  4885c0         REX.W testq rax,rax
0x75d07d3a84e   750  750c           jnz 764  (0x75d07d3a85c)
0x75d07d3a850   752  4c8bd2         REX.W movq r10,rdx
0x75d07d3a853   755  4c33d1         REX.W xorq r10,rcx
0x75d07d3a856   758  0f88d2ffffff   js 718  (0x75d07d3a82e)
0x75d07d3a85c   764  5a             pop rdx
0x75d07d3a85d   765  488bca         REX.W movq rcx,rdx
0x75d07d3a860   768  480bc8         REX.W orq rcx,rax
0x75d07d3a863   771  f6c101         testb rcx,0x1
0x75d07d3a866   774  730e           jnc 790  (0x75d07d3a876)
0x75d07d3a868   776  483bd0         REX.W cmpq rdx,rax
0x75d07d3a86b   779  0f8c9afdffff   jl 171  (0x75d07d3a60b)
0x75d07d3a871   785  e921000000     jmp 823  (0x75d07d3a897)
0x75d07d3a876   790  e84520feff     call 0x75d07d1c8c0       ;; code: COMPARE_IC, UNINITIALIZED (id = 78)
0x75d07d3a87b   795  a815           test al,0x15
0x75d07d3a87d   797  eb0f           jmp 814  (0x75d07d3a88e)
0x75d07d3a87f   799  493b45c0       REX.W cmpq rax,[r13-0x40]
0x75d07d3a883   803  0f8482fdffff   jz 171  (0x75d07d3a60b)
0x75d07d3a889   809  e909000000     jmp 823  (0x75d07d3a897)
0x75d07d3a88e   814  4885c0         REX.W testq rax,rax
0x75d07d3a891   817  0f8c74fdffff   jl 171  (0x75d07d3a60b)
0x75d07d3a897   823  488b45e8       REX.W movq rax,[rbp-0x18]    ;; debug: statement 4215
                                                             ;; debug: position 4222
0x75d07d3a89b   827  48bb19daaefe40250000 REX.W movq rbx,0x2540feaeda19    ;; object: 0x2540feaeda19 Cell for 6144
0x75d07d3a8a5   837  83430bfb       addl [rbx+0xb],0xfb
0x75d07d3a8a9   841  791f           jns 874  (0x75d07d3a8ca)
0x75d07d3a8ab   843  50             push rax
0x75d07d3a8ac   844  e88fc0ffff     call InterruptCheck  (0x75d07d36940)    ;; code: BUILTIN
0x75d07d3a8b1   849  58             pop rax
0x75d07d3a8b2   850  48bb19daaefe40250000 REX.W movq rbx,0x2540feaeda19    ;; object: 0x2540feaeda19 Cell for 6144
0x75d07d3a8bc   860  49ba0000000000180000 REX.W movq r10,0x180000000000
0x75d07d3a8c6   870  4c895307       REX.W movq [rbx+0x7],r10
0x75d07d3a8ca   874  c9             leave                    ;; debug: statement 4227
0x75d07d3a8cb   875  c21000         ret 0x10
0x75d07d3a8ce   878  498b45a8       REX.W movq rax,[r13-0x58]
0x75d07d3a8d2   882  e9c4ffffff     jmp 827  (0x75d07d3a89b)
0x75d07d3a8d7   887  90             nop

Deoptimization Output Data (deopt points = 0)

Back edges (size = 1)
ast_id  pc_offset  loop_depth
    60        637           1

0x2540feaedaf1: [TypeFeedbackInfo]
 - ic_total_count: 20, ic_with_type_info_count: 0, ic_generic_count: 0

RelocInfo (size = 180)
0x75d07d3a560  position  (4024)
0x75d07d3a577  code target (BUILTIN)  (0x75d07d36a80)
0x75d07d3a57b  statement position  (4034)
0x75d07d3a57b  position  (4044)
0x75d07d3a57d  embedded object  (0x2540fea91fd9 <String[5]: Array>)
0x75d07d3a594  code target (LOAD_IC)  (0x75d07d28560)
0x75d07d3a59b  embedded object  (0x2540fea04189 <undefined>)
0x75d07d3a5b5  code target (CALL_IC)  (0x75d07d2d140)
0x75d07d3a5c1  position  (4034)
0x75d07d3a5c5  statement position  (4055)
0x75d07d3a5d1  position  (4072)
0x75d07d3a5d7  code target (STUB)  (0x75d07d2a6e0)
0x75d07d3a5db  position  (4069)
0x75d07d3a5dd  code target with id (BINARY_OP_IC)  (0x75d07d235c0) (id=48)
0x75d07d3a5ed  position  (4079)
0x75d07d3a5ef  code target with id (BINARY_OP_IC)  (0x75d07d08a40) (id=44)
0x75d07d3a5f4  position  (4055)
0x75d07d3a5f8  statement position  (4086)
0x75d07d3a5f8  statement position  (4090)
0x75d07d3a60b  statement position  (4141)
0x75d07d3a60b  position  (4141)
0x75d07d3a60e  position  (4145)
0x75d07d3a61b  position  (4146)
0x75d07d3a62a  code target with id (BINARY_OP_IC)  (0x75d07d2df20) (id=207)
0x75d07d3a64d  position  (4144)
0x75d07d3a658  code target (KEYED_LOAD_IC)  (0x75d07d1c0c0)
0x75d07d3a65d  position  (4155)
0x75d07d3a664  position  (4158)
0x75d07d3a666  embedded object  (0x2540fea5b6f1 <String[10]: charCodeAt>)
0x75d07d3a679  code target (LOAD_IC)  (0x75d07d28560)
0x75d07d3a685  position  (4170)
0x75d07d3a688  position  (4174)
0x75d07d3a68e  code target (STUB)  (0x75d07d2a6e0)
0x75d07d3a692  position  (4172)
0x75d07d3a694  code target with id (BINARY_OP_IC)  (0x75d07d0de80) (id=242)
0x75d07d3a69a  position  (4159)
0x75d07d3a6aa  code target (CALL_IC)  (0x75d07d220c0)
0x75d07d3a6b6  position  (4183)
0x75d07d3a6ba  position  (4181)
0x75d07d3a6c9  code target with id (BINARY_OP_IC)  (0x75d07d1e600) (id=224)
0x75d07d3a6e4  position  (4198)
0x75d07d3a6ea  code target (STUB)  (0x75d07d2a6e0)
0x75d07d3a6ee  position  (4196)
0x75d07d3a6fd  code target with id (BINARY_OP_IC)  (0x75d07d08a40) (id=259)
0x75d07d3a712  position  (4206)
0x75d07d3a71f  position  (4207)
0x75d07d3a721  code target with id (BINARY_OP_IC)  (0x75d07d282c0) (id=269)
0x75d07d3a726  position  (4204)
0x75d07d3a735  code target with id (BINARY_OP_IC)  (0x75d07d08a40) (id=255)
0x75d07d3a749  position  (4189)
0x75d07d3a758  code target with id (BINARY_OP_IC)  (0x75d07d235c0) (id=220)
0x75d07d3a77d  code target with id (BINARY_OP_IC)  (0x75d07d2f600) (id=125)
0x75d07d3a78b  position  (4151)
0x75d07d3a78e  code target with id (KEYED_STORE_IC)  (0x75d07d34aa0) (id=121)
0x75d07d3a792  statement position  (4127)
0x75d07d3a792  position  (4125)
0x75d07d3a797  position  (4130)
0x75d07d3a79d  code target (STUB)  (0x75d07d2a6e0)
0x75d07d3a7b0  code target with id (BINARY_OP_IC)  (0x75d07d18580) (id=105)
0x75d07d3a7c4  position  (4127)
0x75d07d3a7ca  embedded object  (0x2540feaeda19 Cell for 6144)
0x75d07d3a7d9  code target (BUILTIN)  (0x75d07d36940)
0x75d07d3a7df  embedded object  (0x2540feaeda19 Cell for 6144)
0x75d07d3a7f5  statement position  (4103)
0x75d07d3a7f5  position  (4101)
0x75d07d3a7f8  position  (4105)
0x75d07d3a7ff  position  (4108)
0x75d07d3a801  embedded object  (0x2540fea90771 <String[6]: length>)
0x75d07d3a814  code target (LOAD_IC)  (0x75d07d28560)
0x75d07d3a819  position  (4118)
0x75d07d3a81f  code target (STUB)  (0x75d07d2a6e0)
0x75d07d3a823  position  (4116)
0x75d07d3a832  code target with id (BINARY_OP_IC)  (0x75d07d31940) (id=85)
0x75d07d3a877  code target with id (COMPARE_IC)  (0x75d07d1c8c0) (id=78)
0x75d07d3a897  statement position  (4215)
0x75d07d3a897  position  (4222)
0x75d07d3a89d  embedded object  (0x2540feaeda19 Cell for 6144)
0x75d07d3a8ad  code target (BUILTIN)  (0x75d07d36940)
0x75d07d3a8b4  embedded object  (0x2540feaeda19 Cell for 6144)
0x75d07d3a8ca  statement position  (4227)

--- End code ---
--- Code ---
kind = HANDLER
major_key = <NoCache>Stub
name = LoadFastElementStub
compiler = crankshaft
Instructions (size = 200)
0x75d07d3a960     0  488b7a0f       REX.W movq rdi,[rdx+0xf]
0x75d07d3a964     4  448b421b       movl r8,[rdx+0x1b]
0x75d07d3a968     8  4c8bc9         REX.W movq r9,rcx
0x75d07d3a96b    11  41f6c101       testb r9,0x1
0x75d07d3a96f    15  0f851c000000   jnz 49  (0x75d07d3a991)
0x75d07d3a975    21  49c1e920       REX.W shrq r9, 32
0x75d07d3a979    25  453bc1         cmpl r8,r9
0x75d07d3a97c    28  0f865b000000   jna 125  (0x75d07d3a9dd)
0x75d07d3a982    34  428b44cf13     movl rax,[rdi+r9*8+0x13]
0x75d07d3a987    39  8bd8           movl rbx,rax
0x75d07d3a989    41  48c1e320       REX.W shlq rbx, 32
0x75d07d3a98d    45  488bc3         REX.W movq rax,rbx
0x75d07d3a990    48  c3             ret
0x75d07d3a991    49  55             push rbp
0x75d07d3a992    50  ff75f8         push [rbp-0x8]
0x75d07d3a995    53  49ba0000000006000000 REX.W movq r10,0x600000000
0x75d07d3a99f    63  4152           push r10
0x75d07d3a9a1    65  488d6c2410     REX.W leaq rbp,[rsp+0x10]
0x75d07d3a9a6    70  4d8b5508       REX.W movq r10,[r13+0x8]
0x75d07d3a9aa    74  4d3951ff       REX.W cmpq [r9-0x1],r10
0x75d07d3a9ae    78  0f8538000000   jnz 140  (0x75d07d3a9ec)
0x75d07d3a9b4    84  f2410f104107   movsd xmm0,[r9+0x7]
0x75d07d3a9ba    90  f2440f2cc8     cvttsd2sil r9,xmm0
0x75d07d3a9bf    95  0f57c9         xorps xmm1,xmm1
0x75d07d3a9c2    98  f2410f2ac9     cvtsi2sd xmm1,r9
0x75d07d3a9c7   103  660f2ec1       ucomisd xmm0,xmm1
0x75d07d3a9cb   107  0f851b000000   jnz 140  (0x75d07d3a9ec)
0x75d07d3a9d1   113  0f8a15000000   jpe 140  (0x75d07d3a9ec)
0x75d07d3a9d7   119  488be5         REX.W movq rsp,rbp
0x75d07d3a9da   122  5d             pop rbp
0x75d07d3a9db   123  eb9c           jmp 25  (0x75d07d3a979)
0x75d07d3a9dd   125  49ba0060b0075d070000 REX.W movq r10,0x75d07b06000
0x75d07d3a9e7   135  e805000000     call 145  (0x75d07d3a9f1)
0x75d07d3a9ec   140  e819b6dcff     call 0x75d07b0600a       ;; lazy deoptimization bailout 1
0x75d07d3a9f1   145  4883ec10       REX.W subq rsp,0x10
0x75d07d3a9f5   149  ff742410       push [rsp+0x10]
0x75d07d3a9f9   153  4152           push r10
0x75d07d3a9fb   155  4c8b55f8       REX.W movq r10,[rbp-0x8]
0x75d07d3a9ff   159  4c89542418     REX.W movq [rsp+0x18],r10
0x75d07d3aa04   164  48896c2420     REX.W movq [rsp+0x20],rbp
0x75d07d3aa09   169  488d6c2420     REX.W leaq rbp,[rsp+0x20]
0x75d07d3aa0e   174  49ba0000000006000000 REX.W movq r10,0x600000000
0x75d07d3aa18   184  4c89542410     REX.W movq [rsp+0x10],r10
0x75d07d3aa1d   189  c3             ret
0x75d07d3aa1e   190  6690           nop


Safepoints (size = 8)

RelocInfo (size = 4)
0x75d07d3a9ed  runtime entry

--- End code ---
--- Raw source ---
(n){
if((%IS_VAR(this)===null)||(this===(void 0)))throw MakeTypeError(15,"String.prototype.charCodeAt");
var o=%_StringCharCodeAt(this,n);
if(!%_IsSmi(o)){
o=%_StringCharCodeAt((%_ToString(this)),(%_IsSmi(%IS_VAR(n))?n:%NumberToInteger(l(n))));
}
return o;
}


--- Code ---
source_position = 941
kind = FUNCTION
name = charCodeAt
compiler = full-codegen
Instructions (size = 1140)
0x75d07d3aaa0     0  55             push rbp                 ;; debug: position 941
0x75d07d3aaa1     1  4889e5         REX.W movq rbp,rsp
0x75d07d3aaa4     4  56             push rsi
0x75d07d3aaa5     5  57             push rdi
0x75d07d3aaa6     6  41ff75a8       push [r13-0x58]
0x75d07d3aaaa    10  493ba548090000 REX.W cmpq rsp,[r13+0x948]
0x75d07d3aab1    17  7305           jnc 24  (0x75d07d3aab8)
0x75d07d3aab3    19  e8c8bfffff     call StackCheck  (0x75d07d36a80)    ;; code: BUILTIN
0x75d07d3aab8    24  488b4518       REX.W movq rax,[rbp+0x18]    ;; debug: statement 946
                                                             ;; debug: position 958
0x75d07d3aabc    28  eb0f           jmp 45  (0x75d07d3aacd)
0x75d07d3aabe    30  493b45c0       REX.W cmpq rax,[r13-0x40]
0x75d07d3aac2    34  0f842e000000   jz 86  (0x75d07d3aaf6)
0x75d07d3aac8    40  e90a000000     jmp 55  (0x75d07d3aad7)
0x75d07d3aacd    45  493b45b8       REX.W cmpq rax,[r13-0x48]
0x75d07d3aad1    49  0f841f000000   jz 86  (0x75d07d3aaf6)
0x75d07d3aad7    55  488b4518       REX.W movq rax,[rbp+0x18]    ;; debug: position 974
0x75d07d3aadb    59  eb0f           jmp 76  (0x75d07d3aaec)
0x75d07d3aadd    61  493b45c0       REX.W cmpq rax,[r13-0x40]
0x75d07d3aae1    65  0f840f000000   jz 86  (0x75d07d3aaf6)
0x75d07d3aae7    71  e97c000000     jmp 200  (0x75d07d3ab68)
0x75d07d3aaec    76  493b45a8       REX.W cmpq rax,[r13-0x58]
0x75d07d3aaf0    80  0f8572000000   jnz 200  (0x75d07d3ab68)
0x75d07d3aaf6    86  48b9b92ea8fe40250000 REX.W movq rcx,0x2540fea82eb9    ;; debug: statement 991
                                                             ;; debug: position 997
                                                             ;; object: 0x2540fea82eb9 <String[13]: MakeTypeError>
0x75d07d3ab00    96  488b5627       REX.W movq rdx,[rsi+0x27]
0x75d07d3ab04   100  48b80000000006000000 REX.W movq rax,0x600000000
0x75d07d3ab0e   110  e84ddafeff     call 0x75d07d28560       ;; code: contextual, LOAD_IC, DEFAULT
0x75d07d3ab13   115  50             push rax
0x75d07d3ab14   116  49ba8941a0fe40250000 REX.W movq r10,0x2540fea04189    ;; object: 0x2540fea04189 <undefined>
0x75d07d3ab1e   126  4152           push r10
0x75d07d3ab20   128  49ba000000000f000000 REX.W movq r10,0xf00000000
0x75d07d3ab2a   138  4152           push r10
0x75d07d3ab2c   140  49baa1dcaefe40250000 REX.W movq r10,0x2540feaedca1    ;; object: 0x2540feaedca1 <String[27]: String.prototype.charCodeAt>
0x75d07d3ab36   150  4152           push r10
0x75d07d3ab38   152  48ba0000000004000000 REX.W movq rdx,0x400000000
0x75d07d3ab42   162  488b7c2418     REX.W movq rdi,[rsp+0x18]
0x75d07d3ab47   167  e8b48cfdff     call 0x75d07d13800       ;; code: CALL_IC, DEFAULT
0x75d07d3ab4c   172  488b75f8       REX.W movq rsi,[rbp-0x8]
0x75d07d3ab50   176  48890424       REX.W movq [rsp],rax
0x75d07d3ab54   180  b801000000     movl rax,0x1             ;; debug: position 991
0x75d07d3ab59   185  48bb9038290100000000 REX.W movq rbx,0x1293890
0x75d07d3ab63   195  e878dffcff     call 0x75d07d08ae0       ;; code: STUB, CEntryStub, minor: 0
0x75d07d3ab68   200  ff7518         push [rbp+0x18]          ;; debug: statement 1046
                                                             ;; debug: position 1071
0x75d07d3ab6b   203  488b4510       REX.W movq rax,[rbp+0x10]    ;; debug: position 1076
0x75d07d3ab6f   207  5b             pop rbx
0x75d07d3ab70   208  f6c301         testb rbx,0x1
0x75d07d3ab73   211  0f84a8000000   jz 385  (0x75d07d3ac21)
0x75d07d3ab79   217  488b53ff       REX.W movq rdx,[rbx-0x1]
0x75d07d3ab7d   221  0fb6520b       movzxbl rdx,[rdx+0xb]
0x75d07d3ab81   225  f6c280         testb rdx,0x80
0x75d07d3ab84   228  0f8597000000   jnz 385  (0x75d07d3ac21)
0x75d07d3ab8a   234  a801           test al,0x1
0x75d07d3ab8c   236  0f85b9000000   jnz 427  (0x75d07d3ac4b)
0x75d07d3ab92   242  483b430f       REX.W cmpq rax,[rbx+0xf]
0x75d07d3ab96   246  0f8379000000   jnc 373  (0x75d07d3ac15)
0x75d07d3ab9c   252  48c1e820       REX.W shrq rax, 32
0x75d07d3aba0   256  488b53ff       REX.W movq rdx,[rbx-0x1]
0x75d07d3aba4   260  0fb6520b       movzxbl rdx,[rdx+0xb]
0x75d07d3aba8   264  f6c201         testb rdx,0x1
0x75d07d3abab   267  742b           jz 312  (0x75d07d3abd8)
0x75d07d3abad   269  f6c202         testb rdx,0x2
0x75d07d3abb0   272  740c           jz 286  (0x75d07d3abbe)
0x75d07d3abb2   274  8b5323         movl rdx,[rbx+0x23]
0x75d07d3abb5   277  4803c2         REX.W addq rax,rdx
0x75d07d3abb8   280  488b5b17       REX.W movq rbx,[rbx+0x17]
0x75d07d3abbc   284  eb12           jmp 304  (0x75d07d3abd0)
0x75d07d3abbe   286  4d8b55d0       REX.W movq r10,[r13-0x30]
0x75d07d3abc2   290  4c39531f       REX.W cmpq [rbx+0x1f],r10
0x75d07d3abc6   294  0f85bf000000   jnz 491  (0x75d07d3ac8b)
0x75d07d3abcc   300  488b5b17       REX.W movq rbx,[rbx+0x17]
0x75d07d3abd0   304  488b53ff       REX.W movq rdx,[rbx-0x1]
0x75d07d3abd4   308  0fb6520b       movzxbl rdx,[rdx+0xb]
0x75d07d3abd8   312  f6c203         testb rdx,0x3
0x75d07d3abdb   315  741e           jz 347  (0x75d07d3abfb)
0x75d07d3abdd   317  f6c210         testb rdx,0x10
0x75d07d3abe0   320  0f85a5000000   jnz 491  (0x75d07d3ac8b)
0x75d07d3abe6   326  f6c204         testb rdx,0x4
0x75d07d3abe9   329  488b531f       REX.W movq rdx,[rbx+0x1f]
0x75d07d3abed   333  7506           jnz 341  (0x75d07d3abf5)
0x75d07d3abef   335  0fb71442       movzxwl rdx,[rdx+rax*2]
0x75d07d3abf3   339  eb17           jmp 364  (0x75d07d3ac0c)
0x75d07d3abf5   341  0fb61402       movzxbl rdx,[rdx+rax*1]
0x75d07d3abf9   345  eb11           jmp 364  (0x75d07d3ac0c)
0x75d07d3abfb   347  f6c204         testb rdx,0x4
0x75d07d3abfe   350  7507           jnz 359  (0x75d07d3ac07)
0x75d07d3ac00   352  0fb7544317     movzxwl rdx,[rbx+rax*2+0x17]
0x75d07d3ac05   357  eb05           jmp 364  (0x75d07d3ac0c)
0x75d07d3ac07   359  0fb6540317     movzxbl rdx,[rbx+rax*1+0x17]
0x75d07d3ac0c   364  48c1e220       REX.W shlq rdx, 32
0x75d07d3ac10   368  e9b9000000     jmp 558  (0x75d07d3acce)
0x75d07d3ac15   373  498b9510030000 REX.W movq rdx,[r13+0x310]
0x75d07d3ac1c   380  e9ad000000     jmp 558  (0x75d07d3acce)
0x75d07d3ac21   385  498b55a8       REX.W movq rdx,[r13-0x58]
0x75d07d3ac25   389  e9a4000000     jmp 558  (0x75d07d3acce)
0x75d07d3ac2a   394  49ba00000000b0000000 REX.W movq r10,0xb000000000
0x75d07d3ac34   404  4152           push r10
0x75d07d3ac36   406  b801000000     movl rax,0x1
0x75d07d3ac3b   411  48bb609b2f0100000000 REX.W movq rbx,0x12f9b60
0x75d07d3ac45   421  e896defcff     call 0x75d07d08ae0       ;; code: STUB, CEntryStub, minor: 0
0x75d07d3ac4a   426  cc             int3
0x75d07d3ac4b   427  49ba1944c006200b0000 REX.W movq r10,0xb2006c04419    ;; object: 0xb2006c04419 <Map(FAST_HOLEY_ELEMENTS)>
0x75d07d3ac55   437  4c3950ff       REX.W cmpq [rax-0x1],r10
0x75d07d3ac59   441  0f85c2ffffff   jnz 385  (0x75d07d3ac21)
0x75d07d3ac5f   447  53             push rbx
0x75d07d3ac60   448  50             push rax
0x75d07d3ac61   449  b801000000     movl rax,0x1
0x75d07d3ac66   454  48bb803f2a0100000000 REX.W movq rbx,0x12a3f80
0x75d07d3ac70   464  e86bdefcff     call 0x75d07d08ae0       ;; code: STUB, CEntryStub, minor: 0
0x75d07d3ac75   469  5b             pop rbx
0x75d07d3ac76   470  488b53ff       REX.W movq rdx,[rbx-0x1]
0x75d07d3ac7a   474  0fb6520b       movzxbl rdx,[rdx+0xb]
0x75d07d3ac7e   478  a801           test al,0x1
0x75d07d3ac80   480  0f858fffffff   jnz 373  (0x75d07d3ac15)
0x75d07d3ac86   486  e907ffffff     jmp 242  (0x75d07d3ab92)
0x75d07d3ac8b   491  53             push rbx
0x75d07d3ac8c   492  48c1e020       REX.W shlq rax, 32
0x75d07d3ac90   496  50             push rax
0x75d07d3ac91   497  b802000000     movl rax,0x2
0x75d07d3ac96   502  48bb10e02e0100000000 REX.W movq rbx,0x12ee010
0x75d07d3aca0   512  e83bdefcff     call 0x75d07d08ae0       ;; code: STUB, CEntryStub, minor: 0
0x75d07d3aca5   517  488bd0         REX.W movq rdx,rax
0x75d07d3aca8   520  e963ffffff     jmp 368  (0x75d07d3ac10)
0x75d07d3acad   525  49ba00000000ad000000 REX.W movq r10,0xad00000000
0x75d07d3acb7   535  4152           push r10
0x75d07d3acb9   537  b801000000     movl rax,0x1
0x75d07d3acbe   542  48bb609b2f0100000000 REX.W movq rbx,0x12f9b60
0x75d07d3acc8   552  e813defcff     call 0x75d07d08ae0       ;; code: STUB, CEntryStub, minor: 0
0x75d07d3accd   557  cc             int3
0x75d07d3acce   558  488bc2         REX.W movq rax,rdx
0x75d07d3acd1   561  488945e8       REX.W movq [rbp-0x18],rax    ;; debug: position 1046
0x75d07d3acd5   565  488b45e8       REX.W movq rax,[rbp-0x18]    ;; debug: statement 1080
                                                             ;; debug: position 1092
0x75d07d3acd9   569  eb0f           jmp 586  (0x75d07d3acea)
0x75d07d3acdb   571  493b45c0       REX.W cmpq rax,[r13-0x40]
0x75d07d3acdf   575  0f84ea010000   jz 1071  (0x75d07d3aecf)
0x75d07d3ace5   581  e90d000000     jmp 599  (0x75d07d3acf7)
0x75d07d3acea   586  a801           test al,0x1
0x75d07d3acec   588  0f84dd010000   jz 1071  (0x75d07d3aecf)
0x75d07d3acf2   594  e900000000     jmp 599  (0x75d07d3acf7)
0x75d07d3acf7   599  488b4518       REX.W movq rax,[rbp+0x18]    ;; debug: statement 1097
                                                             ;; debug: position 1130
0x75d07d3acfb   603  e8e026ffff     call 0x75d07d2d3e0       ;; code: STUB, ToStringStub, minor: 0
0x75d07d3ad00   608  50             push rax
0x75d07d3ad01   609  488b4510       REX.W movq rax,[rbp+0x10]    ;; debug: position 1154
0x75d07d3ad05   613  eb0f           jmp 630  (0x75d07d3ad16)
0x75d07d3ad07   615  493b45c0       REX.W cmpq rax,[r13-0x40]
0x75d07d3ad0b   619  0f8412000000   jz 643  (0x75d07d3ad23)
0x75d07d3ad11   625  e916000000     jmp 652  (0x75d07d3ad2c)
0x75d07d3ad16   630  a801           test al,0x1
0x75d07d3ad18   632  0f8405000000   jz 643  (0x75d07d3ad23)
0x75d07d3ad1e   638  e909000000     jmp 652  (0x75d07d3ad2c)
0x75d07d3ad23   643  488b4510       REX.W movq rax,[rbp+0x10]    ;; debug: position 1158
0x75d07d3ad27   647  e93d000000     jmp 713  (0x75d07d3ad69)
0x75d07d3ad2c   652  488bc6         REX.W movq rax,rsi       ;; debug: position 1177
0x75d07d3ad2f   655  ff706f         push [rax+0x6f]
0x75d07d3ad32   658  41ff75a8       push [r13-0x58]
0x75d07d3ad36   662  ff7510         push [rbp+0x10]          ;; debug: position 1179
0x75d07d3ad39   665  48ba0000000008000000 REX.W movq rdx,0x800000000    ;; debug: position 1177
0x75d07d3ad43   675  488b7c2410     REX.W movq rdi,[rsp+0x10]
0x75d07d3ad48   680  e8f371ffff     call 0x75d07d31f40       ;; code: CALL_IC, DEFAULT
0x75d07d3ad4d   685  488b75f8       REX.W movq rsi,[rbp-0x8]
0x75d07d3ad51   689  48890424       REX.W movq [rsp],rax
0x75d07d3ad55   693  b801000000     movl rax,0x1
0x75d07d3ad5a   698  48bbf03d2a0100000000 REX.W movq rbx,0x12a3df0
0x75d07d3ad64   708  e877ddfcff     call 0x75d07d08ae0       ;; code: STUB, CEntryStub, minor: 0
0x75d07d3ad69   713  5b             pop rbx
0x75d07d3ad6a   714  f6c301         testb rbx,0x1
0x75d07d3ad6d   717  0f84a8000000   jz 891  (0x75d07d3ae1b)
0x75d07d3ad73   723  488b53ff       REX.W movq rdx,[rbx-0x1]
0x75d07d3ad77   727  0fb6520b       movzxbl rdx,[rdx+0xb]
0x75d07d3ad7b   731  f6c280         testb rdx,0x80
0x75d07d3ad7e   734  0f8597000000   jnz 891  (0x75d07d3ae1b)
0x75d07d3ad84   740  a801           test al,0x1
0x75d07d3ad86   742  0f85b9000000   jnz 933  (0x75d07d3ae45)
0x75d07d3ad8c   748  483b430f       REX.W cmpq rax,[rbx+0xf]
0x75d07d3ad90   752  0f8379000000   jnc 879  (0x75d07d3ae0f)
0x75d07d3ad96   758  48c1e820       REX.W shrq rax, 32
0x75d07d3ad9a   762  488b53ff       REX.W movq rdx,[rbx-0x1]
0x75d07d3ad9e   766  0fb6520b       movzxbl rdx,[rdx+0xb]
0x75d07d3ada2   770  f6c201         testb rdx,0x1
0x75d07d3ada5   773  742b           jz 818  (0x75d07d3add2)
0x75d07d3ada7   775  f6c202         testb rdx,0x2
0x75d07d3adaa   778  740c           jz 792  (0x75d07d3adb8)
0x75d07d3adac   780  8b5323         movl rdx,[rbx+0x23]
0x75d07d3adaf   783  4803c2         REX.W addq rax,rdx
0x75d07d3adb2   786  488b5b17       REX.W movq rbx,[rbx+0x17]
0x75d07d3adb6   790  eb12           jmp 810  (0x75d07d3adca)
0x75d07d3adb8   792  4d8b55d0       REX.W movq r10,[r13-0x30]
0x75d07d3adbc   796  4c39531f       REX.W cmpq [rbx+0x1f],r10
0x75d07d3adc0   800  0f85bf000000   jnz 997  (0x75d07d3ae85)
0x75d07d3adc6   806  488b5b17       REX.W movq rbx,[rbx+0x17]
0x75d07d3adca   810  488b53ff       REX.W movq rdx,[rbx-0x1]
0x75d07d3adce   814  0fb6520b       movzxbl rdx,[rdx+0xb]
0x75d07d3add2   818  f6c203         testb rdx,0x3
0x75d07d3add5   821  741e           jz 853  (0x75d07d3adf5)
0x75d07d3add7   823  f6c210         testb rdx,0x10
0x75d07d3adda   826  0f85a5000000   jnz 997  (0x75d07d3ae85)
0x75d07d3ade0   832  f6c204         testb rdx,0x4
0x75d07d3ade3   835  488b531f       REX.W movq rdx,[rbx+0x1f]
0x75d07d3ade7   839  7506           jnz 847  (0x75d07d3adef)
0x75d07d3ade9   841  0fb71442       movzxwl rdx,[rdx+rax*2]
0x75d07d3aded   845  eb17           jmp 870  (0x75d07d3ae06)
0x75d07d3adef   847  0fb61402       movzxbl rdx,[rdx+rax*1]
0x75d07d3adf3   851  eb11           jmp 870  (0x75d07d3ae06)
0x75d07d3adf5   853  f6c204         testb rdx,0x4
0x75d07d3adf8   856  7507           jnz 865  (0x75d07d3ae01)
0x75d07d3adfa   858  0fb7544317     movzxwl rdx,[rbx+rax*2+0x17]
0x75d07d3adff   863  eb05           jmp 870  (0x75d07d3ae06)
0x75d07d3ae01   865  0fb6540317     movzxbl rdx,[rbx+rax*1+0x17]
0x75d07d3ae06   870  48c1e220       REX.W shlq rdx, 32
0x75d07d3ae0a   874  e9b9000000     jmp 1064  (0x75d07d3aec8)
0x75d07d3ae0f   879  498b9510030000 REX.W movq rdx,[r13+0x310]
0x75d07d3ae16   886  e9ad000000     jmp 1064  (0x75d07d3aec8)
0x75d07d3ae1b   891  498b55a8       REX.W movq rdx,[r13-0x58]
0x75d07d3ae1f   895  e9a4000000     jmp 1064  (0x75d07d3aec8)
0x75d07d3ae24   900  49ba00000000b0000000 REX.W movq r10,0xb000000000
0x75d07d3ae2e   910  4152           push r10
0x75d07d3ae30   912  b801000000     movl rax,0x1
0x75d07d3ae35   917  48bb609b2f0100000000 REX.W movq rbx,0x12f9b60
0x75d07d3ae3f   927  e89cdcfcff     call 0x75d07d08ae0       ;; code: STUB, CEntryStub, minor: 0
0x75d07d3ae44   932  cc             int3
0x75d07d3ae45   933  49ba1944c006200b0000 REX.W movq r10,0xb2006c04419    ;; object: 0xb2006c04419 <Map(FAST_HOLEY_ELEMENTS)>
0x75d07d3ae4f   943  4c3950ff       REX.W cmpq [rax-0x1],r10
0x75d07d3ae53   947  0f85c2ffffff   jnz 891  (0x75d07d3ae1b)
0x75d07d3ae59   953  53             push rbx
0x75d07d3ae5a   954  50             push rax
0x75d07d3ae5b   955  b801000000     movl rax,0x1
0x75d07d3ae60   960  48bb803f2a0100000000 REX.W movq rbx,0x12a3f80
0x75d07d3ae6a   970  e871dcfcff     call 0x75d07d08ae0       ;; code: STUB, CEntryStub, minor: 0
0x75d07d3ae6f   975  5b             pop rbx
0x75d07d3ae70   976  488b53ff       REX.W movq rdx,[rbx-0x1]
0x75d07d3ae74   980  0fb6520b       movzxbl rdx,[rdx+0xb]
0x75d07d3ae78   984  a801           test al,0x1
0x75d07d3ae7a   986  0f858fffffff   jnz 879  (0x75d07d3ae0f)
0x75d07d3ae80   992  e907ffffff     jmp 748  (0x75d07d3ad8c)
0x75d07d3ae85   997  53             push rbx
0x75d07d3ae86   998  48c1e020       REX.W shlq rax, 32
0x75d07d3ae8a  1002  50             push rax
0x75d07d3ae8b  1003  b802000000     movl rax,0x2
0x75d07d3ae90  1008  48bb10e02e0100000000 REX.W movq rbx,0x12ee010
0x75d07d3ae9a  1018  e841dcfcff     call 0x75d07d08ae0       ;; code: STUB, CEntryStub, minor: 0
0x75d07d3ae9f  1023  488bd0         REX.W movq rdx,rax
0x75d07d3aea2  1026  e963ffffff     jmp 874  (0x75d07d3ae0a)
0x75d07d3aea7  1031  49ba00000000ad000000 REX.W movq r10,0xad00000000
0x75d07d3aeb1  1041  4152           push r10
0x75d07d3aeb3  1043  b801000000     movl rax,0x1
0x75d07d3aeb8  1048  48bb609b2f0100000000 REX.W movq rbx,0x12f9b60
0x75d07d3aec2  1058  e819dcfcff     call 0x75d07d08ae0       ;; code: STUB, CEntryStub, minor: 0
0x75d07d3aec7  1063  cc             int3
0x75d07d3aec8  1064  488bc2         REX.W movq rax,rdx
0x75d07d3aecb  1067  488945e8       REX.W movq [rbp-0x18],rax    ;; debug: position 1098
0x75d07d3aecf  1071  488b45e8       REX.W movq rax,[rbp-0x18]    ;; debug: statement 1188
                                                             ;; debug: position 1195
0x75d07d3aed3  1075  48bb39ddaefe40250000 REX.W movq rbx,0x2540feaedd39    ;; object: 0x2540feaedd39 Cell for 6144
0x75d07d3aedd  1085  83430bd1       addl [rbx+0xb],0xd1
0x75d07d3aee1  1089  791f           jns 1122  (0x75d07d3af02)
0x75d07d3aee3  1091  50             push rax
0x75d07d3aee4  1092  e857baffff     call InterruptCheck  (0x75d07d36940)    ;; code: BUILTIN
0x75d07d3aee9  1097  58             pop rax
0x75d07d3aeea  1098  48bb39ddaefe40250000 REX.W movq rbx,0x2540feaedd39    ;; object: 0x2540feaedd39 Cell for 6144
0x75d07d3aef4  1108  49ba0000000000180000 REX.W movq r10,0x180000000000
0x75d07d3aefe  1118  4c895307       REX.W movq [rbx+0x7],r10
0x75d07d3af02  1122  c9             leave                    ;; debug: statement 1198
0x75d07d3af03  1123  c21000         ret 0x10
0x75d07d3af06  1126  498b45a8       REX.W movq rax,[r13-0x58]
0x75d07d3af0a  1130  e9c4ffffff     jmp 1075  (0x75d07d3aed3)
0x75d07d3af0f  1135  90             nop

Deoptimization Output Data (deopt points = 0)

Back edges (size = 0)
ast_id  pc_offset  loop_depth

0x2540feaeddc1: [TypeFeedbackInfo]
 - ic_total_count: 3, ic_with_type_info_count: 0, ic_generic_count: 0

RelocInfo (size = 99)
0x75d07d3aaa0  position  (941)
0x75d07d3aab4  code target (BUILTIN)  (0x75d07d36a80)
0x75d07d3aab8  statement position  (946)
0x75d07d3aab8  position  (958)
0x75d07d3aad7  position  (974)
0x75d07d3aaf6  statement position  (991)
0x75d07d3aaf6  position  (997)
0x75d07d3aaf8  embedded object  (0x2540fea82eb9 <String[13]: MakeTypeError>)
0x75d07d3ab0f  code target (LOAD_IC)  (0x75d07d28560)
0x75d07d3ab16  embedded object  (0x2540fea04189 <undefined>)
0x75d07d3ab2e  embedded object  (0x2540feaedca1 <String[27]: String.prototype.charCodeAt>)
0x75d07d3ab48  code target (CALL_IC)  (0x75d07d13800)
0x75d07d3ab54  position  (991)
0x75d07d3ab64  code target (STUB)  (0x75d07d08ae0)
0x75d07d3ab68  statement position  (1046)
0x75d07d3ab68  position  (1071)
0x75d07d3ab6b  position  (1076)
0x75d07d3ac46  code target (STUB)  (0x75d07d08ae0)
0x75d07d3ac4d  embedded object  (0xb2006c04419 <Map(FAST_HOLEY_ELEMENTS)>)
0x75d07d3ac71  code target (STUB)  (0x75d07d08ae0)
0x75d07d3aca1  code target (STUB)  (0x75d07d08ae0)
0x75d07d3acc9  code target (STUB)  (0x75d07d08ae0)
0x75d07d3acd1  position  (1046)
0x75d07d3acd5  statement position  (1080)
0x75d07d3acd5  position  (1092)
0x75d07d3acf7  statement position  (1097)
0x75d07d3acf7  position  (1130)
0x75d07d3acfc  code target (STUB)  (0x75d07d2d3e0)
0x75d07d3ad01  position  (1154)
0x75d07d3ad23  position  (1158)
0x75d07d3ad2c  position  (1177)
0x75d07d3ad36  position  (1179)
0x75d07d3ad39  position  (1177)
0x75d07d3ad49  code target (CALL_IC)  (0x75d07d31f40)
0x75d07d3ad65  code target (STUB)  (0x75d07d08ae0)
0x75d07d3ae40  code target (STUB)  (0x75d07d08ae0)
0x75d07d3ae47  embedded object  (0xb2006c04419 <Map(FAST_HOLEY_ELEMENTS)>)
0x75d07d3ae6b  code target (STUB)  (0x75d07d08ae0)
0x75d07d3ae9b  code target (STUB)  (0x75d07d08ae0)
0x75d07d3aec3  code target (STUB)  (0x75d07d08ae0)
0x75d07d3aecb  position  (1098)
0x75d07d3aecf  statement position  (1188)
0x75d07d3aecf  position  (1195)
0x75d07d3aed5  embedded object  (0x2540feaedd39 Cell for 6144)
0x75d07d3aee5  code target (BUILTIN)  (0x75d07d36940)
0x75d07d3aeec  embedded object  (0x2540feaedd39 Cell for 6144)
0x75d07d3af02  statement position  (1198)

--- End code ---
--- Code ---
kind = HANDLER
major_key = <NoCache>Stub
name = LoadFieldStub
compiler = crankshaft
Instructions (size = 16)
0x75d07d3b020     0  488b420f       REX.W movq rax,[rdx+0xf]
0x75d07d3b024     4  c3             ret
0x75d07d3b025     5  0f1f00         nop


Safepoints (size = 8)

RelocInfo (size = 0)

--- End code ---
--- Raw source ---
(x, len)
{
  /* append padding */
  x[len >> 5] |= 0x80 << (24 - len % 32);
  x[((len + 64 >> 9) << 4) + 15] = len;

  var w = Array(80);
  var a =  1732584193;
  var b = -271733879;
  var c = -1732584194;
  var d =  271733878;
  var e = -1009589776;

  for(var i = 0; i < x.length; i += 16)
  {
    var olda = a;
    var oldb = b;
    var oldc = c;
    var oldd = d;
    var olde = e;

    for(var j = 0; j < 80; j++)
    {
      if(j < 16) w[j] = x[i + j];
      else w[j] = rol(w[j-3] ^ w[j-8] ^ w[j-14] ^ w[j-16], 1);
      var t = safe_add(safe_add(rol(a, 5), sha1_ft(j, b, c, d)),
                       safe_add(safe_add(e, w[j]), sha1_kt(j)));
      e = d;
      d = c;
      c = rol(b, 30);
      b = a;
      a = t;
    }

    a = safe_add(a, olda);
    b = safe_add(b, oldb);
    c = safe_add(c, oldc);
    d = safe_add(d, oldd);
    e = safe_add(e, olde);
  }
  return Array(a, b, c, d, e);

}


--- Code ---
source_position = 1580
kind = FUNCTION
name = core_sha1
compiler = full-codegen
Instructions (size = 2516)
0x75d07d3b160     0  55             push rbp                 ;; debug: position 1580
0x75d07d3b161     1  4889e5         REX.W movq rbp,rsp
0x75d07d3b164     4  56             push rsi
0x75d07d3b165     5  57             push rdi
0x75d07d3b166     6  498b55a8       REX.W movq rdx,[r13-0x58]
0x75d07d3b16a    10  52             push rdx
0x75d07d3b16b    11  52             push rdx
0x75d07d3b16c    12  52             push rdx
0x75d07d3b16d    13  52             push rdx
0x75d07d3b16e    14  52             push rdx
0x75d07d3b16f    15  52             push rdx
0x75d07d3b170    16  52             push rdx
0x75d07d3b171    17  52             push rdx
0x75d07d3b172    18  52             push rdx
0x75d07d3b173    19  52             push rdx
0x75d07d3b174    20  52             push rdx
0x75d07d3b175    21  52             push rdx
0x75d07d3b176    22  52             push rdx
0x75d07d3b177    23  52             push rdx
0x75d07d3b178    24  493ba548090000 REX.W cmpq rsp,[r13+0x948]
0x75d07d3b17f    31  7305           jnc 38  (0x75d07d3b186)
0x75d07d3b181    33  e8fab8ffff     call StackCheck  (0x75d07d36a80)    ;; code: BUILTIN
0x75d07d3b186    38  ff7518         push [rbp+0x18]          ;; debug: statement 1616
                                                             ;; debug: position 1616
0x75d07d3b189    41  ff7510         push [rbp+0x10]          ;; debug: position 1618
0x75d07d3b18c    44  48b80000000005000000 REX.W movq rax,0x500000000
0x75d07d3b196    54  5a             pop rdx                  ;; debug: position 1622
0x75d07d3b197    55  e8842dffff     call 0x75d07d2df20       ;; code: BINARY_OP_IC, UNINITIALIZED (id = 100)
0x75d07d3b19c    60  90             nop
0x75d07d3b19d    61  50             push rax
0x75d07d3b19e    62  488b542408     REX.W movq rdx,[rsp+0x8]
0x75d07d3b1a3    67  488b0c24       REX.W movq rcx,[rsp]
0x75d07d3b1a7    71  48b80000000006000000 REX.W movq rax,0x600000000    ;; debug: position 1617
0x75d07d3b1b1    81  e80a0ffeff     call 0x75d07d1c0c0       ;; code: KEYED_LOAD_IC, DEFAULT
0x75d07d3b1b6    86  50             push rax
0x75d07d3b1b7    87  49ba0000000080000000 REX.W movq r10,0x8000000000
0x75d07d3b1c1    97  4152           push r10
0x75d07d3b1c3    99  49ba0000000018000000 REX.W movq r10,0x1800000000
0x75d07d3b1cd   109  4152           push r10
0x75d07d3b1cf   111  ff7510         push [rbp+0x10]          ;; debug: position 1645
0x75d07d3b1d2   114  48b80000000020000000 REX.W movq rax,0x2000000000
0x75d07d3b1dc   124  5a             pop rdx                  ;; debug: position 1649
0x75d07d3b1dd   125  e8ded0feff     call 0x75d07d282c0       ;; code: BINARY_OP_IC, UNINITIALIZED (id = 127)
0x75d07d3b1e2   130  90             nop
0x75d07d3b1e3   131  5a             pop rdx                  ;; debug: position 1643
0x75d07d3b1e4   132  e857d8fcff     call 0x75d07d08a40       ;; code: BINARY_OP_IC, UNINITIALIZED (id = 120)
0x75d07d3b1e9   137  90             nop
0x75d07d3b1ea   138  5a             pop rdx                  ;; debug: position 1636
0x75d07d3b1eb   139  e8d083feff     call 0x75d07d235c0       ;; code: BINARY_OP_IC, UNINITIALIZED (id = 113)
0x75d07d3b1f0   144  90             nop
0x75d07d3b1f1   145  5a             pop rdx
0x75d07d3b1f2   146  e80944ffff     call 0x75d07d2f600       ;; code: BINARY_OP_IC, UNINITIALIZED (id = 53)
0x75d07d3b1f7   151  90             nop
0x75d07d3b1f8   152  59             pop rcx                  ;; debug: position 1628
0x75d07d3b1f9   153  5a             pop rdx
0x75d07d3b1fa   154  e8a198ffff     call KeyedStoreIC_Initialize  (0x75d07d34aa0)    ;; code: KEYED_STORE_IC, UNINITIALIZED (id = 49)
0x75d07d3b1ff   159  ff7518         push [rbp+0x18]          ;; debug: statement 1658
                                                             ;; debug: position 1658
0x75d07d3b202   162  ff7510         push [rbp+0x10]          ;; debug: position 1662
0x75d07d3b205   165  48b80000000040000000 REX.W movq rax,0x4000000000
0x75d07d3b20f   175  5a             pop rdx                  ;; debug: position 1666
0x75d07d3b210   176  e86bd3fdff     call 0x75d07d18580       ;; code: BINARY_OP_IC, UNINITIALIZED (id = 156)
0x75d07d3b215   181  90             nop
0x75d07d3b216   182  50             push rax
0x75d07d3b217   183  48b80000000009000000 REX.W movq rax,0x900000000
0x75d07d3b221   193  5a             pop rdx                  ;; debug: position 1671
0x75d07d3b222   194  e8f92cffff     call 0x75d07d2df20       ;; code: BINARY_OP_IC, UNINITIALIZED (id = 152)
0x75d07d3b227   199  90             nop
0x75d07d3b228   200  50             push rax
0x75d07d3b229   201  48b80000000004000000 REX.W movq rax,0x400000000
0x75d07d3b233   211  5a             pop rdx                  ;; debug: position 1677
0x75d07d3b234   212  e88783feff     call 0x75d07d235c0       ;; code: BINARY_OP_IC, UNINITIALIZED (id = 148)
0x75d07d3b239   217  90             nop
0x75d07d3b23a   218  50             push rax
0x75d07d3b23b   219  48b8000000000f000000 REX.W movq rax,0xf00000000
0x75d07d3b245   229  5a             pop rdx                  ;; debug: position 1683
0x75d07d3b246   230  e835d3fdff     call 0x75d07d18580       ;; code: BINARY_OP_IC, UNINITIALIZED (id = 144)
0x75d07d3b24b   235  90             nop
0x75d07d3b24c   236  50             push rax
0x75d07d3b24d   237  488b4510       REX.W movq rax,[rbp+0x10]    ;; debug: position 1691
0x75d07d3b251   241  59             pop rcx                  ;; debug: position 1689
0x75d07d3b252   242  5a             pop rdx
0x75d07d3b253   243  e84898ffff     call KeyedStoreIC_Initialize  (0x75d07d34aa0)    ;; code: KEYED_STORE_IC, UNINITIALIZED (id = 137)
0x75d07d3b258   248  48b9d91fa9fe40250000 REX.W movq rcx,0x2540fea91fd9    ;; debug: statement 1699
                                                             ;; debug: position 1707
                                                             ;; object: 0x2540fea91fd9 <String[5]: Array>
0x75d07d3b262   258  488b5627       REX.W movq rdx,[rsi+0x27]
0x75d07d3b266   262  48b8000000000a000000 REX.W movq rax,0xa00000000
0x75d07d3b270   272  e8ebd2feff     call 0x75d07d28560       ;; code: contextual, LOAD_IC, DEFAULT
0x75d07d3b275   277  50             push rax
0x75d07d3b276   278  49ba8941a0fe40250000 REX.W movq r10,0x2540fea04189    ;; object: 0x2540fea04189 <undefined>
0x75d07d3b280   288  4152           push r10
0x75d07d3b282   290  49ba0000000050000000 REX.W movq r10,0x5000000000
0x75d07d3b28c   300  4152           push r10
0x75d07d3b28e   302  48ba0000000008000000 REX.W movq rdx,0x800000000
0x75d07d3b298   312  488b7c2410     REX.W movq rdi,[rsp+0x10]
0x75d07d3b29d   317  e89e6cffff     call 0x75d07d31f40       ;; code: CALL_IC, DEFAULT
0x75d07d3b2a2   322  488b75f8       REX.W movq rsi,[rbp-0x8]
0x75d07d3b2a6   326  4883c408       REX.W addq rsp,0x8
0x75d07d3b2aa   330  488945e8       REX.W movq [rbp-0x18],rax    ;; debug: position 1699
0x75d07d3b2ae   334  48b800000000bcaa33dd REX.W movq rax,0xdd33aabc00000000    ;; debug: statement 1720
0x75d07d3b2b8   344  49ba00000000bd8976ba REX.W movq r10,0xba7689bd00000000
0x75d07d3b2c2   354  4933c2         REX.W xorq rax,r10
0x75d07d3b2c5   357  488945e0       REX.W movq [rbp-0x20],rax
0x75d07d3b2c9   361  48b8000000003422bb55 REX.W movq rax,0x55bb223400000000    ;; debug: statement 1743
0x75d07d3b2d3   371  49ba00000000bd8976ba REX.W movq r10,0xba7689bd00000000
0x75d07d3b2dd   381  4933c2         REX.W xorq rax,r10
0x75d07d3b2e0   384  488945d8       REX.W movq [rbp-0x28],rax
0x75d07d3b2e4   388  48b8000000004355cc22 REX.W movq rax,0x22cc554300000000    ;; debug: statement 1765
0x75d07d3b2ee   398  49ba00000000bd8976ba REX.W movq r10,0xba7689bd00000000
0x75d07d3b2f8   408  4933c2         REX.W xorq rax,r10
0x75d07d3b2fb   411  488945d0       REX.W movq [rbp-0x30],rax
0x75d07d3b2ff   415  48b800000000cbdd44aa REX.W movq rax,0xaa44ddcb00000000    ;; debug: statement 1788
0x75d07d3b309   425  49ba00000000bd8976ba REX.W movq r10,0xba7689bd00000000
0x75d07d3b313   435  4933c2         REX.W xorq rax,r10
0x75d07d3b316   438  488945c8       REX.W movq [rbp-0x38],rax
0x75d07d3b31a   442  48b8000000004d68a479 REX.W movq rax,0x79a4684d00000000    ;; debug: statement 1810
0x75d07d3b324   452  49ba00000000bd8976ba REX.W movq r10,0xba7689bd00000000
0x75d07d3b32e   462  4933c2         REX.W xorq rax,r10
0x75d07d3b331   465  488945c0       REX.W movq [rbp-0x40],rax
0x75d07d3b335   469  48b80000000000000000 REX.W movq rax,(nil)    ;; debug: statement 1834
                                                             ;; debug: statement 1838
0x75d07d3b33f   479  488945b8       REX.W movq [rbp-0x48],rax
0x75d07d3b343   483  e9e1060000     jmp 2249  (0x75d07d3ba29)
0x75d07d3b348   488  488b45e0       REX.W movq rax,[rbp-0x20]    ;; debug: statement 1880
                                                             ;; debug: position 1891
0x75d07d3b34c   492  488945b0       REX.W movq [rbp-0x50],rax    ;; debug: position 1880
0x75d07d3b350   496  488b45d8       REX.W movq rax,[rbp-0x28]    ;; debug: statement 1898
                                                             ;; debug: position 1909
0x75d07d3b354   500  488945a8       REX.W movq [rbp-0x58],rax    ;; debug: position 1898
0x75d07d3b358   504  488b45d0       REX.W movq rax,[rbp-0x30]    ;; debug: statement 1916
                                                             ;; debug: position 1927
0x75d07d3b35c   508  488945a0       REX.W movq [rbp-0x60],rax    ;; debug: position 1916
0x75d07d3b360   512  488b45c8       REX.W movq rax,[rbp-0x38]    ;; debug: statement 1934
                                                             ;; debug: position 1945
0x75d07d3b364   516  48894598       REX.W movq [rbp-0x68],rax    ;; debug: position 1934
0x75d07d3b368   520  488b45c0       REX.W movq rax,[rbp-0x40]    ;; debug: statement 1952
                                                             ;; debug: position 1963
0x75d07d3b36c   524  48894590       REX.W movq [rbp-0x70],rax    ;; debug: position 1952
0x75d07d3b370   528  48b80000000000000000 REX.W movq rax,(nil)    ;; debug: statement 1971
                                                             ;; debug: statement 1975
0x75d07d3b37a   538  48894588       REX.W movq [rbp-0x78],rax
0x75d07d3b37e   542  e9ca040000     jmp 1773  (0x75d07d3b84d)
0x75d07d3b383   547  ff7588         push [rbp-0x78]          ;; debug: statement 2011
                                                             ;; debug: position 2014
0x75d07d3b386   550  48b80000000010000000 REX.W movq rax,0x1000000000
0x75d07d3b390   560  5a             pop rdx
0x75d07d3b391   561  488bca         REX.W movq rcx,rdx
0x75d07d3b394   564  480bc8         REX.W orq rcx,rax
0x75d07d3b397   567  f6c101         testb rcx,0x1
0x75d07d3b39a   570  730e           jnc 586  (0x75d07d3b3aa)
0x75d07d3b39c   572  483bd0         REX.W cmpq rdx,rax
0x75d07d3b39f   575  0f8c26000000   jl 619  (0x75d07d3b3cb)
0x75d07d3b3a5   581  e973000000     jmp 701  (0x75d07d3b41d)
0x75d07d3b3aa   586  e81115feff     call 0x75d07d1c8c0       ;; code: COMPARE_IC, UNINITIALIZED (id = 429)
0x75d07d3b3af   591  a815           test al,0x15
0x75d07d3b3b1   593  eb0f           jmp 610  (0x75d07d3b3c2)
0x75d07d3b3b3   595  493b45c0       REX.W cmpq rax,[r13-0x40]
0x75d07d3b3b7   599  0f840e000000   jz 619  (0x75d07d3b3cb)
0x75d07d3b3bd   605  e95b000000     jmp 701  (0x75d07d3b41d)
0x75d07d3b3c2   610  4885c0         REX.W testq rax,rax
0x75d07d3b3c5   613  0f8d52000000   jge 701  (0x75d07d3b41d)
0x75d07d3b3cb   619  ff75e8         push [rbp-0x18]          ;; debug: statement 2022
                                                             ;; debug: position 2022
0x75d07d3b3ce   622  ff7588         push [rbp-0x78]          ;; debug: position 2024
0x75d07d3b3d1   625  ff7518         push [rbp+0x18]          ;; debug: position 2029
0x75d07d3b3d4   628  ff75b8         push [rbp-0x48]          ;; debug: position 2031
0x75d07d3b3d7   631  488b4588       REX.W movq rax,[rbp-0x78]    ;; debug: position 2035
0x75d07d3b3db   635  5a             pop rdx                  ;; debug: position 2033
0x75d07d3b3dc   636  488bc8         REX.W movq rcx,rax
0x75d07d3b3df   639  480bc2         REX.W orq rax,rdx
0x75d07d3b3e2   642  a801           test al,0x1
0x75d07d3b3e4   644  720c           jc 658  (0x75d07d3b3f2)
0x75d07d3b3e6   646  488bc1         REX.W movq rax,rcx
0x75d07d3b3e9   649  e892d1fdff     call 0x75d07d18580       ;; code: BINARY_OP_IC, UNINITIALIZED (id = 455)
0x75d07d3b3ee   654  a80a           test al,0xa
0x75d07d3b3f0   656  eb0c           jmp 670  (0x75d07d3b3fe)
0x75d07d3b3f2   658  488bc2         REX.W movq rax,rdx
0x75d07d3b3f5   661  4803c1         REX.W addq rax,rcx
0x75d07d3b3f8   664  0f80e8ffffff   jo 646  (0x75d07d3b3e6)
0x75d07d3b3fe   670  488bc8         REX.W movq rcx,rax
0x75d07d3b401   673  5a             pop rdx
0x75d07d3b402   674  48b8000000000e000000 REX.W movq rax,0xe00000000    ;; debug: position 2030
0x75d07d3b40c   684  e8af0cfeff     call 0x75d07d1c0c0       ;; code: KEYED_LOAD_IC, DEFAULT
0x75d07d3b411   689  59             pop rcx                  ;; debug: position 2027
0x75d07d3b412   690  5a             pop rdx
0x75d07d3b413   691  e88896ffff     call KeyedStoreIC_Initialize  (0x75d07d34aa0)    ;; code: KEYED_STORE_IC, UNINITIALIZED (id = 439)
0x75d07d3b418   696  e9bf010000     jmp 1148  (0x75d07d3b5dc)
0x75d07d3b41d   701  ff75e8         push [rbp-0x18]          ;; debug: statement 2050
                                                             ;; debug: position 2050
0x75d07d3b420   704  ff7588         push [rbp-0x78]          ;; debug: position 2052
0x75d07d3b423   707  bb13000000     movl rbx,0x13            ;; debug: position 2057
0x75d07d3b428   712  e8b3f2feff     call 0x75d07d2a6e0       ;; code: STUB, LoadGlobalViaContextStub, minor: 0
0x75d07d3b42d   717  50             push rax
0x75d07d3b42e   718  49ba8941a0fe40250000 REX.W movq r10,0x2540fea04189    ;; object: 0x2540fea04189 <undefined>
0x75d07d3b438   728  4152           push r10
0x75d07d3b43a   730  ff75e8         push [rbp-0x18]          ;; debug: position 2061
0x75d07d3b43d   733  ff7588         push [rbp-0x78]          ;; debug: position 2063
0x75d07d3b440   736  48b80000000003000000 REX.W movq rax,0x300000000
0x75d07d3b44a   746  5a             pop rdx                  ;; debug: position 2064
0x75d07d3b44b   747  488bc8         REX.W movq rcx,rax
0x75d07d3b44e   750  480bc2         REX.W orq rax,rdx
0x75d07d3b451   753  a801           test al,0x1
0x75d07d3b453   755  720c           jc 769  (0x75d07d3b461)
0x75d07d3b455   757  488bc1         REX.W movq rax,rcx
0x75d07d3b458   760  e8e3d5fcff     call 0x75d07d08a40       ;; code: BINARY_OP_IC, UNINITIALIZED (id = 504)
0x75d07d3b45d   765  a80a           test al,0xa
0x75d07d3b45f   767  eb0c           jmp 781  (0x75d07d3b46d)
0x75d07d3b461   769  488bc2         REX.W movq rax,rdx
0x75d07d3b464   772  482bc1         REX.W subq rax,rcx
0x75d07d3b467   775  0f80e8ffffff   jo 757  (0x75d07d3b455)
0x75d07d3b46d   781  488bc8         REX.W movq rcx,rax
0x75d07d3b470   784  5a             pop rdx
0x75d07d3b471   785  48b80000000012000000 REX.W movq rax,0x1200000000    ;; debug: position 2062
0x75d07d3b47b   795  e8400cfeff     call 0x75d07d1c0c0       ;; code: KEYED_LOAD_IC, DEFAULT
0x75d07d3b480   800  50             push rax
0x75d07d3b481   801  ff75e8         push [rbp-0x18]          ;; debug: position 2070
0x75d07d3b484   804  ff7588         push [rbp-0x78]          ;; debug: position 2072
0x75d07d3b487   807  48b80000000008000000 REX.W movq rax,0x800000000
0x75d07d3b491   817  5a             pop rdx                  ;; debug: position 2073
0x75d07d3b492   818  488bc8         REX.W movq rcx,rax
0x75d07d3b495   821  480bc2         REX.W orq rax,rdx
0x75d07d3b498   824  a801           test al,0x1
0x75d07d3b49a   826  720c           jc 840  (0x75d07d3b4a8)
0x75d07d3b49c   828  488bc1         REX.W movq rax,rcx
0x75d07d3b49f   831  e89cd5fcff     call 0x75d07d08a40       ;; code: BINARY_OP_IC, UNINITIALIZED (id = 520)
0x75d07d3b4a4   836  a80a           test al,0xa
0x75d07d3b4a6   838  eb0c           jmp 852  (0x75d07d3b4b4)
0x75d07d3b4a8   840  488bc2         REX.W movq rax,rdx
0x75d07d3b4ab   843  482bc1         REX.W subq rax,rcx
0x75d07d3b4ae   846  0f80e8ffffff   jo 828  (0x75d07d3b49c)
0x75d07d3b4b4   852  488bc8         REX.W movq rcx,rax
0x75d07d3b4b7   855  5a             pop rdx
0x75d07d3b4b8   856  48b80000000014000000 REX.W movq rax,0x1400000000    ;; debug: position 2071
0x75d07d3b4c2   866  e8f90bfeff     call 0x75d07d1c0c0       ;; code: KEYED_LOAD_IC, DEFAULT
0x75d07d3b4c7   871  5a             pop rdx                  ;; debug: position 2068
0x75d07d3b4c8   872  488bc8         REX.W movq rcx,rax
0x75d07d3b4cb   875  480bc2         REX.W orq rax,rdx
0x75d07d3b4ce   878  a801           test al,0x1
0x75d07d3b4d0   880  720c           jc 894  (0x75d07d3b4de)
0x75d07d3b4d2   882  488bc1         REX.W movq rax,rcx
0x75d07d3b4d5   885  e886d4feff     call 0x75d07d28960       ;; code: BINARY_OP_IC, UNINITIALIZED (id = 497)
0x75d07d3b4da   890  a80a           test al,0xa
0x75d07d3b4dc   892  eb06           jmp 900  (0x75d07d3b4e4)
0x75d07d3b4de   894  488bc2         REX.W movq rax,rdx
0x75d07d3b4e1   897  4833c1         REX.W xorq rax,rcx
0x75d07d3b4e4   900  50             push rax
0x75d07d3b4e5   901  ff75e8         push [rbp-0x18]          ;; debug: position 2079
0x75d07d3b4e8   904  ff7588         push [rbp-0x78]          ;; debug: position 2081
0x75d07d3b4eb   907  48b8000000000e000000 REX.W movq rax,0xe00000000
0x75d07d3b4f5   917  5a             pop rdx                  ;; debug: position 2082
0x75d07d3b4f6   918  488bc8         REX.W movq rcx,rax
0x75d07d3b4f9   921  480bc2         REX.W orq rax,rdx
0x75d07d3b4fc   924  a801           test al,0x1
0x75d07d3b4fe   926  720c           jc 940  (0x75d07d3b50c)
0x75d07d3b500   928  488bc1         REX.W movq rax,rcx
0x75d07d3b503   931  e838d5fcff     call 0x75d07d08a40       ;; code: BINARY_OP_IC, UNINITIALIZED (id = 536)
0x75d07d3b508   936  a80a           test al,0xa
0x75d07d3b50a   938  eb0c           jmp 952  (0x75d07d3b518)
0x75d07d3b50c   940  488bc2         REX.W movq rax,rdx
0x75d07d3b50f   943  482bc1         REX.W subq rax,rcx
0x75d07d3b512   946  0f80e8ffffff   jo 928  (0x75d07d3b500)
0x75d07d3b518   952  488bc8         REX.W movq rcx,rax
0x75d07d3b51b   955  5a             pop rdx
0x75d07d3b51c   956  48b80000000016000000 REX.W movq rax,0x1600000000    ;; debug: position 2080
0x75d07d3b526   966  e8950bfeff     call 0x75d07d1c0c0       ;; code: KEYED_LOAD_IC, DEFAULT
0x75d07d3b52b   971  5a             pop rdx                  ;; debug: position 2077
0x75d07d3b52c   972  488bc8         REX.W movq rcx,rax
0x75d07d3b52f   975  480bc2         REX.W orq rax,rdx
0x75d07d3b532   978  a801           test al,0x1
0x75d07d3b534   980  720c           jc 994  (0x75d07d3b542)
0x75d07d3b536   982  488bc1         REX.W movq rax,rcx
0x75d07d3b539   985  e822d4feff     call 0x75d07d28960       ;; code: BINARY_OP_IC, UNINITIALIZED (id = 493)
0x75d07d3b53e   990  a80a           test al,0xa
0x75d07d3b540   992  eb06           jmp 1000  (0x75d07d3b548)
0x75d07d3b542   994  488bc2         REX.W movq rax,rdx
0x75d07d3b545   997  4833c1         REX.W xorq rax,rcx
0x75d07d3b548  1000  50             push rax
0x75d07d3b549  1001  ff75e8         push [rbp-0x18]          ;; debug: position 2089
0x75d07d3b54c  1004  ff7588         push [rbp-0x78]          ;; debug: position 2091
0x75d07d3b54f  1007  48b80000000010000000 REX.W movq rax,0x1000000000
0x75d07d3b559  1017  5a             pop rdx                  ;; debug: position 2092
0x75d07d3b55a  1018  488bc8         REX.W movq rcx,rax
0x75d07d3b55d  1021  480bc2         REX.W orq rax,rdx
0x75d07d3b560  1024  a801           test al,0x1
0x75d07d3b562  1026  720c           jc 1040  (0x75d07d3b570)
0x75d07d3b564  1028  488bc1         REX.W movq rax,rcx
0x75d07d3b567  1031  e8d4d4fcff     call 0x75d07d08a40       ;; code: BINARY_OP_IC, UNINITIALIZED (id = 552)
0x75d07d3b56c  1036  a80a           test al,0xa
0x75d07d3b56e  1038  eb0c           jmp 1052  (0x75d07d3b57c)
0x75d07d3b570  1040  488bc2         REX.W movq rax,rdx
0x75d07d3b573  1043  482bc1         REX.W subq rax,rcx
0x75d07d3b576  1046  0f80e8ffffff   jo 1028  (0x75d07d3b564)
0x75d07d3b57c  1052  488bc8         REX.W movq rcx,rax
0x75d07d3b57f  1055  5a             pop rdx
0x75d07d3b580  1056  48b80000000018000000 REX.W movq rax,0x1800000000    ;; debug: position 2090
0x75d07d3b58a  1066  e8310bfeff     call 0x75d07d1c0c0       ;; code: KEYED_LOAD_IC, DEFAULT
0x75d07d3b58f  1071  5a             pop rdx                  ;; debug: position 2087
0x75d07d3b590  1072  488bc8         REX.W movq rcx,rax
0x75d07d3b593  1075  480bc2         REX.W orq rax,rdx
0x75d07d3b596  1078  a801           test al,0x1
0x75d07d3b598  1080  720c           jc 1094  (0x75d07d3b5a6)
0x75d07d3b59a  1082  488bc1         REX.W movq rax,rcx
0x75d07d3b59d  1085  e8bed3feff     call 0x75d07d28960       ;; code: BINARY_OP_IC, UNINITIALIZED (id = 489)
0x75d07d3b5a2  1090  a80a           test al,0xa
0x75d07d3b5a4  1092  eb06           jmp 1100  (0x75d07d3b5ac)
0x75d07d3b5a6  1094  488bc2         REX.W movq rax,rdx
0x75d07d3b5a9  1097  4833c1         REX.W xorq rax,rcx
0x75d07d3b5ac  1100  50             push rax
0x75d07d3b5ad  1101  49ba0000000001000000 REX.W movq r10,0x100000000
0x75d07d3b5b7  1111  4152           push r10
0x75d07d3b5b9  1113  48ba0000000010000000 REX.W movq rdx,0x1000000000    ;; debug: position 2057
0x75d07d3b5c3  1123  488b7c2418     REX.W movq rdi,[rsp+0x18]
0x75d07d3b5c8  1128  e83382fdff     call 0x75d07d13800       ;; code: CALL_IC, DEFAULT
0x75d07d3b5cd  1133  488b75f8       REX.W movq rsi,[rbp-0x8]
0x75d07d3b5d1  1137  4883c408       REX.W addq rsp,0x8
0x75d07d3b5d5  1141  59             pop rcx                  ;; debug: position 2055
0x75d07d3b5d6  1142  5a             pop rdx
0x75d07d3b5d7  1143  e8c494ffff     call KeyedStoreIC_Initialize  (0x75d07d34aa0)    ;; code: KEYED_STORE_IC, UNINITIALIZED (id = 468)
0x75d07d3b5dc  1148  bb12000000     movl rbx,0x12            ;; debug: statement 2108
                                                             ;; debug: position 2116
0x75d07d3b5e1  1153  e8faf0feff     call 0x75d07d2a6e0       ;; code: STUB, LoadGlobalViaContextStub, minor: 0
0x75d07d3b5e6  1158  50             push rax
0x75d07d3b5e7  1159  49ba8941a0fe40250000 REX.W movq r10,0x2540fea04189    ;; object: 0x2540fea04189 <undefined>
0x75d07d3b5f1  1169  4152           push r10
0x75d07d3b5f3  1171  bb12000000     movl rbx,0x12            ;; debug: position 2125
0x75d07d3b5f8  1176  e8e3f0feff     call 0x75d07d2a6e0       ;; code: STUB, LoadGlobalViaContextStub, minor: 0
0x75d07d3b5fd  1181  50             push rax
0x75d07d3b5fe  1182  49ba8941a0fe40250000 REX.W movq r10,0x2540fea04189    ;; object: 0x2540fea04189 <undefined>
0x75d07d3b608  1192  4152           push r10
0x75d07d3b60a  1194  bb13000000     movl rbx,0x13            ;; debug: position 2134
0x75d07d3b60f  1199  e8ccf0feff     call 0x75d07d2a6e0       ;; code: STUB, LoadGlobalViaContextStub, minor: 0
0x75d07d3b614  1204  50             push rax
0x75d07d3b615  1205  49ba8941a0fe40250000 REX.W movq r10,0x2540fea04189    ;; object: 0x2540fea04189 <undefined>
0x75d07d3b61f  1215  4152           push r10
0x75d07d3b621  1217  ff75e0         push [rbp-0x20]          ;; debug: position 2138
0x75d07d3b624  1220  49ba0000000005000000 REX.W movq r10,0x500000000
0x75d07d3b62e  1230  4152           push r10
0x75d07d3b630  1232  48ba000000001e000000 REX.W movq rdx,0x1e00000000    ;; debug: position 2134
0x75d07d3b63a  1242  488b7c2418     REX.W movq rdi,[rsp+0x18]
0x75d07d3b63f  1247  e8bc81fdff     call 0x75d07d13800       ;; code: CALL_IC, DEFAULT
0x75d07d3b644  1252  488b75f8       REX.W movq rsi,[rbp-0x8]
0x75d07d3b648  1256  48890424       REX.W movq [rsp],rax
0x75d07d3b64c  1260  bb0f000000     movl rbx,0xf             ;; debug: position 2145
0x75d07d3b651  1265  e88af0feff     call 0x75d07d2a6e0       ;; code: STUB, LoadGlobalViaContextStub, minor: 0
0x75d07d3b656  1270  50             push rax
0x75d07d3b657  1271  49ba8941a0fe40250000 REX.W movq r10,0x2540fea04189    ;; object: 0x2540fea04189 <undefined>
0x75d07d3b661  1281  4152           push r10
0x75d07d3b663  1283  ff7588         push [rbp-0x78]          ;; debug: position 2153
0x75d07d3b666  1286  ff75d8         push [rbp-0x28]          ;; debug: position 2156
0x75d07d3b669  1289  ff75d0         push [rbp-0x30]          ;; debug: position 2159
0x75d07d3b66c  1292  ff75c8         push [rbp-0x38]          ;; debug: position 2162
0x75d07d3b66f  1295  48ba0000000020000000 REX.W movq rdx,0x2000000000    ;; debug: position 2145
0x75d07d3b679  1305  488b7c2428     REX.W movq rdi,[rsp+0x28]
0x75d07d3b67e  1310  e8bdedfeff     call 0x75d07d2a440       ;; code: CALL_IC, DEFAULT
0x75d07d3b683  1315  488b75f8       REX.W movq rsi,[rbp-0x8]
0x75d07d3b687  1319  48890424       REX.W movq [rsp],rax
0x75d07d3b68b  1323  48ba000000001c000000 REX.W movq rdx,0x1c00000000    ;; debug: position 2125
0x75d07d3b695  1333  488b7c2418     REX.W movq rdi,[rsp+0x18]
0x75d07d3b69a  1338  e86181fdff     call 0x75d07d13800       ;; code: CALL_IC, DEFAULT
0x75d07d3b69f  1343  488b75f8       REX.W movq rsi,[rbp-0x8]
0x75d07d3b6a3  1347  48890424       REX.W movq [rsp],rax
0x75d07d3b6a7  1351  bb12000000     movl rbx,0x12            ;; debug: position 2190
0x75d07d3b6ac  1356  e82ff0feff     call 0x75d07d2a6e0       ;; code: STUB, LoadGlobalViaContextStub, minor: 0
0x75d07d3b6b1  1361  50             push rax
0x75d07d3b6b2  1362  49ba8941a0fe40250000 REX.W movq r10,0x2540fea04189    ;; object: 0x2540fea04189 <undefined>
0x75d07d3b6bc  1372  4152           push r10
0x75d07d3b6be  1374  bb12000000     movl rbx,0x12            ;; debug: position 2199
0x75d07d3b6c3  1379  e818f0feff     call 0x75d07d2a6e0       ;; code: STUB, LoadGlobalViaContextStub, minor: 0
0x75d07d3b6c8  1384  50             push rax
0x75d07d3b6c9  1385  49ba8941a0fe40250000 REX.W movq r10,0x2540fea04189    ;; object: 0x2540fea04189 <undefined>
0x75d07d3b6d3  1395  4152           push r10
0x75d07d3b6d5  1397  ff75c0         push [rbp-0x40]          ;; debug: position 2208
0x75d07d3b6d8  1400  ff75e8         push [rbp-0x18]          ;; debug: position 2211
0x75d07d3b6db  1403  488b4588       REX.W movq rax,[rbp-0x78]    ;; debug: position 2213
0x75d07d3b6df  1407  488bc8         REX.W movq rcx,rax
0x75d07d3b6e2  1410  5a             pop rdx
0x75d07d3b6e3  1411  48b80000000026000000 REX.W movq rax,0x2600000000    ;; debug: position 2212
0x75d07d3b6ed  1421  e8ce09feff     call 0x75d07d1c0c0       ;; code: KEYED_LOAD_IC, DEFAULT
0x75d07d3b6f2  1426  50             push rax
0x75d07d3b6f3  1427  48ba0000000024000000 REX.W movq rdx,0x2400000000    ;; debug: position 2199
0x75d07d3b6fd  1437  488b7c2418     REX.W movq rdi,[rsp+0x18]
0x75d07d3b702  1442  e8f980fdff     call 0x75d07d13800       ;; code: CALL_IC, DEFAULT
0x75d07d3b707  1447  488b75f8       REX.W movq rsi,[rbp-0x8]
0x75d07d3b70b  1451  48890424       REX.W movq [rsp],rax
0x75d07d3b70f  1455  bb10000000     movl rbx,0x10            ;; debug: position 2218
0x75d07d3b714  1460  e8c7effeff     call 0x75d07d2a6e0       ;; code: STUB, LoadGlobalViaContextStub, minor: 0
0x75d07d3b719  1465  50             push rax
0x75d07d3b71a  1466  49ba8941a0fe40250000 REX.W movq r10,0x2540fea04189    ;; object: 0x2540fea04189 <undefined>
0x75d07d3b724  1476  4152           push r10
0x75d07d3b726  1478  ff7588         push [rbp-0x78]          ;; debug: position 2226
0x75d07d3b729  1481  48ba0000000028000000 REX.W movq rdx,0x2800000000    ;; debug: position 2218
0x75d07d3b733  1491  488b7c2410     REX.W movq rdi,[rsp+0x10]
0x75d07d3b738  1496  e80368ffff     call 0x75d07d31f40       ;; code: CALL_IC, DEFAULT
0x75d07d3b73d  1501  488b75f8       REX.W movq rsi,[rbp-0x8]
0x75d07d3b741  1505  48890424       REX.W movq [rsp],rax
0x75d07d3b745  1509  48ba0000000022000000 REX.W movq rdx,0x2200000000    ;; debug: position 2190
0x75d07d3b74f  1519  488b7c2418     REX.W movq rdi,[rsp+0x18]
0x75d07d3b754  1524  e8a780fdff     call 0x75d07d13800       ;; code: CALL_IC, DEFAULT
0x75d07d3b759  1529  488b75f8       REX.W movq rsi,[rbp-0x8]
0x75d07d3b75d  1533  48890424       REX.W movq [rsp],rax
0x75d07d3b761  1537  48ba000000001a000000 REX.W movq rdx,0x1a00000000    ;; debug: position 2116
0x75d07d3b76b  1547  488b7c2418     REX.W movq rdi,[rsp+0x18]
0x75d07d3b770  1552  e88b80fdff     call 0x75d07d13800       ;; code: CALL_IC, DEFAULT
0x75d07d3b775  1557  488b75f8       REX.W movq rsi,[rbp-0x8]
0x75d07d3b779  1561  4883c408       REX.W addq rsp,0x8
0x75d07d3b77d  1565  48894580       REX.W movq [rbp-0x80],rax    ;; debug: position 2108
0x75d07d3b781  1569  488b45c8       REX.W movq rax,[rbp-0x38]    ;; debug: statement 2238
                                                             ;; debug: position 2242
0x75d07d3b785  1573  488945c0       REX.W movq [rbp-0x40],rax    ;; debug: position 2240
0x75d07d3b789  1577  488b45d0       REX.W movq rax,[rbp-0x30]    ;; debug: statement 2251
                                                             ;; debug: position 2255
0x75d07d3b78d  1581  488945c8       REX.W movq [rbp-0x38],rax    ;; debug: position 2253
0x75d07d3b791  1585  bb13000000     movl rbx,0x13            ;; debug: statement 2264
                                                             ;; debug: position 2268
0x75d07d3b796  1590  e845effeff     call 0x75d07d2a6e0       ;; code: STUB, LoadGlobalViaContextStub, minor: 0
0x75d07d3b79b  1595  50             push rax
0x75d07d3b79c  1596  49ba8941a0fe40250000 REX.W movq r10,0x2540fea04189    ;; object: 0x2540fea04189 <undefined>
0x75d07d3b7a6  1606  4152           push r10
0x75d07d3b7a8  1608  ff75d8         push [rbp-0x28]          ;; debug: position 2272
0x75d07d3b7ab  1611  49ba000000001e000000 REX.W movq r10,0x1e00000000
0x75d07d3b7b5  1621  4152           push r10
0x75d07d3b7b7  1623  48ba000000002a000000 REX.W movq rdx,0x2a00000000    ;; debug: position 2268
0x75d07d3b7c1  1633  488b7c2418     REX.W movq rdi,[rsp+0x18]
0x75d07d3b7c6  1638  e83580fdff     call 0x75d07d13800       ;; code: CALL_IC, DEFAULT
0x75d07d3b7cb  1643  488b75f8       REX.W movq rsi,[rbp-0x8]
0x75d07d3b7cf  1647  4883c408       REX.W addq rsp,0x8
0x75d07d3b7d3  1651  488945d0       REX.W movq [rbp-0x30],rax    ;; debug: position 2266
0x75d07d3b7d7  1655  488b45e0       REX.W movq rax,[rbp-0x20]    ;; debug: statement 2286
                                                             ;; debug: position 2290
0x75d07d3b7db  1659  488945d8       REX.W movq [rbp-0x28],rax    ;; debug: position 2288
0x75d07d3b7df  1663  488b4580       REX.W movq rax,[rbp-0x80]    ;; debug: statement 2299
                                                             ;; debug: position 2303
0x75d07d3b7e3  1667  488945e0       REX.W movq [rbp-0x20],rax    ;; debug: position 2301
0x75d07d3b7e7  1671  488b4588       REX.W movq rax,[rbp-0x78]    ;; debug: statement 1995
                                                             ;; debug: position 1994
0x75d07d3b7eb  1675  a801           test al,0x1
0x75d07d3b7ed  1677  7314           jnc 1699  (0x75d07d3b803)
0x75d07d3b7ef  1679  49ba0000000001000000 REX.W movq r10,0x100000000
0x75d07d3b7f9  1689  4903c2         REX.W addq rax,r10
0x75d07d3b7fc  1692  711e           jno 1724  (0x75d07d3b81c)
0x75d07d3b7fe  1694  492bc2         REX.W subq rax,r10
0x75d07d3b801  1697  eb05           jmp 1704  (0x75d07d3b808)
0x75d07d3b803  1699  e8f876feff     call 0x75d07d22f00       ;; code: STUB, ToNumberStub, minor: 0
0x75d07d3b808  1704  488bd0         REX.W movq rdx,rax       ;; debug: position 1995
0x75d07d3b80b  1707  48b80000000001000000 REX.W movq rax,0x100000000
0x75d07d3b815  1717  e866cdfdff     call 0x75d07d18580       ;; code: BINARY_OP_IC, UNINITIALIZED (id = 416)
0x75d07d3b81a  1722  a82d           test al,0x2d
0x75d07d3b81c  1724  48894588       REX.W movq [rbp-0x78],rax
0x75d07d3b820  1728  48bb69e1aefe40250000 REX.W movq rbx,0x2540feaee169    ;; object: 0x2540feaee169 Cell for 6144
0x75d07d3b82a  1738  83430bf9       addl [rbx+0xb],0xf9
0x75d07d3b82e  1742  791d           jns 1773  (0x75d07d3b84d)
0x75d07d3b830  1744  e80bb1ffff     call InterruptCheck  (0x75d07d36940)    ;; code: BUILTIN
0x75d07d3b835  1749  48bb69e1aefe40250000 REX.W movq rbx,0x2540feaee169    ;; object: 0x2540feaee169 Cell for 6144
0x75d07d3b83f  1759  49ba0000000000180000 REX.W movq r10,0x180000000000
0x75d07d3b849  1769  4c895307       REX.W movq [rbx+0x7],r10
0x75d07d3b84d  1773  ff7588         push [rbp-0x78]          ;; debug: statement 1988
                                                             ;; debug: position 1986
0x75d07d3b850  1776  48b80000000050000000 REX.W movq rax,0x5000000000
0x75d07d3b85a  1786  5a             pop rdx
0x75d07d3b85b  1787  488bca         REX.W movq rcx,rdx
0x75d07d3b85e  1790  480bc8         REX.W orq rcx,rax
0x75d07d3b861  1793  f6c101         testb rcx,0x1
0x75d07d3b864  1796  730e           jnc 1812  (0x75d07d3b874)
0x75d07d3b866  1798  483bd0         REX.W cmpq rdx,rax
0x75d07d3b869  1801  0f8c14fbffff   jl 547  (0x75d07d3b383)
0x75d07d3b86f  1807  e921000000     jmp 1845  (0x75d07d3b895)
0x75d07d3b874  1812  e84710feff     call 0x75d07d1c8c0       ;; code: COMPARE_IC, UNINITIALIZED (id = 405)
0x75d07d3b879  1817  a815           test al,0x15
0x75d07d3b87b  1819  eb0f           jmp 1836  (0x75d07d3b88c)
0x75d07d3b87d  1821  493b45c0       REX.W cmpq rax,[r13-0x40]
0x75d07d3b881  1825  0f84fcfaffff   jz 547  (0x75d07d3b383)
0x75d07d3b887  1831  e909000000     jmp 1845  (0x75d07d3b895)
0x75d07d3b88c  1836  4885c0         REX.W testq rax,rax
0x75d07d3b88f  1839  0f8ceefaffff   jl 547  (0x75d07d3b383)
0x75d07d3b895  1845  bb12000000     movl rbx,0x12            ;; debug: statement 2317
                                                             ;; debug: position 2321
0x75d07d3b89a  1850  e841eefeff     call 0x75d07d2a6e0       ;; code: STUB, LoadGlobalViaContextStub, minor: 0
0x75d07d3b89f  1855  50             push rax
0x75d07d3b8a0  1856  49ba8941a0fe40250000 REX.W movq r10,0x2540fea04189    ;; object: 0x2540fea04189 <undefined>
0x75d07d3b8aa  1866  4152           push r10
0x75d07d3b8ac  1868  ff75e0         push [rbp-0x20]          ;; debug: position 2330
0x75d07d3b8af  1871  ff75b0         push [rbp-0x50]          ;; debug: position 2333
0x75d07d3b8b2  1874  48ba000000002c000000 REX.W movq rdx,0x2c00000000    ;; debug: position 2321
0x75d07d3b8bc  1884  488b7c2418     REX.W movq rdi,[rsp+0x18]
0x75d07d3b8c1  1889  e83a7ffdff     call 0x75d07d13800       ;; code: CALL_IC, DEFAULT
0x75d07d3b8c6  1894  488b75f8       REX.W movq rsi,[rbp-0x8]
0x75d07d3b8ca  1898  4883c408       REX.W addq rsp,0x8
0x75d07d3b8ce  1902  488945e0       REX.W movq [rbp-0x20],rax    ;; debug: position 2319
0x75d07d3b8d2  1906  bb12000000     movl rbx,0x12            ;; debug: statement 2344
                                                             ;; debug: position 2348
0x75d07d3b8d7  1911  e804eefeff     call 0x75d07d2a6e0       ;; code: STUB, LoadGlobalViaContextStub, minor: 0
0x75d07d3b8dc  1916  50             push rax
0x75d07d3b8dd  1917  49ba8941a0fe40250000 REX.W movq r10,0x2540fea04189    ;; object: 0x2540fea04189 <undefined>
0x75d07d3b8e7  1927  4152           push r10
0x75d07d3b8e9  1929  ff75d8         push [rbp-0x28]          ;; debug: position 2357
0x75d07d3b8ec  1932  ff75a8         push [rbp-0x58]          ;; debug: position 2360
0x75d07d3b8ef  1935  48ba000000002e000000 REX.W movq rdx,0x2e00000000    ;; debug: position 2348
0x75d07d3b8f9  1945  488b7c2418     REX.W movq rdi,[rsp+0x18]
0x75d07d3b8fe  1950  e8fd7efdff     call 0x75d07d13800       ;; code: CALL_IC, DEFAULT
0x75d07d3b903  1955  488b75f8       REX.W movq rsi,[rbp-0x8]
0x75d07d3b907  1959  4883c408       REX.W addq rsp,0x8
0x75d07d3b90b  1963  488945d8       REX.W movq [rbp-0x28],rax    ;; debug: position 2346
0x75d07d3b90f  1967  bb12000000     movl rbx,0x12            ;; debug: statement 2371
                                                             ;; debug: position 2375
0x75d07d3b914  1972  e8c7edfeff     call 0x75d07d2a6e0       ;; code: STUB, LoadGlobalViaContextStub, minor: 0
0x75d07d3b919  1977  50             push rax
0x75d07d3b91a  1978  49ba8941a0fe40250000 REX.W movq r10,0x2540fea04189    ;; object: 0x2540fea04189 <undefined>
0x75d07d3b924  1988  4152           push r10
0x75d07d3b926  1990  ff75d0         push [rbp-0x30]          ;; debug: position 2384
0x75d07d3b929  1993  ff75a0         push [rbp-0x60]          ;; debug: position 2387
0x75d07d3b92c  1996  48ba0000000030000000 REX.W movq rdx,0x3000000000    ;; debug: position 2375
0x75d07d3b936  2006  488b7c2418     REX.W movq rdi,[rsp+0x18]
0x75d07d3b93b  2011  e8c07efdff     call 0x75d07d13800       ;; code: CALL_IC, DEFAULT
0x75d07d3b940  2016  488b75f8       REX.W movq rsi,[rbp-0x8]
0x75d07d3b944  2020  4883c408       REX.W addq rsp,0x8
0x75d07d3b948  2024  488945d0       REX.W movq [rbp-0x30],rax    ;; debug: position 2373
0x75d07d3b94c  2028  bb12000000     movl rbx,0x12            ;; debug: statement 2398
                                                             ;; debug: position 2402
0x75d07d3b951  2033  e88aedfeff     call 0x75d07d2a6e0       ;; code: STUB, LoadGlobalViaContextStub, minor: 0
0x75d07d3b956  2038  50             push rax
0x75d07d3b957  2039  49ba8941a0fe40250000 REX.W movq r10,0x2540fea04189    ;; object: 0x2540fea04189 <undefined>
0x75d07d3b961  2049  4152           push r10
0x75d07d3b963  2051  ff75c8         push [rbp-0x38]          ;; debug: position 2411
0x75d07d3b966  2054  ff7598         push [rbp-0x68]          ;; debug: position 2414
0x75d07d3b969  2057  48ba0000000032000000 REX.W movq rdx,0x3200000000    ;; debug: position 2402
0x75d07d3b973  2067  488b7c2418     REX.W movq rdi,[rsp+0x18]
0x75d07d3b978  2072  e8837efdff     call 0x75d07d13800       ;; code: CALL_IC, DEFAULT
0x75d07d3b97d  2077  488b75f8       REX.W movq rsi,[rbp-0x8]
0x75d07d3b981  2081  4883c408       REX.W addq rsp,0x8
0x75d07d3b985  2085  488945c8       REX.W movq [rbp-0x38],rax    ;; debug: position 2400
0x75d07d3b989  2089  bb12000000     movl rbx,0x12            ;; debug: statement 2425
                                                             ;; debug: position 2429
0x75d07d3b98e  2094  e84dedfeff     call 0x75d07d2a6e0       ;; code: STUB, LoadGlobalViaContextStub, minor: 0
0x75d07d3b993  2099  50             push rax
0x75d07d3b994  2100  49ba8941a0fe40250000 REX.W movq r10,0x2540fea04189    ;; object: 0x2540fea04189 <undefined>
0x75d07d3b99e  2110  4152           push r10
0x75d07d3b9a0  2112  ff75c0         push [rbp-0x40]          ;; debug: position 2438
0x75d07d3b9a3  2115  ff7590         push [rbp-0x70]          ;; debug: position 2441
0x75d07d3b9a6  2118  48ba0000000034000000 REX.W movq rdx,0x3400000000    ;; debug: position 2429
0x75d07d3b9b0  2128  488b7c2418     REX.W movq rdi,[rsp+0x18]
0x75d07d3b9b5  2133  e8467efdff     call 0x75d07d13800       ;; code: CALL_IC, DEFAULT
0x75d07d3b9ba  2138  488b75f8       REX.W movq rsi,[rbp-0x8]
0x75d07d3b9be  2142  4883c408       REX.W addq rsp,0x8
0x75d07d3b9c2  2146  488945c0       REX.W movq [rbp-0x40],rax    ;; debug: position 2427
0x75d07d3b9c6  2150  488b45b8       REX.W movq rax,[rbp-0x48]    ;; debug: statement 1865
                                                             ;; debug: position 1863
0x75d07d3b9ca  2154  50             push rax
0x75d07d3b9cb  2155  48b80000000010000000 REX.W movq rax,0x1000000000
0x75d07d3b9d5  2165  5a             pop rdx
0x75d07d3b9d6  2166  488bc8         REX.W movq rcx,rax
0x75d07d3b9d9  2169  480bc2         REX.W orq rax,rdx
0x75d07d3b9dc  2172  a801           test al,0x1
0x75d07d3b9de  2174  720c           jc 2188  (0x75d07d3b9ec)
0x75d07d3b9e0  2176  488bc1         REX.W movq rax,rcx
0x75d07d3b9e3  2179  e898cbfdff     call 0x75d07d18580       ;; code: BINARY_OP_IC, UNINITIALIZED (id = 304)
0x75d07d3b9e8  2184  a80a           test al,0xa
0x75d07d3b9ea  2186  eb0c           jmp 2200  (0x75d07d3b9f8)
0x75d07d3b9ec  2188  488bc2         REX.W movq rax,rdx
0x75d07d3b9ef  2191  4803c1         REX.W addq rax,rcx
0x75d07d3b9f2  2194  0f80e8ffffff   jo 2176  (0x75d07d3b9e0)
0x75d07d3b9f8  2200  488945b8       REX.W movq [rbp-0x48],rax    ;; debug: position 1865
0x75d07d3b9fc  2204  48bb69e1aefe40250000 REX.W movq rbx,0x2540feaee169    ;; object: 0x2540feaee169 Cell for 6144
0x75d07d3ba06  2214  83430bf6       addl [rbx+0xb],0xf6
0x75d07d3ba0a  2218  791d           jns 2249  (0x75d07d3ba29)
0x75d07d3ba0c  2220  e82fafffff     call InterruptCheck  (0x75d07d36940)    ;; code: BUILTIN
0x75d07d3ba11  2225  48bb69e1aefe40250000 REX.W movq rbx,0x2540feaee169    ;; object: 0x2540feaee169 Cell for 6144
0x75d07d3ba1b  2235  49ba0000000000180000 REX.W movq r10,0x180000000000
0x75d07d3ba25  2245  4c895307       REX.W movq [rbx+0x7],r10
0x75d07d3ba29  2249  ff75b8         push [rbp-0x48]          ;; debug: statement 1851
                                                             ;; debug: position 1849
0x75d07d3ba2c  2252  488b4518       REX.W movq rax,[rbp+0x18]    ;; debug: position 1853
0x75d07d3ba30  2256  488bd0         REX.W movq rdx,rax
0x75d07d3ba33  2259  48b97107a9fe40250000 REX.W movq rcx,0x2540fea90771    ;; debug: position 1854
                                                             ;; object: 0x2540fea90771 <String[6]: length>
0x75d07d3ba3d  2269  48b8000000000c000000 REX.W movq rax,0xc00000000
0x75d07d3ba47  2279  e814cbfeff     call 0x75d07d28560       ;; code: contextual, LOAD_IC, DEFAULT
0x75d07d3ba4c  2284  5a             pop rdx
0x75d07d3ba4d  2285  488bca         REX.W movq rcx,rdx
0x75d07d3ba50  2288  480bc8         REX.W orq rcx,rax
0x75d07d3ba53  2291  f6c101         testb rcx,0x1
0x75d07d3ba56  2294  730e           jnc 2310  (0x75d07d3ba66)
0x75d07d3ba58  2296  483bd0         REX.W cmpq rdx,rax
0x75d07d3ba5b  2299  0f8ce7f8ffff   jl 488  (0x75d07d3b348)
0x75d07d3ba61  2305  e921000000     jmp 2343  (0x75d07d3ba87)
0x75d07d3ba66  2310  e8550efeff     call 0x75d07d1c8c0       ;; code: COMPARE_IC, UNINITIALIZED (id = 284)
0x75d07d3ba6b  2315  a815           test al,0x15
0x75d07d3ba6d  2317  eb0f           jmp 2334  (0x75d07d3ba7e)
0x75d07d3ba6f  2319  493b45c0       REX.W cmpq rax,[r13-0x40]
0x75d07d3ba73  2323  0f84cff8ffff   jz 488  (0x75d07d3b348)
0x75d07d3ba79  2329  e909000000     jmp 2343  (0x75d07d3ba87)
0x75d07d3ba7e  2334  4885c0         REX.W testq rax,rax
0x75d07d3ba81  2337  0f8cc1f8ffff   jl 488  (0x75d07d3b348)
0x75d07d3ba87  2343  48b9d91fa9fe40250000 REX.W movq rcx,0x2540fea91fd9    ;; debug: statement 2454
                                                             ;; debug: position 2461
                                                             ;; object: 0x2540fea91fd9 <String[5]: Array>
0x75d07d3ba91  2353  488b5627       REX.W movq rdx,[rsi+0x27]
0x75d07d3ba95  2357  48b8000000000a000000 REX.W movq rax,0xa00000000
0x75d07d3ba9f  2367  e8bccafeff     call 0x75d07d28560       ;; code: contextual, LOAD_IC, DEFAULT
0x75d07d3baa4  2372  50             push rax
0x75d07d3baa5  2373  49ba8941a0fe40250000 REX.W movq r10,0x2540fea04189    ;; object: 0x2540fea04189 <undefined>
0x75d07d3baaf  2383  4152           push r10
0x75d07d3bab1  2385  ff75e0         push [rbp-0x20]          ;; debug: position 2467
0x75d07d3bab4  2388  ff75d8         push [rbp-0x28]          ;; debug: position 2470
0x75d07d3bab7  2391  ff75d0         push [rbp-0x30]          ;; debug: position 2473
0x75d07d3baba  2394  ff75c8         push [rbp-0x38]          ;; debug: position 2476
0x75d07d3babd  2397  ff75c0         push [rbp-0x40]          ;; debug: position 2479
0x75d07d3bac0  2400  48ba0000000036000000 REX.W movq rdx,0x3600000000    ;; debug: position 2461
0x75d07d3baca  2410  488b7c2430     REX.W movq rdi,[rsp+0x30]
0x75d07d3bacf  2415  e82cedfeff     call 0x75d07d2a800       ;; code: CALL_IC, DEFAULT
0x75d07d3bad4  2420  488b75f8       REX.W movq rsi,[rbp-0x8]
0x75d07d3bad8  2424  4883c408       REX.W addq rsp,0x8
0x75d07d3badc  2428  48bb69e1aefe40250000 REX.W movq rbx,0x2540feaee169    ;; object: 0x2540feaee169 Cell for 6144
0x75d07d3bae6  2438  83430bf2       addl [rbx+0xb],0xf2
0x75d07d3baea  2442  791f           jns 2475  (0x75d07d3bb0b)
0x75d07d3baec  2444  50             push rax
0x75d07d3baed  2445  e84eaeffff     call InterruptCheck  (0x75d07d36940)    ;; code: BUILTIN
0x75d07d3baf2  2450  58             pop rax
0x75d07d3baf3  2451  48bb69e1aefe40250000 REX.W movq rbx,0x2540feaee169    ;; object: 0x2540feaee169 Cell for 6144
0x75d07d3bafd  2461  49ba0000000000180000 REX.W movq r10,0x180000000000
0x75d07d3bb07  2471  4c895307       REX.W movq [rbx+0x7],r10
0x75d07d3bb0b  2475  c9             leave                    ;; debug: statement 2484
0x75d07d3bb0c  2476  c21800         ret 0x18
0x75d07d3bb0f  2479  498b45a8       REX.W movq rax,[r13-0x58]
0x75d07d3bb13  2483  e9c4ffffff     jmp 2428  (0x75d07d3badc)

Deoptimization Output Data (deopt points = 0)

Back edges (size = 2)
ast_id  pc_offset  loop_depth
   387       1749           2
   266       2225           1

0x2540feaee3c1: [TypeFeedbackInfo]
 - ic_total_count: 52, ic_with_type_info_count: 0, ic_generic_count: 0

RelocInfo (size = 568)
0x75d07d3b160  position  (1580)
0x75d07d3b182  code target (BUILTIN)  (0x75d07d36a80)
0x75d07d3b186  statement position  (1616)
0x75d07d3b186  position  (1616)
0x75d07d3b189  position  (1618)
0x75d07d3b196  position  (1622)
0x75d07d3b198  code target with id (BINARY_OP_IC)  (0x75d07d2df20) (id=100)
0x75d07d3b1a7  position  (1617)
0x75d07d3b1b2  code target (KEYED_LOAD_IC)  (0x75d07d1c0c0)
0x75d07d3b1cf  position  (1645)
0x75d07d3b1dc  position  (1649)
0x75d07d3b1de  code target with id (BINARY_OP_IC)  (0x75d07d282c0) (id=127)
0x75d07d3b1e3  position  (1643)
0x75d07d3b1e5  code target with id (BINARY_OP_IC)  (0x75d07d08a40) (id=120)
0x75d07d3b1ea  position  (1636)
0x75d07d3b1ec  code target with id (BINARY_OP_IC)  (0x75d07d235c0) (id=113)
0x75d07d3b1f3  code target with id (BINARY_OP_IC)  (0x75d07d2f600) (id=53)
0x75d07d3b1f8  position  (1628)
0x75d07d3b1fb  code target with id (KEYED_STORE_IC)  (0x75d07d34aa0) (id=49)
0x75d07d3b1ff  statement position  (1658)
0x75d07d3b1ff  position  (1658)
0x75d07d3b202  position  (1662)
0x75d07d3b20f  position  (1666)
0x75d07d3b211  code target with id (BINARY_OP_IC)  (0x75d07d18580) (id=156)
0x75d07d3b221  position  (1671)
0x75d07d3b223  code target with id (BINARY_OP_IC)  (0x75d07d2df20) (id=152)
0x75d07d3b233  position  (1677)
0x75d07d3b235  code target with id (BINARY_OP_IC)  (0x75d07d235c0) (id=148)
0x75d07d3b245  position  (1683)
0x75d07d3b247  code target with id (BINARY_OP_IC)  (0x75d07d18580) (id=144)
0x75d07d3b24d  position  (1691)
0x75d07d3b251  position  (1689)
0x75d07d3b254  code target with id (KEYED_STORE_IC)  (0x75d07d34aa0) (id=137)
0x75d07d3b258  statement position  (1699)
0x75d07d3b258  position  (1707)
0x75d07d3b25a  embedded object  (0x2540fea91fd9 <String[5]: Array>)
0x75d07d3b271  code target (LOAD_IC)  (0x75d07d28560)
0x75d07d3b278  embedded object  (0x2540fea04189 <undefined>)
0x75d07d3b29e  code target (CALL_IC)  (0x75d07d31f40)
0x75d07d3b2aa  position  (1699)
0x75d07d3b2ae  statement position  (1720)
0x75d07d3b2c9  statement position  (1743)
0x75d07d3b2e4  statement position  (1765)
0x75d07d3b2ff  statement position  (1788)
0x75d07d3b31a  statement position  (1810)
0x75d07d3b335  statement position  (1834)
0x75d07d3b335  statement position  (1838)
0x75d07d3b348  statement position  (1880)
0x75d07d3b348  position  (1891)
0x75d07d3b34c  position  (1880)
0x75d07d3b350  statement position  (1898)
0x75d07d3b350  position  (1909)
0x75d07d3b354  position  (1898)
0x75d07d3b358  statement position  (1916)
0x75d07d3b358  position  (1927)
0x75d07d3b35c  position  (1916)
0x75d07d3b360  statement position  (1934)
0x75d07d3b360  position  (1945)
0x75d07d3b364  position  (1934)
0x75d07d3b368  statement position  (1952)
0x75d07d3b368  position  (1963)
0x75d07d3b36c  position  (1952)
0x75d07d3b370  statement position  (1971)
0x75d07d3b370  statement position  (1975)
0x75d07d3b383  statement position  (2011)
0x75d07d3b383  position  (2014)
0x75d07d3b3ab  code target with id (COMPARE_IC)  (0x75d07d1c8c0) (id=429)
0x75d07d3b3cb  statement position  (2022)
0x75d07d3b3cb  position  (2022)
0x75d07d3b3ce  position  (2024)
0x75d07d3b3d1  position  (2029)
0x75d07d3b3d4  position  (2031)
0x75d07d3b3d7  position  (2035)
0x75d07d3b3db  position  (2033)
0x75d07d3b3ea  code target with id (BINARY_OP_IC)  (0x75d07d18580) (id=455)
0x75d07d3b402  position  (2030)
0x75d07d3b40d  code target (KEYED_LOAD_IC)  (0x75d07d1c0c0)
0x75d07d3b411  position  (2027)
0x75d07d3b414  code target with id (KEYED_STORE_IC)  (0x75d07d34aa0) (id=439)
0x75d07d3b41d  statement position  (2050)
0x75d07d3b41d  position  (2050)
0x75d07d3b420  position  (2052)
0x75d07d3b423  position  (2057)
0x75d07d3b429  code target (STUB)  (0x75d07d2a6e0)
0x75d07d3b430  embedded object  (0x2540fea04189 <undefined>)
0x75d07d3b43a  position  (2061)
0x75d07d3b43d  position  (2063)
0x75d07d3b44a  position  (2064)
0x75d07d3b459  code target with id (BINARY_OP_IC)  (0x75d07d08a40) (id=504)
0x75d07d3b471  position  (2062)
0x75d07d3b47c  code target (KEYED_LOAD_IC)  (0x75d07d1c0c0)
0x75d07d3b481  position  (2070)
0x75d07d3b484  position  (2072)
0x75d07d3b491  position  (2073)
0x75d07d3b4a0  code target with id (BINARY_OP_IC)  (0x75d07d08a40) (id=520)
0x75d07d3b4b8  position  (2071)
0x75d07d3b4c3  code target (KEYED_LOAD_IC)  (0x75d07d1c0c0)
0x75d07d3b4c7  position  (2068)
0x75d07d3b4d6  code target with id (BINARY_OP_IC)  (0x75d07d28960) (id=497)
0x75d07d3b4e5  position  (2079)
0x75d07d3b4e8  position  (2081)
0x75d07d3b4f5  position  (2082)
0x75d07d3b504  code target with id (BINARY_OP_IC)  (0x75d07d08a40) (id=536)
0x75d07d3b51c  position  (2080)
0x75d07d3b527  code target (KEYED_LOAD_IC)  (0x75d07d1c0c0)
0x75d07d3b52b  position  (2077)
0x75d07d3b53a  code target with id (BINARY_OP_IC)  (0x75d07d28960) (id=493)
0x75d07d3b549  position  (2089)
0x75d07d3b54c  position  (2091)
0x75d07d3b559  position  (2092)
0x75d07d3b568  code target with id (BINARY_OP_IC)  (0x75d07d08a40) (id=552)
0x75d07d3b580  position  (2090)
0x75d07d3b58b  code target (KEYED_LOAD_IC)  (0x75d07d1c0c0)
0x75d07d3b58f  position  (2087)
0x75d07d3b59e  code target with id (BINARY_OP_IC)  (0x75d07d28960) (id=489)
0x75d07d3b5b9  position  (2057)
0x75d07d3b5c9  code target (CALL_IC)  (0x75d07d13800)
0x75d07d3b5d5  position  (2055)
0x75d07d3b5d8  code target with id (KEYED_STORE_IC)  (0x75d07d34aa0) (id=468)
0x75d07d3b5dc  statement position  (2108)
0x75d07d3b5dc  position  (2116)
0x75d07d3b5e2  code target (STUB)  (0x75d07d2a6e0)
0x75d07d3b5e9  embedded object  (0x2540fea04189 <undefined>)
0x75d07d3b5f3  position  (2125)
0x75d07d3b5f9  code target (STUB)  (0x75d07d2a6e0)
0x75d07d3b600  embedded object  (0x2540fea04189 <undefined>)
0x75d07d3b60a  position  (2134)
0x75d07d3b610  code target (STUB)  (0x75d07d2a6e0)
0x75d07d3b617  embedded object  (0x2540fea04189 <undefined>)
0x75d07d3b621  position  (2138)
0x75d07d3b630  position  (2134)
0x75d07d3b640  code target (CALL_IC)  (0x75d07d13800)
0x75d07d3b64c  position  (2145)
0x75d07d3b652  code target (STUB)  (0x75d07d2a6e0)
0x75d07d3b659  embedded object  (0x2540fea04189 <undefined>)
0x75d07d3b663  position  (2153)
0x75d07d3b666  position  (2156)
0x75d07d3b669  position  (2159)
0x75d07d3b66c  position  (2162)
0x75d07d3b66f  position  (2145)
0x75d07d3b67f  code target (CALL_IC)  (0x75d07d2a440)
0x75d07d3b68b  position  (2125)
0x75d07d3b69b  code target (CALL_IC)  (0x75d07d13800)
0x75d07d3b6a7  position  (2190)
0x75d07d3b6ad  code target (STUB)  (0x75d07d2a6e0)
0x75d07d3b6b4  embedded object  (0x2540fea04189 <undefined>)
0x75d07d3b6be  position  (2199)
0x75d07d3b6c4  code target (STUB)  (0x75d07d2a6e0)
0x75d07d3b6cb  embedded object  (0x2540fea04189 <undefined>)
0x75d07d3b6d5  position  (2208)
0x75d07d3b6d8  position  (2211)
0x75d07d3b6db  position  (2213)
0x75d07d3b6e3  position  (2212)
0x75d07d3b6ee  code target (KEYED_LOAD_IC)  (0x75d07d1c0c0)
0x75d07d3b6f3  position  (2199)
0x75d07d3b703  code target (CALL_IC)  (0x75d07d13800)
0x75d07d3b70f  position  (2218)
0x75d07d3b715  code target (STUB)  (0x75d07d2a6e0)
0x75d07d3b71c  embedded object  (0x2540fea04189 <undefined>)
0x75d07d3b726  position  (2226)
0x75d07d3b729  position  (2218)
0x75d07d3b739  code target (CALL_IC)  (0x75d07d31f40)
0x75d07d3b745  position  (2190)
0x75d07d3b755  code target (CALL_IC)  (0x75d07d13800)
0x75d07d3b761  position  (2116)
0x75d07d3b771  code target (CALL_IC)  (0x75d07d13800)
0x75d07d3b77d  position  (2108)
0x75d07d3b781  statement position  (2238)
0x75d07d3b781  position  (2242)
0x75d07d3b785  position  (2240)
0x75d07d3b789  statement position  (2251)
0x75d07d3b789  position  (2255)
0x75d07d3b78d  position  (2253)
0x75d07d3b791  statement position  (2264)
0x75d07d3b791  position  (2268)
0x75d07d3b797  code target (STUB)  (0x75d07d2a6e0)
0x75d07d3b79e  embedded object  (0x2540fea04189 <undefined>)
0x75d07d3b7a8  position  (2272)
0x75d07d3b7b7  position  (2268)
0x75d07d3b7c7  code target (CALL_IC)  (0x75d07d13800)
0x75d07d3b7d3  position  (2266)
0x75d07d3b7d7  statement position  (2286)
0x75d07d3b7d7  position  (2290)
0x75d07d3b7db  position  (2288)
0x75d07d3b7df  statement position  (2299)
0x75d07d3b7df  position  (2303)
0x75d07d3b7e3  position  (2301)
0x75d07d3b7e7  statement position  (1995)
0x75d07d3b7e7  position  (1994)
0x75d07d3b804  code target (STUB)  (0x75d07d22f00)
0x75d07d3b808  position  (1995)
0x75d07d3b816  code target with id (BINARY_OP_IC)  (0x75d07d18580) (id=416)
0x75d07d3b822  embedded object  (0x2540feaee169 Cell for 6144)
0x75d07d3b831  code target (BUILTIN)  (0x75d07d36940)
0x75d07d3b837  embedded object  (0x2540feaee169 Cell for 6144)
0x75d07d3b84d  statement position  (1988)
0x75d07d3b84d  position  (1986)
0x75d07d3b875  code target with id (COMPARE_IC)  (0x75d07d1c8c0) (id=405)
0x75d07d3b895  statement position  (2317)
0x75d07d3b895  position  (2321)
0x75d07d3b89b  code target (STUB)  (0x75d07d2a6e0)
0x75d07d3b8a2  embedded object  (0x2540fea04189 <undefined>)
0x75d07d3b8ac  position  (2330)
0x75d07d3b8af  position  (2333)
0x75d07d3b8b2  position  (2321)
0x75d07d3b8c2  code target (CALL_IC)  (0x75d07d13800)
0x75d07d3b8ce  position  (2319)
0x75d07d3b8d2  statement position  (2344)
0x75d07d3b8d2  position  (2348)
0x75d07d3b8d8  code target (STUB)  (0x75d07d2a6e0)
0x75d07d3b8df  embedded object  (0x2540fea04189 <undefined>)
0x75d07d3b8e9  position  (2357)
0x75d07d3b8ec  position  (2360)
0x75d07d3b8ef  position  (2348)
0x75d07d3b8ff  code target (CALL_IC)  (0x75d07d13800)
0x75d07d3b90b  position  (2346)
0x75d07d3b90f  statement position  (2371)
0x75d07d3b90f  position  (2375)
0x75d07d3b915  code target (STUB)  (0x75d07d2a6e0)
0x75d07d3b91c  embedded object  (0x2540fea04189 <undefined>)
0x75d07d3b926  position  (2384)
0x75d07d3b929  position  (2387)
0x75d07d3b92c  position  (2375)
0x75d07d3b93c  code target (CALL_IC)  (0x75d07d13800)
0x75d07d3b948  position  (2373)
0x75d07d3b94c  statement position  (2398)
0x75d07d3b94c  position  (2402)
0x75d07d3b952  code target (STUB)  (0x75d07d2a6e0)
0x75d07d3b959  embedded object  (0x2540fea04189 <undefined>)
0x75d07d3b963  position  (2411)
0x75d07d3b966  position  (2414)
0x75d07d3b969  position  (2402)
0x75d07d3b979  code target (CALL_IC)  (0x75d07d13800)
0x75d07d3b985  position  (2400)
0x75d07d3b989  statement position  (2425)
0x75d07d3b989  position  (2429)
0x75d07d3b98f  code target (STUB)  (0x75d07d2a6e0)
0x75d07d3b996  embedded object  (0x2540fea04189 <undefined>)
0x75d07d3b9a0  position  (2438)
0x75d07d3b9a3  position  (2441)
0x75d07d3b9a6  position  (2429)
0x75d07d3b9b6  code target (CALL_IC)  (0x75d07d13800)
0x75d07d3b9c2  position  (2427)
0x75d07d3b9c6  statement position  (1865)
0x75d07d3b9c6  position  (1863)
0x75d07d3b9e4  code target with id (BINARY_OP_IC)  (0x75d07d18580) (id=304)
0x75d07d3b9f8  position  (1865)
0x75d07d3b9fe  embedded object  (0x2540feaee169 Cell for 6144)
0x75d07d3ba0d  code target (BUILTIN)  (0x75d07d36940)
0x75d07d3ba13  embedded object  (0x2540feaee169 Cell for 6144)
0x75d07d3ba29  statement position  (1851)
0x75d07d3ba29  position  (1849)
0x75d07d3ba2c  position  (1853)
0x75d07d3ba33  position  (1854)
0x75d07d3ba35  embedded object  (0x2540fea90771 <String[6]: length>)
0x75d07d3ba48  code target (LOAD_IC)  (0x75d07d28560)
0x75d07d3ba67  code target with id (COMPARE_IC)  (0x75d07d1c8c0) (id=284)
0x75d07d3ba87  statement position  (2454)
0x75d07d3ba87  position  (2461)
0x75d07d3ba89  embedded object  (0x2540fea91fd9 <String[5]: Array>)
0x75d07d3baa0  code target (LOAD_IC)  (0x75d07d28560)
0x75d07d3baa7  embedded object  (0x2540fea04189 <undefined>)
0x75d07d3bab1  position  (2467)
0x75d07d3bab4  position  (2470)
0x75d07d3bab7  position  (2473)
0x75d07d3baba  position  (2476)
0x75d07d3babd  position  (2479)
0x75d07d3bac0  position  (2461)
0x75d07d3bad0  code target (CALL_IC)  (0x75d07d2a800)
0x75d07d3bade  embedded object  (0x2540feaee169 Cell for 6144)
0x75d07d3baee  code target (BUILTIN)  (0x75d07d36940)
0x75d07d3baf5  embedded object  (0x2540feaee169 Cell for 6144)
0x75d07d3bb0b  statement position  (2484)

--- End code ---
--- Code ---
kind = HANDLER
major_key = <NoCache>Stub
name = LoadFastElementStub
compiler = crankshaft
Instructions (size = 204)
0x75d07d3bba0     0  488b7a0f       REX.W movq rdi,[rdx+0xf]
0x75d07d3bba4     4  448b421b       movl r8,[rdx+0x1b]
0x75d07d3bba8     8  4c8bc9         REX.W movq r9,rcx
0x75d07d3bbab    11  41f6c101       testb r9,0x1
0x75d07d3bbaf    15  0f8520000000   jnz 53  (0x75d07d3bbd5)
0x75d07d3bbb5    21  49c1e920       REX.W shrq r9, 32
0x75d07d3bbb9    25  453bc1         cmpl r8,r9
0x75d07d3bbbc    28  0f8646000000   jna 104  (0x75d07d3bc08)
0x75d07d3bbc2    34  4a8b7ccf0f     REX.W movq rdi,[rdi+r9*8+0xf]
0x75d07d3bbc7    39  40f6c701       testb rdi,0x1
0x75d07d3bbcb    43  0f8546000000   jnz 119  (0x75d07d3bc17)
0x75d07d3bbd1    49  488bc7         REX.W movq rax,rdi
0x75d07d3bbd4    52  c3             ret
0x75d07d3bbd5    53  4d8b5508       REX.W movq r10,[r13+0x8]
0x75d07d3bbd9    57  4d3951ff       REX.W cmpq [r9-0x1],r10
0x75d07d3bbdd    61  0f8543000000   jnz 134  (0x75d07d3bc26)
0x75d07d3bbe3    67  f2410f104107   movsd xmm0,[r9+0x7]
0x75d07d3bbe9    73  f2440f2cc8     cvttsd2sil r9,xmm0
0x75d07d3bbee    78  0f57c9         xorps xmm1,xmm1
0x75d07d3bbf1    81  f2410f2ac9     cvtsi2sd xmm1,r9
0x75d07d3bbf6    86  660f2ec1       ucomisd xmm0,xmm1
0x75d07d3bbfa    90  0f8526000000   jnz 134  (0x75d07d3bc26)
0x75d07d3bc00    96  0f8a20000000   jpe 134  (0x75d07d3bc26)
0x75d07d3bc06   102  ebb1           jmp 25  (0x75d07d3bbb9)
0x75d07d3bc08   104  49ba0060b0075d070000 REX.W movq r10,0x75d07b06000
0x75d07d3bc12   114  e81e000000     call 149  (0x75d07d3bc35)
0x75d07d3bc17   119  49ba0a60b0075d070000 REX.W movq r10,0x75d07b0600a
0x75d07d3bc21   129  e80f000000     call 149  (0x75d07d3bc35)
0x75d07d3bc26   134  49ba1460b0075d070000 REX.W movq r10,0x75d07b06014
0x75d07d3bc30   144  e800000000     call 149  (0x75d07d3bc35)
0x75d07d3bc35   149  4883ec10       REX.W subq rsp,0x10
0x75d07d3bc39   153  ff742410       push [rsp+0x10]
0x75d07d3bc3d   157  4152           push r10
0x75d07d3bc3f   159  4c8b55f8       REX.W movq r10,[rbp-0x8]
0x75d07d3bc43   163  4c89542418     REX.W movq [rsp+0x18],r10
0x75d07d3bc48   168  48896c2420     REX.W movq [rsp+0x20],rbp
0x75d07d3bc4d   173  488d6c2420     REX.W leaq rbp,[rsp+0x20]
0x75d07d3bc52   178  49ba0000000006000000 REX.W movq r10,0x600000000
0x75d07d3bc5c   188  4c89542410     REX.W movq [rsp+0x10],r10
0x75d07d3bc61   193  c3             ret
0x75d07d3bc62   194  6690           nop


Safepoints (size = 8)

RelocInfo (size = 0)

--- End code ---
--- Raw source ---
(num, cnt)
{
  return (num << cnt) | (num >>> (32 - cnt));
}


--- Code ---
source_position = 3794
kind = FUNCTION
name = rol
compiler = full-codegen
Instructions (size = 140)
0x75d07d3bd80     0  55             push rbp                 ;; debug: position 3794
0x75d07d3bd81     1  4889e5         REX.W movq rbp,rsp
0x75d07d3bd84     4  56             push rsi
0x75d07d3bd85     5  57             push rdi
0x75d07d3bd86     6  493ba548090000 REX.W cmpq rsp,[r13+0x948]
0x75d07d3bd8d    13  7305           jnc 20  (0x75d07d3bd94)
0x75d07d3bd8f    15  e8ecacffff     call StackCheck  (0x75d07d36a80)    ;; code: BUILTIN
0x75d07d3bd94    20  ff7518         push [rbp+0x18]          ;; debug: statement 3809
                                                             ;; debug: position 3817
0x75d07d3bd97    23  488b4510       REX.W movq rax,[rbp+0x10]    ;; debug: position 3824
0x75d07d3bd9b    27  5a             pop rdx                  ;; debug: position 3821
0x75d07d3bd9c    28  e81f78feff     call 0x75d07d235c0       ;; code: BINARY_OP_IC, UNINITIALIZED (id = 11)
0x75d07d3bda1    33  90             nop
0x75d07d3bda2    34  50             push rax
0x75d07d3bda3    35  ff7518         push [rbp+0x18]          ;; debug: position 3832
0x75d07d3bda6    38  49ba0000000020000000 REX.W movq r10,0x2000000000
0x75d07d3bdb0    48  4152           push r10
0x75d07d3bdb2    50  488b4510       REX.W movq rax,[rbp+0x10]    ;; debug: position 3846
0x75d07d3bdb6    54  5a             pop rdx                  ;; debug: position 3844
0x75d07d3bdb7    55  e884ccfcff     call 0x75d07d08a40       ;; code: BINARY_OP_IC, UNINITIALIZED (id = 28)
0x75d07d3bdbc    60  90             nop
0x75d07d3bdbd    61  5a             pop rdx                  ;; debug: position 3836
0x75d07d3bdbe    62  e8bd0dfdff     call 0x75d07d0cb80       ;; code: BINARY_OP_IC, UNINITIALIZED (id = 21)
0x75d07d3bdc3    67  90             nop
0x75d07d3bdc4    68  5a             pop rdx                  ;; debug: position 3829
0x75d07d3bdc5    69  e83638ffff     call 0x75d07d2f600       ;; code: BINARY_OP_IC, UNINITIALIZED (id = 7)
0x75d07d3bdca    74  90             nop
0x75d07d3bdcb    75  48bb39e6aefe40250000 REX.W movq rbx,0x2540feaee639    ;; object: 0x2540feaee639 Cell for 6144
0x75d07d3bdd5    85  83430bd1       addl [rbx+0xb],0xd1
0x75d07d3bdd9    89  791f           jns 122  (0x75d07d3bdfa)
0x75d07d3bddb    91  50             push rax
0x75d07d3bddc    92  e85fabffff     call InterruptCheck  (0x75d07d36940)    ;; code: BUILTIN
0x75d07d3bde1    97  58             pop rax
0x75d07d3bde2    98  48bb39e6aefe40250000 REX.W movq rbx,0x2540feaee639    ;; object: 0x2540feaee639 Cell for 6144
0x75d07d3bdec   108  49ba0000000000180000 REX.W movq r10,0x180000000000
0x75d07d3bdf6   118  4c895307       REX.W movq [rbx+0x7],r10
0x75d07d3bdfa   122  c9             leave                    ;; debug: statement 3853
0x75d07d3bdfb   123  c21800         ret 0x18
0x75d07d3bdfe   126  498b45a8       REX.W movq rax,[r13-0x58]
0x75d07d3be02   130  e9c4ffffff     jmp 75  (0x75d07d3bdcb)
0x75d07d3be07   135  90             nop

Deoptimization Output Data (deopt points = 0)

Back edges (size = 0)
ast_id  pc_offset  loop_depth

0x2540feaee681: [TypeFeedbackInfo]
 - ic_total_count: 4, ic_with_type_info_count: 0, ic_generic_count: 0

RelocInfo (size = 38)
0x75d07d3bd80  position  (3794)
0x75d07d3bd90  code target (BUILTIN)  (0x75d07d36a80)
0x75d07d3bd94  statement position  (3809)
0x75d07d3bd94  position  (3817)
0x75d07d3bd97  position  (3824)
0x75d07d3bd9b  position  (3821)
0x75d07d3bd9d  code target with id (BINARY_OP_IC)  (0x75d07d235c0) (id=11)
0x75d07d3bda3  position  (3832)
0x75d07d3bdb2  position  (3846)
0x75d07d3bdb6  position  (3844)
0x75d07d3bdb8  code target with id (BINARY_OP_IC)  (0x75d07d08a40) (id=28)
0x75d07d3bdbd  position  (3836)
0x75d07d3bdbf  code target with id (BINARY_OP_IC)  (0x75d07d0cb80) (id=21)
0x75d07d3bdc4  position  (3829)
0x75d07d3bdc6  code target with id (BINARY_OP_IC)  (0x75d07d2f600) (id=7)
0x75d07d3bdcd  embedded object  (0x2540feaee639 Cell for 6144)
0x75d07d3bddd  code target (BUILTIN)  (0x75d07d36940)
0x75d07d3bde4  embedded object  (0x2540feaee639 Cell for 6144)
0x75d07d3bdfa  statement position  (3853)

--- End code ---
--- Raw source ---
(t, b, c, d)
{
  if(t < 20) return (b & c) | ((~b) & d);
  if(t < 40) return b ^ c ^ d;
  if(t < 60) return (b & c) | (b & d) | (c & d);
  return b ^ c ^ d;
}


--- Code ---
source_position = 2595
kind = FUNCTION
name = sha1_ft
compiler = full-codegen
Instructions (size = 404)
0x75d07d3be80     0  55             push rbp                 ;; debug: position 2595
0x75d07d3be81     1  4889e5         REX.W movq rbp,rsp
0x75d07d3be84     4  56             push rsi
0x75d07d3be85     5  57             push rdi
0x75d07d3be86     6  493ba548090000 REX.W cmpq rsp,[r13+0x948]
0x75d07d3be8d    13  7305           jnc 20  (0x75d07d3be94)
0x75d07d3be8f    15  e8ecabffff     call StackCheck  (0x75d07d36a80)    ;; code: BUILTIN
0x75d07d3be94    20  ff7528         push [rbp+0x28]          ;; debug: statement 2612
                                                             ;; debug: position 2615
0x75d07d3be97    23  48b80000000014000000 REX.W movq rax,0x1400000000
0x75d07d3bea1    33  5a             pop rdx
0x75d07d3bea2    34  e8190afeff     call 0x75d07d1c8c0       ;; code: COMPARE_IC, UNINITIALIZED (id = 9)
0x75d07d3bea7    39  90             nop
0x75d07d3bea8    40  eb0f           jmp 57  (0x75d07d3beb9)
0x75d07d3beaa    42  493b45c0       REX.W cmpq rax,[r13-0x40]
0x75d07d3beae    46  0f840e000000   jz 66  (0x75d07d3bec2)
0x75d07d3beb4    52  e972000000     jmp 171  (0x75d07d3bf2b)
0x75d07d3beb9    57  4885c0         REX.W testq rax,rax
0x75d07d3bebc    60  0f8d69000000   jge 171  (0x75d07d3bf2b)
0x75d07d3bec2    66  ff7520         push [rbp+0x20]          ;; debug: statement 2623
                                                             ;; debug: position 2631
0x75d07d3bec5    69  488b4518       REX.W movq rax,[rbp+0x18]    ;; debug: position 2635
0x75d07d3bec9    73  5a             pop rdx                  ;; debug: position 2633
0x75d07d3beca    74  e83127feff     call 0x75d07d1e600       ;; code: BINARY_OP_IC, UNINITIALIZED (id = 23)
0x75d07d3becf    79  90             nop
0x75d07d3bed0    80  50             push rax
0x75d07d3bed1    81  ff7520         push [rbp+0x20]          ;; debug: position 2643
0x75d07d3bed4    84  48b800000000ffffffff REX.W movq rax,0xffffffff00000000
0x75d07d3bede    94  5a             pop rdx                  ;; debug: position 2642
0x75d07d3bedf    95  e87ccafeff     call 0x75d07d28960       ;; code: BINARY_OP_IC, UNINITIALIZED (id = 37)
0x75d07d3bee4   100  90             nop
0x75d07d3bee5   101  50             push rax
0x75d07d3bee6   102  488b4510       REX.W movq rax,[rbp+0x10]    ;; debug: position 2648
0x75d07d3beea   106  5a             pop rdx                  ;; debug: position 2646
0x75d07d3beeb   107  e81027feff     call 0x75d07d1e600       ;; code: BINARY_OP_IC, UNINITIALIZED (id = 33)
0x75d07d3bef0   112  90             nop
0x75d07d3bef1   113  5a             pop rdx                  ;; debug: position 2638
0x75d07d3bef2   114  e80937ffff     call 0x75d07d2f600       ;; code: BINARY_OP_IC, UNINITIALIZED (id = 19)
0x75d07d3bef7   119  90             nop
0x75d07d3bef8   120  48bb11e7aefe40250000 REX.W movq rbx,0x2540feaee711    ;; object: 0x2540feaee711 Cell for 6144
0x75d07d3bf02   130  83430bd1       addl [rbx+0xb],0xd1
0x75d07d3bf06   134  791f           jns 167  (0x75d07d3bf27)
0x75d07d3bf08   136  50             push rax
0x75d07d3bf09   137  e832aaffff     call InterruptCheck  (0x75d07d36940)    ;; code: BUILTIN
0x75d07d3bf0e   142  58             pop rax
0x75d07d3bf0f   143  48bb11e7aefe40250000 REX.W movq rbx,0x2540feaee711    ;; object: 0x2540feaee711 Cell for 6144
0x75d07d3bf19   153  49ba0000000000180000 REX.W movq r10,0x180000000000
0x75d07d3bf23   163  4c895307       REX.W movq [rbx+0x7],r10
0x75d07d3bf27   167  c9             leave                    ;; debug: statement 2752
0x75d07d3bf28   168  c22800         ret 0x28
0x75d07d3bf2b   171  ff7528         push [rbp+0x28]          ;; debug: statement 2654
                                                             ;; debug: position 2657
0x75d07d3bf2e   174  48b80000000028000000 REX.W movq rax,0x2800000000
0x75d07d3bf38   184  5a             pop rdx
0x75d07d3bf39   185  e88209feff     call 0x75d07d1c8c0       ;; code: COMPARE_IC, UNINITIALIZED (id = 52)
0x75d07d3bf3e   190  90             nop
0x75d07d3bf3f   191  eb0f           jmp 208  (0x75d07d3bf50)
0x75d07d3bf41   193  493b45c0       REX.W cmpq rax,[r13-0x40]
0x75d07d3bf45   197  0f840e000000   jz 217  (0x75d07d3bf59)
0x75d07d3bf4b   203  e928000000     jmp 248  (0x75d07d3bf78)
0x75d07d3bf50   208  4885c0         REX.W testq rax,rax
0x75d07d3bf53   211  0f8d1f000000   jge 248  (0x75d07d3bf78)
0x75d07d3bf59   217  ff7520         push [rbp+0x20]          ;; debug: statement 2665
                                                             ;; debug: position 2672
0x75d07d3bf5c   220  488b4518       REX.W movq rax,[rbp+0x18]    ;; debug: position 2676
0x75d07d3bf60   224  5a             pop rdx                  ;; debug: position 2674
0x75d07d3bf61   225  e8fac9feff     call 0x75d07d28960       ;; code: BINARY_OP_IC, UNINITIALIZED (id = 66)
0x75d07d3bf66   230  90             nop
0x75d07d3bf67   231  50             push rax
0x75d07d3bf68   232  488b4510       REX.W movq rax,[rbp+0x10]    ;; debug: position 2680
0x75d07d3bf6c   236  5a             pop rdx                  ;; debug: position 2678
0x75d07d3bf6d   237  e8eec9feff     call 0x75d07d28960       ;; code: BINARY_OP_IC, UNINITIALIZED (id = 62)
0x75d07d3bf72   242  90             nop
0x75d07d3bf73   243  e980ffffff     jmp 120  (0x75d07d3bef8)
0x75d07d3bf78   248  ff7528         push [rbp+0x28]          ;; debug: statement 2685
                                                             ;; debug: position 2688
0x75d07d3bf7b   251  48b8000000003c000000 REX.W movq rax,0x3c00000000
0x75d07d3bf85   261  5a             pop rdx
0x75d07d3bf86   262  e83509feff     call 0x75d07d1c8c0       ;; code: COMPARE_IC, UNINITIALIZED (id = 81)
0x75d07d3bf8b   267  90             nop
0x75d07d3bf8c   268  eb0f           jmp 285  (0x75d07d3bf9d)
0x75d07d3bf8e   270  493b45c0       REX.W cmpq rax,[r13-0x40]
0x75d07d3bf92   274  0f840e000000   jz 294  (0x75d07d3bfa6)
0x75d07d3bf98   280  e948000000     jmp 357  (0x75d07d3bfe5)
0x75d07d3bf9d   285  4885c0         REX.W testq rax,rax
0x75d07d3bfa0   288  0f8d3f000000   jge 357  (0x75d07d3bfe5)
0x75d07d3bfa6   294  ff7520         push [rbp+0x20]          ;; debug: statement 2696
                                                             ;; debug: position 2704
0x75d07d3bfa9   297  488b4518       REX.W movq rax,[rbp+0x18]    ;; debug: position 2708
0x75d07d3bfad   301  5a             pop rdx                  ;; debug: position 2706
0x75d07d3bfae   302  e84d26feff     call 0x75d07d1e600       ;; code: BINARY_OP_IC, UNINITIALIZED (id = 99)
0x75d07d3bfb3   307  90             nop
0x75d07d3bfb4   308  50             push rax
0x75d07d3bfb5   309  ff7520         push [rbp+0x20]          ;; debug: position 2714
0x75d07d3bfb8   312  488b4510       REX.W movq rax,[rbp+0x10]    ;; debug: position 2718
0x75d07d3bfbc   316  5a             pop rdx                  ;; debug: position 2716
0x75d07d3bfbd   317  e83e26feff     call 0x75d07d1e600       ;; code: BINARY_OP_IC, UNINITIALIZED (id = 109)
0x75d07d3bfc2   322  90             nop
0x75d07d3bfc3   323  5a             pop rdx                  ;; debug: position 2711
0x75d07d3bfc4   324  e83736ffff     call 0x75d07d2f600       ;; code: BINARY_OP_IC, UNINITIALIZED (id = 95)
0x75d07d3bfc9   329  90             nop
0x75d07d3bfca   330  50             push rax
0x75d07d3bfcb   331  ff7518         push [rbp+0x18]          ;; debug: position 2724
0x75d07d3bfce   334  488b4510       REX.W movq rax,[rbp+0x10]    ;; debug: position 2728
0x75d07d3bfd2   338  5a             pop rdx                  ;; debug: position 2726
0x75d07d3bfd3   339  e82826feff     call 0x75d07d1e600       ;; code: BINARY_OP_IC, UNINITIALIZED (id = 119)
0x75d07d3bfd8   344  90             nop
0x75d07d3bfd9   345  5a             pop rdx                  ;; debug: position 2721
0x75d07d3bfda   346  e82136ffff     call 0x75d07d2f600       ;; code: BINARY_OP_IC, UNINITIALIZED (id = 91)
0x75d07d3bfdf   351  90             nop
0x75d07d3bfe0   352  e913ffffff     jmp 120  (0x75d07d3bef8)
0x75d07d3bfe5   357  ff7520         push [rbp+0x20]          ;; debug: statement 2734
                                                             ;; debug: position 2741
0x75d07d3bfe8   360  488b4518       REX.W movq rax,[rbp+0x18]    ;; debug: position 2745
0x75d07d3bfec   364  5a             pop rdx                  ;; debug: position 2743
0x75d07d3bfed   365  e86ec9feff     call 0x75d07d28960       ;; code: BINARY_OP_IC, UNINITIALIZED (id = 133)
0x75d07d3bff2   370  90             nop
0x75d07d3bff3   371  50             push rax
0x75d07d3bff4   372  488b4510       REX.W movq rax,[rbp+0x10]    ;; debug: position 2749
0x75d07d3bff8   376  5a             pop rdx                  ;; debug: position 2747
0x75d07d3bff9   377  e862c9feff     call 0x75d07d28960       ;; code: BINARY_OP_IC, UNINITIALIZED (id = 129)
0x75d07d3bffe   382  90             nop
0x75d07d3bfff   383  e9f4feffff     jmp 120  (0x75d07d3bef8)
0x75d07d3c004   388  498b45a8       REX.W movq rax,[r13-0x58]
0x75d07d3c008   392  e9ebfeffff     jmp 120  (0x75d07d3bef8)
0x75d07d3c00d   397  0f1f00         nop

Deoptimization Output Data (deopt points = 0)

Back edges (size = 0)
ast_id  pc_offset  loop_depth

0x2540feaee7c1: [TypeFeedbackInfo]
 - ic_total_count: 16, ic_with_type_info_count: 0, ic_generic_count: 0

RelocInfo (size = 138)
0x75d07d3be80  position  (2595)
0x75d07d3be90  code target (BUILTIN)  (0x75d07d36a80)
0x75d07d3be94  statement position  (2612)
0x75d07d3be94  position  (2615)
0x75d07d3bea3  code target with id (COMPARE_IC)  (0x75d07d1c8c0) (id=9)
0x75d07d3bec2  statement position  (2623)
0x75d07d3bec2  position  (2631)
0x75d07d3bec5  position  (2635)
0x75d07d3bec9  position  (2633)
0x75d07d3becb  code target with id (BINARY_OP_IC)  (0x75d07d1e600) (id=23)
0x75d07d3bed1  position  (2643)
0x75d07d3bede  position  (2642)
0x75d07d3bee0  code target with id (BINARY_OP_IC)  (0x75d07d28960) (id=37)
0x75d07d3bee6  position  (2648)
0x75d07d3beea  position  (2646)
0x75d07d3beec  code target with id (BINARY_OP_IC)  (0x75d07d1e600) (id=33)
0x75d07d3bef1  position  (2638)
0x75d07d3bef3  code target with id (BINARY_OP_IC)  (0x75d07d2f600) (id=19)
0x75d07d3befa  embedded object  (0x2540feaee711 Cell for 6144)
0x75d07d3bf0a  code target (BUILTIN)  (0x75d07d36940)
0x75d07d3bf11  embedded object  (0x2540feaee711 Cell for 6144)
0x75d07d3bf27  statement position  (2752)
0x75d07d3bf2b  statement position  (2654)
0x75d07d3bf2b  position  (2657)
0x75d07d3bf3a  code target with id (COMPARE_IC)  (0x75d07d1c8c0) (id=52)
0x75d07d3bf59  statement position  (2665)
0x75d07d3bf59  position  (2672)
0x75d07d3bf5c  position  (2676)
0x75d07d3bf60  position  (2674)
0x75d07d3bf62  code target with id (BINARY_OP_IC)  (0x75d07d28960) (id=66)
0x75d07d3bf68  position  (2680)
0x75d07d3bf6c  position  (2678)
0x75d07d3bf6e  code target with id (BINARY_OP_IC)  (0x75d07d28960) (id=62)
0x75d07d3bf78  statement position  (2685)
0x75d07d3bf78  position  (2688)
0x75d07d3bf87  code target with id (COMPARE_IC)  (0x75d07d1c8c0) (id=81)
0x75d07d3bfa6  statement position  (2696)
0x75d07d3bfa6  position  (2704)
0x75d07d3bfa9  position  (2708)
0x75d07d3bfad  position  (2706)
0x75d07d3bfaf  code target with id (BINARY_OP_IC)  (0x75d07d1e600) (id=99)
0x75d07d3bfb5  position  (2714)
0x75d07d3bfb8  position  (2718)
0x75d07d3bfbc  position  (2716)
0x75d07d3bfbe  code target with id (BINARY_OP_IC)  (0x75d07d1e600) (id=109)
0x75d07d3bfc3  position  (2711)
0x75d07d3bfc5  code target with id (BINARY_OP_IC)  (0x75d07d2f600) (id=95)
0x75d07d3bfcb  position  (2724)
0x75d07d3bfce  position  (2728)
0x75d07d3bfd2  position  (2726)
0x75d07d3bfd4  code target with id (BINARY_OP_IC)  (0x75d07d1e600) (id=119)
0x75d07d3bfd9  position  (2721)
0x75d07d3bfdb  code target with id (BINARY_OP_IC)  (0x75d07d2f600) (id=91)
0x75d07d3bfe5  statement position  (2734)
0x75d07d3bfe5  position  (2741)
0x75d07d3bfe8  position  (2745)
0x75d07d3bfec  position  (2743)
0x75d07d3bfee  code target with id (BINARY_OP_IC)  (0x75d07d28960) (id=133)
0x75d07d3bff4  position  (2749)
0x75d07d3bff8  position  (2747)
0x75d07d3bffa  code target with id (BINARY_OP_IC)  (0x75d07d28960) (id=129)

--- End code ---
--- Raw source ---
(x, y)
{
  var lsw = (x & 0xFFFF) + (y & 0xFFFF);
  var msw = (x >> 16) + (y >> 16) + (lsw >> 16);
  return (msw << 16) | (lsw & 0xFFFF);
}


--- Code ---
source_position = 3587
kind = FUNCTION
name = safe_add
compiler = full-codegen
Instructions (size = 276)
0x75d07d3c080     0  55             push rbp                 ;; debug: position 3587
0x75d07d3c081     1  4889e5         REX.W movq rbp,rsp
0x75d07d3c084     4  56             push rsi
0x75d07d3c085     5  57             push rdi
0x75d07d3c086     6  498b55a8       REX.W movq rdx,[r13-0x58]
0x75d07d3c08a    10  52             push rdx
0x75d07d3c08b    11  52             push rdx
0x75d07d3c08c    12  493ba548090000 REX.W cmpq rsp,[r13+0x948]
0x75d07d3c093    19  7305           jnc 26  (0x75d07d3c09a)
0x75d07d3c095    21  e8e6a9ffff     call StackCheck  (0x75d07d36a80)    ;; code: BUILTIN
0x75d07d3c09a    26  ff7518         push [rbp+0x18]          ;; debug: statement 3598
                                                             ;; debug: position 3609
0x75d07d3c09d    29  48b800000000ffff0000 REX.W movq rax,0xffff00000000
0x75d07d3c0a7    39  5a             pop rdx                  ;; debug: position 3611
0x75d07d3c0a8    40  e85325feff     call 0x75d07d1e600       ;; code: BINARY_OP_IC, UNINITIALIZED (id = 27)
0x75d07d3c0ad    45  90             nop
0x75d07d3c0ae    46  50             push rax
0x75d07d3c0af    47  ff7510         push [rbp+0x10]          ;; debug: position 3624
0x75d07d3c0b2    50  48b800000000ffff0000 REX.W movq rax,0xffff00000000
0x75d07d3c0bc    60  5a             pop rdx                  ;; debug: position 3626
0x75d07d3c0bd    61  e83e25feff     call 0x75d07d1e600       ;; code: BINARY_OP_IC, UNINITIALIZED (id = 37)
0x75d07d3c0c2    66  90             nop
0x75d07d3c0c3    67  5a             pop rdx                  ;; debug: position 3621
0x75d07d3c0c4    68  e8b7c4fdff     call 0x75d07d18580       ;; code: BINARY_OP_IC, UNINITIALIZED (id = 23)
0x75d07d3c0c9    73  90             nop
0x75d07d3c0ca    74  488945e8       REX.W movq [rbp-0x18],rax    ;; debug: position 3598
0x75d07d3c0ce    78  ff7518         push [rbp+0x18]          ;; debug: statement 3639
                                                             ;; debug: position 3650
0x75d07d3c0d1    81  48b80000000010000000 REX.W movq rax,0x1000000000
0x75d07d3c0db    91  5a             pop rdx                  ;; debug: position 3652
0x75d07d3c0dc    92  e83f1effff     call 0x75d07d2df20       ;; code: BINARY_OP_IC, UNINITIALIZED (id = 65)
0x75d07d3c0e1    97  90             nop
0x75d07d3c0e2    98  50             push rax
0x75d07d3c0e3    99  ff7510         push [rbp+0x10]          ;; debug: position 3662
0x75d07d3c0e6   102  48b80000000010000000 REX.W movq rax,0x1000000000
0x75d07d3c0f0   112  5a             pop rdx                  ;; debug: position 3664
0x75d07d3c0f1   113  e82a1effff     call 0x75d07d2df20       ;; code: BINARY_OP_IC, UNINITIALIZED (id = 75)
0x75d07d3c0f6   118  90             nop
0x75d07d3c0f7   119  5a             pop rdx                  ;; debug: position 3659
0x75d07d3c0f8   120  e883c4fdff     call 0x75d07d18580       ;; code: BINARY_OP_IC, UNINITIALIZED (id = 61)
0x75d07d3c0fd   125  90             nop
0x75d07d3c0fe   126  50             push rax
0x75d07d3c0ff   127  ff75e8         push [rbp-0x18]          ;; debug: position 3674
0x75d07d3c102   130  48b80000000010000000 REX.W movq rax,0x1000000000
0x75d07d3c10c   140  5a             pop rdx                  ;; debug: position 3678
0x75d07d3c10d   141  e80e1effff     call 0x75d07d2df20       ;; code: BINARY_OP_IC, UNINITIALIZED (id = 85)
0x75d07d3c112   146  90             nop
0x75d07d3c113   147  5a             pop rdx                  ;; debug: position 3671
0x75d07d3c114   148  e867c4fdff     call 0x75d07d18580       ;; code: BINARY_OP_IC, UNINITIALIZED (id = 57)
0x75d07d3c119   153  90             nop
0x75d07d3c11a   154  488945e0       REX.W movq [rbp-0x20],rax    ;; debug: position 3639
0x75d07d3c11e   158  ff75e0         push [rbp-0x20]          ;; debug: statement 3688
                                                             ;; debug: position 3696
0x75d07d3c121   161  48b80000000010000000 REX.W movq rax,0x1000000000
0x75d07d3c12b   171  5a             pop rdx                  ;; debug: position 3700
0x75d07d3c12c   172  e88f74feff     call 0x75d07d235c0       ;; code: BINARY_OP_IC, UNINITIALIZED (id = 99)
0x75d07d3c131   177  90             nop
0x75d07d3c132   178  50             push rax
0x75d07d3c133   179  ff75e8         push [rbp-0x18]          ;; debug: position 3710
0x75d07d3c136   182  48b800000000ffff0000 REX.W movq rax,0xffff00000000
0x75d07d3c140   192  5a             pop rdx                  ;; debug: position 3714
0x75d07d3c141   193  e8ba24feff     call 0x75d07d1e600       ;; code: BINARY_OP_IC, UNINITIALIZED (id = 109)
0x75d07d3c146   198  90             nop
0x75d07d3c147   199  5a             pop rdx                  ;; debug: position 3707
0x75d07d3c148   200  e8b334ffff     call 0x75d07d2f600       ;; code: BINARY_OP_IC, UNINITIALIZED (id = 95)
0x75d07d3c14d   205  90             nop
0x75d07d3c14e   206  48bba1e8aefe40250000 REX.W movq rbx,0x2540feaee8a1    ;; object: 0x2540feaee8a1 Cell for 6144
0x75d07d3c158   216  83430bd1       addl [rbx+0xb],0xd1
0x75d07d3c15c   220  791f           jns 253  (0x75d07d3c17d)
0x75d07d3c15e   222  50             push rax
0x75d07d3c15f   223  e8dca7ffff     call InterruptCheck  (0x75d07d36940)    ;; code: BUILTIN
0x75d07d3c164   228  58             pop rax
0x75d07d3c165   229  48bba1e8aefe40250000 REX.W movq rbx,0x2540feaee8a1    ;; object: 0x2540feaee8a1 Cell for 6144
0x75d07d3c16f   239  49ba0000000000180000 REX.W movq r10,0x180000000000
0x75d07d3c179   249  4c895307       REX.W movq [rbx+0x7],r10
0x75d07d3c17d   253  c9             leave                    ;; debug: statement 3725
0x75d07d3c17e   254  c21800         ret 0x18
0x75d07d3c181   257  498b45a8       REX.W movq rax,[r13-0x58]
0x75d07d3c185   261  e9c4ffffff     jmp 206  (0x75d07d3c14e)
0x75d07d3c18a   266  660f1f440000   nop

Deoptimization Output Data (deopt points = 0)

Back edges (size = 0)
ast_id  pc_offset  loop_depth

0x2540feaee921: [TypeFeedbackInfo]
 - ic_total_count: 11, ic_with_type_info_count: 0, ic_generic_count: 0

RelocInfo (size = 96)
0x75d07d3c080  position  (3587)
0x75d07d3c096  code target (BUILTIN)  (0x75d07d36a80)
0x75d07d3c09a  statement position  (3598)
0x75d07d3c09a  position  (3609)
0x75d07d3c0a7  position  (3611)
0x75d07d3c0a9  code target with id (BINARY_OP_IC)  (0x75d07d1e600) (id=27)
0x75d07d3c0af  position  (3624)
0x75d07d3c0bc  position  (3626)
0x75d07d3c0be  code target with id (BINARY_OP_IC)  (0x75d07d1e600) (id=37)
0x75d07d3c0c3  position  (3621)
0x75d07d3c0c5  code target with id (BINARY_OP_IC)  (0x75d07d18580) (id=23)
0x75d07d3c0ca  position  (3598)
0x75d07d3c0ce  statement position  (3639)
0x75d07d3c0ce  position  (3650)
0x75d07d3c0db  position  (3652)
0x75d07d3c0dd  code target with id (BINARY_OP_IC)  (0x75d07d2df20) (id=65)
0x75d07d3c0e3  position  (3662)
0x75d07d3c0f0  position  (3664)
0x75d07d3c0f2  code target with id (BINARY_OP_IC)  (0x75d07d2df20) (id=75)
0x75d07d3c0f7  position  (3659)
0x75d07d3c0f9  code target with id (BINARY_OP_IC)  (0x75d07d18580) (id=61)
0x75d07d3c0ff  position  (3674)
0x75d07d3c10c  position  (3678)
0x75d07d3c10e  code target with id (BINARY_OP_IC)  (0x75d07d2df20) (id=85)
0x75d07d3c113  position  (3671)
0x75d07d3c115  code target with id (BINARY_OP_IC)  (0x75d07d18580) (id=57)
0x75d07d3c11a  position  (3639)
0x75d07d3c11e  statement position  (3688)
0x75d07d3c11e  position  (3696)
0x75d07d3c12b  position  (3700)
0x75d07d3c12d  code target with id (BINARY_OP_IC)  (0x75d07d235c0) (id=99)
0x75d07d3c133  position  (3710)
0x75d07d3c140  position  (3714)
0x75d07d3c142  code target with id (BINARY_OP_IC)  (0x75d07d1e600) (id=109)
0x75d07d3c147  position  (3707)
0x75d07d3c149  code target with id (BINARY_OP_IC)  (0x75d07d2f600) (id=95)
0x75d07d3c150  embedded object  (0x2540feaee8a1 Cell for 6144)
0x75d07d3c160  code target (BUILTIN)  (0x75d07d36940)
0x75d07d3c167  embedded object  (0x2540feaee8a1 Cell for 6144)
0x75d07d3c17d  statement position  (3725)

--- End code ---
--- Raw source ---
(t)
{
  return (t < 20) ?  1518500249 : (t < 40) ?  1859775393 :
         (t < 60) ? -1894007588 : -899497514;
}


--- Code ---
source_position = 2851
kind = FUNCTION
name = sha1_kt
compiler = full-codegen
Instructions (size = 332)
0x75d07d3c200     0  55             push rbp                 ;; debug: position 2851
0x75d07d3c201     1  4889e5         REX.W movq rbp,rsp
0x75d07d3c204     4  56             push rsi
0x75d07d3c205     5  57             push rdi
0x75d07d3c206     6  493ba548090000 REX.W cmpq rsp,[r13+0x948]
0x75d07d3c20d    13  7305           jnc 20  (0x75d07d3c214)
0x75d07d3c20f    15  e86ca8ffff     call StackCheck  (0x75d07d36a80)    ;; code: BUILTIN
0x75d07d3c214    20  ff7510         push [rbp+0x10]          ;; debug: statement 2859
                                                             ;; debug: position 2867
0x75d07d3c217    23  48b80000000014000000 REX.W movq rax,0x1400000000
0x75d07d3c221    33  5a             pop rdx
0x75d07d3c222    34  e89906feff     call 0x75d07d1c8c0       ;; code: COMPARE_IC, UNINITIALIZED (id = 10)
0x75d07d3c227    39  90             nop
0x75d07d3c228    40  eb0f           jmp 57  (0x75d07d3c239)
0x75d07d3c22a    42  493b45c0       REX.W cmpq rax,[r13-0x40]
0x75d07d3c22e    46  0f840e000000   jz 66  (0x75d07d3c242)
0x75d07d3c234    52  e925000000     jmp 94  (0x75d07d3c25e)
0x75d07d3c239    57  4885c0         REX.W testq rax,rax
0x75d07d3c23c    60  0f8d1c000000   jge 94  (0x75d07d3c25e)
0x75d07d3c242    66  48b800000000c59a092e REX.W movq rax,0x2e099ac500000000    ;; debug: position 2878
0x75d07d3c24c    76  49ba000000005ce38b74 REX.W movq r10,0x748be35c00000000
0x75d07d3c256    86  4933c2         REX.W xorq rax,r10
0x75d07d3c259    89  e9ab000000     jmp 265  (0x75d07d3c309)
0x75d07d3c25e    94  ff7510         push [rbp+0x10]          ;; debug: position 2892
0x75d07d3c261    97  48b80000000028000000 REX.W movq rax,0x2800000000
0x75d07d3c26b   107  5a             pop rdx
0x75d07d3c26c   108  e84f06feff     call 0x75d07d1c8c0       ;; code: COMPARE_IC, UNINITIALIZED (id = 26)
0x75d07d3c271   113  90             nop
0x75d07d3c272   114  eb0f           jmp 131  (0x75d07d3c283)
0x75d07d3c274   116  493b45c0       REX.W cmpq rax,[r13-0x40]
0x75d07d3c278   120  0f840e000000   jz 140  (0x75d07d3c28c)
0x75d07d3c27e   126  e925000000     jmp 168  (0x75d07d3c2a8)
0x75d07d3c283   131  4885c0         REX.W testq rax,rax
0x75d07d3c286   134  0f8d1c000000   jge 168  (0x75d07d3c2a8)
0x75d07d3c28c   140  48b800000000fd08521a REX.W movq rax,0x1a5208fd00000000    ;; debug: position 2903
0x75d07d3c296   150  49ba000000005ce38b74 REX.W movq r10,0x748be35c00000000
0x75d07d3c2a0   160  4933c2         REX.W xorq rax,r10
0x75d07d3c2a3   163  e961000000     jmp 265  (0x75d07d3c309)
0x75d07d3c2a8   168  ff7510         push [rbp+0x10]          ;; debug: position 2926
0x75d07d3c2ab   171  48b8000000003c000000 REX.W movq rax,0x3c00000000
0x75d07d3c2b5   181  5a             pop rdx
0x75d07d3c2b6   182  e80506feff     call 0x75d07d1c8c0       ;; code: COMPARE_IC, UNINITIALIZED (id = 42)
0x75d07d3c2bb   187  90             nop
0x75d07d3c2bc   188  eb0f           jmp 205  (0x75d07d3c2cd)
0x75d07d3c2be   190  493b45c0       REX.W cmpq rax,[r13-0x40]
0x75d07d3c2c2   194  0f840e000000   jz 214  (0x75d07d3c2d6)
0x75d07d3c2c8   200  e925000000     jmp 242  (0x75d07d3c2f2)
0x75d07d3c2cd   205  4885c0         REX.W testq rax,rax
0x75d07d3c2d0   208  0f8d1c000000   jge 242  (0x75d07d3c2f2)
0x75d07d3c2d6   214  48b800000000805f90fb REX.W movq rax,0xfb905f8000000000    ;; debug: position 2936
0x75d07d3c2e0   224  49ba000000005ce38b74 REX.W movq r10,0x748be35c00000000
0x75d07d3c2ea   234  4933c2         REX.W xorq rax,r10
0x75d07d3c2ed   237  e917000000     jmp 265  (0x75d07d3c309)
0x75d07d3c2f2   242  48b8000000008a22e9be REX.W movq rax,0xbee9228a00000000    ;; debug: position 2950
0x75d07d3c2fc   252  49ba000000005ce38b74 REX.W movq r10,0x748be35c00000000
0x75d07d3c306   262  4933c2         REX.W xorq rax,r10
0x75d07d3c309   265  48bbd9e9aefe40250000 REX.W movq rbx,0x2540feaee9d9    ;; object: 0x2540feaee9d9 Cell for 6144
0x75d07d3c313   275  83430bd1       addl [rbx+0xb],0xd1
0x75d07d3c317   279  791f           jns 312  (0x75d07d3c338)
0x75d07d3c319   281  50             push rax
0x75d07d3c31a   282  e821a6ffff     call InterruptCheck  (0x75d07d36940)    ;; code: BUILTIN
0x75d07d3c31f   287  58             pop rax
0x75d07d3c320   288  48bbd9e9aefe40250000 REX.W movq rbx,0x2540feaee9d9    ;; object: 0x2540feaee9d9 Cell for 6144
0x75d07d3c32a   298  49ba0000000000180000 REX.W movq r10,0x180000000000
0x75d07d3c334   308  4c895307       REX.W movq [rbx+0x7],r10
0x75d07d3c338   312  c9             leave                    ;; debug: statement 2962
0x75d07d3c339   313  c21000         ret 0x10
0x75d07d3c33c   316  498b45a8       REX.W movq rax,[r13-0x58]
0x75d07d3c340   320  e9c4ffffff     jmp 265  (0x75d07d3c309)
0x75d07d3c345   325  0f1f00         nop

Deoptimization Output Data (deopt points = 0)

Back edges (size = 0)
ast_id  pc_offset  loop_depth

0x2540feaeea21: [TypeFeedbackInfo]
 - ic_total_count: 3, ic_with_type_info_count: 0, ic_generic_count: 0

RelocInfo (size = 34)
0x75d07d3c200  position  (2851)
0x75d07d3c210  code target (BUILTIN)  (0x75d07d36a80)
0x75d07d3c214  statement position  (2859)
0x75d07d3c214  position  (2867)
0x75d07d3c223  code target with id (COMPARE_IC)  (0x75d07d1c8c0) (id=10)
0x75d07d3c242  position  (2878)
0x75d07d3c25e  position  (2892)
0x75d07d3c26d  code target with id (COMPARE_IC)  (0x75d07d1c8c0) (id=26)
0x75d07d3c28c  position  (2903)
0x75d07d3c2a8  position  (2926)
0x75d07d3c2b7  code target with id (COMPARE_IC)  (0x75d07d1c8c0) (id=42)
0x75d07d3c2d6  position  (2936)
0x75d07d3c2f2  position  (2950)
0x75d07d3c30b  embedded object  (0x2540feaee9d9 Cell for 6144)
0x75d07d3c31b  code target (BUILTIN)  (0x75d07d36940)
0x75d07d3c322  embedded object  (0x2540feaee9d9 Cell for 6144)
0x75d07d3c338  statement position  (2962)

--- End code ---
--- Raw source ---
(x, y)
{
  var lsw = (x & 0xFFFF) + (y & 0xFFFF);
  var msw = (x >> 16) + (y >> 16) + (lsw >> 16);
  return (msw << 16) | (lsw & 0xFFFF);
}


--- Code ---
source_position = 3587
kind = FUNCTION
name = safe_add
compiler = full-codegen
Instructions (size = 276)
0x75d07d3c3c0     0  55             push rbp                 ;; debug: position 3587
0x75d07d3c3c1     1  4889e5         REX.W movq rbp,rsp
0x75d07d3c3c4     4  56             push rsi
0x75d07d3c3c5     5  57             push rdi
0x75d07d3c3c6     6  498b55a8       REX.W movq rdx,[r13-0x58]
0x75d07d3c3ca    10  52             push rdx
0x75d07d3c3cb    11  52             push rdx
0x75d07d3c3cc    12  493ba548090000 REX.W cmpq rsp,[r13+0x948]
0x75d07d3c3d3    19  7305           jnc 26  (0x75d07d3c3da)
0x75d07d3c3d5    21  e8a6a6ffff     call StackCheck  (0x75d07d36a80)    ;; code: BUILTIN
0x75d07d3c3da    26  ff7518         push [rbp+0x18]          ;; debug: statement 3598
                                                             ;; debug: position 3609
0x75d07d3c3dd    29  48b800000000ffff0000 REX.W movq rax,0xffff00000000
0x75d07d3c3e7    39  5a             pop rdx                  ;; debug: position 3611
0x75d07d3c3e8    40  e81322feff     call 0x75d07d1e600       ;; code: BINARY_OP_IC, UNINITIALIZED (id = 27)
0x75d07d3c3ed    45  90             nop
0x75d07d3c3ee    46  50             push rax
0x75d07d3c3ef    47  ff7510         push [rbp+0x10]          ;; debug: position 3624
0x75d07d3c3f2    50  48b800000000ffff0000 REX.W movq rax,0xffff00000000
0x75d07d3c3fc    60  5a             pop rdx                  ;; debug: position 3626
0x75d07d3c3fd    61  e8fe21feff     call 0x75d07d1e600       ;; code: BINARY_OP_IC, UNINITIALIZED (id = 37)
0x75d07d3c402    66  90             nop
0x75d07d3c403    67  5a             pop rdx                  ;; debug: position 3621
0x75d07d3c404    68  e877c1fdff     call 0x75d07d18580       ;; code: BINARY_OP_IC, UNINITIALIZED (id = 23)
0x75d07d3c409    73  90             nop
0x75d07d3c40a    74  488945e8       REX.W movq [rbp-0x18],rax    ;; debug: position 3598
0x75d07d3c40e    78  ff7518         push [rbp+0x18]          ;; debug: statement 3639
                                                             ;; debug: position 3650
0x75d07d3c411    81  48b80000000010000000 REX.W movq rax,0x1000000000
0x75d07d3c41b    91  5a             pop rdx                  ;; debug: position 3652
0x75d07d3c41c    92  e8ff1affff     call 0x75d07d2df20       ;; code: BINARY_OP_IC, UNINITIALIZED (id = 65)
0x75d07d3c421    97  90             nop
0x75d07d3c422    98  50             push rax
0x75d07d3c423    99  ff7510         push [rbp+0x10]          ;; debug: position 3662
0x75d07d3c426   102  48b80000000010000000 REX.W movq rax,0x1000000000
0x75d07d3c430   112  5a             pop rdx                  ;; debug: position 3664
0x75d07d3c431   113  e8ea1affff     call 0x75d07d2df20       ;; code: BINARY_OP_IC, UNINITIALIZED (id = 75)
0x75d07d3c436   118  90             nop
0x75d07d3c437   119  5a             pop rdx                  ;; debug: position 3659
0x75d07d3c438   120  e843c1fdff     call 0x75d07d18580       ;; code: BINARY_OP_IC, UNINITIALIZED (id = 61)
0x75d07d3c43d   125  90             nop
0x75d07d3c43e   126  50             push rax
0x75d07d3c43f   127  ff75e8         push [rbp-0x18]          ;; debug: position 3674
0x75d07d3c442   130  48b80000000010000000 REX.W movq rax,0x1000000000
0x75d07d3c44c   140  5a             pop rdx                  ;; debug: position 3678
0x75d07d3c44d   141  e8ce1affff     call 0x75d07d2df20       ;; code: BINARY_OP_IC, UNINITIALIZED (id = 85)
0x75d07d3c452   146  90             nop
0x75d07d3c453   147  5a             pop rdx                  ;; debug: position 3671
0x75d07d3c454   148  e827c1fdff     call 0x75d07d18580       ;; code: BINARY_OP_IC, UNINITIALIZED (id = 57)
0x75d07d3c459   153  90             nop
0x75d07d3c45a   154  488945e0       REX.W movq [rbp-0x20],rax    ;; debug: position 3639
0x75d07d3c45e   158  ff75e0         push [rbp-0x20]          ;; debug: statement 3688
                                                             ;; debug: position 3696
0x75d07d3c461   161  48b80000000010000000 REX.W movq rax,0x1000000000
0x75d07d3c46b   171  5a             pop rdx                  ;; debug: position 3700
0x75d07d3c46c   172  e84f71feff     call 0x75d07d235c0       ;; code: BINARY_OP_IC, UNINITIALIZED (id = 99)
0x75d07d3c471   177  90             nop
0x75d07d3c472   178  50             push rax
0x75d07d3c473   179  ff75e8         push [rbp-0x18]          ;; debug: position 3710
0x75d07d3c476   182  48b800000000ffff0000 REX.W movq rax,0xffff00000000
0x75d07d3c480   192  5a             pop rdx                  ;; debug: position 3714
0x75d07d3c481   193  e87a21feff     call 0x75d07d1e600       ;; code: BINARY_OP_IC, UNINITIALIZED (id = 109)
0x75d07d3c486   198  90             nop
0x75d07d3c487   199  5a             pop rdx                  ;; debug: position 3707
0x75d07d3c488   200  e87331ffff     call 0x75d07d2f600       ;; code: BINARY_OP_IC, UNINITIALIZED (id = 95)
0x75d07d3c48d   205  90             nop
0x75d07d3c48e   206  48bb69ebaefe40250000 REX.W movq rbx,0x2540feaeeb69    ;; object: 0x2540feaeeb69 Cell for 6144
0x75d07d3c498   216  83430bd1       addl [rbx+0xb],0xd1
0x75d07d3c49c   220  791f           jns 253  (0x75d07d3c4bd)
0x75d07d3c49e   222  50             push rax
0x75d07d3c49f   223  e89ca4ffff     call InterruptCheck  (0x75d07d36940)    ;; code: BUILTIN
0x75d07d3c4a4   228  58             pop rax
0x75d07d3c4a5   229  48bb69ebaefe40250000 REX.W movq rbx,0x2540feaeeb69    ;; object: 0x2540feaeeb69 Cell for 6144
0x75d07d3c4af   239  49ba0000000000180000 REX.W movq r10,0x180000000000
0x75d07d3c4b9   249  4c895307       REX.W movq [rbx+0x7],r10
0x75d07d3c4bd   253  c9             leave                    ;; debug: statement 3725
0x75d07d3c4be   254  c21800         ret 0x18
0x75d07d3c4c1   257  498b45a8       REX.W movq rax,[r13-0x58]
0x75d07d3c4c5   261  e9c4ffffff     jmp 206  (0x75d07d3c48e)
0x75d07d3c4ca   266  660f1f440000   nop

Deoptimization Output Data (deopt points = 43)
ast id        pc  state
     1        12  NO_REGISTERS
     2        12  NO_REGISTERS
     3        12  NO_REGISTERS
    10        26  NO_REGISTERS
    30        26  NO_REGISTERS
    28        29  NO_REGISTERS
    31        39  TOS_REG
    24        47  NO_REGISTERS
    40        47  NO_REGISTERS
    38        50  NO_REGISTERS
    41        60  TOS_REG
    34        67  TOS_REG
    20        74  TOS_REG
    15        78  TOS_REG
    13        78  NO_REGISTERS
    11        78  NO_REGISTERS
    44        78  NO_REGISTERS
    68        78  NO_REGISTERS
    66        81  NO_REGISTERS
    69        91  TOS_REG
    62        99  NO_REGISTERS
    78        99  NO_REGISTERS
    76       102  NO_REGISTERS
    79       112  TOS_REG
    72       119  TOS_REG
    58       127  NO_REGISTERS
    88       127  NO_REGISTERS
    86       130  NO_REGISTERS
    89       140  TOS_REG
    82       147  TOS_REG
    54       154  TOS_REG
    49       158  TOS_REG
    47       158  NO_REGISTERS
    45       158  NO_REGISTERS
   102       158  NO_REGISTERS
   100       161  NO_REGISTERS
   103       171  TOS_REG
    96       179  NO_REGISTERS
   112       179  NO_REGISTERS
   110       182  NO_REGISTERS
   113       192  TOS_REG
   106       199  TOS_REG
    92       206  TOS_REG

Back edges (size = 0)
ast_id  pc_offset  loop_depth

0x2540feaeeea9: [TypeFeedbackInfo]
 - ic_total_count: 11, ic_with_type_info_count: 0, ic_generic_count: 0

RelocInfo (size = 96)
0x75d07d3c3c0  position  (3587)
0x75d07d3c3d6  code target (BUILTIN)  (0x75d07d36a80)
0x75d07d3c3da  statement position  (3598)
0x75d07d3c3da  position  (3609)
0x75d07d3c3e7  position  (3611)
0x75d07d3c3e9  code target with id (BINARY_OP_IC)  (0x75d07d1e600) (id=27)
0x75d07d3c3ef  position  (3624)
0x75d07d3c3fc  position  (3626)
0x75d07d3c3fe  code target with id (BINARY_OP_IC)  (0x75d07d1e600) (id=37)
0x75d07d3c403  position  (3621)
0x75d07d3c405  code target with id (BINARY_OP_IC)  (0x75d07d18580) (id=23)
0x75d07d3c40a  position  (3598)
0x75d07d3c40e  statement position  (3639)
0x75d07d3c40e  position  (3650)
0x75d07d3c41b  position  (3652)
0x75d07d3c41d  code target with id (BINARY_OP_IC)  (0x75d07d2df20) (id=65)
0x75d07d3c423  position  (3662)
0x75d07d3c430  position  (3664)
0x75d07d3c432  code target with id (BINARY_OP_IC)  (0x75d07d2df20) (id=75)
0x75d07d3c437  position  (3659)
0x75d07d3c439  code target with id (BINARY_OP_IC)  (0x75d07d18580) (id=61)
0x75d07d3c43f  position  (3674)
0x75d07d3c44c  position  (3678)
0x75d07d3c44e  code target with id (BINARY_OP_IC)  (0x75d07d2df20) (id=85)
0x75d07d3c453  position  (3671)
0x75d07d3c455  code target with id (BINARY_OP_IC)  (0x75d07d18580) (id=57)
0x75d07d3c45a  position  (3639)
0x75d07d3c45e  statement position  (3688)
0x75d07d3c45e  position  (3696)
0x75d07d3c46b  position  (3700)
0x75d07d3c46d  code target with id (BINARY_OP_IC)  (0x75d07d235c0) (id=99)
0x75d07d3c473  position  (3710)
0x75d07d3c480  position  (3714)
0x75d07d3c482  code target with id (BINARY_OP_IC)  (0x75d07d1e600) (id=109)
0x75d07d3c487  position  (3707)
0x75d07d3c489  code target with id (BINARY_OP_IC)  (0x75d07d2f600) (id=95)
0x75d07d3c490  embedded object  (0x2540feaeeb69 Cell for 6144)
0x75d07d3c4a0  code target (BUILTIN)  (0x75d07d36940)
0x75d07d3c4a7  embedded object  (0x2540feaeeb69 Cell for 6144)
0x75d07d3c4bd  statement position  (3725)

--- End code ---
--- Raw source ---
(num, cnt)
{
  return (num << cnt) | (num >>> (32 - cnt));
}


--- Code ---
source_position = 3794
kind = FUNCTION
name = rol
compiler = full-codegen
Instructions (size = 140)
0x75d07d3c540     0  55             push rbp                 ;; debug: position 3794
0x75d07d3c541     1  4889e5         REX.W movq rbp,rsp
0x75d07d3c544     4  56             push rsi
0x75d07d3c545     5  57             push rdi
0x75d07d3c546     6  493ba548090000 REX.W cmpq rsp,[r13+0x948]
0x75d07d3c54d    13  7305           jnc 20  (0x75d07d3c554)
0x75d07d3c54f    15  e82ca5ffff     call StackCheck  (0x75d07d36a80)    ;; code: BUILTIN
0x75d07d3c554    20  ff7518         push [rbp+0x18]          ;; debug: statement 3809
                                                             ;; debug: position 3817
0x75d07d3c557    23  488b4510       REX.W movq rax,[rbp+0x10]    ;; debug: position 3824
0x75d07d3c55b    27  5a             pop rdx                  ;; debug: position 3821
0x75d07d3c55c    28  e85f70feff     call 0x75d07d235c0       ;; code: BINARY_OP_IC, UNINITIALIZED (id = 11)
0x75d07d3c561    33  90             nop
0x75d07d3c562    34  50             push rax
0x75d07d3c563    35  ff7518         push [rbp+0x18]          ;; debug: position 3832
0x75d07d3c566    38  49ba0000000020000000 REX.W movq r10,0x2000000000
0x75d07d3c570    48  4152           push r10
0x75d07d3c572    50  488b4510       REX.W movq rax,[rbp+0x10]    ;; debug: position 3846
0x75d07d3c576    54  5a             pop rdx                  ;; debug: position 3844
0x75d07d3c577    55  e8c4c4fcff     call 0x75d07d08a40       ;; code: BINARY_OP_IC, UNINITIALIZED (id = 28)
0x75d07d3c57c    60  90             nop
0x75d07d3c57d    61  5a             pop rdx                  ;; debug: position 3836
0x75d07d3c57e    62  e8fd05fdff     call 0x75d07d0cb80       ;; code: BINARY_OP_IC, UNINITIALIZED (id = 21)
0x75d07d3c583    67  90             nop
0x75d07d3c584    68  5a             pop rdx                  ;; debug: position 3829
0x75d07d3c585    69  e87630ffff     call 0x75d07d2f600       ;; code: BINARY_OP_IC, UNINITIALIZED (id = 7)
0x75d07d3c58a    74  90             nop
0x75d07d3c58b    75  48bbc9eeaefe40250000 REX.W movq rbx,0x2540feaeeec9    ;; object: 0x2540feaeeec9 Cell for 6144
0x75d07d3c595    85  83430bd1       addl [rbx+0xb],0xd1
0x75d07d3c599    89  791f           jns 122  (0x75d07d3c5ba)
0x75d07d3c59b    91  50             push rax
0x75d07d3c59c    92  e89fa3ffff     call InterruptCheck  (0x75d07d36940)    ;; code: BUILTIN
0x75d07d3c5a1    97  58             pop rax
0x75d07d3c5a2    98  48bbc9eeaefe40250000 REX.W movq rbx,0x2540feaeeec9    ;; object: 0x2540feaeeec9 Cell for 6144
0x75d07d3c5ac   108  49ba0000000000180000 REX.W movq r10,0x180000000000
0x75d07d3c5b6   118  4c895307       REX.W movq [rbx+0x7],r10
0x75d07d3c5ba   122  c9             leave                    ;; debug: statement 3853
0x75d07d3c5bb   123  c21800         ret 0x18
0x75d07d3c5be   126  498b45a8       REX.W movq rax,[r13-0x58]
0x75d07d3c5c2   130  e9c4ffffff     jmp 75  (0x75d07d3c58b)
0x75d07d3c5c7   135  90             nop

Deoptimization Output Data (deopt points = 16)
ast id        pc  state
     1         6  NO_REGISTERS
     2         6  NO_REGISTERS
     3         6  NO_REGISTERS
    14        20  NO_REGISTERS
    12        23  NO_REGISTERS
    17        23  NO_REGISTERS
    15        27  TOS_REG
     8        35  NO_REGISTERS
    24        35  NO_REGISTERS
    22        38  NO_REGISTERS
    29        50  NO_REGISTERS
    34        50  NO_REGISTERS
    32        54  TOS_REG
    25        61  TOS_REG
    18        68  TOS_REG
     4        75  TOS_REG

Back edges (size = 0)
ast_id  pc_offset  loop_depth

0x2540feaef021: [TypeFeedbackInfo]
 - ic_total_count: 4, ic_with_type_info_count: 0, ic_generic_count: 0

RelocInfo (size = 38)
0x75d07d3c540  position  (3794)
0x75d07d3c550  code target (BUILTIN)  (0x75d07d36a80)
0x75d07d3c554  statement position  (3809)
0x75d07d3c554  position  (3817)
0x75d07d3c557  position  (3824)
0x75d07d3c55b  position  (3821)
0x75d07d3c55d  code target with id (BINARY_OP_IC)  (0x75d07d235c0) (id=11)
0x75d07d3c563  position  (3832)
0x75d07d3c572  position  (3846)
0x75d07d3c576  position  (3844)
0x75d07d3c578  code target with id (BINARY_OP_IC)  (0x75d07d08a40) (id=28)
0x75d07d3c57d  position  (3836)
0x75d07d3c57f  code target with id (BINARY_OP_IC)  (0x75d07d0cb80) (id=21)
0x75d07d3c584  position  (3829)
0x75d07d3c586  code target with id (BINARY_OP_IC)  (0x75d07d2f600) (id=7)
0x75d07d3c58d  embedded object  (0x2540feaeeec9 Cell for 6144)
0x75d07d3c59d  code target (BUILTIN)  (0x75d07d36940)
0x75d07d3c5a4  embedded object  (0x2540feaeeec9 Cell for 6144)
0x75d07d3c5ba  statement position  (3853)

--- End code ---
--- Raw source ---
(t, b, c, d)
{
  if(t < 20) return (b & c) | ((~b) & d);
  if(t < 40) return b ^ c ^ d;
  if(t < 60) return (b & c) | (b & d) | (c & d);
  return b ^ c ^ d;
}


--- Code ---
source_position = 2595
kind = FUNCTION
name = sha1_ft
compiler = full-codegen
Instructions (size = 404)
0x75d07d3c640     0  55             push rbp                 ;; debug: position 2595
0x75d07d3c641     1  4889e5         REX.W movq rbp,rsp
0x75d07d3c644     4  56             push rsi
0x75d07d3c645     5  57             push rdi
0x75d07d3c646     6  493ba548090000 REX.W cmpq rsp,[r13+0x948]
0x75d07d3c64d    13  7305           jnc 20  (0x75d07d3c654)
0x75d07d3c64f    15  e82ca4ffff     call StackCheck  (0x75d07d36a80)    ;; code: BUILTIN
0x75d07d3c654    20  ff7528         push [rbp+0x28]          ;; debug: statement 2612
                                                             ;; debug: position 2615
0x75d07d3c657    23  48b80000000014000000 REX.W movq rax,0x1400000000
0x75d07d3c661    33  5a             pop rdx
0x75d07d3c662    34  e85902feff     call 0x75d07d1c8c0       ;; code: COMPARE_IC, UNINITIALIZED (id = 9)
0x75d07d3c667    39  90             nop
0x75d07d3c668    40  eb0f           jmp 57  (0x75d07d3c679)
0x75d07d3c66a    42  493b45c0       REX.W cmpq rax,[r13-0x40]
0x75d07d3c66e    46  0f840e000000   jz 66  (0x75d07d3c682)
0x75d07d3c674    52  e972000000     jmp 171  (0x75d07d3c6eb)
0x75d07d3c679    57  4885c0         REX.W testq rax,rax
0x75d07d3c67c    60  0f8d69000000   jge 171  (0x75d07d3c6eb)
0x75d07d3c682    66  ff7520         push [rbp+0x20]          ;; debug: statement 2623
                                                             ;; debug: position 2631
0x75d07d3c685    69  488b4518       REX.W movq rax,[rbp+0x18]    ;; debug: position 2635
0x75d07d3c689    73  5a             pop rdx                  ;; debug: position 2633
0x75d07d3c68a    74  e8711ffeff     call 0x75d07d1e600       ;; code: BINARY_OP_IC, UNINITIALIZED (id = 23)
0x75d07d3c68f    79  90             nop
0x75d07d3c690    80  50             push rax
0x75d07d3c691    81  ff7520         push [rbp+0x20]          ;; debug: position 2643
0x75d07d3c694    84  48b800000000ffffffff REX.W movq rax,0xffffffff00000000
0x75d07d3c69e    94  5a             pop rdx                  ;; debug: position 2642
0x75d07d3c69f    95  e8bcc2feff     call 0x75d07d28960       ;; code: BINARY_OP_IC, UNINITIALIZED (id = 37)
0x75d07d3c6a4   100  90             nop
0x75d07d3c6a5   101  50             push rax
0x75d07d3c6a6   102  488b4510       REX.W movq rax,[rbp+0x10]    ;; debug: position 2648
0x75d07d3c6aa   106  5a             pop rdx                  ;; debug: position 2646
0x75d07d3c6ab   107  e8501ffeff     call 0x75d07d1e600       ;; code: BINARY_OP_IC, UNINITIALIZED (id = 33)
0x75d07d3c6b0   112  90             nop
0x75d07d3c6b1   113  5a             pop rdx                  ;; debug: position 2638
0x75d07d3c6b2   114  e8492fffff     call 0x75d07d2f600       ;; code: BINARY_OP_IC, UNINITIALIZED (id = 19)
0x75d07d3c6b7   119  90             nop
0x75d07d3c6b8   120  48bb41f0aefe40250000 REX.W movq rbx,0x2540feaef041    ;; object: 0x2540feaef041 Cell for 6144
0x75d07d3c6c2   130  83430bd1       addl [rbx+0xb],0xd1
0x75d07d3c6c6   134  791f           jns 167  (0x75d07d3c6e7)
0x75d07d3c6c8   136  50             push rax
0x75d07d3c6c9   137  e872a2ffff     call InterruptCheck  (0x75d07d36940)    ;; code: BUILTIN
0x75d07d3c6ce   142  58             pop rax
0x75d07d3c6cf   143  48bb41f0aefe40250000 REX.W movq rbx,0x2540feaef041    ;; object: 0x2540feaef041 Cell for 6144
0x75d07d3c6d9   153  49ba0000000000180000 REX.W movq r10,0x180000000000
0x75d07d3c6e3   163  4c895307       REX.W movq [rbx+0x7],r10
0x75d07d3c6e7   167  c9             leave                    ;; debug: statement 2752
0x75d07d3c6e8   168  c22800         ret 0x28
0x75d07d3c6eb   171  ff7528         push [rbp+0x28]          ;; debug: statement 2654
                                                             ;; debug: position 2657
0x75d07d3c6ee   174  48b80000000028000000 REX.W movq rax,0x2800000000
0x75d07d3c6f8   184  5a             pop rdx
0x75d07d3c6f9   185  e8c201feff     call 0x75d07d1c8c0       ;; code: COMPARE_IC, UNINITIALIZED (id = 52)
0x75d07d3c6fe   190  90             nop
0x75d07d3c6ff   191  eb0f           jmp 208  (0x75d07d3c710)
0x75d07d3c701   193  493b45c0       REX.W cmpq rax,[r13-0x40]
0x75d07d3c705   197  0f840e000000   jz 217  (0x75d07d3c719)
0x75d07d3c70b   203  e928000000     jmp 248  (0x75d07d3c738)
0x75d07d3c710   208  4885c0         REX.W testq rax,rax
0x75d07d3c713   211  0f8d1f000000   jge 248  (0x75d07d3c738)
0x75d07d3c719   217  ff7520         push [rbp+0x20]          ;; debug: statement 2665
                                                             ;; debug: position 2672
0x75d07d3c71c   220  488b4518       REX.W movq rax,[rbp+0x18]    ;; debug: position 2676
0x75d07d3c720   224  5a             pop rdx                  ;; debug: position 2674
0x75d07d3c721   225  e83ac2feff     call 0x75d07d28960       ;; code: BINARY_OP_IC, UNINITIALIZED (id = 66)
0x75d07d3c726   230  90             nop
0x75d07d3c727   231  50             push rax
0x75d07d3c728   232  488b4510       REX.W movq rax,[rbp+0x10]    ;; debug: position 2680
0x75d07d3c72c   236  5a             pop rdx                  ;; debug: position 2678
0x75d07d3c72d   237  e82ec2feff     call 0x75d07d28960       ;; code: BINARY_OP_IC, UNINITIALIZED (id = 62)
0x75d07d3c732   242  90             nop
0x75d07d3c733   243  e980ffffff     jmp 120  (0x75d07d3c6b8)
0x75d07d3c738   248  ff7528         push [rbp+0x28]          ;; debug: statement 2685
                                                             ;; debug: position 2688
0x75d07d3c73b   251  48b8000000003c000000 REX.W movq rax,0x3c00000000
0x75d07d3c745   261  5a             pop rdx
0x75d07d3c746   262  e87501feff     call 0x75d07d1c8c0       ;; code: COMPARE_IC, UNINITIALIZED (id = 81)
0x75d07d3c74b   267  90             nop
0x75d07d3c74c   268  eb0f           jmp 285  (0x75d07d3c75d)
0x75d07d3c74e   270  493b45c0       REX.W cmpq rax,[r13-0x40]
0x75d07d3c752   274  0f840e000000   jz 294  (0x75d07d3c766)
0x75d07d3c758   280  e948000000     jmp 357  (0x75d07d3c7a5)
0x75d07d3c75d   285  4885c0         REX.W testq rax,rax
0x75d07d3c760   288  0f8d3f000000   jge 357  (0x75d07d3c7a5)
0x75d07d3c766   294  ff7520         push [rbp+0x20]          ;; debug: statement 2696
                                                             ;; debug: position 2704
0x75d07d3c769   297  488b4518       REX.W movq rax,[rbp+0x18]    ;; debug: position 2708
0x75d07d3c76d   301  5a             pop rdx                  ;; debug: position 2706
0x75d07d3c76e   302  e88d1efeff     call 0x75d07d1e600       ;; code: BINARY_OP_IC, UNINITIALIZED (id = 99)
0x75d07d3c773   307  90             nop
0x75d07d3c774   308  50             push rax
0x75d07d3c775   309  ff7520         push [rbp+0x20]          ;; debug: position 2714
0x75d07d3c778   312  488b4510       REX.W movq rax,[rbp+0x10]    ;; debug: position 2718
0x75d07d3c77c   316  5a             pop rdx                  ;; debug: position 2716
0x75d07d3c77d   317  e87e1efeff     call 0x75d07d1e600       ;; code: BINARY_OP_IC, UNINITIALIZED (id = 109)
0x75d07d3c782   322  90             nop
0x75d07d3c783   323  5a             pop rdx                  ;; debug: position 2711
0x75d07d3c784   324  e8772effff     call 0x75d07d2f600       ;; code: BINARY_OP_IC, UNINITIALIZED (id = 95)
0x75d07d3c789   329  90             nop
0x75d07d3c78a   330  50             push rax
0x75d07d3c78b   331  ff7518         push [rbp+0x18]          ;; debug: position 2724
0x75d07d3c78e   334  488b4510       REX.W movq rax,[rbp+0x10]    ;; debug: position 2728
0x75d07d3c792   338  5a             pop rdx                  ;; debug: position 2726
0x75d07d3c793   339  e8681efeff     call 0x75d07d1e600       ;; code: BINARY_OP_IC, UNINITIALIZED (id = 119)
0x75d07d3c798   344  90             nop
0x75d07d3c799   345  5a             pop rdx                  ;; debug: position 2721
0x75d07d3c79a   346  e8612effff     call 0x75d07d2f600       ;; code: BINARY_OP_IC, UNINITIALIZED (id = 91)
0x75d07d3c79f   351  90             nop
0x75d07d3c7a0   352  e913ffffff     jmp 120  (0x75d07d3c6b8)
0x75d07d3c7a5   357  ff7520         push [rbp+0x20]          ;; debug: statement 2734
                                                             ;; debug: position 2741
0x75d07d3c7a8   360  488b4518       REX.W movq rax,[rbp+0x18]    ;; debug: position 2745
0x75d07d3c7ac   364  5a             pop rdx                  ;; debug: position 2743
0x75d07d3c7ad   365  e8aec1feff     call 0x75d07d28960       ;; code: BINARY_OP_IC, UNINITIALIZED (id = 133)
0x75d07d3c7b2   370  90             nop
0x75d07d3c7b3   371  50             push rax
0x75d07d3c7b4   372  488b4510       REX.W movq rax,[rbp+0x10]    ;; debug: position 2749
0x75d07d3c7b8   376  5a             pop rdx                  ;; debug: position 2747
0x75d07d3c7b9   377  e8a2c1feff     call 0x75d07d28960       ;; code: BINARY_OP_IC, UNINITIALIZED (id = 129)
0x75d07d3c7be   382  90             nop
0x75d07d3c7bf   383  e9f4feffff     jmp 120  (0x75d07d3c6b8)
0x75d07d3c7c4   388  498b45a8       REX.W movq rax,[r13-0x58]
0x75d07d3c7c8   392  e9ebfeffff     jmp 120  (0x75d07d3c6b8)
0x75d07d3c7cd   397  0f1f00         nop

Deoptimization Output Data (deopt points = 70)
ast id        pc  state
     1         6  NO_REGISTERS
     2         6  NO_REGISTERS
     3         6  NO_REGISTERS
    12        20  NO_REGISTERS
    10        23  NO_REGISTERS
    13        33  TOS_REG
     7        42  TOS_REG
     5        66  NO_REGISTERS
    26        66  NO_REGISTERS
    24        69  NO_REGISTERS
    29        69  NO_REGISTERS
    27        73  TOS_REG
    20        81  NO_REGISTERS
    40        81  NO_REGISTERS
    38        84  NO_REGISTERS
    41        94  TOS_REG
    34       102  NO_REGISTERS
    46       102  NO_REGISTERS
    44       106  TOS_REG
    30       113  TOS_REG
    16       120  TOS_REG
     6       171  NO_REGISTERS
     4       171  NO_REGISTERS
    55       171  NO_REGISTERS
    53       174  NO_REGISTERS
    56       184  TOS_REG
    50       193  TOS_REG
    48       217  NO_REGISTERS
    69       217  NO_REGISTERS
    67       220  NO_REGISTERS
    72       220  NO_REGISTERS
    70       224  TOS_REG
    63       232  NO_REGISTERS
    75       232  NO_REGISTERS
    73       236  TOS_REG
    59       243  TOS_REG
    49       248  NO_REGISTERS
    47       248  NO_REGISTERS
    84       248  NO_REGISTERS
    82       251  NO_REGISTERS
    85       261  TOS_REG
    79       270  TOS_REG
    77       294  NO_REGISTERS
   102       294  NO_REGISTERS
   100       297  NO_REGISTERS
   105       297  NO_REGISTERS
   103       301  TOS_REG
    96       309  NO_REGISTERS
   112       309  NO_REGISTERS
   110       312  NO_REGISTERS
   115       312  NO_REGISTERS
   113       316  TOS_REG
   106       323  TOS_REG
    92       331  NO_REGISTERS
   122       331  NO_REGISTERS
   120       334  NO_REGISTERS
   125       334  NO_REGISTERS
   123       338  TOS_REG
   116       345  TOS_REG
    88       352  TOS_REG
    78       357  NO_REGISTERS
    76       357  NO_REGISTERS
   136       357  NO_REGISTERS
   134       360  NO_REGISTERS
   139       360  NO_REGISTERS
   137       364  TOS_REG
   130       372  NO_REGISTERS
   142       372  NO_REGISTERS
   140       376  TOS_REG
   126       383  TOS_REG

Back edges (size = 0)
ast_id  pc_offset  loop_depth

0x2540feaef561: [TypeFeedbackInfo]
 - ic_total_count: 16, ic_with_type_info_count: 0, ic_generic_count: 0

RelocInfo (size = 138)
0x75d07d3c640  position  (2595)
0x75d07d3c650  code target (BUILTIN)  (0x75d07d36a80)
0x75d07d3c654  statement position  (2612)
0x75d07d3c654  position  (2615)
0x75d07d3c663  code target with id (COMPARE_IC)  (0x75d07d1c8c0) (id=9)
0x75d07d3c682  statement position  (2623)
0x75d07d3c682  position  (2631)
0x75d07d3c685  position  (2635)
0x75d07d3c689  position  (2633)
0x75d07d3c68b  code target with id (BINARY_OP_IC)  (0x75d07d1e600) (id=23)
0x75d07d3c691  position  (2643)
0x75d07d3c69e  position  (2642)
0x75d07d3c6a0  code target with id (BINARY_OP_IC)  (0x75d07d28960) (id=37)
0x75d07d3c6a6  position  (2648)
0x75d07d3c6aa  position  (2646)
0x75d07d3c6ac  code target with id (BINARY_OP_IC)  (0x75d07d1e600) (id=33)
0x75d07d3c6b1  position  (2638)
0x75d07d3c6b3  code target with id (BINARY_OP_IC)  (0x75d07d2f600) (id=19)
0x75d07d3c6ba  embedded object  (0x2540feaef041 Cell for 6144)
0x75d07d3c6ca  code target (BUILTIN)  (0x75d07d36940)
0x75d07d3c6d1  embedded object  (0x2540feaef041 Cell for 6144)
0x75d07d3c6e7  statement position  (2752)
0x75d07d3c6eb  statement position  (2654)
0x75d07d3c6eb  position  (2657)
0x75d07d3c6fa  code target with id (COMPARE_IC)  (0x75d07d1c8c0) (id=52)
0x75d07d3c719  statement position  (2665)
0x75d07d3c719  position  (2672)
0x75d07d3c71c  position  (2676)
0x75d07d3c720  position  (2674)
0x75d07d3c722  code target with id (BINARY_OP_IC)  (0x75d07d28960) (id=66)
0x75d07d3c728  position  (2680)
0x75d07d3c72c  position  (2678)
0x75d07d3c72e  code target with id (BINARY_OP_IC)  (0x75d07d28960) (id=62)
0x75d07d3c738  statement position  (2685)
0x75d07d3c738  position  (2688)
0x75d07d3c747  code target with id (COMPARE_IC)  (0x75d07d1c8c0) (id=81)
0x75d07d3c766  statement position  (2696)
0x75d07d3c766  position  (2704)
0x75d07d3c769  position  (2708)
0x75d07d3c76d  position  (2706)
0x75d07d3c76f  code target with id (BINARY_OP_IC)  (0x75d07d1e600) (id=99)
0x75d07d3c775  position  (2714)
0x75d07d3c778  position  (2718)
0x75d07d3c77c  position  (2716)
0x75d07d3c77e  code target with id (BINARY_OP_IC)  (0x75d07d1e600) (id=109)
0x75d07d3c783  position  (2711)
0x75d07d3c785  code target with id (BINARY_OP_IC)  (0x75d07d2f600) (id=95)
0x75d07d3c78b  position  (2724)
0x75d07d3c78e  position  (2728)
0x75d07d3c792  position  (2726)
0x75d07d3c794  code target with id (BINARY_OP_IC)  (0x75d07d1e600) (id=119)
0x75d07d3c799  position  (2721)
0x75d07d3c79b  code target with id (BINARY_OP_IC)  (0x75d07d2f600) (id=91)
0x75d07d3c7a5  statement position  (2734)
0x75d07d3c7a5  position  (2741)
0x75d07d3c7a8  position  (2745)
0x75d07d3c7ac  position  (2743)
0x75d07d3c7ae  code target with id (BINARY_OP_IC)  (0x75d07d28960) (id=133)
0x75d07d3c7b4  position  (2749)
0x75d07d3c7b8  position  (2747)
0x75d07d3c7ba  code target with id (BINARY_OP_IC)  (0x75d07d28960) (id=129)

--- End code ---
--- Raw source ---
(x, y)
{
  var lsw = (x & 0xFFFF) + (y & 0xFFFF);
  var msw = (x >> 16) + (y >> 16) + (lsw >> 16);
  return (msw << 16) | (lsw & 0xFFFF);
}


--- Optimized code ---
optimization_id = 0
source_position = 3587
kind = OPTIMIZED_FUNCTION
name = safe_add
stack_slots = 1
compiler = crankshaft
Instructions (size = 351)
0x75d07d3c9c0     0  55             push rbp
0x75d07d3c9c1     1  4889e5         REX.W movq rbp,rsp
0x75d07d3c9c4     4  56             push rsi
0x75d07d3c9c5     5  57             push rdi
0x75d07d3c9c6     6  4883ec08       REX.W subq rsp,0x8
0x75d07d3c9ca    10  488b45f8       REX.W movq rax,[rbp-0x8]
0x75d07d3c9ce    14  488945e8       REX.W movq [rbp-0x18],rax
0x75d07d3c9d2    18  488bf0         REX.W movq rsi,rax
0x75d07d3c9d5    21  6690           nop
0x75d07d3c9d7    23  493ba548090000 REX.W cmpq rsp,[r13+0x948]
0x75d07d3c9de    30  7305           jnc 37  (0x75d07d3c9e5)
0x75d07d3c9e0    32  e89ba0ffff     call StackCheck  (0x75d07d36a80)    ;; code: BUILTIN
0x75d07d3c9e5    37  488b4518       REX.W movq rax,[rbp+0x18]
0x75d07d3c9e9    41  a801           test al,0x1              ;; debug: position 3611
0x75d07d3c9eb    43  0f8551000000   jnz 130  (0x75d07d3ca42)
0x75d07d3c9f1    49  48c1e820       REX.W shrq rax, 32
0x75d07d3c9f5    53  488bd8         REX.W movq rbx,rax
0x75d07d3c9f8    56  81e3ffff0000   andl rbx,0xffff
0x75d07d3c9fe    62  488b5510       REX.W movq rdx,[rbp+0x10]
0x75d07d3ca02    66  f6c201         testb rdx,0x1            ;; debug: position 3626
0x75d07d3ca05    69  0f8595000000   jnz 224  (0x75d07d3caa0)
0x75d07d3ca0b    75  48c1ea20       REX.W shrq rdx, 32
0x75d07d3ca0f    79  488bca         REX.W movq rcx,rdx
0x75d07d3ca12    82  81e1ffff0000   andl rcx,0xffff
0x75d07d3ca18    88  03cb           addl rcx,rbx             ;; debug: position 3621
0x75d07d3ca1a    90  c1f810         sarl rax, 16             ;; debug: position 3652
0x75d07d3ca1d    93  c1fa10         sarl rdx, 16             ;; debug: position 3664
0x75d07d3ca20    96  03d0           addl rdx,rax             ;; debug: position 3659
0x75d07d3ca22    98  488bc1         REX.W movq rax,rcx
0x75d07d3ca25   101  c1f810         sarl rax, 16             ;; debug: position 3678
0x75d07d3ca28   104  03c2           addl rax,rdx             ;; debug: position 3671
0x75d07d3ca2a   106  c1e010         shll rax, 16             ;; debug: position 3700
0x75d07d3ca2d   109  81e1ffff0000   andl rcx,0xffff          ;; debug: position 3714
0x75d07d3ca33   115  0bc8           orl rcx,rax              ;; debug: position 3707
0x75d07d3ca35   117  8bc1           movl rax,rcx
0x75d07d3ca37   119  48c1e020       REX.W shlq rax, 32
0x75d07d3ca3b   123  488be5         REX.W movq rsp,rbp
0x75d07d3ca3e   126  5d             pop rbp
0x75d07d3ca3f   127  c21800         ret 0x18
0x75d07d3ca42   130  4d8b5508       REX.W movq r10,[r13+0x8]    ;; debug: position 3611
0x75d07d3ca46   134  4c3950ff       REX.W cmpq [rax-0x1],r10
0x75d07d3ca4a   138  7526           jnz 178  (0x75d07d3ca72)
0x75d07d3ca4c   140  f20f104007     movsd xmm0,[rax+0x7]
0x75d07d3ca51   145  f2480f2cc0     REX.W cvttsd2siq rax,xmm0
0x75d07d3ca56   150  4883f801       REX.W cmpq rax,0x1
0x75d07d3ca5a   154  7112           jno 174  (0x75d07d3ca6e)
0x75d07d3ca5c   156  4883ec08       REX.W subq rsp,0x8
0x75d07d3ca60   160  f20f110424     movsd [rsp],xmm0
0x75d07d3ca65   165  e8d6fdffff     call 0x75d07d3c840       ;; code: STUB, DoubleToIStub, minor: 135172
0x75d07d3ca6a   170  4883c408       REX.W addq rsp,0x8
0x75d07d3ca6e   174  8bc0           movl rax,rax
0x75d07d3ca70   176  eb83           jmp 53  (0x75d07d3c9f5)
0x75d07d3ca72   178  493b45a8       REX.W cmpq rax,[r13-0x58]
0x75d07d3ca76   182  7507           jnz 191  (0x75d07d3ca7f)
0x75d07d3ca78   184  33c0           xorl rax,rax
0x75d07d3ca7a   186  e976ffffff     jmp 53  (0x75d07d3c9f5)
0x75d07d3ca7f   191  493b45c0       REX.W cmpq rax,[r13-0x40]
0x75d07d3ca83   195  750a           jnz 207  (0x75d07d3ca8f)
0x75d07d3ca85   197  b801000000     movl rax,0x1
0x75d07d3ca8a   202  e966ffffff     jmp 53  (0x75d07d3c9f5)
0x75d07d3ca8f   207  493b45c8       REX.W cmpq rax,[r13-0x38]
0x75d07d3ca93   211  0f8568000000   jnz 321  (0x75d07d3cb01)
0x75d07d3ca99   217  33c0           xorl rax,rax
0x75d07d3ca9b   219  e955ffffff     jmp 53  (0x75d07d3c9f5)
0x75d07d3caa0   224  4d8b5508       REX.W movq r10,[r13+0x8]    ;; debug: position 3626
0x75d07d3caa4   228  4c3952ff       REX.W cmpq [rdx-0x1],r10
0x75d07d3caa8   232  7529           jnz 275  (0x75d07d3cad3)
0x75d07d3caaa   234  f20f104207     movsd xmm0,[rdx+0x7]
0x75d07d3caaf   239  f2480f2cd0     REX.W cvttsd2siq rdx,xmm0
0x75d07d3cab4   244  4883fa01       REX.W cmpq rdx,0x1
0x75d07d3cab8   248  7112           jno 268  (0x75d07d3cacc)
0x75d07d3caba   250  4883ec08       REX.W subq rsp,0x8
0x75d07d3cabe   254  f20f110424     movsd [rsp],xmm0
0x75d07d3cac3   259  e838feffff     call 0x75d07d3c900       ;; code: STUB, DoubleToIStub, minor: 135300
0x75d07d3cac8   264  4883c408       REX.W addq rsp,0x8
0x75d07d3cacc   268  8bd2           movl rdx,rdx
0x75d07d3cace   270  e93cffffff     jmp 79  (0x75d07d3ca0f)
0x75d07d3cad3   275  493b55a8       REX.W cmpq rdx,[r13-0x58]
0x75d07d3cad7   279  7507           jnz 288  (0x75d07d3cae0)
0x75d07d3cad9   281  33d2           xorl rdx,rdx
0x75d07d3cadb   283  e92fffffff     jmp 79  (0x75d07d3ca0f)
0x75d07d3cae0   288  493b55c0       REX.W cmpq rdx,[r13-0x40]
0x75d07d3cae4   292  750a           jnz 304  (0x75d07d3caf0)
0x75d07d3cae6   294  ba01000000     movl rdx,0x1
0x75d07d3caeb   299  e91fffffff     jmp 79  (0x75d07d3ca0f)
0x75d07d3caf0   304  493b55c8       REX.W cmpq rdx,[r13-0x38]
0x75d07d3caf4   308  0f850c000000   jnz 326  (0x75d07d3cb06)
0x75d07d3cafa   314  33d2           xorl rdx,rdx
0x75d07d3cafc   316  e90effffff     jmp 79  (0x75d07d3ca0f)
0x75d07d3cb01   321  e80e95ccff     call 0x75d07a06014       ;; deoptimization bailout 2
0x75d07d3cb06   326  e81395ccff     call 0x75d07a0601e       ;; deoptimization bailout 3
0x75d07d3cb0b   331  90             nop

Inlined functions (count = 0)

Deoptimization Input Data (deopt points = 4)
 index  ast id    argc     pc
     0       1       0     10
     1       3       0     37
     2       3       0     -1
     3       3       0     -1

Safepoints (size = 19)
0x75d07d3c9e5    37  1 (sp -> fp)       1

RelocInfo (size = 41)
0x75d07d3c9e1  code target (BUILTIN)  (0x75d07d36a80)
0x75d07d3c9e9  position  (3611)
0x75d07d3ca02  position  (3626)
0x75d07d3ca18  position  (3621)
0x75d07d3ca1a  position  (3652)
0x75d07d3ca1d  position  (3664)
0x75d07d3ca20  position  (3659)
0x75d07d3ca25  position  (3678)
0x75d07d3ca28  position  (3671)
0x75d07d3ca2a  position  (3700)
0x75d07d3ca2d  position  (3714)
0x75d07d3ca33  position  (3707)
0x75d07d3ca42  position  (3611)
0x75d07d3ca66  code target (STUB)  (0x75d07d3c840)
0x75d07d3caa0  position  (3626)
0x75d07d3cac4  code target (STUB)  (0x75d07d3c900)
0x75d07d3cb02  runtime entry  (deoptimization bailout 2)
0x75d07d3cb07  runtime entry  (deoptimization bailout 3)

--- End code ---
--- Raw source ---
(num, cnt)
{
  return (num << cnt) | (num >>> (32 - cnt));
}


--- Optimized code ---
optimization_id = 1
source_position = 3794
kind = OPTIMIZED_FUNCTION
name = rol
stack_slots = 1
compiler = crankshaft
Instructions (size = 391)
0x75d07d3cc40     0  55             push rbp
0x75d07d3cc41     1  4889e5         REX.W movq rbp,rsp
0x75d07d3cc44     4  56             push rsi
0x75d07d3cc45     5  57             push rdi
0x75d07d3cc46     6  4883ec08       REX.W subq rsp,0x8
0x75d07d3cc4a    10  488b45f8       REX.W movq rax,[rbp-0x8]
0x75d07d3cc4e    14  488945e8       REX.W movq [rbp-0x18],rax
0x75d07d3cc52    18  488bf0         REX.W movq rsi,rax
0x75d07d3cc55    21  6690           nop
0x75d07d3cc57    23  493ba548090000 REX.W cmpq rsp,[r13+0x948]
0x75d07d3cc5e    30  7305           jnc 37  (0x75d07d3cc65)
0x75d07d3cc60    32  e81b9effff     call StackCheck  (0x75d07d36a80)    ;; code: BUILTIN
0x75d07d3cc65    37  488b4518       REX.W movq rax,[rbp+0x18]
0x75d07d3cc69    41  a801           test al,0x1              ;; debug: position 3821
0x75d07d3cc6b    43  0f8542000000   jnz 115  (0x75d07d3ccb3)
0x75d07d3cc71    49  48c1e820       REX.W shrq rax, 32
0x75d07d3cc75    53  488b5d10       REX.W movq rbx,[rbp+0x10]
0x75d07d3cc79    57  f6c301         testb rbx,0x1
0x75d07d3cc7c    60  0f858c000000   jnz 206  (0x75d07d3cd0e)
0x75d07d3cc82    66  48c1eb20       REX.W shrq rbx, 32
0x75d07d3cc86    70  488b5d10       REX.W movq rbx,[rbp+0x10]
0x75d07d3cc8a    74  f6c301         testb rbx,0x1            ;; debug: position 3844
0x75d07d3cc8d    77  0f85dc000000   jnz 303  (0x75d07d3cd6f)
0x75d07d3cc93    83  48c1eb20       REX.W shrq rbx, 32
0x75d07d3cc97    87  ba20000000     movl rdx,0x20            ;; debug: position 3821
0x75d07d3cc9c    92  2bd3           subl rdx,rbx             ;; debug: position 3844
0x75d07d3cc9e    94  488bca         REX.W movq rcx,rdx
0x75d07d3cca1    97  d3c8           rorl rax, cl             ;; debug: position 3829
0x75d07d3cca3    99  8bd8           movl rbx,rax
0x75d07d3cca5   101  48c1e320       REX.W shlq rbx, 32
0x75d07d3cca9   105  488bc3         REX.W movq rax,rbx
0x75d07d3ccac   108  488be5         REX.W movq rsp,rbp
0x75d07d3ccaf   111  5d             pop rbp
0x75d07d3ccb0   112  c21800         ret 0x18
0x75d07d3ccb3   115  4d8b5508       REX.W movq r10,[r13+0x8]    ;; debug: position 3821
0x75d07d3ccb7   119  4c3950ff       REX.W cmpq [rax-0x1],r10
0x75d07d3ccbb   123  7526           jnz 163  (0x75d07d3cce3)
0x75d07d3ccbd   125  f20f104007     movsd xmm0,[rax+0x7]
0x75d07d3ccc2   130  f2480f2cc0     REX.W cvttsd2siq rax,xmm0
0x75d07d3ccc7   135  4883f801       REX.W cmpq rax,0x1
0x75d07d3cccb   139  7112           jno 159  (0x75d07d3ccdf)
0x75d07d3cccd   141  4883ec08       REX.W subq rsp,0x8
0x75d07d3ccd1   145  f20f110424     movsd [rsp],xmm0
0x75d07d3ccd6   150  e865fbffff     call 0x75d07d3c840       ;; code: STUB, DoubleToIStub, minor: 135172
0x75d07d3ccdb   155  4883c408       REX.W addq rsp,0x8
0x75d07d3ccdf   159  8bc0           movl rax,rax
0x75d07d3cce1   161  eb92           jmp 53  (0x75d07d3cc75)
0x75d07d3cce3   163  493b45a8       REX.W cmpq rax,[r13-0x58]
0x75d07d3cce7   167  7504           jnz 173  (0x75d07d3cced)
0x75d07d3cce9   169  33c0           xorl rax,rax
0x75d07d3cceb   171  eb88           jmp 53  (0x75d07d3cc75)
0x75d07d3cced   173  493b45c0       REX.W cmpq rax,[r13-0x40]
0x75d07d3ccf1   177  750a           jnz 189  (0x75d07d3ccfd)
0x75d07d3ccf3   179  b801000000     movl rax,0x1
0x75d07d3ccf8   184  e978ffffff     jmp 53  (0x75d07d3cc75)
0x75d07d3ccfd   189  493b45c8       REX.W cmpq rax,[r13-0x38]
0x75d07d3cd01   193  0f859b000000   jnz 354  (0x75d07d3cda2)
0x75d07d3cd07   199  33c0           xorl rax,rax
0x75d07d3cd09   201  e967ffffff     jmp 53  (0x75d07d3cc75)
0x75d07d3cd0e   206  4d8b5508       REX.W movq r10,[r13+0x8]
0x75d07d3cd12   210  4c3953ff       REX.W cmpq [rbx-0x1],r10
0x75d07d3cd16   214  7529           jnz 257  (0x75d07d3cd41)
0x75d07d3cd18   216  f20f104307     movsd xmm0,[rbx+0x7]
0x75d07d3cd1d   221  f2480f2cd8     REX.W cvttsd2siq rbx,xmm0
0x75d07d3cd22   226  4883fb01       REX.W cmpq rbx,0x1
0x75d07d3cd26   230  7112           jno 250  (0x75d07d3cd3a)
0x75d07d3cd28   232  4883ec08       REX.W subq rsp,0x8
0x75d07d3cd2c   236  f20f110424     movsd [rsp],xmm0
0x75d07d3cd31   241  e84afeffff     call 0x75d07d3cb80       ;; code: STUB, DoubleToIStub, minor: 135364
0x75d07d3cd36   246  4883c408       REX.W addq rsp,0x8
0x75d07d3cd3a   250  8bdb           movl rbx,rbx
0x75d07d3cd3c   252  e945ffffff     jmp 70  (0x75d07d3cc86)
0x75d07d3cd41   257  493b5da8       REX.W cmpq rbx,[r13-0x58]
0x75d07d3cd45   261  7507           jnz 270  (0x75d07d3cd4e)
0x75d07d3cd47   263  33db           xorl rbx,rbx
0x75d07d3cd49   265  e938ffffff     jmp 70  (0x75d07d3cc86)
0x75d07d3cd4e   270  493b5dc0       REX.W cmpq rbx,[r13-0x40]
0x75d07d3cd52   274  750a           jnz 286  (0x75d07d3cd5e)
0x75d07d3cd54   276  bb01000000     movl rbx,0x1
0x75d07d3cd59   281  e928ffffff     jmp 70  (0x75d07d3cc86)
0x75d07d3cd5e   286  493b5dc8       REX.W cmpq rbx,[r13-0x38]
0x75d07d3cd62   290  0f853f000000   jnz 359  (0x75d07d3cda7)
0x75d07d3cd68   296  33db           xorl rbx,rbx
0x75d07d3cd6a   298  e917ffffff     jmp 70  (0x75d07d3cc86)
0x75d07d3cd6f   303  4d8b5508       REX.W movq r10,[r13+0x8]    ;; debug: position 3844
0x75d07d3cd73   307  4c3953ff       REX.W cmpq [rbx-0x1],r10
0x75d07d3cd77   311  0f852f000000   jnz 364  (0x75d07d3cdac)
0x75d07d3cd7d   317  f20f104307     movsd xmm0,[rbx+0x7]
0x75d07d3cd82   322  f20f2cd8       cvttsd2sil rbx,xmm0
0x75d07d3cd86   326  0f57c9         xorps xmm1,xmm1
0x75d07d3cd89   329  f20f2acb       cvtsi2sd xmm1,rbx
0x75d07d3cd8d   333  660f2ec1       ucomisd xmm0,xmm1
0x75d07d3cd91   337  0f8515000000   jnz 364  (0x75d07d3cdac)
0x75d07d3cd97   343  0f8a0f000000   jpe 364  (0x75d07d3cdac)
0x75d07d3cd9d   349  e9f5feffff     jmp 87  (0x75d07d3cc97)
0x75d07d3cda2   354  e86d92ccff     call 0x75d07a06014       ;; deoptimization bailout 2
0x75d07d3cda7   359  e87292ccff     call 0x75d07a0601e       ;; deoptimization bailout 3
0x75d07d3cdac   364  e87792ccff     call 0x75d07a06028       ;; deoptimization bailout 4
0x75d07d3cdb1   369  0f1f00         nop

Inlined functions (count = 0)

Deoptimization Input Data (deopt points = 5)
 index  ast id    argc     pc
     0       1       0     10
     1       3       0     37
     2       3       0     -1
     3       3       0     -1
     4       3       0     -1

Safepoints (size = 19)
0x75d07d3cc65    37  1 (sp -> fp)       1

RelocInfo (size = 29)
0x75d07d3cc61  code target (BUILTIN)  (0x75d07d36a80)
0x75d07d3cc69  position  (3821)
0x75d07d3cc8a  position  (3844)
0x75d07d3cc97  position  (3821)
0x75d07d3cc9c  position  (3844)
0x75d07d3cca1  position  (3829)
0x75d07d3ccb3  position  (3821)
0x75d07d3ccd7  code target (STUB)  (0x75d07d3c840)
0x75d07d3cd32  code target (STUB)  (0x75d07d3cb80)
0x75d07d3cd6f  position  (3844)
0x75d07d3cda3  runtime entry  (deoptimization bailout 2)
0x75d07d3cda8  runtime entry  (deoptimization bailout 3)
0x75d07d3cdad  runtime entry  (deoptimization bailout 4)

--- End code ---
--- Raw source ---
(t, b, c, d)
{
  if(t < 20) return (b & c) | ((~b) & d);
  if(t < 40) return b ^ c ^ d;
  if(t < 60) return (b & c) | (b & d) | (c & d);
  return b ^ c ^ d;
}


--- Optimized code ---
optimization_id = 2
source_position = 2595
kind = OPTIMIZED_FUNCTION
name = sha1_ft
stack_slots = 1
compiler = crankshaft
Instructions (size = 743)
0x75d07d3ce40     0  55             push rbp
0x75d07d3ce41     1  4889e5         REX.W movq rbp,rsp
0x75d07d3ce44     4  56             push rsi
0x75d07d3ce45     5  57             push rdi
0x75d07d3ce46     6  4883ec08       REX.W subq rsp,0x8
0x75d07d3ce4a    10  488b45f8       REX.W movq rax,[rbp-0x8]
0x75d07d3ce4e    14  488945e8       REX.W movq [rbp-0x18],rax
0x75d07d3ce52    18  488bf0         REX.W movq rsi,rax
0x75d07d3ce55    21  6690           nop
0x75d07d3ce57    23  493ba548090000 REX.W cmpq rsp,[r13+0x948]
0x75d07d3ce5e    30  7305           jnc 37  (0x75d07d3ce65)
0x75d07d3ce60    32  e81b9cffff     call StackCheck  (0x75d07d36a80)    ;; code: BUILTIN
0x75d07d3ce65    37  488b4528       REX.W movq rax,[rbp+0x28]
0x75d07d3ce69    41  a801           test al,0x1              ;; debug: position 2617
0x75d07d3ce6b    43  0f850c010000   jnz 317  (0x75d07d3cf7d)
0x75d07d3ce71    49  48c1e820       REX.W shrq rax, 32
0x75d07d3ce75    53  83f814         cmpl rax,0x14
0x75d07d3ce78    56  0f8cb8000000   jl 246  (0x75d07d3cf36)
0x75d07d3ce7e    62  83f828         cmpl rax,0x28            ;; debug: position 2659
0x75d07d3ce81    65  0f8c7d000000   jl 196  (0x75d07d3cf04)
0x75d07d3ce87    71  83f83c         cmpl rax,0x3c            ;; debug: position 2690
0x75d07d3ce8a    74  0f8c32000000   jl 130  (0x75d07d3cec2)
0x75d07d3ce90    80  488b4520       REX.W movq rax,[rbp+0x20]    ;; debug: position 2743
0x75d07d3ce94    84  a801           test al,0x1
0x75d07d3ce96    86  0f8537020000   jnz 659  (0x75d07d3d0d3)
0x75d07d3ce9c    92  488b5d18       REX.W movq rbx,[rbp+0x18]
0x75d07d3cea0    96  f6c301         testb rbx,0x1
0x75d07d3cea3    99  0f852f020000   jnz 664  (0x75d07d3d0d8)
0x75d07d3cea9   105  4833d8         REX.W xorq rbx,rax
0x75d07d3ceac   108  488b4510       REX.W movq rax,[rbp+0x10]
0x75d07d3ceb0   112  a801           test al,0x1              ;; debug: position 2747
0x75d07d3ceb2   114  0f8525020000   jnz 669  (0x75d07d3d0dd)
0x75d07d3ceb8   120  4833c3         REX.W xorq rax,rbx
0x75d07d3cebb   123  488be5         REX.W movq rsp,rbp
0x75d07d3cebe   126  5d             pop rbp
0x75d07d3cebf   127  c22800         ret 0x28
0x75d07d3cec2   130  488b4520       REX.W movq rax,[rbp+0x20]    ;; debug: position 2706
0x75d07d3cec6   134  a801           test al,0x1
0x75d07d3cec8   136  0f8514020000   jnz 674  (0x75d07d3d0e2)
0x75d07d3cece   142  488b5d18       REX.W movq rbx,[rbp+0x18]
0x75d07d3ced2   146  f6c301         testb rbx,0x1
0x75d07d3ced5   149  0f850c020000   jnz 679  (0x75d07d3d0e7)
0x75d07d3cedb   155  488bd0         REX.W movq rdx,rax
0x75d07d3cede   158  4823d3         REX.W andq rdx,rbx
0x75d07d3cee1   161  488b4d10       REX.W movq rcx,[rbp+0x10]
0x75d07d3cee5   165  f6c101         testb rcx,0x1            ;; debug: position 2716
0x75d07d3cee8   168  0f85fe010000   jnz 684  (0x75d07d3d0ec)
0x75d07d3ceee   174  4823c1         REX.W andq rax,rcx
0x75d07d3cef1   177  480bc2         REX.W orq rax,rdx        ;; debug: position 2711
0x75d07d3cef4   180  4823d9         REX.W andq rbx,rcx       ;; debug: position 2726
0x75d07d3cef7   183  480bd8         REX.W orq rbx,rax        ;; debug: position 2721
0x75d07d3cefa   186  488bc3         REX.W movq rax,rbx
0x75d07d3cefd   189  488be5         REX.W movq rsp,rbp
0x75d07d3cf00   192  5d             pop rbp
0x75d07d3cf01   193  c22800         ret 0x28
0x75d07d3cf04   196  488b4520       REX.W movq rax,[rbp+0x20]    ;; debug: position 2674
0x75d07d3cf08   200  a801           test al,0x1
0x75d07d3cf0a   202  0f85e1010000   jnz 689  (0x75d07d3d0f1)
0x75d07d3cf10   208  488b5d18       REX.W movq rbx,[rbp+0x18]
0x75d07d3cf14   212  f6c301         testb rbx,0x1
0x75d07d3cf17   215  0f85d9010000   jnz 694  (0x75d07d3d0f6)
0x75d07d3cf1d   221  4833d8         REX.W xorq rbx,rax
0x75d07d3cf20   224  488b4510       REX.W movq rax,[rbp+0x10]
0x75d07d3cf24   228  a801           test al,0x1              ;; debug: position 2678
0x75d07d3cf26   230  0f85cf010000   jnz 699  (0x75d07d3d0fb)
0x75d07d3cf2c   236  4833c3         REX.W xorq rax,rbx
0x75d07d3cf2f   239  488be5         REX.W movq rsp,rbp
0x75d07d3cf32   242  5d             pop rbp
0x75d07d3cf33   243  c22800         ret 0x28
0x75d07d3cf36   246  488b4520       REX.W movq rax,[rbp+0x20]    ;; debug: position 2633
0x75d07d3cf3a   250  a801           test al,0x1
0x75d07d3cf3c   252  0f856e000000   jnz 368  (0x75d07d3cfb0)
0x75d07d3cf42   258  48c1e820       REX.W shrq rax, 32
0x75d07d3cf46   262  488b5d18       REX.W movq rbx,[rbp+0x18]
0x75d07d3cf4a   266  f6c301         testb rbx,0x1
0x75d07d3cf4d   269  0f85be000000   jnz 465  (0x75d07d3d011)
0x75d07d3cf53   275  48c1eb20       REX.W shrq rbx, 32
0x75d07d3cf57   279  23d8           andl rbx,rax
0x75d07d3cf59   281  f7d0           notl rax                 ;; debug: position 2642
0x75d07d3cf5b   283  488b5510       REX.W movq rdx,[rbp+0x10]
0x75d07d3cf5f   287  f6c201         testb rdx,0x1            ;; debug: position 2646
0x75d07d3cf62   290  0f850a010000   jnz 562  (0x75d07d3d072)
0x75d07d3cf68   296  48c1ea20       REX.W shrq rdx, 32
0x75d07d3cf6c   300  23d0           andl rdx,rax
0x75d07d3cf6e   302  0bd3           orl rdx,rbx              ;; debug: position 2638
0x75d07d3cf70   304  8bc2           movl rax,rdx
0x75d07d3cf72   306  48c1e020       REX.W shlq rax, 32
0x75d07d3cf76   310  488be5         REX.W movq rsp,rbp
0x75d07d3cf79   313  5d             pop rbp
0x75d07d3cf7a   314  c22800         ret 0x28
0x75d07d3cf7d   317  4d8b5508       REX.W movq r10,[r13+0x8]    ;; debug: position 2617
0x75d07d3cf81   321  4c3950ff       REX.W cmpq [rax-0x1],r10
0x75d07d3cf85   325  0f8575010000   jnz 704  (0x75d07d3d100)
0x75d07d3cf8b   331  f20f104007     movsd xmm0,[rax+0x7]
0x75d07d3cf90   336  f20f2cc0       cvttsd2sil rax,xmm0
0x75d07d3cf94   340  0f57c9         xorps xmm1,xmm1
0x75d07d3cf97   343  f20f2ac8       cvtsi2sd xmm1,rax
0x75d07d3cf9b   347  660f2ec1       ucomisd xmm0,xmm1
0x75d07d3cf9f   351  0f855b010000   jnz 704  (0x75d07d3d100)
0x75d07d3cfa5   357  0f8a55010000   jpe 704  (0x75d07d3d100)
0x75d07d3cfab   363  e9c5feffff     jmp 53  (0x75d07d3ce75)
0x75d07d3cfb0   368  4d8b5508       REX.W movq r10,[r13+0x8]    ;; debug: position 2633
0x75d07d3cfb4   372  4c3950ff       REX.W cmpq [rax-0x1],r10
0x75d07d3cfb8   376  7529           jnz 419  (0x75d07d3cfe3)
0x75d07d3cfba   378  f20f104007     movsd xmm0,[rax+0x7]
0x75d07d3cfbf   383  f2480f2cc0     REX.W cvttsd2siq rax,xmm0
0x75d07d3cfc4   388  4883f801       REX.W cmpq rax,0x1
0x75d07d3cfc8   392  7112           jno 412  (0x75d07d3cfdc)
0x75d07d3cfca   394  4883ec08       REX.W subq rsp,0x8
0x75d07d3cfce   398  f20f110424     movsd [rsp],xmm0
0x75d07d3cfd3   403  e868f8ffff     call 0x75d07d3c840       ;; code: STUB, DoubleToIStub, minor: 135172
0x75d07d3cfd8   408  4883c408       REX.W addq rsp,0x8
0x75d07d3cfdc   412  8bc0           movl rax,rax
0x75d07d3cfde   414  e963ffffff     jmp 262  (0x75d07d3cf46)
0x75d07d3cfe3   419  493b45a8       REX.W cmpq rax,[r13-0x58]
0x75d07d3cfe7   423  7507           jnz 432  (0x75d07d3cff0)
0x75d07d3cfe9   425  33c0           xorl rax,rax
0x75d07d3cfeb   427  e956ffffff     jmp 262  (0x75d07d3cf46)
0x75d07d3cff0   432  493b45c0       REX.W cmpq rax,[r13-0x40]
0x75d07d3cff4   436  750a           jnz 448  (0x75d07d3d000)
0x75d07d3cff6   438  b801000000     movl rax,0x1
0x75d07d3cffb   443  e946ffffff     jmp 262  (0x75d07d3cf46)
0x75d07d3d000   448  493b45c8       REX.W cmpq rax,[r13-0x38]
0x75d07d3d004   452  0f85fb000000   jnz 709  (0x75d07d3d105)
0x75d07d3d00a   458  33c0           xorl rax,rax
0x75d07d3d00c   460  e935ffffff     jmp 262  (0x75d07d3cf46)
0x75d07d3d011   465  4d8b5508       REX.W movq r10,[r13+0x8]
0x75d07d3d015   469  4c3953ff       REX.W cmpq [rbx-0x1],r10
0x75d07d3d019   473  7529           jnz 516  (0x75d07d3d044)
0x75d07d3d01b   475  f20f104307     movsd xmm0,[rbx+0x7]
0x75d07d3d020   480  f2480f2cd8     REX.W cvttsd2siq rbx,xmm0
0x75d07d3d025   485  4883fb01       REX.W cmpq rbx,0x1
0x75d07d3d029   489  7112           jno 509  (0x75d07d3d03d)
0x75d07d3d02b   491  4883ec08       REX.W subq rsp,0x8
0x75d07d3d02f   495  f20f110424     movsd [rsp],xmm0
0x75d07d3d034   500  e847fbffff     call 0x75d07d3cb80       ;; code: STUB, DoubleToIStub, minor: 135364
0x75d07d3d039   505  4883c408       REX.W addq rsp,0x8
0x75d07d3d03d   509  8bdb           movl rbx,rbx
0x75d07d3d03f   511  e913ffffff     jmp 279  (0x75d07d3cf57)
0x75d07d3d044   516  493b5da8       REX.W cmpq rbx,[r13-0x58]
0x75d07d3d048   520  7507           jnz 529  (0x75d07d3d051)
0x75d07d3d04a   522  33db           xorl rbx,rbx
0x75d07d3d04c   524  e906ffffff     jmp 279  (0x75d07d3cf57)
0x75d07d3d051   529  493b5dc0       REX.W cmpq rbx,[r13-0x40]
0x75d07d3d055   533  750a           jnz 545  (0x75d07d3d061)
0x75d07d3d057   535  bb01000000     movl rbx,0x1
0x75d07d3d05c   540  e9f6feffff     jmp 279  (0x75d07d3cf57)
0x75d07d3d061   545  493b5dc8       REX.W cmpq rbx,[r13-0x38]
0x75d07d3d065   549  0f859f000000   jnz 714  (0x75d07d3d10a)
0x75d07d3d06b   555  33db           xorl rbx,rbx
0x75d07d3d06d   557  e9e5feffff     jmp 279  (0x75d07d3cf57)
0x75d07d3d072   562  4d8b5508       REX.W movq r10,[r13+0x8]    ;; debug: position 2646
0x75d07d3d076   566  4c3952ff       REX.W cmpq [rdx-0x1],r10
0x75d07d3d07a   570  7529           jnz 613  (0x75d07d3d0a5)
0x75d07d3d07c   572  f20f104207     movsd xmm0,[rdx+0x7]
0x75d07d3d081   577  f2480f2cd0     REX.W cvttsd2siq rdx,xmm0
0x75d07d3d086   582  4883fa01       REX.W cmpq rdx,0x1
0x75d07d3d08a   586  7112           jno 606  (0x75d07d3d09e)
0x75d07d3d08c   588  4883ec08       REX.W subq rsp,0x8
0x75d07d3d090   592  f20f110424     movsd [rsp],xmm0
0x75d07d3d095   597  e866f8ffff     call 0x75d07d3c900       ;; code: STUB, DoubleToIStub, minor: 135300
0x75d07d3d09a   602  4883c408       REX.W addq rsp,0x8
0x75d07d3d09e   606  8bd2           movl rdx,rdx
0x75d07d3d0a0   608  e9c7feffff     jmp 300  (0x75d07d3cf6c)
0x75d07d3d0a5   613  493b55a8       REX.W cmpq rdx,[r13-0x58]
0x75d07d3d0a9   617  7507           jnz 626  (0x75d07d3d0b2)
0x75d07d3d0ab   619  33d2           xorl rdx,rdx
0x75d07d3d0ad   621  e9bafeffff     jmp 300  (0x75d07d3cf6c)
0x75d07d3d0b2   626  493b55c0       REX.W cmpq rdx,[r13-0x40]
0x75d07d3d0b6   630  750a           jnz 642  (0x75d07d3d0c2)
0x75d07d3d0b8   632  ba01000000     movl rdx,0x1
0x75d07d3d0bd   637  e9aafeffff     jmp 300  (0x75d07d3cf6c)
0x75d07d3d0c2   642  493b55c8       REX.W cmpq rdx,[r13-0x38]
0x75d07d3d0c6   646  0f8543000000   jnz 719  (0x75d07d3d10f)
0x75d07d3d0cc   652  33d2           xorl rdx,rdx
0x75d07d3d0ce   654  e999feffff     jmp 300  (0x75d07d3cf6c)
0x75d07d3d0d3   659  e83c8fccff     call 0x75d07a06014       ;; deoptimization bailout 2
0x75d07d3d0d8   664  e8418fccff     call 0x75d07a0601e       ;; deoptimization bailout 3
0x75d07d3d0dd   669  e8468fccff     call 0x75d07a06028       ;; deoptimization bailout 4
0x75d07d3d0e2   674  e84b8fccff     call 0x75d07a06032       ;; deoptimization bailout 5
0x75d07d3d0e7   679  e8508fccff     call 0x75d07a0603c       ;; deoptimization bailout 6
0x75d07d3d0ec   684  e8558fccff     call 0x75d07a06046       ;; deoptimization bailout 7
0x75d07d3d0f1   689  e85a8fccff     call 0x75d07a06050       ;; deoptimization bailout 8
0x75d07d3d0f6   694  e85f8fccff     call 0x75d07a0605a       ;; deoptimization bailout 9
0x75d07d3d0fb   699  e8648fccff     call 0x75d07a06064       ;; deoptimization bailout 10
0x75d07d3d100   704  e8698fccff     call 0x75d07a0606e       ;; deoptimization bailout 11
0x75d07d3d105   709  e86e8fccff     call 0x75d07a06078       ;; deoptimization bailout 12
0x75d07d3d10a   714  e8738fccff     call 0x75d07a06082       ;; deoptimization bailout 13
0x75d07d3d10f   719  e8788fccff     call 0x75d07a0608c       ;; deoptimization bailout 14

Inlined functions (count = 0)

Deoptimization Input Data (deopt points = 15)
 index  ast id    argc     pc
     0       1       0     10
     1       3       0     37
     2      78       0     -1
     3      78       0     -1
     4     130       0     -1
     5      77       0     -1
     6      77       0     -1
     7      96       0     -1
     8      48       0     -1
     9      48       0     -1
    10      63       0     -1
    11       3       0     -1
    12       5       0     -1
    13       5       0     -1
    14      20       0     -1

Safepoints (size = 19)
0x75d07d3ce65    37  1 (sp -> fp)       1

RelocInfo (size = 94)
0x75d07d3ce61  code target (BUILTIN)  (0x75d07d36a80)
0x75d07d3ce69  position  (2617)
0x75d07d3ce7e  position  (2659)
0x75d07d3ce87  position  (2690)
0x75d07d3ce90  position  (2743)
0x75d07d3ceb0  position  (2747)
0x75d07d3cec2  position  (2706)
0x75d07d3cee5  position  (2716)
0x75d07d3cef1  position  (2711)
0x75d07d3cef4  position  (2726)
0x75d07d3cef7  position  (2721)
0x75d07d3cf04  position  (2674)
0x75d07d3cf24  position  (2678)
0x75d07d3cf36  position  (2633)
0x75d07d3cf59  position  (2642)
0x75d07d3cf5f  position  (2646)
0x75d07d3cf6e  position  (2638)
0x75d07d3cf7d  position  (2617)
0x75d07d3cfb0  position  (2633)
0x75d07d3cfd4  code target (STUB)  (0x75d07d3c840)
0x75d07d3d035  code target (STUB)  (0x75d07d3cb80)
0x75d07d3d072  position  (2646)
0x75d07d3d096  code target (STUB)  (0x75d07d3c900)
0x75d07d3d0d4  runtime entry  (deoptimization bailout 2)
0x75d07d3d0d9  runtime entry  (deoptimization bailout 3)
0x75d07d3d0de  runtime entry  (deoptimization bailout 4)
0x75d07d3d0e3  runtime entry  (deoptimization bailout 5)
0x75d07d3d0e8  runtime entry  (deoptimization bailout 6)
0x75d07d3d0ed  runtime entry  (deoptimization bailout 7)
0x75d07d3d0f2  runtime entry  (deoptimization bailout 8)
0x75d07d3d0f7  runtime entry  (deoptimization bailout 9)
0x75d07d3d0fc  runtime entry  (deoptimization bailout 10)
0x75d07d3d101  runtime entry  (deoptimization bailout 11)
0x75d07d3d106  runtime entry  (deoptimization bailout 12)
0x75d07d3d10b  runtime entry  (deoptimization bailout 13)
0x75d07d3d110  runtime entry  (deoptimization bailout 14)

--- End code ---
--- Raw source ---
(t)
{
  return (t < 20) ?  1518500249 : (t < 40) ?  1859775393 :
         (t < 60) ? -1894007588 : -899497514;
}


--- Code ---
source_position = 2851
kind = FUNCTION
name = sha1_kt
compiler = full-codegen
Instructions (size = 332)
0x75d07d3d1a0     0  55             push rbp                 ;; debug: position 2851
0x75d07d3d1a1     1  4889e5         REX.W movq rbp,rsp
0x75d07d3d1a4     4  56             push rsi
0x75d07d3d1a5     5  57             push rdi
0x75d07d3d1a6     6  493ba548090000 REX.W cmpq rsp,[r13+0x948]
0x75d07d3d1ad    13  7305           jnc 20  (0x75d07d3d1b4)
0x75d07d3d1af    15  e8cc98ffff     call StackCheck  (0x75d07d36a80)    ;; code: BUILTIN
0x75d07d3d1b4    20  ff7510         push [rbp+0x10]          ;; debug: statement 2859
                                                             ;; debug: position 2867
0x75d07d3d1b7    23  48b80000000014000000 REX.W movq rax,0x1400000000
0x75d07d3d1c1    33  5a             pop rdx
0x75d07d3d1c2    34  e8f9f6fdff     call 0x75d07d1c8c0       ;; code: COMPARE_IC, UNINITIALIZED (id = 10)
0x75d07d3d1c7    39  90             nop
0x75d07d3d1c8    40  eb0f           jmp 57  (0x75d07d3d1d9)
0x75d07d3d1ca    42  493b45c0       REX.W cmpq rax,[r13-0x40]
0x75d07d3d1ce    46  0f840e000000   jz 66  (0x75d07d3d1e2)
0x75d07d3d1d4    52  e925000000     jmp 94  (0x75d07d3d1fe)
0x75d07d3d1d9    57  4885c0         REX.W testq rax,rax
0x75d07d3d1dc    60  0f8d1c000000   jge 94  (0x75d07d3d1fe)
0x75d07d3d1e2    66  48b8000000001f49138e REX.W movq rax,0x8e13491f00000000    ;; debug: position 2878
0x75d07d3d1ec    76  49ba00000000863091d4 REX.W movq r10,0xd491308600000000
0x75d07d3d1f6    86  4933c2         REX.W xorq rax,r10
0x75d07d3d1f9    89  e9ab000000     jmp 265  (0x75d07d3d2a9)
0x75d07d3d1fe    94  ff7510         push [rbp+0x10]          ;; debug: position 2892
0x75d07d3d201    97  48b80000000028000000 REX.W movq rax,0x2800000000
0x75d07d3d20b   107  5a             pop rdx
0x75d07d3d20c   108  e8aff6fdff     call 0x75d07d1c8c0       ;; code: COMPARE_IC, UNINITIALIZED (id = 26)
0x75d07d3d211   113  90             nop
0x75d07d3d212   114  eb0f           jmp 131  (0x75d07d3d223)
0x75d07d3d214   116  493b45c0       REX.W cmpq rax,[r13-0x40]
0x75d07d3d218   120  0f840e000000   jz 140  (0x75d07d3d22c)
0x75d07d3d21e   126  e925000000     jmp 168  (0x75d07d3d248)
0x75d07d3d223   131  4885c0         REX.W testq rax,rax
0x75d07d3d226   134  0f8d1c000000   jge 168  (0x75d07d3d248)
0x75d07d3d22c   140  48b80000000027db48ba REX.W movq rax,0xba48db2700000000    ;; debug: position 2903
0x75d07d3d236   150  49ba00000000863091d4 REX.W movq r10,0xd491308600000000
0x75d07d3d240   160  4933c2         REX.W xorq rax,r10
0x75d07d3d243   163  e961000000     jmp 265  (0x75d07d3d2a9)
0x75d07d3d248   168  ff7510         push [rbp+0x10]          ;; debug: position 2926
0x75d07d3d24b   171  48b8000000003c000000 REX.W movq rax,0x3c00000000
0x75d07d3d255   181  5a             pop rdx
0x75d07d3d256   182  e865f6fdff     call 0x75d07d1c8c0       ;; code: COMPARE_IC, UNINITIALIZED (id = 42)
0x75d07d3d25b   187  90             nop
0x75d07d3d25c   188  eb0f           jmp 205  (0x75d07d3d26d)
0x75d07d3d25e   190  493b45c0       REX.W cmpq rax,[r13-0x40]
0x75d07d3d262   194  0f840e000000   jz 214  (0x75d07d3d276)
0x75d07d3d268   200  e925000000     jmp 242  (0x75d07d3d292)
0x75d07d3d26d   205  4885c0         REX.W testq rax,rax
0x75d07d3d270   208  0f8d1c000000   jge 242  (0x75d07d3d292)
0x75d07d3d276   214  48b8000000005a8c8a5b REX.W movq rax,0x5b8a8c5a00000000    ;; debug: position 2936
0x75d07d3d280   224  49ba00000000863091d4 REX.W movq r10,0xd491308600000000
0x75d07d3d28a   234  4933c2         REX.W xorq rax,r10
0x75d07d3d28d   237  e917000000     jmp 265  (0x75d07d3d2a9)
0x75d07d3d292   242  48b80000000050f1f31e REX.W movq rax,0x1ef3f15000000000    ;; debug: position 2950
0x75d07d3d29c   252  49ba00000000863091d4 REX.W movq r10,0xd491308600000000
0x75d07d3d2a6   262  4933c2         REX.W xorq rax,r10
0x75d07d3d2a9   265  48bbf1fcaefe40250000 REX.W movq rbx,0x2540feaefcf1    ;; object: 0x2540feaefcf1 Cell for 6144
0x75d07d3d2b3   275  83430bd1       addl [rbx+0xb],0xd1
0x75d07d3d2b7   279  791f           jns 312  (0x75d07d3d2d8)
0x75d07d3d2b9   281  50             push rax
0x75d07d3d2ba   282  e88196ffff     call InterruptCheck  (0x75d07d36940)    ;; code: BUILTIN
0x75d07d3d2bf   287  58             pop rax
0x75d07d3d2c0   288  48bbf1fcaefe40250000 REX.W movq rbx,0x2540feaefcf1    ;; object: 0x2540feaefcf1 Cell for 6144
0x75d07d3d2ca   298  49ba0000000000180000 REX.W movq r10,0x180000000000
0x75d07d3d2d4   308  4c895307       REX.W movq [rbx+0x7],r10
0x75d07d3d2d8   312  c9             leave                    ;; debug: statement 2962
0x75d07d3d2d9   313  c21000         ret 0x10
0x75d07d3d2dc   316  498b45a8       REX.W movq rax,[r13-0x58]
0x75d07d3d2e0   320  e9c4ffffff     jmp 265  (0x75d07d3d2a9)
0x75d07d3d2e5   325  0f1f00         nop

Deoptimization Output Data (deopt points = 28)
ast id        pc  state
     1         6  NO_REGISTERS
     2         6  NO_REGISTERS
     3         6  NO_REGISTERS
    13        20  NO_REGISTERS
    11        23  NO_REGISTERS
    14        33  TOS_REG
     8        42  TOS_REG
     6        66  NO_REGISTERS
    17        89  TOS_REG
     7        94  NO_REGISTERS
    29        94  NO_REGISTERS
    27        97  NO_REGISTERS
    30       107  TOS_REG
    24       116  TOS_REG
    22       140  NO_REGISTERS
    33       163  TOS_REG
    23       168  NO_REGISTERS
    45       168  NO_REGISTERS
    43       171  NO_REGISTERS
    46       181  TOS_REG
    40       190  TOS_REG
    38       214  NO_REGISTERS
    49       237  TOS_REG
    39       242  NO_REGISTERS
    52       265  TOS_REG
    36       265  TOS_REG
    20       265  TOS_REG
     4       265  TOS_REG

Back edges (size = 0)
ast_id  pc_offset  loop_depth

0x2540feaeff09: [TypeFeedbackInfo]
 - ic_total_count: 3, ic_with_type_info_count: 0, ic_generic_count: 0

RelocInfo (size = 34)
0x75d07d3d1a0  position  (2851)
0x75d07d3d1b0  code target (BUILTIN)  (0x75d07d36a80)
0x75d07d3d1b4  statement position  (2859)
0x75d07d3d1b4  position  (2867)
0x75d07d3d1c3  code target with id (COMPARE_IC)  (0x75d07d1c8c0) (id=10)
0x75d07d3d1e2  position  (2878)
0x75d07d3d1fe  position  (2892)
0x75d07d3d20d  code target with id (COMPARE_IC)  (0x75d07d1c8c0) (id=26)
0x75d07d3d22c  position  (2903)
0x75d07d3d248  position  (2926)
0x75d07d3d257  code target with id (COMPARE_IC)  (0x75d07d1c8c0) (id=42)
0x75d07d3d276  position  (2936)
0x75d07d3d292  position  (2950)
0x75d07d3d2ab  embedded object  (0x2540feaefcf1 Cell for 6144)
0x75d07d3d2bb  code target (BUILTIN)  (0x75d07d36940)
0x75d07d3d2c2  embedded object  (0x2540feaefcf1 Cell for 6144)
0x75d07d3d2d8  statement position  (2962)

--- End code ---
--- Raw source ---
(x, len)
{
  /* append padding */
  x[len >> 5] |= 0x80 << (24 - len % 32);
  x[((len + 64 >> 9) << 4) + 15] = len;

  var w = Array(80);
  var a =  1732584193;
  var b = -271733879;
  var c = -1732584194;
  var d =  271733878;
  var e = -1009589776;

  for(var i = 0; i < x.length; i += 16)
  {
    var olda = a;
    var oldb = b;
    var oldc = c;
    var oldd = d;
    var olde = e;

    for(var j = 0; j < 80; j++)
    {
      if(j < 16) w[j] = x[i + j];
      else w[j] = rol(w[j-3] ^ w[j-8] ^ w[j-14] ^ w[j-16], 1);
      var t = safe_add(safe_add(rol(a, 5), sha1_ft(j, b, c, d)),
                       safe_add(safe_add(e, w[j]), sha1_kt(j)));
      e = d;
      d = c;
      c = rol(b, 30);
      b = a;
      a = t;
    }

    a = safe_add(a, olda);
    b = safe_add(b, oldb);
    c = safe_add(c, oldc);
    d = safe_add(d, oldd);
    e = safe_add(e, olde);
  }
  return Array(a, b, c, d, e);

}


--- Code ---
source_position = 1580
kind = FUNCTION
name = core_sha1
compiler = full-codegen
Instructions (size = 2516)
0x75d07d3d360     0  55             push rbp                 ;; debug: position 1580
0x75d07d3d361     1  4889e5         REX.W movq rbp,rsp
0x75d07d3d364     4  56             push rsi
0x75d07d3d365     5  57             push rdi
0x75d07d3d366     6  498b55a8       REX.W movq rdx,[r13-0x58]
0x75d07d3d36a    10  52             push rdx
0x75d07d3d36b    11  52             push rdx
0x75d07d3d36c    12  52             push rdx
0x75d07d3d36d    13  52             push rdx
0x75d07d3d36e    14  52             push rdx
0x75d07d3d36f    15  52             push rdx
0x75d07d3d370    16  52             push rdx
0x75d07d3d371    17  52             push rdx
0x75d07d3d372    18  52             push rdx
0x75d07d3d373    19  52             push rdx
0x75d07d3d374    20  52             push rdx
0x75d07d3d375    21  52             push rdx
0x75d07d3d376    22  52             push rdx
0x75d07d3d377    23  52             push rdx
0x75d07d3d378    24  493ba548090000 REX.W cmpq rsp,[r13+0x948]
0x75d07d3d37f    31  7305           jnc 38  (0x75d07d3d386)
0x75d07d3d381    33  e8fa96ffff     call StackCheck  (0x75d07d36a80)    ;; code: BUILTIN
0x75d07d3d386    38  ff7518         push [rbp+0x18]          ;; debug: statement 1616
                                                             ;; debug: position 1616
0x75d07d3d389    41  ff7510         push [rbp+0x10]          ;; debug: position 1618
0x75d07d3d38c    44  48b80000000005000000 REX.W movq rax,0x500000000
0x75d07d3d396    54  5a             pop rdx                  ;; debug: position 1622
0x75d07d3d397    55  e8840bffff     call 0x75d07d2df20       ;; code: BINARY_OP_IC, UNINITIALIZED (id = 100)
0x75d07d3d39c    60  90             nop
0x75d07d3d39d    61  50             push rax
0x75d07d3d39e    62  488b542408     REX.W movq rdx,[rsp+0x8]
0x75d07d3d3a3    67  488b0c24       REX.W movq rcx,[rsp]
0x75d07d3d3a7    71  48b80000000006000000 REX.W movq rax,0x600000000    ;; debug: position 1617
0x75d07d3d3b1    81  e80aedfdff     call 0x75d07d1c0c0       ;; code: KEYED_LOAD_IC, DEFAULT
0x75d07d3d3b6    86  50             push rax
0x75d07d3d3b7    87  49ba0000000080000000 REX.W movq r10,0x8000000000
0x75d07d3d3c1    97  4152           push r10
0x75d07d3d3c3    99  49ba0000000018000000 REX.W movq r10,0x1800000000
0x75d07d3d3cd   109  4152           push r10
0x75d07d3d3cf   111  ff7510         push [rbp+0x10]          ;; debug: position 1645
0x75d07d3d3d2   114  48b80000000020000000 REX.W movq rax,0x2000000000
0x75d07d3d3dc   124  5a             pop rdx                  ;; debug: position 1649
0x75d07d3d3dd   125  e8deaefeff     call 0x75d07d282c0       ;; code: BINARY_OP_IC, UNINITIALIZED (id = 127)
0x75d07d3d3e2   130  90             nop
0x75d07d3d3e3   131  5a             pop rdx                  ;; debug: position 1643
0x75d07d3d3e4   132  e857b6fcff     call 0x75d07d08a40       ;; code: BINARY_OP_IC, UNINITIALIZED (id = 120)
0x75d07d3d3e9   137  90             nop
0x75d07d3d3ea   138  5a             pop rdx                  ;; debug: position 1636
0x75d07d3d3eb   139  e8d061feff     call 0x75d07d235c0       ;; code: BINARY_OP_IC, UNINITIALIZED (id = 113)
0x75d07d3d3f0   144  90             nop
0x75d07d3d3f1   145  5a             pop rdx
0x75d07d3d3f2   146  e80922ffff     call 0x75d07d2f600       ;; code: BINARY_OP_IC, UNINITIALIZED (id = 53)
0x75d07d3d3f7   151  90             nop
0x75d07d3d3f8   152  59             pop rcx                  ;; debug: position 1628
0x75d07d3d3f9   153  5a             pop rdx
0x75d07d3d3fa   154  e8a176ffff     call KeyedStoreIC_Initialize  (0x75d07d34aa0)    ;; code: KEYED_STORE_IC, UNINITIALIZED (id = 49)
0x75d07d3d3ff   159  ff7518         push [rbp+0x18]          ;; debug: statement 1658
                                                             ;; debug: position 1658
0x75d07d3d402   162  ff7510         push [rbp+0x10]          ;; debug: position 1662
0x75d07d3d405   165  48b80000000040000000 REX.W movq rax,0x4000000000
0x75d07d3d40f   175  5a             pop rdx                  ;; debug: position 1666
0x75d07d3d410   176  e86bb1fdff     call 0x75d07d18580       ;; code: BINARY_OP_IC, UNINITIALIZED (id = 156)
0x75d07d3d415   181  90             nop
0x75d07d3d416   182  50             push rax
0x75d07d3d417   183  48b80000000009000000 REX.W movq rax,0x900000000
0x75d07d3d421   193  5a             pop rdx                  ;; debug: position 1671
0x75d07d3d422   194  e8f90affff     call 0x75d07d2df20       ;; code: BINARY_OP_IC, UNINITIALIZED (id = 152)
0x75d07d3d427   199  90             nop
0x75d07d3d428   200  50             push rax
0x75d07d3d429   201  48b80000000004000000 REX.W movq rax,0x400000000
0x75d07d3d433   211  5a             pop rdx                  ;; debug: position 1677
0x75d07d3d434   212  e88761feff     call 0x75d07d235c0       ;; code: BINARY_OP_IC, UNINITIALIZED (id = 148)
0x75d07d3d439   217  90             nop
0x75d07d3d43a   218  50             push rax
0x75d07d3d43b   219  48b8000000000f000000 REX.W movq rax,0xf00000000
0x75d07d3d445   229  5a             pop rdx                  ;; debug: position 1683
0x75d07d3d446   230  e835b1fdff     call 0x75d07d18580       ;; code: BINARY_OP_IC, UNINITIALIZED (id = 144)
0x75d07d3d44b   235  90             nop
0x75d07d3d44c   236  50             push rax
0x75d07d3d44d   237  488b4510       REX.W movq rax,[rbp+0x10]    ;; debug: position 1691
0x75d07d3d451   241  59             pop rcx                  ;; debug: position 1689
0x75d07d3d452   242  5a             pop rdx
0x75d07d3d453   243  e84876ffff     call KeyedStoreIC_Initialize  (0x75d07d34aa0)    ;; code: KEYED_STORE_IC, UNINITIALIZED (id = 137)
0x75d07d3d458   248  48b9d91fa9fe40250000 REX.W movq rcx,0x2540fea91fd9    ;; debug: statement 1699
                                                             ;; debug: position 1707
                                                             ;; object: 0x2540fea91fd9 <String[5]: Array>
0x75d07d3d462   258  488b5627       REX.W movq rdx,[rsi+0x27]
0x75d07d3d466   262  48b8000000000a000000 REX.W movq rax,0xa00000000
0x75d07d3d470   272  e8ebb0feff     call 0x75d07d28560       ;; code: contextual, LOAD_IC, DEFAULT
0x75d07d3d475   277  50             push rax
0x75d07d3d476   278  49ba8941a0fe40250000 REX.W movq r10,0x2540fea04189    ;; object: 0x2540fea04189 <undefined>
0x75d07d3d480   288  4152           push r10
0x75d07d3d482   290  49ba0000000050000000 REX.W movq r10,0x5000000000
0x75d07d3d48c   300  4152           push r10
0x75d07d3d48e   302  48ba0000000008000000 REX.W movq rdx,0x800000000
0x75d07d3d498   312  488b7c2410     REX.W movq rdi,[rsp+0x10]
0x75d07d3d49d   317  e89e4affff     call 0x75d07d31f40       ;; code: CALL_IC, DEFAULT
0x75d07d3d4a2   322  488b75f8       REX.W movq rsi,[rbp-0x8]
0x75d07d3d4a6   326  4883c408       REX.W addq rsp,0x8
0x75d07d3d4aa   330  488945e8       REX.W movq [rbp-0x18],rax    ;; debug: position 1699
0x75d07d3d4ae   334  48b800000000b457d9dc REX.W movq rax,0xdcd957b400000000    ;; debug: statement 1720
0x75d07d3d4b8   344  49ba00000000b5749cbb REX.W movq r10,0xbb9c74b500000000
0x75d07d3d4c2   354  4933c2         REX.W xorq rax,r10
0x75d07d3d4c5   357  488945e0       REX.W movq [rbp-0x20],rax
0x75d07d3d4c9   361  48b8000000003cdf5154 REX.W movq rax,0x5451df3c00000000    ;; debug: statement 1743
0x75d07d3d4d3   371  49ba00000000b5749cbb REX.W movq r10,0xbb9c74b500000000
0x75d07d3d4dd   381  4933c2         REX.W xorq rax,r10
0x75d07d3d4e0   384  488945d8       REX.W movq [rbp-0x28],rax
0x75d07d3d4e4   388  48b8000000004ba82623 REX.W movq rax,0x2326a84b00000000    ;; debug: statement 1765
0x75d07d3d4ee   398  49ba00000000b5749cbb REX.W movq r10,0xbb9c74b500000000
0x75d07d3d4f8   408  4933c2         REX.W xorq rax,r10
0x75d07d3d4fb   411  488945d0       REX.W movq [rbp-0x30],rax
0x75d07d3d4ff   415  48b800000000c320aeab REX.W movq rax,0xabae20c300000000    ;; debug: statement 1788
0x75d07d3d509   425  49ba00000000b5749cbb REX.W movq r10,0xbb9c74b500000000
0x75d07d3d513   435  4933c2         REX.W xorq rax,r10
0x75d07d3d516   438  488945c8       REX.W movq [rbp-0x38],rax
0x75d07d3d51a   442  48b80000000045954e78 REX.W movq rax,0x784e954500000000    ;; debug: statement 1810
0x75d07d3d524   452  49ba00000000b5749cbb REX.W movq r10,0xbb9c74b500000000
0x75d07d3d52e   462  4933c2         REX.W xorq rax,r10
0x75d07d3d531   465  488945c0       REX.W movq [rbp-0x40],rax
0x75d07d3d535   469  48b80000000000000000 REX.W movq rax,(nil)    ;; debug: statement 1834
                                                             ;; debug: statement 1838
0x75d07d3d53f   479  488945b8       REX.W movq [rbp-0x48],rax
0x75d07d3d543   483  e9e1060000     jmp 2249  (0x75d07d3dc29)
0x75d07d3d548   488  488b45e0       REX.W movq rax,[rbp-0x20]    ;; debug: statement 1880
                                                             ;; debug: position 1891
0x75d07d3d54c   492  488945b0       REX.W movq [rbp-0x50],rax    ;; debug: position 1880
0x75d07d3d550   496  488b45d8       REX.W movq rax,[rbp-0x28]    ;; debug: statement 1898
                                                             ;; debug: position 1909
0x75d07d3d554   500  488945a8       REX.W movq [rbp-0x58],rax    ;; debug: position 1898
0x75d07d3d558   504  488b45d0       REX.W movq rax,[rbp-0x30]    ;; debug: statement 1916
                                                             ;; debug: position 1927
0x75d07d3d55c   508  488945a0       REX.W movq [rbp-0x60],rax    ;; debug: position 1916
0x75d07d3d560   512  488b45c8       REX.W movq rax,[rbp-0x38]    ;; debug: statement 1934
                                                             ;; debug: position 1945
0x75d07d3d564   516  48894598       REX.W movq [rbp-0x68],rax    ;; debug: position 1934
0x75d07d3d568   520  488b45c0       REX.W movq rax,[rbp-0x40]    ;; debug: statement 1952
                                                             ;; debug: position 1963
0x75d07d3d56c   524  48894590       REX.W movq [rbp-0x70],rax    ;; debug: position 1952
0x75d07d3d570   528  48b80000000000000000 REX.W movq rax,(nil)    ;; debug: statement 1971
                                                             ;; debug: statement 1975
0x75d07d3d57a   538  48894588       REX.W movq [rbp-0x78],rax
0x75d07d3d57e   542  e9ca040000     jmp 1773  (0x75d07d3da4d)
0x75d07d3d583   547  ff7588         push [rbp-0x78]          ;; debug: statement 2011
                                                             ;; debug: position 2014
0x75d07d3d586   550  48b80000000010000000 REX.W movq rax,0x1000000000
0x75d07d3d590   560  5a             pop rdx
0x75d07d3d591   561  488bca         REX.W movq rcx,rdx
0x75d07d3d594   564  480bc8         REX.W orq rcx,rax
0x75d07d3d597   567  f6c101         testb rcx,0x1
0x75d07d3d59a   570  730e           jnc 586  (0x75d07d3d5aa)
0x75d07d3d59c   572  483bd0         REX.W cmpq rdx,rax
0x75d07d3d59f   575  0f8c26000000   jl 619  (0x75d07d3d5cb)
0x75d07d3d5a5   581  e973000000     jmp 701  (0x75d07d3d61d)
0x75d07d3d5aa   586  e811f3fdff     call 0x75d07d1c8c0       ;; code: COMPARE_IC, UNINITIALIZED (id = 429)
0x75d07d3d5af   591  a815           test al,0x15
0x75d07d3d5b1   593  eb0f           jmp 610  (0x75d07d3d5c2)
0x75d07d3d5b3   595  493b45c0       REX.W cmpq rax,[r13-0x40]
0x75d07d3d5b7   599  0f840e000000   jz 619  (0x75d07d3d5cb)
0x75d07d3d5bd   605  e95b000000     jmp 701  (0x75d07d3d61d)
0x75d07d3d5c2   610  4885c0         REX.W testq rax,rax
0x75d07d3d5c5   613  0f8d52000000   jge 701  (0x75d07d3d61d)
0x75d07d3d5cb   619  ff75e8         push [rbp-0x18]          ;; debug: statement 2022
                                                             ;; debug: position 2022
0x75d07d3d5ce   622  ff7588         push [rbp-0x78]          ;; debug: position 2024
0x75d07d3d5d1   625  ff7518         push [rbp+0x18]          ;; debug: position 2029
0x75d07d3d5d4   628  ff75b8         push [rbp-0x48]          ;; debug: position 2031
0x75d07d3d5d7   631  488b4588       REX.W movq rax,[rbp-0x78]    ;; debug: position 2035
0x75d07d3d5db   635  5a             pop rdx                  ;; debug: position 2033
0x75d07d3d5dc   636  488bc8         REX.W movq rcx,rax
0x75d07d3d5df   639  480bc2         REX.W orq rax,rdx
0x75d07d3d5e2   642  a801           test al,0x1
0x75d07d3d5e4   644  720c           jc 658  (0x75d07d3d5f2)
0x75d07d3d5e6   646  488bc1         REX.W movq rax,rcx
0x75d07d3d5e9   649  e892affdff     call 0x75d07d18580       ;; code: BINARY_OP_IC, UNINITIALIZED (id = 455)
0x75d07d3d5ee   654  a80a           test al,0xa
0x75d07d3d5f0   656  eb0c           jmp 670  (0x75d07d3d5fe)
0x75d07d3d5f2   658  488bc2         REX.W movq rax,rdx
0x75d07d3d5f5   661  4803c1         REX.W addq rax,rcx
0x75d07d3d5f8   664  0f80e8ffffff   jo 646  (0x75d07d3d5e6)
0x75d07d3d5fe   670  488bc8         REX.W movq rcx,rax
0x75d07d3d601   673  5a             pop rdx
0x75d07d3d602   674  48b8000000000e000000 REX.W movq rax,0xe00000000    ;; debug: position 2030
0x75d07d3d60c   684  e8afeafdff     call 0x75d07d1c0c0       ;; code: KEYED_LOAD_IC, DEFAULT
0x75d07d3d611   689  59             pop rcx                  ;; debug: position 2027
0x75d07d3d612   690  5a             pop rdx
0x75d07d3d613   691  e88874ffff     call KeyedStoreIC_Initialize  (0x75d07d34aa0)    ;; code: KEYED_STORE_IC, UNINITIALIZED (id = 439)
0x75d07d3d618   696  e9bf010000     jmp 1148  (0x75d07d3d7dc)
0x75d07d3d61d   701  ff75e8         push [rbp-0x18]          ;; debug: statement 2050
                                                             ;; debug: position 2050
0x75d07d3d620   704  ff7588         push [rbp-0x78]          ;; debug: position 2052
0x75d07d3d623   707  bb13000000     movl rbx,0x13            ;; debug: position 2057
0x75d07d3d628   712  e8b3d0feff     call 0x75d07d2a6e0       ;; code: STUB, LoadGlobalViaContextStub, minor: 0
0x75d07d3d62d   717  50             push rax
0x75d07d3d62e   718  49ba8941a0fe40250000 REX.W movq r10,0x2540fea04189    ;; object: 0x2540fea04189 <undefined>
0x75d07d3d638   728  4152           push r10
0x75d07d3d63a   730  ff75e8         push [rbp-0x18]          ;; debug: position 2061
0x75d07d3d63d   733  ff7588         push [rbp-0x78]          ;; debug: position 2063
0x75d07d3d640   736  48b80000000003000000 REX.W movq rax,0x300000000
0x75d07d3d64a   746  5a             pop rdx                  ;; debug: position 2064
0x75d07d3d64b   747  488bc8         REX.W movq rcx,rax
0x75d07d3d64e   750  480bc2         REX.W orq rax,rdx
0x75d07d3d651   753  a801           test al,0x1
0x75d07d3d653   755  720c           jc 769  (0x75d07d3d661)
0x75d07d3d655   757  488bc1         REX.W movq rax,rcx
0x75d07d3d658   760  e8e3b3fcff     call 0x75d07d08a40       ;; code: BINARY_OP_IC, UNINITIALIZED (id = 504)
0x75d07d3d65d   765  a80a           test al,0xa
0x75d07d3d65f   767  eb0c           jmp 781  (0x75d07d3d66d)
0x75d07d3d661   769  488bc2         REX.W movq rax,rdx
0x75d07d3d664   772  482bc1         REX.W subq rax,rcx
0x75d07d3d667   775  0f80e8ffffff   jo 757  (0x75d07d3d655)
0x75d07d3d66d   781  488bc8         REX.W movq rcx,rax
0x75d07d3d670   784  5a             pop rdx
0x75d07d3d671   785  48b80000000012000000 REX.W movq rax,0x1200000000    ;; debug: position 2062
0x75d07d3d67b   795  e840eafdff     call 0x75d07d1c0c0       ;; code: KEYED_LOAD_IC, DEFAULT
0x75d07d3d680   800  50             push rax
0x75d07d3d681   801  ff75e8         push [rbp-0x18]          ;; debug: position 2070
0x75d07d3d684   804  ff7588         push [rbp-0x78]          ;; debug: position 2072
0x75d07d3d687   807  48b80000000008000000 REX.W movq rax,0x800000000
0x75d07d3d691   817  5a             pop rdx                  ;; debug: position 2073
0x75d07d3d692   818  488bc8         REX.W movq rcx,rax
0x75d07d3d695   821  480bc2         REX.W orq rax,rdx
0x75d07d3d698   824  a801           test al,0x1
0x75d07d3d69a   826  720c           jc 840  (0x75d07d3d6a8)
0x75d07d3d69c   828  488bc1         REX.W movq rax,rcx
0x75d07d3d69f   831  e89cb3fcff     call 0x75d07d08a40       ;; code: BINARY_OP_IC, UNINITIALIZED (id = 520)
0x75d07d3d6a4   836  a80a           test al,0xa
0x75d07d3d6a6   838  eb0c           jmp 852  (0x75d07d3d6b4)
0x75d07d3d6a8   840  488bc2         REX.W movq rax,rdx
0x75d07d3d6ab   843  482bc1         REX.W subq rax,rcx
0x75d07d3d6ae   846  0f80e8ffffff   jo 828  (0x75d07d3d69c)
0x75d07d3d6b4   852  488bc8         REX.W movq rcx,rax
0x75d07d3d6b7   855  5a             pop rdx
0x75d07d3d6b8   856  48b80000000014000000 REX.W movq rax,0x1400000000    ;; debug: position 2071
0x75d07d3d6c2   866  e8f9e9fdff     call 0x75d07d1c0c0       ;; code: KEYED_LOAD_IC, DEFAULT
0x75d07d3d6c7   871  5a             pop rdx                  ;; debug: position 2068
0x75d07d3d6c8   872  488bc8         REX.W movq rcx,rax
0x75d07d3d6cb   875  480bc2         REX.W orq rax,rdx
0x75d07d3d6ce   878  a801           test al,0x1
0x75d07d3d6d0   880  720c           jc 894  (0x75d07d3d6de)
0x75d07d3d6d2   882  488bc1         REX.W movq rax,rcx
0x75d07d3d6d5   885  e886b2feff     call 0x75d07d28960       ;; code: BINARY_OP_IC, UNINITIALIZED (id = 497)
0x75d07d3d6da   890  a80a           test al,0xa
0x75d07d3d6dc   892  eb06           jmp 900  (0x75d07d3d6e4)
0x75d07d3d6de   894  488bc2         REX.W movq rax,rdx
0x75d07d3d6e1   897  4833c1         REX.W xorq rax,rcx
0x75d07d3d6e4   900  50             push rax
0x75d07d3d6e5   901  ff75e8         push [rbp-0x18]          ;; debug: position 2079
0x75d07d3d6e8   904  ff7588         push [rbp-0x78]          ;; debug: position 2081
0x75d07d3d6eb   907  48b8000000000e000000 REX.W movq rax,0xe00000000
0x75d07d3d6f5   917  5a             pop rdx                  ;; debug: position 2082
0x75d07d3d6f6   918  488bc8         REX.W movq rcx,rax
0x75d07d3d6f9   921  480bc2         REX.W orq rax,rdx
0x75d07d3d6fc   924  a801           test al,0x1
0x75d07d3d6fe   926  720c           jc 940  (0x75d07d3d70c)
0x75d07d3d700   928  488bc1         REX.W movq rax,rcx
0x75d07d3d703   931  e838b3fcff     call 0x75d07d08a40       ;; code: BINARY_OP_IC, UNINITIALIZED (id = 536)
0x75d07d3d708   936  a80a           test al,0xa
0x75d07d3d70a   938  eb0c           jmp 952  (0x75d07d3d718)
0x75d07d3d70c   940  488bc2         REX.W movq rax,rdx
0x75d07d3d70f   943  482bc1         REX.W subq rax,rcx
0x75d07d3d712   946  0f80e8ffffff   jo 928  (0x75d07d3d700)
0x75d07d3d718   952  488bc8         REX.W movq rcx,rax
0x75d07d3d71b   955  5a             pop rdx
0x75d07d3d71c   956  48b80000000016000000 REX.W movq rax,0x1600000000    ;; debug: position 2080
0x75d07d3d726   966  e895e9fdff     call 0x75d07d1c0c0       ;; code: KEYED_LOAD_IC, DEFAULT
0x75d07d3d72b   971  5a             pop rdx                  ;; debug: position 2077
0x75d07d3d72c   972  488bc8         REX.W movq rcx,rax
0x75d07d3d72f   975  480bc2         REX.W orq rax,rdx
0x75d07d3d732   978  a801           test al,0x1
0x75d07d3d734   980  720c           jc 994  (0x75d07d3d742)
0x75d07d3d736   982  488bc1         REX.W movq rax,rcx
0x75d07d3d739   985  e822b2feff     call 0x75d07d28960       ;; code: BINARY_OP_IC, UNINITIALIZED (id = 493)
0x75d07d3d73e   990  a80a           test al,0xa
0x75d07d3d740   992  eb06           jmp 1000  (0x75d07d3d748)
0x75d07d3d742   994  488bc2         REX.W movq rax,rdx
0x75d07d3d745   997  4833c1         REX.W xorq rax,rcx
0x75d07d3d748  1000  50             push rax
0x75d07d3d749  1001  ff75e8         push [rbp-0x18]          ;; debug: position 2089
0x75d07d3d74c  1004  ff7588         push [rbp-0x78]          ;; debug: position 2091
0x75d07d3d74f  1007  48b80000000010000000 REX.W movq rax,0x1000000000
0x75d07d3d759  1017  5a             pop rdx                  ;; debug: position 2092
0x75d07d3d75a  1018  488bc8         REX.W movq rcx,rax
0x75d07d3d75d  1021  480bc2         REX.W orq rax,rdx
0x75d07d3d760  1024  a801           test al,0x1
0x75d07d3d762  1026  720c           jc 1040  (0x75d07d3d770)
0x75d07d3d764  1028  488bc1         REX.W movq rax,rcx
0x75d07d3d767  1031  e8d4b2fcff     call 0x75d07d08a40       ;; code: BINARY_OP_IC, UNINITIALIZED (id = 552)
0x75d07d3d76c  1036  a80a           test al,0xa
0x75d07d3d76e  1038  eb0c           jmp 1052  (0x75d07d3d77c)
0x75d07d3d770  1040  488bc2         REX.W movq rax,rdx
0x75d07d3d773  1043  482bc1         REX.W subq rax,rcx
0x75d07d3d776  1046  0f80e8ffffff   jo 1028  (0x75d07d3d764)
0x75d07d3d77c  1052  488bc8         REX.W movq rcx,rax
0x75d07d3d77f  1055  5a             pop rdx
0x75d07d3d780  1056  48b80000000018000000 REX.W movq rax,0x1800000000    ;; debug: position 2090
0x75d07d3d78a  1066  e831e9fdff     call 0x75d07d1c0c0       ;; code: KEYED_LOAD_IC, DEFAULT
0x75d07d3d78f  1071  5a             pop rdx                  ;; debug: position 2087
0x75d07d3d790  1072  488bc8         REX.W movq rcx,rax
0x75d07d3d793  1075  480bc2         REX.W orq rax,rdx
0x75d07d3d796  1078  a801           test al,0x1
0x75d07d3d798  1080  720c           jc 1094  (0x75d07d3d7a6)
0x75d07d3d79a  1082  488bc1         REX.W movq rax,rcx
0x75d07d3d79d  1085  e8beb1feff     call 0x75d07d28960       ;; code: BINARY_OP_IC, UNINITIALIZED (id = 489)
0x75d07d3d7a2  1090  a80a           test al,0xa
0x75d07d3d7a4  1092  eb06           jmp 1100  (0x75d07d3d7ac)
0x75d07d3d7a6  1094  488bc2         REX.W movq rax,rdx
0x75d07d3d7a9  1097  4833c1         REX.W xorq rax,rcx
0x75d07d3d7ac  1100  50             push rax
0x75d07d3d7ad  1101  49ba0000000001000000 REX.W movq r10,0x100000000
0x75d07d3d7b7  1111  4152           push r10
0x75d07d3d7b9  1113  48ba0000000010000000 REX.W movq rdx,0x1000000000    ;; debug: position 2057
0x75d07d3d7c3  1123  488b7c2418     REX.W movq rdi,[rsp+0x18]
0x75d07d3d7c8  1128  e83360fdff     call 0x75d07d13800       ;; code: CALL_IC, DEFAULT
0x75d07d3d7cd  1133  488b75f8       REX.W movq rsi,[rbp-0x8]
0x75d07d3d7d1  1137  4883c408       REX.W addq rsp,0x8
0x75d07d3d7d5  1141  59             pop rcx                  ;; debug: position 2055
0x75d07d3d7d6  1142  5a             pop rdx
0x75d07d3d7d7  1143  e8c472ffff     call KeyedStoreIC_Initialize  (0x75d07d34aa0)    ;; code: KEYED_STORE_IC, UNINITIALIZED (id = 468)
0x75d07d3d7dc  1148  bb12000000     movl rbx,0x12            ;; debug: statement 2108
                                                             ;; debug: position 2116
0x75d07d3d7e1  1153  e8facefeff     call 0x75d07d2a6e0       ;; code: STUB, LoadGlobalViaContextStub, minor: 0
0x75d07d3d7e6  1158  50             push rax
0x75d07d3d7e7  1159  49ba8941a0fe40250000 REX.W movq r10,0x2540fea04189    ;; object: 0x2540fea04189 <undefined>
0x75d07d3d7f1  1169  4152           push r10
0x75d07d3d7f3  1171  bb12000000     movl rbx,0x12            ;; debug: position 2125
0x75d07d3d7f8  1176  e8e3cefeff     call 0x75d07d2a6e0       ;; code: STUB, LoadGlobalViaContextStub, minor: 0
0x75d07d3d7fd  1181  50             push rax
0x75d07d3d7fe  1182  49ba8941a0fe40250000 REX.W movq r10,0x2540fea04189    ;; object: 0x2540fea04189 <undefined>
0x75d07d3d808  1192  4152           push r10
0x75d07d3d80a  1194  bb13000000     movl rbx,0x13            ;; debug: position 2134
0x75d07d3d80f  1199  e8cccefeff     call 0x75d07d2a6e0       ;; code: STUB, LoadGlobalViaContextStub, minor: 0
0x75d07d3d814  1204  50             push rax
0x75d07d3d815  1205  49ba8941a0fe40250000 REX.W movq r10,0x2540fea04189    ;; object: 0x2540fea04189 <undefined>
0x75d07d3d81f  1215  4152           push r10
0x75d07d3d821  1217  ff75e0         push [rbp-0x20]          ;; debug: position 2138
0x75d07d3d824  1220  49ba0000000005000000 REX.W movq r10,0x500000000
0x75d07d3d82e  1230  4152           push r10
0x75d07d3d830  1232  48ba000000001e000000 REX.W movq rdx,0x1e00000000    ;; debug: position 2134
0x75d07d3d83a  1242  488b7c2418     REX.W movq rdi,[rsp+0x18]
0x75d07d3d83f  1247  e8bc5ffdff     call 0x75d07d13800       ;; code: CALL_IC, DEFAULT
0x75d07d3d844  1252  488b75f8       REX.W movq rsi,[rbp-0x8]
0x75d07d3d848  1256  48890424       REX.W movq [rsp],rax
0x75d07d3d84c  1260  bb0f000000     movl rbx,0xf             ;; debug: position 2145
0x75d07d3d851  1265  e88acefeff     call 0x75d07d2a6e0       ;; code: STUB, LoadGlobalViaContextStub, minor: 0
0x75d07d3d856  1270  50             push rax
0x75d07d3d857  1271  49ba8941a0fe40250000 REX.W movq r10,0x2540fea04189    ;; object: 0x2540fea04189 <undefined>
0x75d07d3d861  1281  4152           push r10
0x75d07d3d863  1283  ff7588         push [rbp-0x78]          ;; debug: position 2153
0x75d07d3d866  1286  ff75d8         push [rbp-0x28]          ;; debug: position 2156
0x75d07d3d869  1289  ff75d0         push [rbp-0x30]          ;; debug: position 2159
0x75d07d3d86c  1292  ff75c8         push [rbp-0x38]          ;; debug: position 2162
0x75d07d3d86f  1295  48ba0000000020000000 REX.W movq rdx,0x2000000000    ;; debug: position 2145
0x75d07d3d879  1305  488b7c2428     REX.W movq rdi,[rsp+0x28]
0x75d07d3d87e  1310  e8bdcbfeff     call 0x75d07d2a440       ;; code: CALL_IC, DEFAULT
0x75d07d3d883  1315  488b75f8       REX.W movq rsi,[rbp-0x8]
0x75d07d3d887  1319  48890424       REX.W movq [rsp],rax
0x75d07d3d88b  1323  48ba000000001c000000 REX.W movq rdx,0x1c00000000    ;; debug: position 2125
0x75d07d3d895  1333  488b7c2418     REX.W movq rdi,[rsp+0x18]
0x75d07d3d89a  1338  e8615ffdff     call 0x75d07d13800       ;; code: CALL_IC, DEFAULT
0x75d07d3d89f  1343  488b75f8       REX.W movq rsi,[rbp-0x8]
0x75d07d3d8a3  1347  48890424       REX.W movq [rsp],rax
0x75d07d3d8a7  1351  bb12000000     movl rbx,0x12            ;; debug: position 2190
0x75d07d3d8ac  1356  e82fcefeff     call 0x75d07d2a6e0       ;; code: STUB, LoadGlobalViaContextStub, minor: 0
0x75d07d3d8b1  1361  50             push rax
0x75d07d3d8b2  1362  49ba8941a0fe40250000 REX.W movq r10,0x2540fea04189    ;; object: 0x2540fea04189 <undefined>
0x75d07d3d8bc  1372  4152           push r10
0x75d07d3d8be  1374  bb12000000     movl rbx,0x12            ;; debug: position 2199
0x75d07d3d8c3  1379  e818cefeff     call 0x75d07d2a6e0       ;; code: STUB, LoadGlobalViaContextStub, minor: 0
0x75d07d3d8c8  1384  50             push rax
0x75d07d3d8c9  1385  49ba8941a0fe40250000 REX.W movq r10,0x2540fea04189    ;; object: 0x2540fea04189 <undefined>
0x75d07d3d8d3  1395  4152           push r10
0x75d07d3d8d5  1397  ff75c0         push [rbp-0x40]          ;; debug: position 2208
0x75d07d3d8d8  1400  ff75e8         push [rbp-0x18]          ;; debug: position 2211
0x75d07d3d8db  1403  488b4588       REX.W movq rax,[rbp-0x78]    ;; debug: position 2213
0x75d07d3d8df  1407  488bc8         REX.W movq rcx,rax
0x75d07d3d8e2  1410  5a             pop rdx
0x75d07d3d8e3  1411  48b80000000026000000 REX.W movq rax,0x2600000000    ;; debug: position 2212
0x75d07d3d8ed  1421  e8cee7fdff     call 0x75d07d1c0c0       ;; code: KEYED_LOAD_IC, DEFAULT
0x75d07d3d8f2  1426  50             push rax
0x75d07d3d8f3  1427  48ba0000000024000000 REX.W movq rdx,0x2400000000    ;; debug: position 2199
0x75d07d3d8fd  1437  488b7c2418     REX.W movq rdi,[rsp+0x18]
0x75d07d3d902  1442  e8f95efdff     call 0x75d07d13800       ;; code: CALL_IC, DEFAULT
0x75d07d3d907  1447  488b75f8       REX.W movq rsi,[rbp-0x8]
0x75d07d3d90b  1451  48890424       REX.W movq [rsp],rax
0x75d07d3d90f  1455  bb10000000     movl rbx,0x10            ;; debug: position 2218
0x75d07d3d914  1460  e8c7cdfeff     call 0x75d07d2a6e0       ;; code: STUB, LoadGlobalViaContextStub, minor: 0
0x75d07d3d919  1465  50             push rax
0x75d07d3d91a  1466  49ba8941a0fe40250000 REX.W movq r10,0x2540fea04189    ;; object: 0x2540fea04189 <undefined>
0x75d07d3d924  1476  4152           push r10
0x75d07d3d926  1478  ff7588         push [rbp-0x78]          ;; debug: position 2226
0x75d07d3d929  1481  48ba0000000028000000 REX.W movq rdx,0x2800000000    ;; debug: position 2218
0x75d07d3d933  1491  488b7c2410     REX.W movq rdi,[rsp+0x10]
0x75d07d3d938  1496  e80346ffff     call 0x75d07d31f40       ;; code: CALL_IC, DEFAULT
0x75d07d3d93d  1501  488b75f8       REX.W movq rsi,[rbp-0x8]
0x75d07d3d941  1505  48890424       REX.W movq [rsp],rax
0x75d07d3d945  1509  48ba0000000022000000 REX.W movq rdx,0x2200000000    ;; debug: position 2190
0x75d07d3d94f  1519  488b7c2418     REX.W movq rdi,[rsp+0x18]
0x75d07d3d954  1524  e8a75efdff     call 0x75d07d13800       ;; code: CALL_IC, DEFAULT
0x75d07d3d959  1529  488b75f8       REX.W movq rsi,[rbp-0x8]
0x75d07d3d95d  1533  48890424       REX.W movq [rsp],rax
0x75d07d3d961  1537  48ba000000001a000000 REX.W movq rdx,0x1a00000000    ;; debug: position 2116
0x75d07d3d96b  1547  488b7c2418     REX.W movq rdi,[rsp+0x18]
0x75d07d3d970  1552  e88b5efdff     call 0x75d07d13800       ;; code: CALL_IC, DEFAULT
0x75d07d3d975  1557  488b75f8       REX.W movq rsi,[rbp-0x8]
0x75d07d3d979  1561  4883c408       REX.W addq rsp,0x8
0x75d07d3d97d  1565  48894580       REX.W movq [rbp-0x80],rax    ;; debug: position 2108
0x75d07d3d981  1569  488b45c8       REX.W movq rax,[rbp-0x38]    ;; debug: statement 2238
                                                             ;; debug: position 2242
0x75d07d3d985  1573  488945c0       REX.W movq [rbp-0x40],rax    ;; debug: position 2240
0x75d07d3d989  1577  488b45d0       REX.W movq rax,[rbp-0x30]    ;; debug: statement 2251
                                                             ;; debug: position 2255
0x75d07d3d98d  1581  488945c8       REX.W movq [rbp-0x38],rax    ;; debug: position 2253
0x75d07d3d991  1585  bb13000000     movl rbx,0x13            ;; debug: statement 2264
                                                             ;; debug: position 2268
0x75d07d3d996  1590  e845cdfeff     call 0x75d07d2a6e0       ;; code: STUB, LoadGlobalViaContextStub, minor: 0
0x75d07d3d99b  1595  50             push rax
0x75d07d3d99c  1596  49ba8941a0fe40250000 REX.W movq r10,0x2540fea04189    ;; object: 0x2540fea04189 <undefined>
0x75d07d3d9a6  1606  4152           push r10
0x75d07d3d9a8  1608  ff75d8         push [rbp-0x28]          ;; debug: position 2272
0x75d07d3d9ab  1611  49ba000000001e000000 REX.W movq r10,0x1e00000000
0x75d07d3d9b5  1621  4152           push r10
0x75d07d3d9b7  1623  48ba000000002a000000 REX.W movq rdx,0x2a00000000    ;; debug: position 2268
0x75d07d3d9c1  1633  488b7c2418     REX.W movq rdi,[rsp+0x18]
0x75d07d3d9c6  1638  e8355efdff     call 0x75d07d13800       ;; code: CALL_IC, DEFAULT
0x75d07d3d9cb  1643  488b75f8       REX.W movq rsi,[rbp-0x8]
0x75d07d3d9cf  1647  4883c408       REX.W addq rsp,0x8
0x75d07d3d9d3  1651  488945d0       REX.W movq [rbp-0x30],rax    ;; debug: position 2266
0x75d07d3d9d7  1655  488b45e0       REX.W movq rax,[rbp-0x20]    ;; debug: statement 2286
                                                             ;; debug: position 2290
0x75d07d3d9db  1659  488945d8       REX.W movq [rbp-0x28],rax    ;; debug: position 2288
0x75d07d3d9df  1663  488b4580       REX.W movq rax,[rbp-0x80]    ;; debug: statement 2299
                                                             ;; debug: position 2303
0x75d07d3d9e3  1667  488945e0       REX.W movq [rbp-0x20],rax    ;; debug: position 2301
0x75d07d3d9e7  1671  488b4588       REX.W movq rax,[rbp-0x78]    ;; debug: statement 1995
                                                             ;; debug: position 1994
0x75d07d3d9eb  1675  a801           test al,0x1
0x75d07d3d9ed  1677  7314           jnc 1699  (0x75d07d3da03)
0x75d07d3d9ef  1679  49ba0000000001000000 REX.W movq r10,0x100000000
0x75d07d3d9f9  1689  4903c2         REX.W addq rax,r10
0x75d07d3d9fc  1692  711e           jno 1724  (0x75d07d3da1c)
0x75d07d3d9fe  1694  492bc2         REX.W subq rax,r10
0x75d07d3da01  1697  eb05           jmp 1704  (0x75d07d3da08)
0x75d07d3da03  1699  e8f854feff     call 0x75d07d22f00       ;; code: STUB, ToNumberStub, minor: 0
0x75d07d3da08  1704  488bd0         REX.W movq rdx,rax       ;; debug: position 1995
0x75d07d3da0b  1707  48b80000000001000000 REX.W movq rax,0x100000000
0x75d07d3da15  1717  e866abfdff     call 0x75d07d18580       ;; code: BINARY_OP_IC, UNINITIALIZED (id = 416)
0x75d07d3da1a  1722  a82d           test al,0x2d
0x75d07d3da1c  1724  48894588       REX.W movq [rbp-0x78],rax
0x75d07d3da20  1728  48bb29ffaefe40250000 REX.W movq rbx,0x2540feaeff29    ;; object: 0x2540feaeff29 Cell for 6144
0x75d07d3da2a  1738  83430bf9       addl [rbx+0xb],0xf9
0x75d07d3da2e  1742  791d           jns 1773  (0x75d07d3da4d)
0x75d07d3da30  1744  e80b8fffff     call InterruptCheck  (0x75d07d36940)    ;; code: BUILTIN
0x75d07d3da35  1749  48bb29ffaefe40250000 REX.W movq rbx,0x2540feaeff29    ;; object: 0x2540feaeff29 Cell for 6144
0x75d07d3da3f  1759  49ba0000000000180000 REX.W movq r10,0x180000000000
0x75d07d3da49  1769  4c895307       REX.W movq [rbx+0x7],r10
0x75d07d3da4d  1773  ff7588         push [rbp-0x78]          ;; debug: statement 1988
                                                             ;; debug: position 1986
0x75d07d3da50  1776  48b80000000050000000 REX.W movq rax,0x5000000000
0x75d07d3da5a  1786  5a             pop rdx
0x75d07d3da5b  1787  488bca         REX.W movq rcx,rdx
0x75d07d3da5e  1790  480bc8         REX.W orq rcx,rax
0x75d07d3da61  1793  f6c101         testb rcx,0x1
0x75d07d3da64  1796  730e           jnc 1812  (0x75d07d3da74)
0x75d07d3da66  1798  483bd0         REX.W cmpq rdx,rax
0x75d07d3da69  1801  0f8c14fbffff   jl 547  (0x75d07d3d583)
0x75d07d3da6f  1807  e921000000     jmp 1845  (0x75d07d3da95)
0x75d07d3da74  1812  e847eefdff     call 0x75d07d1c8c0       ;; code: COMPARE_IC, UNINITIALIZED (id = 405)
0x75d07d3da79  1817  a815           test al,0x15
0x75d07d3da7b  1819  eb0f           jmp 1836  (0x75d07d3da8c)
0x75d07d3da7d  1821  493b45c0       REX.W cmpq rax,[r13-0x40]
0x75d07d3da81  1825  0f84fcfaffff   jz 547  (0x75d07d3d583)
0x75d07d3da87  1831  e909000000     jmp 1845  (0x75d07d3da95)
0x75d07d3da8c  1836  4885c0         REX.W testq rax,rax
0x75d07d3da8f  1839  0f8ceefaffff   jl 547  (0x75d07d3d583)
0x75d07d3da95  1845  bb12000000     movl rbx,0x12            ;; debug: statement 2317
                                                             ;; debug: position 2321
0x75d07d3da9a  1850  e841ccfeff     call 0x75d07d2a6e0       ;; code: STUB, LoadGlobalViaContextStub, minor: 0
0x75d07d3da9f  1855  50             push rax
0x75d07d3daa0  1856  49ba8941a0fe40250000 REX.W movq r10,0x2540fea04189    ;; object: 0x2540fea04189 <undefined>
0x75d07d3daaa  1866  4152           push r10
0x75d07d3daac  1868  ff75e0         push [rbp-0x20]          ;; debug: position 2330
0x75d07d3daaf  1871  ff75b0         push [rbp-0x50]          ;; debug: position 2333
0x75d07d3dab2  1874  48ba000000002c000000 REX.W movq rdx,0x2c00000000    ;; debug: position 2321
0x75d07d3dabc  1884  488b7c2418     REX.W movq rdi,[rsp+0x18]
0x75d07d3dac1  1889  e83a5dfdff     call 0x75d07d13800       ;; code: CALL_IC, DEFAULT
0x75d07d3dac6  1894  488b75f8       REX.W movq rsi,[rbp-0x8]
0x75d07d3daca  1898  4883c408       REX.W addq rsp,0x8
0x75d07d3dace  1902  488945e0       REX.W movq [rbp-0x20],rax    ;; debug: position 2319
0x75d07d3dad2  1906  bb12000000     movl rbx,0x12            ;; debug: statement 2344
                                                             ;; debug: position 2348
0x75d07d3dad7  1911  e804ccfeff     call 0x75d07d2a6e0       ;; code: STUB, LoadGlobalViaContextStub, minor: 0
0x75d07d3dadc  1916  50             push rax
0x75d07d3dadd  1917  49ba8941a0fe40250000 REX.W movq r10,0x2540fea04189    ;; object: 0x2540fea04189 <undefined>
0x75d07d3dae7  1927  4152           push r10
0x75d07d3dae9  1929  ff75d8         push [rbp-0x28]          ;; debug: position 2357
0x75d07d3daec  1932  ff75a8         push [rbp-0x58]          ;; debug: position 2360
0x75d07d3daef  1935  48ba000000002e000000 REX.W movq rdx,0x2e00000000    ;; debug: position 2348
0x75d07d3daf9  1945  488b7c2418     REX.W movq rdi,[rsp+0x18]
0x75d07d3dafe  1950  e8fd5cfdff     call 0x75d07d13800       ;; code: CALL_IC, DEFAULT
0x75d07d3db03  1955  488b75f8       REX.W movq rsi,[rbp-0x8]
0x75d07d3db07  1959  4883c408       REX.W addq rsp,0x8
0x75d07d3db0b  1963  488945d8       REX.W movq [rbp-0x28],rax    ;; debug: position 2346
0x75d07d3db0f  1967  bb12000000     movl rbx,0x12            ;; debug: statement 2371
                                                             ;; debug: position 2375
0x75d07d3db14  1972  e8c7cbfeff     call 0x75d07d2a6e0       ;; code: STUB, LoadGlobalViaContextStub, minor: 0
0x75d07d3db19  1977  50             push rax
0x75d07d3db1a  1978  49ba8941a0fe40250000 REX.W movq r10,0x2540fea04189    ;; object: 0x2540fea04189 <undefined>
0x75d07d3db24  1988  4152           push r10
0x75d07d3db26  1990  ff75d0         push [rbp-0x30]          ;; debug: position 2384
0x75d07d3db29  1993  ff75a0         push [rbp-0x60]          ;; debug: position 2387
0x75d07d3db2c  1996  48ba0000000030000000 REX.W movq rdx,0x3000000000    ;; debug: position 2375
0x75d07d3db36  2006  488b7c2418     REX.W movq rdi,[rsp+0x18]
0x75d07d3db3b  2011  e8c05cfdff     call 0x75d07d13800       ;; code: CALL_IC, DEFAULT
0x75d07d3db40  2016  488b75f8       REX.W movq rsi,[rbp-0x8]
0x75d07d3db44  2020  4883c408       REX.W addq rsp,0x8
0x75d07d3db48  2024  488945d0       REX.W movq [rbp-0x30],rax    ;; debug: position 2373
0x75d07d3db4c  2028  bb12000000     movl rbx,0x12            ;; debug: statement 2398
                                                             ;; debug: position 2402
0x75d07d3db51  2033  e88acbfeff     call 0x75d07d2a6e0       ;; code: STUB, LoadGlobalViaContextStub, minor: 0
0x75d07d3db56  2038  50             push rax
0x75d07d3db57  2039  49ba8941a0fe40250000 REX.W movq r10,0x2540fea04189    ;; object: 0x2540fea04189 <undefined>
0x75d07d3db61  2049  4152           push r10
0x75d07d3db63  2051  ff75c8         push [rbp-0x38]          ;; debug: position 2411
0x75d07d3db66  2054  ff7598         push [rbp-0x68]          ;; debug: position 2414
0x75d07d3db69  2057  48ba0000000032000000 REX.W movq rdx,0x3200000000    ;; debug: position 2402
0x75d07d3db73  2067  488b7c2418     REX.W movq rdi,[rsp+0x18]
0x75d07d3db78  2072  e8835cfdff     call 0x75d07d13800       ;; code: CALL_IC, DEFAULT
0x75d07d3db7d  2077  488b75f8       REX.W movq rsi,[rbp-0x8]
0x75d07d3db81  2081  4883c408       REX.W addq rsp,0x8
0x75d07d3db85  2085  488945c8       REX.W movq [rbp-0x38],rax    ;; debug: position 2400
0x75d07d3db89  2089  bb12000000     movl rbx,0x12            ;; debug: statement 2425
                                                             ;; debug: position 2429
0x75d07d3db8e  2094  e84dcbfeff     call 0x75d07d2a6e0       ;; code: STUB, LoadGlobalViaContextStub, minor: 0
0x75d07d3db93  2099  50             push rax
0x75d07d3db94  2100  49ba8941a0fe40250000 REX.W movq r10,0x2540fea04189    ;; object: 0x2540fea04189 <undefined>
0x75d07d3db9e  2110  4152           push r10
0x75d07d3dba0  2112  ff75c0         push [rbp-0x40]          ;; debug: position 2438
0x75d07d3dba3  2115  ff7590         push [rbp-0x70]          ;; debug: position 2441
0x75d07d3dba6  2118  48ba0000000034000000 REX.W movq rdx,0x3400000000    ;; debug: position 2429
0x75d07d3dbb0  2128  488b7c2418     REX.W movq rdi,[rsp+0x18]
0x75d07d3dbb5  2133  e8465cfdff     call 0x75d07d13800       ;; code: CALL_IC, DEFAULT
0x75d07d3dbba  2138  488b75f8       REX.W movq rsi,[rbp-0x8]
0x75d07d3dbbe  2142  4883c408       REX.W addq rsp,0x8
0x75d07d3dbc2  2146  488945c0       REX.W movq [rbp-0x40],rax    ;; debug: position 2427
0x75d07d3dbc6  2150  488b45b8       REX.W movq rax,[rbp-0x48]    ;; debug: statement 1865
                                                             ;; debug: position 1863
0x75d07d3dbca  2154  50             push rax
0x75d07d3dbcb  2155  48b80000000010000000 REX.W movq rax,0x1000000000
0x75d07d3dbd5  2165  5a             pop rdx
0x75d07d3dbd6  2166  488bc8         REX.W movq rcx,rax
0x75d07d3dbd9  2169  480bc2         REX.W orq rax,rdx
0x75d07d3dbdc  2172  a801           test al,0x1
0x75d07d3dbde  2174  720c           jc 2188  (0x75d07d3dbec)
0x75d07d3dbe0  2176  488bc1         REX.W movq rax,rcx
0x75d07d3dbe3  2179  e898a9fdff     call 0x75d07d18580       ;; code: BINARY_OP_IC, UNINITIALIZED (id = 304)
0x75d07d3dbe8  2184  a80a           test al,0xa
0x75d07d3dbea  2186  eb0c           jmp 2200  (0x75d07d3dbf8)
0x75d07d3dbec  2188  488bc2         REX.W movq rax,rdx
0x75d07d3dbef  2191  4803c1         REX.W addq rax,rcx
0x75d07d3dbf2  2194  0f80e8ffffff   jo 2176  (0x75d07d3dbe0)
0x75d07d3dbf8  2200  488945b8       REX.W movq [rbp-0x48],rax    ;; debug: position 1865
0x75d07d3dbfc  2204  48bb29ffaefe40250000 REX.W movq rbx,0x2540feaeff29    ;; object: 0x2540feaeff29 Cell for 6144
0x75d07d3dc06  2214  83430bf6       addl [rbx+0xb],0xf6
0x75d07d3dc0a  2218  791d           jns 2249  (0x75d07d3dc29)
0x75d07d3dc0c  2220  e82f8dffff     call InterruptCheck  (0x75d07d36940)    ;; code: BUILTIN
0x75d07d3dc11  2225  48bb29ffaefe40250000 REX.W movq rbx,0x2540feaeff29    ;; object: 0x2540feaeff29 Cell for 6144
0x75d07d3dc1b  2235  49ba0000000000180000 REX.W movq r10,0x180000000000
0x75d07d3dc25  2245  4c895307       REX.W movq [rbx+0x7],r10
0x75d07d3dc29  2249  ff75b8         push [rbp-0x48]          ;; debug: statement 1851
                                                             ;; debug: position 1849
0x75d07d3dc2c  2252  488b4518       REX.W movq rax,[rbp+0x18]    ;; debug: position 1853
0x75d07d3dc30  2256  488bd0         REX.W movq rdx,rax
0x75d07d3dc33  2259  48b97107a9fe40250000 REX.W movq rcx,0x2540fea90771    ;; debug: position 1854
                                                             ;; object: 0x2540fea90771 <String[6]: length>
0x75d07d3dc3d  2269  48b8000000000c000000 REX.W movq rax,0xc00000000
0x75d07d3dc47  2279  e814a9feff     call 0x75d07d28560       ;; code: contextual, LOAD_IC, DEFAULT
0x75d07d3dc4c  2284  5a             pop rdx
0x75d07d3dc4d  2285  488bca         REX.W movq rcx,rdx
0x75d07d3dc50  2288  480bc8         REX.W orq rcx,rax
0x75d07d3dc53  2291  f6c101         testb rcx,0x1
0x75d07d3dc56  2294  730e           jnc 2310  (0x75d07d3dc66)
0x75d07d3dc58  2296  483bd0         REX.W cmpq rdx,rax
0x75d07d3dc5b  2299  0f8ce7f8ffff   jl 488  (0x75d07d3d548)
0x75d07d3dc61  2305  e921000000     jmp 2343  (0x75d07d3dc87)
0x75d07d3dc66  2310  e855ecfdff     call 0x75d07d1c8c0       ;; code: COMPARE_IC, UNINITIALIZED (id = 284)
0x75d07d3dc6b  2315  a815           test al,0x15
0x75d07d3dc6d  2317  eb0f           jmp 2334  (0x75d07d3dc7e)
0x75d07d3dc6f  2319  493b45c0       REX.W cmpq rax,[r13-0x40]
0x75d07d3dc73  2323  0f84cff8ffff   jz 488  (0x75d07d3d548)
0x75d07d3dc79  2329  e909000000     jmp 2343  (0x75d07d3dc87)
0x75d07d3dc7e  2334  4885c0         REX.W testq rax,rax
0x75d07d3dc81  2337  0f8cc1f8ffff   jl 488  (0x75d07d3d548)
0x75d07d3dc87  2343  48b9d91fa9fe40250000 REX.W movq rcx,0x2540fea91fd9    ;; debug: statement 2454
                                                             ;; debug: position 2461
                                                             ;; object: 0x2540fea91fd9 <String[5]: Array>
0x75d07d3dc91  2353  488b5627       REX.W movq rdx,[rsi+0x27]
0x75d07d3dc95  2357  48b8000000000a000000 REX.W movq rax,0xa00000000
0x75d07d3dc9f  2367  e8bca8feff     call 0x75d07d28560       ;; code: contextual, LOAD_IC, DEFAULT
0x75d07d3dca4  2372  50             push rax
0x75d07d3dca5  2373  49ba8941a0fe40250000 REX.W movq r10,0x2540fea04189    ;; object: 0x2540fea04189 <undefined>
0x75d07d3dcaf  2383  4152           push r10
0x75d07d3dcb1  2385  ff75e0         push [rbp-0x20]          ;; debug: position 2467
0x75d07d3dcb4  2388  ff75d8         push [rbp-0x28]          ;; debug: position 2470
0x75d07d3dcb7  2391  ff75d0         push [rbp-0x30]          ;; debug: position 2473
0x75d07d3dcba  2394  ff75c8         push [rbp-0x38]          ;; debug: position 2476
0x75d07d3dcbd  2397  ff75c0         push [rbp-0x40]          ;; debug: position 2479
0x75d07d3dcc0  2400  48ba0000000036000000 REX.W movq rdx,0x3600000000    ;; debug: position 2461
0x75d07d3dcca  2410  488b7c2430     REX.W movq rdi,[rsp+0x30]
0x75d07d3dccf  2415  e82ccbfeff     call 0x75d07d2a800       ;; code: CALL_IC, DEFAULT
0x75d07d3dcd4  2420  488b75f8       REX.W movq rsi,[rbp-0x8]
0x75d07d3dcd8  2424  4883c408       REX.W addq rsp,0x8
0x75d07d3dcdc  2428  48bb29ffaefe40250000 REX.W movq rbx,0x2540feaeff29    ;; object: 0x2540feaeff29 Cell for 6144
0x75d07d3dce6  2438  83430bf2       addl [rbx+0xb],0xf2
0x75d07d3dcea  2442  791f           jns 2475  (0x75d07d3dd0b)
0x75d07d3dcec  2444  50             push rax
0x75d07d3dced  2445  e84e8cffff     call InterruptCheck  (0x75d07d36940)    ;; code: BUILTIN
0x75d07d3dcf2  2450  58             pop rax
0x75d07d3dcf3  2451  48bb29ffaefe40250000 REX.W movq rbx,0x2540feaeff29    ;; object: 0x2540feaeff29 Cell for 6144
0x75d07d3dcfd  2461  49ba0000000000180000 REX.W movq r10,0x180000000000
0x75d07d3dd07  2471  4c895307       REX.W movq [rbx+0x7],r10
0x75d07d3dd0b  2475  c9             leave                    ;; debug: statement 2484
0x75d07d3dd0c  2476  c21800         ret 0x18
0x75d07d3dd0f  2479  498b45a8       REX.W movq rax,[r13-0x58]
0x75d07d3dd13  2483  e9c4ffffff     jmp 2428  (0x75d07d3dcdc)

Deoptimization Output Data (deopt points = 357)
ast id        pc  state
     1        24  NO_REGISTERS
     2        24  NO_REGISTERS
     3        24  NO_REGISTERS
   109        38  NO_REGISTERS
   107        41  NO_REGISTERS
   103        41  NO_REGISTERS
   101        44  NO_REGISTERS
   104        54  TOS_REG
    97        62  NO_REGISTERS
    96        86  TOS_REG
   114        99  NO_REGISTERS
   121       111  NO_REGISTERS
   130       111  NO_REGISTERS
   128       114  NO_REGISTERS
   131       124  TOS_REG
   124       131  TOS_REG
   117       138  TOS_REG
   110       145  TOS_REG
    50       152  TOS_REG
    48       159  TOS_REG
    46       159  NO_REGISTERS
   174       159  NO_REGISTERS
   172       162  NO_REGISTERS
   159       162  NO_REGISTERS
   157       165  NO_REGISTERS
   160       175  TOS_REG
   153       183  NO_REGISTERS
   163       193  TOS_REG
   149       201  NO_REGISTERS
   166       211  TOS_REG
   145       219  NO_REGISTERS
   169       229  TOS_REG
   141       237  NO_REGISTERS
   177       237  NO_REGISTERS
   175       241  TOS_REG
   136       248  TOS_REG
   134       248  NO_REGISTERS
   178       248  NO_REGISTERS
   195       248  NO_REGISTERS
   193       278  NO_REGISTERS
   196       302  NO_REGISTERS
   190       322  TOS_REG
   188       330  TOS_REG
   183       334  TOS_REG
   181       334  NO_REGISTERS
   179       334  NO_REGISTERS
   199       334  NO_REGISTERS
   209       357  TOS_REG
   204       361  TOS_REG
   202       361  NO_REGISTERS
   200       361  NO_REGISTERS
   212       361  NO_REGISTERS
   222       384  TOS_REG
   217       388  TOS_REG
   215       388  NO_REGISTERS
   213       388  NO_REGISTERS
   225       388  NO_REGISTERS
   235       411  TOS_REG
   230       415  TOS_REG
   228       415  NO_REGISTERS
   226       415  NO_REGISTERS
   238       415  NO_REGISTERS
   248       438  TOS_REG
   243       442  TOS_REG
   241       442  NO_REGISTERS
   239       442  NO_REGISTERS
   251       442  NO_REGISTERS
   261       465  TOS_REG
   256       469  TOS_REG
   254       469  NO_REGISTERS
   252       469  NO_REGISTERS
   269       469  NO_REGISTERS
   279       479  TOS_REG
   274       483  TOS_REG
   272       483  NO_REGISTERS
   270       483  NO_REGISTERS
   268       488  NO_REGISTERS
   317       488  NO_REGISTERS
   320       488  NO_REGISTERS
   332       488  NO_REGISTERS
   330       492  TOS_REG
   325       496  TOS_REG
   323       496  NO_REGISTERS
   321       496  NO_REGISTERS
   333       496  NO_REGISTERS
   345       496  NO_REGISTERS
   343       500  TOS_REG
   338       504  TOS_REG
   336       504  NO_REGISTERS
   334       504  NO_REGISTERS
   346       504  NO_REGISTERS
   358       504  NO_REGISTERS
   356       508  TOS_REG
   351       512  TOS_REG
   349       512  NO_REGISTERS
   347       512  NO_REGISTERS
   359       512  NO_REGISTERS
   371       512  NO_REGISTERS
   369       516  TOS_REG
   364       520  TOS_REG
   362       520  NO_REGISTERS
   360       520  NO_REGISTERS
   372       520  NO_REGISTERS
   384       520  NO_REGISTERS
   382       524  TOS_REG
   377       528  TOS_REG
   375       528  NO_REGISTERS
   373       528  NO_REGISTERS
   390       528  NO_REGISTERS
   400       538  TOS_REG
   395       542  TOS_REG
   393       542  NO_REGISTERS
   391       542  NO_REGISTERS
   389       547  NO_REGISTERS
   421       547  NO_REGISTERS
   432       547  NO_REGISTERS
   430       550  NO_REGISTERS
   433       560  TOS_REG
   427       595  TOS_REG
   425       619  NO_REGISTERS
   448       619  NO_REGISTERS
   446       622  NO_REGISTERS
   445       622  NO_REGISTERS
   443       625  NO_REGISTERS
   464       625  NO_REGISTERS
   462       628  NO_REGISTERS
   458       628  NO_REGISTERS
   456       631  NO_REGISTERS
   461       631  NO_REGISTERS
   459       635  TOS_REG
   452       670  TOS_REG
   451       689  TOS_REG
   449       689  TOS_REG
   438       696  TOS_REG
   436       696  NO_REGISTERS
   426       701  NO_REGISTERS
   477       701  NO_REGISTERS
   475       704  NO_REGISTERS
   474       704  NO_REGISTERS
   472       707  NO_REGISTERS
   485       707  NO_REGISTERS
   483       718  NO_REGISTERS
   513       730  NO_REGISTERS
   511       733  NO_REGISTERS
   507       733  NO_REGISTERS
   505       736  NO_REGISTERS
   508       746  TOS_REG
   501       781  TOS_REG
   500       800  TOS_REG
   498       801  NO_REGISTERS
   529       801  NO_REGISTERS
   527       804  NO_REGISTERS
   523       804  NO_REGISTERS
   521       807  NO_REGISTERS
   524       817  TOS_REG
   517       852  TOS_REG
   516       871  TOS_REG
   514       871  TOS_REG
   494       901  NO_REGISTERS
   545       901  NO_REGISTERS
   543       904  NO_REGISTERS
   539       904  NO_REGISTERS
   537       907  NO_REGISTERS
   540       917  TOS_REG
   533       952  TOS_REG
   532       971  TOS_REG
   530       971  TOS_REG
   490      1001  NO_REGISTERS
   561      1001  NO_REGISTERS
   559      1004  NO_REGISTERS
   555      1004  NO_REGISTERS
   553      1007  NO_REGISTERS
   556      1017  TOS_REG
   549      1052  TOS_REG
   548      1071  TOS_REG
   546      1071  TOS_REG
   486      1101  NO_REGISTERS
   562      1113  NO_REGISTERS
   480      1133  TOS_REG
   478      1141  TOS_REG
   467      1148  TOS_REG
   465      1148  NO_REGISTERS
   424      1148  NO_REGISTERS
   565      1148  NO_REGISTERS
   582      1148  NO_REGISTERS
   580      1159  NO_REGISTERS
   590      1171  NO_REGISTERS
   588      1182  NO_REGISTERS
   598      1194  NO_REGISTERS
   596      1205  NO_REGISTERS
   601      1217  NO_REGISTERS
   599      1220  NO_REGISTERS
   602      1232  NO_REGISTERS
   593      1252  TOS_REG
   591      1260  NO_REGISTERS
   612      1260  NO_REGISTERS
   610      1271  NO_REGISTERS
   615      1283  NO_REGISTERS
   613      1286  NO_REGISTERS
   618      1286  NO_REGISTERS
   616      1289  NO_REGISTERS
   621      1289  NO_REGISTERS
   619      1292  NO_REGISTERS
   624      1292  NO_REGISTERS
   622      1295  NO_REGISTERS
   607      1315  TOS_REG
   605      1323  NO_REGISTERS
   585      1343  TOS_REG
   583      1351  NO_REGISTERS
   632      1351  NO_REGISTERS
   630      1362  NO_REGISTERS
   640      1374  NO_REGISTERS
   638      1385  NO_REGISTERS
   643      1397  NO_REGISTERS
   641      1400  NO_REGISTERS
   652      1400  NO_REGISTERS
   650      1403  NO_REGISTERS
   649      1403  NO_REGISTERS
   647      1407  TOS_REG
   646      1426  TOS_REG
   644      1427  NO_REGISTERS
   635      1447  TOS_REG
   633      1455  NO_REGISTERS
   660      1455  NO_REGISTERS
   658      1466  NO_REGISTERS
   663      1478  NO_REGISTERS
   661      1481  NO_REGISTERS
   655      1501  TOS_REG
   653      1509  NO_REGISTERS
   627      1529  TOS_REG
   625      1537  NO_REGISTERS
   577      1557  TOS_REG
   575      1565  TOS_REG
   570      1569  TOS_REG
   568      1569  NO_REGISTERS
   566      1569  NO_REGISTERS
   673      1569  NO_REGISTERS
   671      1573  TOS_REG
   666      1577  TOS_REG
   664      1577  NO_REGISTERS
   683      1577  NO_REGISTERS
   681      1581  TOS_REG
   676      1585  TOS_REG
   674      1585  NO_REGISTERS
   698      1585  NO_REGISTERS
   696      1596  NO_REGISTERS
   701      1608  NO_REGISTERS
   699      1611  NO_REGISTERS
   702      1623  NO_REGISTERS
   693      1643  TOS_REG
   691      1651  TOS_REG
   686      1655  TOS_REG
   684      1655  NO_REGISTERS
   714      1655  NO_REGISTERS
   712      1659  TOS_REG
   707      1663  TOS_REG
   705      1663  NO_REGISTERS
   724      1663  NO_REGISTERS
   722      1667  TOS_REG
   717      1671  TOS_REG
   715      1671  NO_REGISTERS
   422      1671  NO_REGISTERS
   388      1671  NO_REGISTERS
   420      1671  NO_REGISTERS
   418      1675  TOS_REG
   415      1704  TOS_REG
   414      1728  TOS_REG
   412      1728  NO_REGISTERS
   385      1773  NO_REGISTERS
   387      1773  NO_REGISTERS
   408      1773  NO_REGISTERS
   406      1776  NO_REGISTERS
   409      1786  TOS_REG
   403      1821  TOS_REG
   386      1845  NO_REGISTERS
   739      1845  NO_REGISTERS
   737      1856  NO_REGISTERS
   742      1868  NO_REGISTERS
   740      1871  NO_REGISTERS
   745      1871  NO_REGISTERS
   743      1874  NO_REGISTERS
   734      1894  TOS_REG
   732      1902  TOS_REG
   727      1906  TOS_REG
   725      1906  NO_REGISTERS
   760      1906  NO_REGISTERS
   758      1917  NO_REGISTERS
   763      1929  NO_REGISTERS
   761      1932  NO_REGISTERS
   766      1932  NO_REGISTERS
   764      1935  NO_REGISTERS
   755      1955  TOS_REG
   753      1963  TOS_REG
   748      1967  TOS_REG
   746      1967  NO_REGISTERS
   781      1967  NO_REGISTERS
   779      1978  NO_REGISTERS
   784      1990  NO_REGISTERS
   782      1993  NO_REGISTERS
   787      1993  NO_REGISTERS
   785      1996  NO_REGISTERS
   776      2016  TOS_REG
   774      2024  TOS_REG
   769      2028  TOS_REG
   767      2028  NO_REGISTERS
   802      2028  NO_REGISTERS
   800      2039  NO_REGISTERS
   805      2051  NO_REGISTERS
   803      2054  NO_REGISTERS
   808      2054  NO_REGISTERS
   806      2057  NO_REGISTERS
   797      2077  TOS_REG
   795      2085  TOS_REG
   790      2089  TOS_REG
   788      2089  NO_REGISTERS
   823      2089  NO_REGISTERS
   821      2100  NO_REGISTERS
   826      2112  NO_REGISTERS
   824      2115  NO_REGISTERS
   829      2115  NO_REGISTERS
   827      2118  NO_REGISTERS
   818      2138  TOS_REG
   816      2146  TOS_REG
   811      2150  TOS_REG
   809      2150  NO_REGISTERS
   318      2150  NO_REGISTERS
   267      2150  NO_REGISTERS
   313      2150  NO_REGISTERS
   311      2154  TOS_REG
   314      2165  TOS_REG
   301      2200  TOS_REG
   299      2204  TOS_REG
   297      2204  NO_REGISTERS
   264      2249  NO_REGISTERS
   266      2249  NO_REGISTERS
   287      2249  NO_REGISTERS
   285      2252  NO_REGISTERS
   296      2252  NO_REGISTERS
   294      2256  TOS_REG
   290      2284  TOS_REG
   288      2284  TOS_REG
   282      2319  TOS_REG
   265      2343  NO_REGISTERS
   837      2343  NO_REGISTERS
   835      2373  NO_REGISTERS
   840      2385  NO_REGISTERS
   838      2388  NO_REGISTERS
   843      2388  NO_REGISTERS
   841      2391  NO_REGISTERS
   846      2391  NO_REGISTERS
   844      2394  NO_REGISTERS
   849      2394  NO_REGISTERS
   847      2397  NO_REGISTERS
   852      2397  NO_REGISTERS
   850      2400  NO_REGISTERS
   832      2420  TOS_REG
   830      2428  TOS_REG

Back edges (size = 2)
ast_id  pc_offset  loop_depth
   387       1749           2
   266       2225           1

0x2540feaf17e1: [TypeFeedbackInfo]
 - ic_total_count: 52, ic_with_type_info_count: 0, ic_generic_count: 0

RelocInfo (size = 568)
0x75d07d3d360  position  (1580)
0x75d07d3d382  code target (BUILTIN)  (0x75d07d36a80)
0x75d07d3d386  statement position  (1616)
0x75d07d3d386  position  (1616)
0x75d07d3d389  position  (1618)
0x75d07d3d396  position  (1622)
0x75d07d3d398  code target with id (BINARY_OP_IC)  (0x75d07d2df20) (id=100)
0x75d07d3d3a7  position  (1617)
0x75d07d3d3b2  code target (KEYED_LOAD_IC)  (0x75d07d1c0c0)
0x75d07d3d3cf  position  (1645)
0x75d07d3d3dc  position  (1649)
0x75d07d3d3de  code target with id (BINARY_OP_IC)  (0x75d07d282c0) (id=127)
0x75d07d3d3e3  position  (1643)
0x75d07d3d3e5  code target with id (BINARY_OP_IC)  (0x75d07d08a40) (id=120)
0x75d07d3d3ea  position  (1636)
0x75d07d3d3ec  code target with id (BINARY_OP_IC)  (0x75d07d235c0) (id=113)
0x75d07d3d3f3  code target with id (BINARY_OP_IC)  (0x75d07d2f600) (id=53)
0x75d07d3d3f8  position  (1628)
0x75d07d3d3fb  code target with id (KEYED_STORE_IC)  (0x75d07d34aa0) (id=49)
0x75d07d3d3ff  statement position  (1658)
0x75d07d3d3ff  position  (1658)
0x75d07d3d402  position  (1662)
0x75d07d3d40f  position  (1666)
0x75d07d3d411  code target with id (BINARY_OP_IC)  (0x75d07d18580) (id=156)
0x75d07d3d421  position  (1671)
0x75d07d3d423  code target with id (BINARY_OP_IC)  (0x75d07d2df20) (id=152)
0x75d07d3d433  position  (1677)
0x75d07d3d435  code target with id (BINARY_OP_IC)  (0x75d07d235c0) (id=148)
0x75d07d3d445  position  (1683)
0x75d07d3d447  code target with id (BINARY_OP_IC)  (0x75d07d18580) (id=144)
0x75d07d3d44d  position  (1691)
0x75d07d3d451  position  (1689)
0x75d07d3d454  code target with id (KEYED_STORE_IC)  (0x75d07d34aa0) (id=137)
0x75d07d3d458  statement position  (1699)
0x75d07d3d458  position  (1707)
0x75d07d3d45a  embedded object  (0x2540fea91fd9 <String[5]: Array>)
0x75d07d3d471  code target (LOAD_IC)  (0x75d07d28560)
0x75d07d3d478  embedded object  (0x2540fea04189 <undefined>)
0x75d07d3d49e  code target (CALL_IC)  (0x75d07d31f40)
0x75d07d3d4aa  position  (1699)
0x75d07d3d4ae  statement position  (1720)
0x75d07d3d4c9  statement position  (1743)
0x75d07d3d4e4  statement position  (1765)
0x75d07d3d4ff  statement position  (1788)
0x75d07d3d51a  statement position  (1810)
0x75d07d3d535  statement position  (1834)
0x75d07d3d535  statement position  (1838)
0x75d07d3d548  statement position  (1880)
0x75d07d3d548  position  (1891)
0x75d07d3d54c  position  (1880)
0x75d07d3d550  statement position  (1898)
0x75d07d3d550  position  (1909)
0x75d07d3d554  position  (1898)
0x75d07d3d558  statement position  (1916)
0x75d07d3d558  position  (1927)
0x75d07d3d55c  position  (1916)
0x75d07d3d560  statement position  (1934)
0x75d07d3d560  position  (1945)
0x75d07d3d564  position  (1934)
0x75d07d3d568  statement position  (1952)
0x75d07d3d568  position  (1963)
0x75d07d3d56c  position  (1952)
0x75d07d3d570  statement position  (1971)
0x75d07d3d570  statement position  (1975)
0x75d07d3d583  statement position  (2011)
0x75d07d3d583  position  (2014)
0x75d07d3d5ab  code target with id (COMPARE_IC)  (0x75d07d1c8c0) (id=429)
0x75d07d3d5cb  statement position  (2022)
0x75d07d3d5cb  position  (2022)
0x75d07d3d5ce  position  (2024)
0x75d07d3d5d1  position  (2029)
0x75d07d3d5d4  position  (2031)
0x75d07d3d5d7  position  (2035)
0x75d07d3d5db  position  (2033)
0x75d07d3d5ea  code target with id (BINARY_OP_IC)  (0x75d07d18580) (id=455)
0x75d07d3d602  position  (2030)
0x75d07d3d60d  code target (KEYED_LOAD_IC)  (0x75d07d1c0c0)
0x75d07d3d611  position  (2027)
0x75d07d3d614  code target with id (KEYED_STORE_IC)  (0x75d07d34aa0) (id=439)
0x75d07d3d61d  statement position  (2050)
0x75d07d3d61d  position  (2050)
0x75d07d3d620  position  (2052)
0x75d07d3d623  position  (2057)
0x75d07d3d629  code target (STUB)  (0x75d07d2a6e0)
0x75d07d3d630  embedded object  (0x2540fea04189 <undefined>)
0x75d07d3d63a  position  (2061)
0x75d07d3d63d  position  (2063)
0x75d07d3d64a  position  (2064)
0x75d07d3d659  code target with id (BINARY_OP_IC)  (0x75d07d08a40) (id=504)
0x75d07d3d671  position  (2062)
0x75d07d3d67c  code target (KEYED_LOAD_IC)  (0x75d07d1c0c0)
0x75d07d3d681  position  (2070)
0x75d07d3d684  position  (2072)
0x75d07d3d691  position  (2073)
0x75d07d3d6a0  code target with id (BINARY_OP_IC)  (0x75d07d08a40) (id=520)
0x75d07d3d6b8  position  (2071)
0x75d07d3d6c3  code target (KEYED_LOAD_IC)  (0x75d07d1c0c0)
0x75d07d3d6c7  position  (2068)
0x75d07d3d6d6  code target with id (BINARY_OP_IC)  (0x75d07d28960) (id=497)
0x75d07d3d6e5  position  (2079)
0x75d07d3d6e8  position  (2081)
0x75d07d3d6f5  position  (2082)
0x75d07d3d704  code target with id (BINARY_OP_IC)  (0x75d07d08a40) (id=536)
0x75d07d3d71c  position  (2080)
0x75d07d3d727  code target (KEYED_LOAD_IC)  (0x75d07d1c0c0)
0x75d07d3d72b  position  (2077)
0x75d07d3d73a  code target with id (BINARY_OP_IC)  (0x75d07d28960) (id=493)
0x75d07d3d749  position  (2089)
0x75d07d3d74c  position  (2091)
0x75d07d3d759  position  (2092)
0x75d07d3d768  code target with id (BINARY_OP_IC)  (0x75d07d08a40) (id=552)
0x75d07d3d780  position  (2090)
0x75d07d3d78b  code target (KEYED_LOAD_IC)  (0x75d07d1c0c0)
0x75d07d3d78f  position  (2087)
0x75d07d3d79e  code target with id (BINARY_OP_IC)  (0x75d07d28960) (id=489)
0x75d07d3d7b9  position  (2057)
0x75d07d3d7c9  code target (CALL_IC)  (0x75d07d13800)
0x75d07d3d7d5  position  (2055)
0x75d07d3d7d8  code target with id (KEYED_STORE_IC)  (0x75d07d34aa0) (id=468)
0x75d07d3d7dc  statement position  (2108)
0x75d07d3d7dc  position  (2116)
0x75d07d3d7e2  code target (STUB)  (0x75d07d2a6e0)
0x75d07d3d7e9  embedded object  (0x2540fea04189 <undefined>)
0x75d07d3d7f3  position  (2125)
0x75d07d3d7f9  code target (STUB)  (0x75d07d2a6e0)
0x75d07d3d800  embedded object  (0x2540fea04189 <undefined>)
0x75d07d3d80a  position  (2134)
0x75d07d3d810  code target (STUB)  (0x75d07d2a6e0)
0x75d07d3d817  embedded object  (0x2540fea04189 <undefined>)
0x75d07d3d821  position  (2138)
0x75d07d3d830  position  (2134)
0x75d07d3d840  code target (CALL_IC)  (0x75d07d13800)
0x75d07d3d84c  position  (2145)
0x75d07d3d852  code target (STUB)  (0x75d07d2a6e0)
0x75d07d3d859  embedded object  (0x2540fea04189 <undefined>)
0x75d07d3d863  position  (2153)
0x75d07d3d866  position  (2156)
0x75d07d3d869  position  (2159)
0x75d07d3d86c  position  (2162)
0x75d07d3d86f  position  (2145)
0x75d07d3d87f  code target (CALL_IC)  (0x75d07d2a440)
0x75d07d3d88b  position  (2125)
0x75d07d3d89b  code target (CALL_IC)  (0x75d07d13800)
0x75d07d3d8a7  position  (2190)
0x75d07d3d8ad  code target (STUB)  (0x75d07d2a6e0)
0x75d07d3d8b4  embedded object  (0x2540fea04189 <undefined>)
0x75d07d3d8be  position  (2199)
0x75d07d3d8c4  code target (STUB)  (0x75d07d2a6e0)
0x75d07d3d8cb  embedded object  (0x2540fea04189 <undefined>)
0x75d07d3d8d5  position  (2208)
0x75d07d3d8d8  position  (2211)
0x75d07d3d8db  position  (2213)
0x75d07d3d8e3  position  (2212)
0x75d07d3d8ee  code target (KEYED_LOAD_IC)  (0x75d07d1c0c0)
0x75d07d3d8f3  position  (2199)
0x75d07d3d903  code target (CALL_IC)  (0x75d07d13800)
0x75d07d3d90f  position  (2218)
0x75d07d3d915  code target (STUB)  (0x75d07d2a6e0)
0x75d07d3d91c  embedded object  (0x2540fea04189 <undefined>)
0x75d07d3d926  position  (2226)
0x75d07d3d929  position  (2218)
0x75d07d3d939  code target (CALL_IC)  (0x75d07d31f40)
0x75d07d3d945  position  (2190)
0x75d07d3d955  code target (CALL_IC)  (0x75d07d13800)
0x75d07d3d961  position  (2116)
0x75d07d3d971  code target (CALL_IC)  (0x75d07d13800)
0x75d07d3d97d  position  (2108)
0x75d07d3d981  statement position  (2238)
0x75d07d3d981  position  (2242)
0x75d07d3d985  position  (2240)
0x75d07d3d989  statement position  (2251)
0x75d07d3d989  position  (2255)
0x75d07d3d98d  position  (2253)
0x75d07d3d991  statement position  (2264)
0x75d07d3d991  position  (2268)
0x75d07d3d997  code target (STUB)  (0x75d07d2a6e0)
0x75d07d3d99e  embedded object  (0x2540fea04189 <undefined>)
0x75d07d3d9a8  position  (2272)
0x75d07d3d9b7  position  (2268)
0x75d07d3d9c7  code target (CALL_IC)  (0x75d07d13800)
0x75d07d3d9d3  position  (2266)
0x75d07d3d9d7  statement position  (2286)
0x75d07d3d9d7  position  (2290)
0x75d07d3d9db  position  (2288)
0x75d07d3d9df  statement position  (2299)
0x75d07d3d9df  position  (2303)
0x75d07d3d9e3  position  (2301)
0x75d07d3d9e7  statement position  (1995)
0x75d07d3d9e7  position  (1994)
0x75d07d3da04  code target (STUB)  (0x75d07d22f00)
0x75d07d3da08  position  (1995)
0x75d07d3da16  code target with id (BINARY_OP_IC)  (0x75d07d18580) (id=416)
0x75d07d3da22  embedded object  (0x2540feaeff29 Cell for 6144)
0x75d07d3da31  code target (BUILTIN)  (0x75d07d36940)
0x75d07d3da37  embedded object  (0x2540feaeff29 Cell for 6144)
0x75d07d3da4d  statement position  (1988)
0x75d07d3da4d  position  (1986)
0x75d07d3da75  code target with id (COMPARE_IC)  (0x75d07d1c8c0) (id=405)
0x75d07d3da95  statement position  (2317)
0x75d07d3da95  position  (2321)
0x75d07d3da9b  code target (STUB)  (0x75d07d2a6e0)
0x75d07d3daa2  embedded object  (0x2540fea04189 <undefined>)
0x75d07d3daac  position  (2330)
0x75d07d3daaf  position  (2333)
0x75d07d3dab2  position  (2321)
0x75d07d3dac2  code target (CALL_IC)  (0x75d07d13800)
0x75d07d3dace  position  (2319)
0x75d07d3dad2  statement position  (2344)
0x75d07d3dad2  position  (2348)
0x75d07d3dad8  code target (STUB)  (0x75d07d2a6e0)
0x75d07d3dadf  embedded object  (0x2540fea04189 <undefined>)
0x75d07d3dae9  position  (2357)
0x75d07d3daec  position  (2360)
0x75d07d3daef  position  (2348)
0x75d07d3daff  code target (CALL_IC)  (0x75d07d13800)
0x75d07d3db0b  position  (2346)
0x75d07d3db0f  statement position  (2371)
0x75d07d3db0f  position  (2375)
0x75d07d3db15  code target (STUB)  (0x75d07d2a6e0)
0x75d07d3db1c  embedded object  (0x2540fea04189 <undefined>)
0x75d07d3db26  position  (2384)
0x75d07d3db29  position  (2387)
0x75d07d3db2c  position  (2375)
0x75d07d3db3c  code target (CALL_IC)  (0x75d07d13800)
0x75d07d3db48  position  (2373)
0x75d07d3db4c  statement position  (2398)
0x75d07d3db4c  position  (2402)
0x75d07d3db52  code target (STUB)  (0x75d07d2a6e0)
0x75d07d3db59  embedded object  (0x2540fea04189 <undefined>)
0x75d07d3db63  position  (2411)
0x75d07d3db66  position  (2414)
0x75d07d3db69  position  (2402)
0x75d07d3db79  code target (CALL_IC)  (0x75d07d13800)
0x75d07d3db85  position  (2400)
0x75d07d3db89  statement position  (2425)
0x75d07d3db89  position  (2429)
0x75d07d3db8f  code target (STUB)  (0x75d07d2a6e0)
0x75d07d3db96  embedded object  (0x2540fea04189 <undefined>)
0x75d07d3dba0  position  (2438)
0x75d07d3dba3  position  (2441)
0x75d07d3dba6  position  (2429)
0x75d07d3dbb6  code target (CALL_IC)  (0x75d07d13800)
0x75d07d3dbc2  position  (2427)
0x75d07d3dbc6  statement position  (1865)
0x75d07d3dbc6  position  (1863)
0x75d07d3dbe4  code target with id (BINARY_OP_IC)  (0x75d07d18580) (id=304)
0x75d07d3dbf8  position  (1865)
0x75d07d3dbfe  embedded object  (0x2540feaeff29 Cell for 6144)
0x75d07d3dc0d  code target (BUILTIN)  (0x75d07d36940)
0x75d07d3dc13  embedded object  (0x2540feaeff29 Cell for 6144)
0x75d07d3dc29  statement position  (1851)
0x75d07d3dc29  position  (1849)
0x75d07d3dc2c  position  (1853)
0x75d07d3dc33  position  (1854)
0x75d07d3dc35  embedded object  (0x2540fea90771 <String[6]: length>)
0x75d07d3dc48  code target (LOAD_IC)  (0x75d07d28560)
0x75d07d3dc67  code target with id (COMPARE_IC)  (0x75d07d1c8c0) (id=284)
0x75d07d3dc87  statement position  (2454)
0x75d07d3dc87  position  (2461)
0x75d07d3dc89  embedded object  (0x2540fea91fd9 <String[5]: Array>)
0x75d07d3dca0  code target (LOAD_IC)  (0x75d07d28560)
0x75d07d3dca7  embedded object  (0x2540fea04189 <undefined>)
0x75d07d3dcb1  position  (2467)
0x75d07d3dcb4  position  (2470)
0x75d07d3dcb7  position  (2473)
0x75d07d3dcba  position  (2476)
0x75d07d3dcbd  position  (2479)
0x75d07d3dcc0  position  (2461)
0x75d07d3dcd0  code target (CALL_IC)  (0x75d07d2a800)
0x75d07d3dcde  embedded object  (0x2540feaeff29 Cell for 6144)
0x75d07d3dcee  code target (BUILTIN)  (0x75d07d36940)
0x75d07d3dcf5  embedded object  (0x2540feaeff29 Cell for 6144)
0x75d07d3dd0b  statement position  (2484)

--- End code ---
--- Code ---
kind = STUB
major_key = <NoCache>Stub
name = GrowArrayElementsStub
compiler = crankshaft
Instructions (size = 690)
0x75d07d3e8e0     0  488b500f       REX.W movq rdx,[rax+0xf]
0x75d07d3e8e4     4  8b4a0b         movl rcx,[rdx+0xb]
0x75d07d3e8e7     7  8b781b         movl rdi,[rax+0x1b]
0x75d07d3e8ea    10  81c100040000   addl rcx,0x400
0x75d07d3e8f0    16  0f8024020000   jo 570  (0x75d07d3eb1a)
0x75d07d3e8f6    22  4c8bc3         REX.W movq r8,rbx
0x75d07d3e8f9    25  41f6c001       testb r8,0x1
0x75d07d3e8fd    29  0f85db000000   jnz 254  (0x75d07d3e9de)
0x75d07d3e903    35  49c1e820       REX.W shrq r8, 32
0x75d07d3e907    39  413bc8         cmpl rcx,r8
0x75d07d3e90a    42  0f8619020000   jna 585  (0x75d07d3eb29)
0x75d07d3e910    48  488bcb         REX.W movq rcx,rbx
0x75d07d3e913    51  f6c101         testb rcx,0x1
0x75d07d3e916    54  0f8511010000   jnz 333  (0x75d07d3ea2d)
0x75d07d3e91c    60  48c1e920       REX.W shrq rcx, 32
0x75d07d3e920    64  d1e9           shrl rcx, 1
0x75d07d3e922    66  4103c8         addl rcx,r8
0x75d07d3e925    69  83c110         addl rcx,0x10
0x75d07d3e928    72  81f9def70100   cmpl rcx,0x1f7de
0x75d07d3e92e    78  0f8304020000   jnc 600  (0x75d07d3eb38)
0x75d07d3e934    84  8bd9           movl rbx,rcx
0x75d07d3e936    86  48c1e320       REX.W shlq rbx, 32
0x75d07d3e93a    90  c1e103         shll rcx, 3
0x75d07d3e93d    93  83c110         addl rcx,0x10
0x75d07d3e940    96  4d8b8d900c0000 REX.W movq r9,[r13+0xc90]
0x75d07d3e947   103  4c8bc1         REX.W movq r8,rcx
0x75d07d3e94a   106  4d03c1         REX.W addq r8,r9
0x75d07d3e94d   109  0f8254010000   jc 455  (0x75d07d3eaa7)
0x75d07d3e953   115  4d3b85980c0000 REX.W cmpq r8,[r13+0xc98]
0x75d07d3e95a   122  0f8747010000   ja 455  (0x75d07d3eaa7)
0x75d07d3e960   128  4d8985900c0000 REX.W movq [r13+0xc90],r8
0x75d07d3e967   135  4983c101       REX.W addq r9,0x1
0x75d07d3e96b   139  49ba0942c006200b0000 REX.W movq r10,0xb2006c04209    ;; object: 0xb2006c04209 <Map(FAST_SMI_ELEMENTS)>
0x75d07d3e975   149  4d8951ff       REX.W movq [r9-0x1],r10
0x75d07d3e979   153  49895907       REX.W movq [r9+0x7],rbx
0x75d07d3e97d   157  418b590b       movl rbx,[r9+0xb]
0x75d07d3e981   161  3bdf           cmpl rbx,rdi
0x75d07d3e983   163  0f8e14000000   jle 189  (0x75d07d3e99d)
0x75d07d3e989   169  83eb01         subl rbx,0x1
0x75d07d3e98c   172  49bae941a0fe40250000 REX.W movq r10,0x2540fea041e9    ;; object: 0x2540fea041e9 <the hole>
0x75d07d3e996   182  4d8954d90f     REX.W movq [r9+rbx*8+0xf],r10
0x75d07d3e99b   187  ebe4           jmp 161  (0x75d07d3e981)
0x75d07d3e99d   189  83ff00         cmpl rdi,0x0
0x75d07d3e9a0   192  0f8e14000000   jle 218  (0x75d07d3e9ba)
0x75d07d3e9a6   198  83ef01         subl rdi,0x1
0x75d07d3e9a9   201  8b5cfa13       movl rbx,[rdx+rdi*8+0x13]
0x75d07d3e9ad   205  8bcb           movl rcx,rbx
0x75d07d3e9af   207  48c1e120       REX.W shlq rcx, 32
0x75d07d3e9b3   211  49894cf90f     REX.W movq [r9+rdi*8+0xf],rcx
0x75d07d3e9b8   216  ebe3           jmp 189  (0x75d07d3e99d)
0x75d07d3e9ba   218  498bd9         REX.W movq rbx,r9
0x75d07d3e9bd   221  4889580f       REX.W movq [rax+0xf],rbx
0x75d07d3e9c1   225  488d500f       REX.W leaq rdx,[rax+0xf]
0x75d07d3e9c5   229  48c7c30000f0ff REX.W movq rbx,0xfff00000
0x75d07d3e9cc   236  4823d8         REX.W andq rbx,rax
0x75d07d3e9cf   239  f6430808       testb [rbx+0x8],0x8
0x75d07d3e9d3   243  7405           jz 250  (0x75d07d3e9da)
0x75d07d3e9d5   245  e8c6f3ffff     call 0x75d07d3dda0       ;; code: STUB, RecordWriteStub, minor: 8752
0x75d07d3e9da   250  498bc1         REX.W movq rax,r9
0x75d07d3e9dd   253  c3             ret
0x75d07d3e9de   254  55             push rbp
0x75d07d3e9df   255  ff75f8         push [rbp-0x8]
0x75d07d3e9e2   258  49ba0000000006000000 REX.W movq r10,0x600000000
0x75d07d3e9ec   268  4152           push r10
0x75d07d3e9ee   270  488d6c2410     REX.W leaq rbp,[rsp+0x10]
0x75d07d3e9f3   275  4d8b5508       REX.W movq r10,[r13+0x8]
0x75d07d3e9f7   279  4d3950ff       REX.W cmpq [r8-0x1],r10
0x75d07d3e9fb   283  0f8546010000   jnz 615  (0x75d07d3eb47)
0x75d07d3ea01   289  f2410f104007   movsd xmm0,[r8+0x7]
0x75d07d3ea07   295  f2440f2cc0     cvttsd2sil r8,xmm0
0x75d07d3ea0c   300  0f57c9         xorps xmm1,xmm1
0x75d07d3ea0f   303  f2410f2ac8     cvtsi2sd xmm1,r8
0x75d07d3ea14   308  660f2ec1       ucomisd xmm0,xmm1
0x75d07d3ea18   312  0f8529010000   jnz 615  (0x75d07d3eb47)
0x75d07d3ea1e   318  0f8a23010000   jpe 615  (0x75d07d3eb47)
0x75d07d3ea24   324  488be5         REX.W movq rsp,rbp
0x75d07d3ea27   327  5d             pop rbp
0x75d07d3ea28   328  e9dafeffff     jmp 39  (0x75d07d3e907)
0x75d07d3ea2d   333  55             push rbp
0x75d07d3ea2e   334  ff75f8         push [rbp-0x8]
0x75d07d3ea31   337  49ba0000000006000000 REX.W movq r10,0x600000000
0x75d07d3ea3b   347  4152           push r10
0x75d07d3ea3d   349  488d6c2410     REX.W leaq rbp,[rsp+0x10]
0x75d07d3ea42   354  4d8b5508       REX.W movq r10,[r13+0x8]
0x75d07d3ea46   358  4c3951ff       REX.W cmpq [rcx-0x1],r10
0x75d07d3ea4a   362  7529           jnz 405  (0x75d07d3ea75)
0x75d07d3ea4c   364  f20f104107     movsd xmm0,[rcx+0x7]
0x75d07d3ea51   369  f2480f2cc8     REX.W cvttsd2siq rcx,xmm0
0x75d07d3ea56   374  4883f901       REX.W cmpq rcx,0x1
0x75d07d3ea5a   378  7112           jno 398  (0x75d07d3ea6e)
0x75d07d3ea5c   380  4883ec08       REX.W subq rsp,0x8
0x75d07d3ea60   384  f20f110424     movsd [rsp],xmm0
0x75d07d3ea65   389  e8b6fdffff     call 0x75d07d3e820       ;; code: STUB, DoubleToIStub, minor: 135236
0x75d07d3ea6a   394  4883c408       REX.W addq rsp,0x8
0x75d07d3ea6e   398  8bc9           movl rcx,rcx
0x75d07d3ea70   400  e929000000     jmp 446  (0x75d07d3ea9e)
0x75d07d3ea75   405  493b4da8       REX.W cmpq rcx,[r13-0x58]
0x75d07d3ea79   409  7507           jnz 418  (0x75d07d3ea82)
0x75d07d3ea7b   411  33c9           xorl rcx,rcx
0x75d07d3ea7d   413  e91c000000     jmp 446  (0x75d07d3ea9e)
0x75d07d3ea82   418  493b4dc0       REX.W cmpq rcx,[r13-0x40]
0x75d07d3ea86   422  750a           jnz 434  (0x75d07d3ea92)
0x75d07d3ea88   424  b901000000     movl rcx,0x1
0x75d07d3ea8d   429  e90c000000     jmp 446  (0x75d07d3ea9e)
0x75d07d3ea92   434  493b4dc8       REX.W cmpq rcx,[r13-0x38]
0x75d07d3ea96   438  0f85b0000000   jnz 620  (0x75d07d3eb4c)
0x75d07d3ea9c   444  33c9           xorl rcx,rcx
0x75d07d3ea9e   446  488be5         REX.W movq rsp,rbp
0x75d07d3eaa1   449  5d             pop rbp
0x75d07d3eaa2   450  e979feffff     jmp 64  (0x75d07d3e920)
0x75d07d3eaa7   455  55             push rbp
0x75d07d3eaa8   456  ff75f8         push [rbp-0x8]
0x75d07d3eaab   459  49ba0000000006000000 REX.W movq r10,0x600000000
0x75d07d3eab5   469  4152           push r10
0x75d07d3eab7   471  488d6c2410     REX.W leaq rbp,[rsp+0x10]
0x75d07d3eabc   476  49b90000000000000000 REX.W movq r9,(nil)
0x75d07d3eac6   486  50             push rax
0x75d07d3eac7   487  51             push rcx
0x75d07d3eac8   488  52             push rdx
0x75d07d3eac9   489  53             push rbx
0x75d07d3eaca   490  56             push rsi
0x75d07d3eacb   491  57             push rdi
0x75d07d3eacc   492  4150           push r8
0x75d07d3eace   494  4151           push r9
0x75d07d3ead0   496  4153           push r11
0x75d07d3ead2   498  4154           push r12
0x75d07d3ead4   500  4156           push r14
0x75d07d3ead6   502  4157           push r15
0x75d07d3ead8   504  488d6424e0     REX.W leaq rsp,[rsp-0x20]
0x75d07d3eadd   509  48c1e120       REX.W shlq rcx, 32
0x75d07d3eae1   513  51             push rcx
0x75d07d3eae2   514  6a00           push 0x0
0x75d07d3eae4   516  b802000000     movl rax,0x2
0x75d07d3eae9   521  498d9d28ca0bfd REX.W leaq rbx,[r13-0x2f435d8]
0x75d07d3eaf0   528  e8ab77fcff     call 0x75d07d062a0       ;; code: STUB, CEntryStub, minor: 1
0x75d07d3eaf5   533  4889442440     REX.W movq [rsp+0x40],rax
0x75d07d3eafa   538  488d642420     REX.W leaq rsp,[rsp+0x20]
0x75d07d3eaff   543  415f           pop r15
0x75d07d3eb01   545  415e           pop r14
0x75d07d3eb03   547  415c           pop r12
0x75d07d3eb05   549  415b           pop r11
0x75d07d3eb07   551  4159           pop r9
0x75d07d3eb09   553  4158           pop r8
0x75d07d3eb0b   555  5f             pop rdi
0x75d07d3eb0c   556  5e             pop rsi
0x75d07d3eb0d   557  5b             pop rbx
0x75d07d3eb0e   558  5a             pop rdx
0x75d07d3eb0f   559  59             pop rcx
0x75d07d3eb10   560  58             pop rax
0x75d07d3eb11   561  488be5         REX.W movq rsp,rbp
0x75d07d3eb14   564  5d             pop rbp
0x75d07d3eb15   565  e951feffff     jmp 139  (0x75d07d3e96b)
0x75d07d3eb1a   570  49ba0060b0075d070000 REX.W movq r10,0x75d07b06000
0x75d07d3eb24   580  e828000000     call 625  (0x75d07d3eb51)
0x75d07d3eb29   585  49ba0a60b0075d070000 REX.W movq r10,0x75d07b0600a
0x75d07d3eb33   595  e819000000     call 625  (0x75d07d3eb51)
0x75d07d3eb38   600  49ba1460b0075d070000 REX.W movq r10,0x75d07b06014
0x75d07d3eb42   610  e80a000000     call 625  (0x75d07d3eb51)
0x75d07d3eb47   615  e8d274dcff     call 0x75d07b0601e       ;; lazy deoptimization bailout 3
0x75d07d3eb4c   620  e8d774dcff     call 0x75d07b06028       ;; lazy deoptimization bailout 4
0x75d07d3eb51   625  4883ec10       REX.W subq rsp,0x10
0x75d07d3eb55   629  ff742410       push [rsp+0x10]
0x75d07d3eb59   633  4152           push r10
0x75d07d3eb5b   635  4c8b55f8       REX.W movq r10,[rbp-0x8]
0x75d07d3eb5f   639  4c89542418     REX.W movq [rsp+0x18],r10
0x75d07d3eb64   644  48896c2420     REX.W movq [rsp+0x20],rbp
0x75d07d3eb69   649  488d6c2420     REX.W leaq rbp,[rsp+0x20]
0x75d07d3eb6e   654  49ba0000000006000000 REX.W movq r10,0x600000000
0x75d07d3eb78   664  4c89542410     REX.W movq [rsp+0x10],r10
0x75d07d3eb7d   669  c3             ret
0x75d07d3eb7e   670  6690           nop


Safepoints (size = 18)
0x75d07d3eaf5   533  01000000 | rax | rdx | rsi | r9 (sp -> fp)  <none> argc: 2

RelocInfo (size = 19)
0x75d07d3e96d  embedded object  (0xb2006c04209 <Map(FAST_SMI_ELEMENTS)>)
0x75d07d3e98e  embedded object  (0x2540fea041e9 <the hole>)
0x75d07d3e9d6  code target (STUB)  (0x75d07d3dda0)
0x75d07d3ea66  code target (STUB)  (0x75d07d3e820)
0x75d07d3eaf1  code target (STUB)  (0x75d07d062a0)
0x75d07d3eb48  runtime entry
0x75d07d3eb4d  runtime entry

--- End code ---
--- Raw source ---
(x, len)
{
  /* append padding */
  x[len >> 5] |= 0x80 << (24 - len % 32);
  x[((len + 64 >> 9) << 4) + 15] = len;

  var w = Array(80);
  var a =  1732584193;
  var b = -271733879;
  var c = -1732584194;
  var d =  271733878;
  var e = -1009589776;

  for(var i = 0; i < x.length; i += 16)
  {
    var olda = a;
    var oldb = b;
    var oldc = c;
    var oldd = d;
    var olde = e;

    for(var j = 0; j < 80; j++)
    {
      if(j < 16) w[j] = x[i + j];
      else w[j] = rol(w[j-3] ^ w[j-8] ^ w[j-14] ^ w[j-16], 1);
      var t = safe_add(safe_add(rol(a, 5), sha1_ft(j, b, c, d)),
                       safe_add(safe_add(e, w[j]), sha1_kt(j)));
      e = d;
      d = c;
      c = rol(b, 30);
      b = a;
      a = t;
    }

    a = safe_add(a, olda);
    b = safe_add(b, oldb);
    c = safe_add(c, oldc);
    d = safe_add(d, oldd);
    e = safe_add(e, olde);
  }
  return Array(a, b, c, d, e);

}


--- Optimized code ---
optimization_id = 4
source_position = 1580
kind = OPTIMIZED_FUNCTION
name = core_sha1
stack_slots = 29
compiler = crankshaft
Instructions (size = 3344)
0x75d07d3ec00     0  55             push rbp
0x75d07d3ec01     1  4889e5         REX.W movq rbp,rsp
0x75d07d3ec04     4  56             push rsi
0x75d07d3ec05     5  57             push rdi
0x75d07d3ec06     6  4881ece8000000 REX.W subq rsp,0xe8
0x75d07d3ec0d    13  488b45f8       REX.W movq rax,[rbp-0x8]
0x75d07d3ec11    17  48898578ffffff REX.W movq [rbp-0x88],rax
0x75d07d3ec18    24  488bf0         REX.W movq rsi,rax
0x75d07d3ec1b    27  493ba548090000 REX.W cmpq rsp,[r13+0x948]
0x75d07d3ec22    34  7305           jnc 41  (0x75d07d3ec29)
0x75d07d3ec24    36  e8577effff     call StackCheck  (0x75d07d36a80)    ;; code: BUILTIN
0x75d07d3ec29    41  488b4510       REX.W movq rax,[rbp+0x10]
0x75d07d3ec2d    45  a801           test al,0x1              ;; debug: position 1622
0x75d07d3ec2f    47  0f853f080000   jnz 2164  (0x75d07d3f474)
0x75d07d3ec35    53  48c1e820       REX.W shrq rax, 32
0x75d07d3ec39    57  488bd8         REX.W movq rbx,rax
0x75d07d3ec3c    60  c1fb05         sarl rbx, 5
0x75d07d3ec3f    63  488b5518       REX.W movq rdx,[rbp+0x18]
0x75d07d3ec43    67  f6c201         testb rdx,0x1
0x75d07d3ec46    70  0f84960b0000   jz 3042  (0x75d07d3f7e2)
0x75d07d3ec4c    76  49ba797cc006200b0000 REX.W movq r10,0xb2006c07c79    ;; object: 0xb2006c07c79 <Map(FAST_SMI_ELEMENTS)>
0x75d07d3ec56    86  4c3952ff       REX.W cmpq [rdx-0x1],r10
0x75d07d3ec5a    90  0f85870b0000   jnz 3047  (0x75d07d3f7e7)
0x75d07d3ec60    96  488b7a0f       REX.W movq rdi,[rdx+0xf]
0x75d07d3ec64   100  8b421b         movl rax,[rdx+0x1b]
0x75d07d3ec67   103  3bc3           cmpl rax,rbx
0x75d07d3ec69   105  0f867d0b0000   jna 3052  (0x75d07d3f7ec)
0x75d07d3ec6f   111  8b74df13       movl rsi,[rdi+rbx*8+0x13]
0x75d07d3ec73   115  4c8b4510       REX.W movq r8,[rbp+0x10]
0x75d07d3ec77   119  41f6c001       testb r8,0x1             ;; debug: position 1649
0x75d07d3ec7b   123  0f8554080000   jnz 2261  (0x75d07d3f4d5)
0x75d07d3ec81   129  49c1e820       REX.W shrq r8, 32
0x75d07d3ec85   133  498bc8         REX.W movq rcx,r8
0x75d07d3ec88   136  85c9           testl rcx,rcx
0x75d07d3ec8a   138  7909           jns 149  (0x75d07d3ec95)
0x75d07d3ec8c   140  f7d9           negl rcx
0x75d07d3ec8e   142  83e11f         andl rcx,0x1f
0x75d07d3ec91   145  f7d9           negl rcx
0x75d07d3ec93   147  eb03           jmp 152  (0x75d07d3ec98)
0x75d07d3ec95   149  83e11f         andl rcx,0x1f
0x75d07d3ec98   152  41b918000000   movl r9,0x18             ;; debug: position 1622
0x75d07d3ec9e   158  442bc9         subl r9,rcx              ;; debug: position 1643
0x75d07d3eca1   161  b980000000     movl rcx,0x80            ;; debug: position 1622
0x75d07d3eca6   166  4987c9         REX.W xchgq rcx,r9
0x75d07d3eca9   169  41d3e1         shll r9, cl              ;; debug: position 1636
0x75d07d3ecac   172  440bce         orl r9,rsi
0x75d07d3ecaf   175  49ba0942c006200b0000 REX.W movq r10,0xb2006c04209    ;; object: 0xb2006c04209 <Map(FAST_SMI_ELEMENTS)>
0x75d07d3ecb9   185  4c3957ff       REX.W cmpq [rdi-0x1],r10
0x75d07d3ecbd   189  0f852e0b0000   jnz 3057  (0x75d07d3f7f1)
0x75d07d3ecc3   195  3bd8           cmpl rbx,rax
0x75d07d3ecc5   197  0f852d000000   jnz 248  (0x75d07d3ecf8)
0x75d07d3eccb   203  8b4f0b         movl rcx,[rdi+0xb]
0x75d07d3ecce   206  488bb578ffffff REX.W movq rsi,[rbp-0x88]
0x75d07d3ecd5   213  3bd9           cmpl rbx,rcx
0x75d07d3ecd7   215  0f8d2e080000   jge 2315  (0x75d07d3f50b)
0x75d07d3ecdd   221  488bc7         REX.W movq rax,rdi
0x75d07d3ece0   224  8d4b01         leal rcx,[rbx+0x1]
0x75d07d3ece3   227  8bf1           movl rsi,rcx
0x75d07d3ece5   229  48c1e620       REX.W shlq rsi, 32
0x75d07d3ece9   233  48897217       REX.W movq [rdx+0x17],rsi
0x75d07d3eced   237  4533d2         xorl r10,r10
0x75d07d3ecf0   240  4c8954d80f     REX.W movq [rax+rbx*8+0xf],r10
0x75d07d3ecf5   245  488bf8         REX.W movq rdi,rax
0x75d07d3ecf8   248  44894cdf13     movl [rdi+rbx*8+0x13],r9
0x75d07d3ecfd   253  418d4040       leal rax,[r8+0x40]       ;; debug: position 1666
0x75d07d3ed01   257  c1f809         sarl rax, 9              ;; debug: position 1671
0x75d07d3ed04   260  488bd8         REX.W movq rbx,rax
0x75d07d3ed07   263  c1e304         shll rbx, 4              ;; debug: position 1677
0x75d07d3ed0a   266  4863db         REX.W movsxlq rbx,rbx
0x75d07d3ed0d   269  8d4b0f         leal rcx,[rbx+0xf]       ;; debug: position 1683
0x75d07d3ed10   272  488b7a0f       REX.W movq rdi,[rdx+0xf]
0x75d07d3ed14   276  49ba0942c006200b0000 REX.W movq r10,0xb2006c04209    ;; object: 0xb2006c04209 <Map(FAST_SMI_ELEMENTS)>
0x75d07d3ed1e   286  4c3957ff       REX.W cmpq [rdi-0x1],r10
0x75d07d3ed22   290  0f85ce0a0000   jnz 3062  (0x75d07d3f7f6)
0x75d07d3ed28   296  8b421b         movl rax,[rdx+0x1b]
0x75d07d3ed2b   299  488b7510       REX.W movq rsi,[rbp+0x10]
0x75d07d3ed2f   303  40f6c601       testb rsi,0x1
0x75d07d3ed33   307  0f85c20a0000   jnz 3067  (0x75d07d3f7fb)
0x75d07d3ed39   313  4c8bc6         REX.W movq r8,rsi
0x75d07d3ed3c   316  49c1e820       REX.W shrq r8, 32
0x75d07d3ed40   320  3bc8           cmpl rcx,rax
0x75d07d3ed42   322  0f840d000000   jz 341  (0x75d07d3ed55)
0x75d07d3ed48   328  3bc1           cmpl rax,rcx
0x75d07d3ed4a   330  0f86b00a0000   jna 3072  (0x75d07d3f800)
0x75d07d3ed50   336  e932000000     jmp 391  (0x75d07d3ed87)
0x75d07d3ed55   341  448b4f0b       movl r9,[rdi+0xb]
0x75d07d3ed59   345  488bb578ffffff REX.W movq rsi,[rbp-0x88]
0x75d07d3ed60   352  413bc9         cmpl rcx,r9
0x75d07d3ed63   355  0f8df8070000   jge 2401  (0x75d07d3f561)
0x75d07d3ed69   361  488bc7         REX.W movq rax,rdi
0x75d07d3ed6c   364  83c101         addl rcx,0x1
0x75d07d3ed6f   367  8bf1           movl rsi,rcx
0x75d07d3ed71   369  48c1e620       REX.W shlq rsi, 32
0x75d07d3ed75   373  48897217       REX.W movq [rdx+0x17],rsi
0x75d07d3ed79   377  4533d2         xorl r10,r10
0x75d07d3ed7c   380  4c8994d887000000 REX.W movq [rax+rbx*8+0x87],r10
0x75d07d3ed84   388  488bf8         REX.W movq rdi,rax
0x75d07d3ed87   391  448984df8b000000 movl [rdi+rbx*8+0x8b],r8
0x75d07d3ed8f   399  49ba8941a0fe40250000 REX.W movq r10,0x2540fea04189    ;; debug: position 1707
                                                             ;; object: 0x2540fea04189 <undefined>
0x75d07d3ed99   409  4152           push r10
0x75d07d3ed9b   411  49ba0000000050000000 REX.W movq r10,0x5000000000
0x75d07d3eda5   421  4152           push r10
0x75d07d3eda7   423  48bfb97cacfe40250000 REX.W movq rdi,0x2540feac7cb9    ;; object: 0x2540feac7cb9 <JS Function Array (SharedFunctionInfo 0x2540fea9d041)>
0x75d07d3edb1   433  488bb578ffffff REX.W movq rsi,[rbp-0x88]
0x75d07d3edb8   440  b801000000     movl rax,0x1
0x75d07d3edbd   445  48bba9e4aefe40250000 REX.W movq rbx,0x2540feaee4a9    ;; object: 0x2540feaee4a9 <AllocationSite>
0x75d07d3edc7   455  488b0c24       REX.W movq rcx,[rsp]
0x75d07d3edcb   459  4885c9         REX.W testq rcx,rcx
0x75d07d3edce   462  7407           jz 471  (0x75d07d3edd7)
0x75d07d3edd0   464  e88b0cfdff     call 0x75d07d0fa60       ;; code: constructor, STUB, ArraySingleArgumentConstructorStub, minor: 257
0x75d07d3edd5   469  eb05           jmp 476  (0x75d07d3eddc)
0x75d07d3edd7   471  e80477fcff     call 0x75d07d064e0       ;; code: constructor, STUB, ArraySingleArgumentConstructorStub, minor: 256
0x75d07d3eddc   476  e98e000000     jmp 623  (0x75d07d3ee6f)
0x75d07d3ede1   481  4883ec78       REX.W subq rsp,0x78
0x75d07d3ede5   485  488b45f8       REX.W movq rax,[rbp-0x8]
0x75d07d3ede9   489  488b5de0       REX.W movq rbx,[rbp-0x20]
0x75d07d3eded   493  f6c301         testb rbx,0x1
0x75d07d3edf0   496  0f85c4070000   jnz 2490  (0x75d07d3f5ba)
0x75d07d3edf6   502  48c1eb20       REX.W shrq rbx, 32
0x75d07d3edfa   506  488b55d8       REX.W movq rdx,[rbp-0x28]
0x75d07d3edfe   510  f6c201         testb rdx,0x1
0x75d07d3ee01   513  0f85fb070000   jnz 2562  (0x75d07d3f602)
0x75d07d3ee07   519  48c1ea20       REX.W shrq rdx, 32
0x75d07d3ee0b   523  488b4dd0       REX.W movq rcx,[rbp-0x30]
0x75d07d3ee0f   527  f6c101         testb rcx,0x1
0x75d07d3ee12   530  0f8532080000   jnz 2634  (0x75d07d3f64a)
0x75d07d3ee18   536  48c1e920       REX.W shrq rcx, 32
0x75d07d3ee1c   540  488b75c8       REX.W movq rsi,[rbp-0x38]
0x75d07d3ee20   544  40f6c601       testb rsi,0x1
0x75d07d3ee24   548  0f8568080000   jnz 2706  (0x75d07d3f692)
0x75d07d3ee2a   554  48c1ee20       REX.W shrq rsi, 32
0x75d07d3ee2e   558  488b7dc0       REX.W movq rdi,[rbp-0x40]
0x75d07d3ee32   562  40f6c701       testb rdi,0x1
0x75d07d3ee36   566  0f859e080000   jnz 2778  (0x75d07d3f6da)
0x75d07d3ee3c   572  48c1ef20       REX.W shrq rdi, 32
0x75d07d3ee40   576  4c8b45b8       REX.W movq r8,[rbp-0x48]
0x75d07d3ee44   580  41f6c001       testb r8,0x1
0x75d07d3ee48   584  0f85d4080000   jnz 2850  (0x75d07d3f722)
0x75d07d3ee4e   590  49c1e820       REX.W shrq r8, 32
0x75d07d3ee52   594  4c8b6520       REX.W movq r12,[rbp+0x20]
0x75d07d3ee56   598  4c8b5d18       REX.W movq r11,[rbp+0x18]
0x75d07d3ee5a   602  4c8bc8         REX.W movq r9,rax
0x75d07d3ee5d   605  498bc0         REX.W movq rax,r8
0x75d07d3ee60   608  4c8b45e8       REX.W movq r8,[rbp-0x18]
0x75d07d3ee64   612  4887fb         REX.W xchgq rdi,rbx
0x75d07d3ee67   615  4887f2         REX.W xchgq rsi,rdx
0x75d07d3ee6a   618  e92d000000     jmp 668  (0x75d07d3ee9c)
0x75d07d3ee6f   623  4c8b6520       REX.W movq r12,[rbp+0x20]
0x75d07d3ee73   627  4c8b5d18       REX.W movq r11,[rbp+0x18]
0x75d07d3ee77   631  4c8b8d78ffffff REX.W movq r9,[rbp-0x88]
0x75d07d3ee7e   638  4c8bc0         REX.W movq r8,rax
0x75d07d3ee81   641  bf01234567     movl rdi,0x67452301
0x75d07d3ee86   646  be89abcdef     movl rsi,0xefcdab89
0x75d07d3ee8b   651  b9fedcba98     movl rcx,0x98badcfe
0x75d07d3ee90   656  ba76543210     movl rdx,0x10325476
0x75d07d3ee95   661  bbf0e1d2c3     movl rbx,0xc3d2e1f0
0x75d07d3ee9a   666  33c0           xorl rax,rax
0x75d07d3ee9c   668  4c89a568ffffff REX.W movq [rbp-0x98],r12
0x75d07d3eea3   675  4c899d60ffffff REX.W movq [rbp-0xa0],r11
0x75d07d3eeaa   682  4c898d70ffffff REX.W movq [rbp-0x90],r9
0x75d07d3eeb1   689  41f6c301       testb r11,0x1            ;; debug: position 1851
0x75d07d3eeb5   693  0f844a090000   jz 3077  (0x75d07d3f805)
0x75d07d3eebb   699  49ba817dc006200b0000 REX.W movq r10,0xb2006c07d81    ;; object: 0xb2006c07d81 <Map(FAST_HOLEY_SMI_ELEMENTS)>
0x75d07d3eec5   709  4d3953ff       REX.W cmpq [r11-0x1],r10
0x75d07d3eec9   713  0f853b090000   jnz 3082  (0x75d07d3f80a)
0x75d07d3eecf   719  458b731b       movl r14,[r11+0x1b]
0x75d07d3eed3   723  41f6c001       testb r8,0x1             ;; debug: position 2064
0x75d07d3eed7   727  0f8432090000   jz 3087  (0x75d07d3f80f)
0x75d07d3eedd   733  49ba817dc006200b0000 REX.W movq r10,0xb2006c07d81    ;; object: 0xb2006c07d81 <Map(FAST_HOLEY_SMI_ELEMENTS)>
0x75d07d3eee7   743  4d3950ff       REX.W cmpq [r8-0x1],r10
0x75d07d3eeeb   747  0f8523090000   jnz 3092  (0x75d07d3f814)
0x75d07d3eef1   753  4d8b780f       REX.W movq r15,[r8+0xf]
0x75d07d3eef5   757  458b481b       movl r9,[r8+0x1b]
0x75d07d3eef9   761  49ba0942c006200b0000 REX.W movq r10,0xb2006c04209    ;; debug: position 3829
                                                             ;; object: 0xb2006c04209 <Map(FAST_SMI_ELEMENTS)>
0x75d07d3ef03   771  4d3957ff       REX.W cmpq [r15-0x1],r10
0x75d07d3ef07   775  0f850c090000   jnz 3097  (0x75d07d3f819)
0x75d07d3ef0d   781  4d8b630f       REX.W movq r12,[r11+0xf]    ;; debug: position 2033
0x75d07d3ef11   785  4889bd10ffffff REX.W movq [rbp-0xf0],rdi    ;; debug: position 1851
0x75d07d3ef18   792  4889b518ffffff REX.W movq [rbp-0xe8],rsi
0x75d07d3ef1f   799  48898d20ffffff REX.W movq [rbp-0xe0],rcx
0x75d07d3ef26   806  48899528ffffff REX.W movq [rbp-0xd8],rdx
0x75d07d3ef2d   813  48899d30ffffff REX.W movq [rbp-0xd0],rbx
0x75d07d3ef34   820  413bc6         cmpl rax,r14
0x75d07d3ef37   823  0f8dc2040000   jge 2047  (0x75d07d3f3ff)
0x75d07d3ef3d   829  493ba548090000 REX.W cmpq rsp,[r13+0x948]
0x75d07d3ef44   836  0f820e080000   jc 2904  (0x75d07d3f758)
0x75d07d3ef4a   842  4889bd38ffffff REX.W movq [rbp-0xc8],rdi
0x75d07d3ef51   849  4889b540ffffff REX.W movq [rbp-0xc0],rsi
0x75d07d3ef58   856  48898d48ffffff REX.W movq [rbp-0xb8],rcx
0x75d07d3ef5f   863  48899550ffffff REX.W movq [rbp-0xb0],rdx
0x75d07d3ef66   870  48899d58ffffff REX.W movq [rbp-0xa8],rbx
0x75d07d3ef6d   877  4533db         xorl r11,r11
0x75d07d3ef70   880  4183fb50       cmpl r11,0x50            ;; debug: position 1988
0x75d07d3ef74   884  0f8dfa020000   jge 1652  (0x75d07d3f274)
0x75d07d3ef7a   890  493ba548090000 REX.W cmpq rsp,[r13+0x948]
0x75d07d3ef81   897  0f8216080000   jc 2973  (0x75d07d3f79d)
0x75d07d3ef87   903  4183fb10       cmpl r11,0x10            ;; debug: position 2016
0x75d07d3ef8b   907  0f8c95000000   jl 1062  (0x75d07d3f026)
0x75d07d3ef91   913  498bdb         REX.W movq rbx,r11       ;; debug: position 2033
0x75d07d3ef94   916  83eb03         subl rbx,0x3             ;; debug: position 2064
0x75d07d3ef97   919  443bcb         cmpl r9,rbx
0x75d07d3ef9a   922  0f867e080000   jna 3102  (0x75d07d3f81e)
0x75d07d3efa0   928  498bd3         REX.W movq rdx,r11
0x75d07d3efa3   931  83ea08         subl rdx,0x8             ;; debug: position 2073
0x75d07d3efa6   934  498bcb         REX.W movq rcx,r11
0x75d07d3efa9   937  83e90e         subl rcx,0xe             ;; debug: position 2082
0x75d07d3efac   940  498bf3         REX.W movq rsi,r11
0x75d07d3efaf   943  83ee10         subl rsi,0x10            ;; debug: position 2092
0x75d07d3efb2   946  443bce         cmpl r9,rsi              ;; debug: position 2073
0x75d07d3efb5   949  0f8668080000   jna 3107  (0x75d07d3f823)
0x75d07d3efbb   955  498b7cdf0f     REX.W movq rdi,[r15+rbx*8+0xf]    ;; debug: position 2064
0x75d07d3efc0   960  40f6c701       testb rdi,0x1
0x75d07d3efc4   964  0f855e080000   jnz 3112  (0x75d07d3f828)
0x75d07d3efca   970  498b54d70f     REX.W movq rdx,[r15+rdx*8+0xf]    ;; debug: position 2073
0x75d07d3efcf   975  f6c201         testb rdx,0x1
0x75d07d3efd2   978  0f8555080000   jnz 3117  (0x75d07d3f82d)
0x75d07d3efd8   984  48c1ef20       REX.W shrq rdi, 32       ;; debug: position 2068
0x75d07d3efdc   988  48c1ea20       REX.W shrq rdx, 32
0x75d07d3efe0   992  33d7           xorl rdx,rdi
0x75d07d3efe2   994  498b4ccf0f     REX.W movq rcx,[r15+rcx*8+0xf]    ;; debug: position 2082
0x75d07d3efe7   999  f6c101         testb rcx,0x1
0x75d07d3efea  1002  0f8542080000   jnz 3122  (0x75d07d3f832)
0x75d07d3eff0  1008  48c1e920       REX.W shrq rcx, 32       ;; debug: position 2077
0x75d07d3eff4  1012  33ca           xorl rcx,rdx
0x75d07d3eff6  1014  498b54f70f     REX.W movq rdx,[r15+rsi*8+0xf]    ;; debug: position 2092
0x75d07d3effb  1019  f6c201         testb rdx,0x1
0x75d07d3effe  1022  0f8533080000   jnz 3127  (0x75d07d3f837)
0x75d07d3f004  1028  48c1ea20       REX.W shrq rdx, 32       ;; debug: position 2087
0x75d07d3f008  1032  33d1           xorl rdx,rcx
0x75d07d3f00a  1034  c1ca1f         rorl rdx, 31             ;; debug: position 3829
0x75d07d3f00d  1037  8bda           movl rbx,rdx
0x75d07d3f00f  1039  48c1e320       REX.W shlq rbx, 32
0x75d07d3f013  1043  453bcb         cmpl r9,r11
0x75d07d3f016  1046  0f8620080000   jna 3132  (0x75d07d3f83c)
0x75d07d3f01c  1052  4b895cdf0f     REX.W movq [r15+r11*8+0xf],rbx
0x75d07d3f021  1057  e931000000     jmp 1111  (0x75d07d3f057)
0x75d07d3f026  1062  488bd8         REX.W movq rbx,rax       ;; debug: position 2016
0x75d07d3f029  1065  4103db         addl rbx,r11             ;; debug: position 2033
0x75d07d3f02c  1068  0f800f080000   jo 3137  (0x75d07d3f841)
0x75d07d3f032  1074  443bf3         cmpl r14,rbx
0x75d07d3f035  1077  0f860b080000   jna 3142  (0x75d07d3f846)
0x75d07d3f03b  1083  498b54dc0f     REX.W movq rdx,[r12+rbx*8+0xf]
0x75d07d3f040  1088  f6c201         testb rdx,0x1
0x75d07d3f043  1091  0f8502080000   jnz 3147  (0x75d07d3f84b)
0x75d07d3f049  1097  453bcb         cmpl r9,r11
0x75d07d3f04c  1100  0f86fe070000   jna 3152  (0x75d07d3f850)
0x75d07d3f052  1106  4b8954df0f     REX.W movq [r15+r11*8+0xf],rdx
0x75d07d3f057  1111  488b9d38ffffff REX.W movq rbx,[rbp-0xc8]    ;; debug: position 2116
0x75d07d3f05e  1118  c1cb1b         rorl rbx, 27             ;; debug: position 3829
0x75d07d3f061  1121  4183fb14       cmpl r11,0x14            ;; debug: position 2617
0x75d07d3f065  1125  0f8c7d000000   jl 1256  (0x75d07d3f0e8)
0x75d07d3f06b  1131  4183fb28       cmpl r11,0x28            ;; debug: position 2659
0x75d07d3f06f  1135  0f8c58000000   jl 1229  (0x75d07d3f0cd)
0x75d07d3f075  1141  4183fb3c       cmpl r11,0x3c            ;; debug: position 2690
0x75d07d3f079  1145  0f8c1b000000   jl 1178  (0x75d07d3f09a)
0x75d07d3f07f  1151  488b9540ffffff REX.W movq rdx,[rbp-0xc0]    ;; debug: position 2743
0x75d07d3f086  1158  339548ffffff   xorl rdx,[rbp-0xb8]
0x75d07d3f08c  1164  339550ffffff   xorl rdx,[rbp-0xb0]      ;; debug: position 2747
0x75d07d3f092  1170  488bca         REX.W movq rcx,rdx
0x75d07d3f095  1173  e96c000000     jmp 1286  (0x75d07d3f106)
0x75d07d3f09a  1178  488b9540ffffff REX.W movq rdx,[rbp-0xc0]    ;; debug: position 2706
0x75d07d3f0a1  1185  239548ffffff   andl rdx,[rbp-0xb8]
0x75d07d3f0a7  1191  488b8d40ffffff REX.W movq rcx,[rbp-0xc0]
0x75d07d3f0ae  1198  238d50ffffff   andl rcx,[rbp-0xb0]      ;; debug: position 2716
0x75d07d3f0b4  1204  0bca           orl rcx,rdx              ;; debug: position 2711
0x75d07d3f0b6  1206  488b9548ffffff REX.W movq rdx,[rbp-0xb8]
0x75d07d3f0bd  1213  239550ffffff   andl rdx,[rbp-0xb0]      ;; debug: position 2726
0x75d07d3f0c3  1219  0bd1           orl rdx,rcx              ;; debug: position 2721
0x75d07d3f0c5  1221  488bca         REX.W movq rcx,rdx
0x75d07d3f0c8  1224  e939000000     jmp 1286  (0x75d07d3f106)
0x75d07d3f0cd  1229  488b9540ffffff REX.W movq rdx,[rbp-0xc0]    ;; debug: position 2674
0x75d07d3f0d4  1236  339548ffffff   xorl rdx,[rbp-0xb8]
0x75d07d3f0da  1242  339550ffffff   xorl rdx,[rbp-0xb0]      ;; debug: position 2678
0x75d07d3f0e0  1248  488bca         REX.W movq rcx,rdx
0x75d07d3f0e3  1251  e91e000000     jmp 1286  (0x75d07d3f106)
0x75d07d3f0e8  1256  488b9540ffffff REX.W movq rdx,[rbp-0xc0]    ;; debug: position 2633
0x75d07d3f0ef  1263  239548ffffff   andl rdx,[rbp-0xb8]
0x75d07d3f0f5  1269  488b8d40ffffff REX.W movq rcx,[rbp-0xc0]
0x75d07d3f0fc  1276  f7d1           notl rcx                 ;; debug: position 2642
0x75d07d3f0fe  1278  238d50ffffff   andl rcx,[rbp-0xb0]      ;; debug: position 2646
0x75d07d3f104  1284  0bca           orl rcx,rdx              ;; debug: position 2638
0x75d07d3f106  1286  488bd3         REX.W movq rdx,rbx       ;; debug: position 2747
0x75d07d3f109  1289  81e2ffff0000   andl rdx,0xffff          ;; debug: position 3611
0x75d07d3f10f  1295  488bf1         REX.W movq rsi,rcx
0x75d07d3f112  1298  81e6ffff0000   andl rsi,0xffff          ;; debug: position 3626
0x75d07d3f118  1304  03f2           addl rsi,rdx             ;; debug: position 3621
0x75d07d3f11a  1306  c1fb10         sarl rbx, 16             ;; debug: position 3652
0x75d07d3f11d  1309  c1f910         sarl rcx, 16             ;; debug: position 3664
0x75d07d3f120  1312  03cb           addl rcx,rbx             ;; debug: position 3659
0x75d07d3f122  1314  488bde         REX.W movq rbx,rsi
0x75d07d3f125  1317  c1fb10         sarl rbx, 16             ;; debug: position 3678
0x75d07d3f128  1320  03d9           addl rbx,rcx             ;; debug: position 3671
0x75d07d3f12a  1322  c1e310         shll rbx, 16             ;; debug: position 3700
0x75d07d3f12d  1325  81e6ffff0000   andl rsi,0xffff          ;; debug: position 3714
0x75d07d3f133  1331  0bf3           orl rsi,rbx              ;; debug: position 3707
0x75d07d3f135  1333  453bcb         cmpl r9,r11              ;; debug: position 2199
0x75d07d3f138  1336  0f8617070000   jna 3157  (0x75d07d3f855)
0x75d07d3f13e  1342  4b8b5cdf0f     REX.W movq rbx,[r15+r11*8+0xf]
0x75d07d3f143  1347  f6c301         testb rbx,0x1
0x75d07d3f146  1350  0f850e070000   jnz 3162  (0x75d07d3f85a)
0x75d07d3f14c  1356  488b9558ffffff REX.W movq rdx,[rbp-0xa8]
0x75d07d3f153  1363  81e2ffff0000   andl rdx,0xffff          ;; debug: position 3611
0x75d07d3f159  1369  48c1eb20       REX.W shrq rbx, 32       ;; debug: position 3626
0x75d07d3f15d  1373  488bcb         REX.W movq rcx,rbx
0x75d07d3f160  1376  81e1ffff0000   andl rcx,0xffff
0x75d07d3f166  1382  03ca           addl rcx,rdx             ;; debug: position 3621
0x75d07d3f168  1384  488b9558ffffff REX.W movq rdx,[rbp-0xa8]
0x75d07d3f16f  1391  c1fa10         sarl rdx, 16             ;; debug: position 3652
0x75d07d3f172  1394  c1fb10         sarl rbx, 16             ;; debug: position 3664
0x75d07d3f175  1397  03da           addl rbx,rdx             ;; debug: position 3659
0x75d07d3f177  1399  488bd1         REX.W movq rdx,rcx
0x75d07d3f17a  1402  c1fa10         sarl rdx, 16             ;; debug: position 3678
0x75d07d3f17d  1405  03d3           addl rdx,rbx             ;; debug: position 3671
0x75d07d3f17f  1407  c1e210         shll rdx, 16             ;; debug: position 3700
0x75d07d3f182  1410  81e1ffff0000   andl rcx,0xffff          ;; debug: position 3714
0x75d07d3f188  1416  0bca           orl rcx,rdx              ;; debug: position 3707
0x75d07d3f18a  1418  4183fb14       cmpl r11,0x14            ;; debug: position 2869
0x75d07d3f18e  1422  0f8c32000000   jl 1478  (0x75d07d3f1c6)
0x75d07d3f194  1428  4183fb28       cmpl r11,0x28            ;; debug: position 2894
0x75d07d3f198  1432  0f8c1e000000   jl 1468  (0x75d07d3f1bc)
0x75d07d3f19e  1438  4183fb3c       cmpl r11,0x3c            ;; debug: position 2928
0x75d07d3f1a2  1442  0f8c0a000000   jl 1458  (0x75d07d3f1b2)
0x75d07d3f1a8  1448  bbd6c162ca     movl rbx,0xca62c1d6
0x75d07d3f1ad  1453  e919000000     jmp 1483  (0x75d07d3f1cb)
0x75d07d3f1b2  1458  bbdcbc1b8f     movl rbx,0x8f1bbcdc
0x75d07d3f1b7  1463  e90f000000     jmp 1483  (0x75d07d3f1cb)
0x75d07d3f1bc  1468  bba1ebd96e     movl rbx,0x6ed9eba1      ;; debug: position 2928
0x75d07d3f1c1  1473  e905000000     jmp 1483  (0x75d07d3f1cb)
0x75d07d3f1c6  1478  bb9979825a     movl rbx,0x5a827999      ;; debug: position 2928
0x75d07d3f1cb  1483  488bd1         REX.W movq rdx,rcx
0x75d07d3f1ce  1486  81e2ffff0000   andl rdx,0xffff          ;; debug: position 3611
0x75d07d3f1d4  1492  488bfb         REX.W movq rdi,rbx
0x75d07d3f1d7  1495  81e7ffff0000   andl rdi,0xffff          ;; debug: position 3626
0x75d07d3f1dd  1501  03fa           addl rdi,rdx             ;; debug: position 3621
0x75d07d3f1df  1503  c1f910         sarl rcx, 16             ;; debug: position 3652
0x75d07d3f1e2  1506  c1fb10         sarl rbx, 16             ;; debug: position 3664
0x75d07d3f1e5  1509  03d9           addl rbx,rcx             ;; debug: position 3659
0x75d07d3f1e7  1511  488bd7         REX.W movq rdx,rdi
0x75d07d3f1ea  1514  c1fa10         sarl rdx, 16             ;; debug: position 3678
0x75d07d3f1ed  1517  03d3           addl rdx,rbx             ;; debug: position 3671
0x75d07d3f1ef  1519  c1e210         shll rdx, 16             ;; debug: position 3700
0x75d07d3f1f2  1522  81e7ffff0000   andl rdi,0xffff          ;; debug: position 3714
0x75d07d3f1f8  1528  0bfa           orl rdi,rdx              ;; debug: position 3707
0x75d07d3f1fa  1530  488bde         REX.W movq rbx,rsi
0x75d07d3f1fd  1533  81e3ffff0000   andl rbx,0xffff          ;; debug: position 3611
0x75d07d3f203  1539  488bd7         REX.W movq rdx,rdi
0x75d07d3f206  1542  81e2ffff0000   andl rdx,0xffff          ;; debug: position 3626
0x75d07d3f20c  1548  03d3           addl rdx,rbx             ;; debug: position 3621
0x75d07d3f20e  1550  c1fe10         sarl rsi, 16             ;; debug: position 3652
0x75d07d3f211  1553  c1ff10         sarl rdi, 16             ;; debug: position 3664
0x75d07d3f214  1556  03fe           addl rdi,rsi             ;; debug: position 3659
0x75d07d3f216  1558  488bda         REX.W movq rbx,rdx
0x75d07d3f219  1561  c1fb10         sarl rbx, 16             ;; debug: position 3678
0x75d07d3f21c  1564  03df           addl rbx,rdi             ;; debug: position 3671
0x75d07d3f21e  1566  c1e310         shll rbx, 16             ;; debug: position 3700
0x75d07d3f221  1569  81e2ffff0000   andl rdx,0xffff          ;; debug: position 3714
0x75d07d3f227  1575  0bd3           orl rdx,rbx              ;; debug: position 3707
0x75d07d3f229  1577  488b9d40ffffff REX.W movq rbx,[rbp-0xc0]
0x75d07d3f230  1584  c1cb02         rorl rbx, 2              ;; debug: position 3829
0x75d07d3f233  1587  4183c301       addl r11,0x1             ;; debug: position 1995
0x75d07d3f237  1591  4c8b9538ffffff REX.W movq r10,[rbp-0xc8]
0x75d07d3f23e  1598  4c899540ffffff REX.W movq [rbp-0xc0],r10
0x75d07d3f245  1605  48899538ffffff REX.W movq [rbp-0xc8],rdx
0x75d07d3f24c  1612  4c8b9550ffffff REX.W movq r10,[rbp-0xb0]
0x75d07d3f253  1619  4c899558ffffff REX.W movq [rbp-0xa8],r10
0x75d07d3f25a  1626  4c8b9548ffffff REX.W movq r10,[rbp-0xb8]
0x75d07d3f261  1633  4c899550ffffff REX.W movq [rbp-0xb0],r10
0x75d07d3f268  1640  48899d48ffffff REX.W movq [rbp-0xb8],rbx
0x75d07d3f26f  1647  e9fcfcffff     jmp 880  (0x75d07d3ef70)
0x75d07d3f274  1652  488b9d38ffffff REX.W movq rbx,[rbp-0xc8]    ;; debug: position 2321
0x75d07d3f27b  1659  81e3ffff0000   andl rbx,0xffff          ;; debug: position 3611
0x75d07d3f281  1665  488b9510ffffff REX.W movq rdx,[rbp-0xf0]
0x75d07d3f288  1672  81e2ffff0000   andl rdx,0xffff          ;; debug: position 3626
0x75d07d3f28e  1678  03d3           addl rdx,rbx             ;; debug: position 3621
0x75d07d3f290  1680  488b9d38ffffff REX.W movq rbx,[rbp-0xc8]
0x75d07d3f297  1687  c1fb10         sarl rbx, 16             ;; debug: position 3652
0x75d07d3f29a  1690  488b8d10ffffff REX.W movq rcx,[rbp-0xf0]
0x75d07d3f2a1  1697  c1f910         sarl rcx, 16             ;; debug: position 3664
0x75d07d3f2a4  1700  03cb           addl rcx,rbx             ;; debug: position 3659
0x75d07d3f2a6  1702  488bda         REX.W movq rbx,rdx
0x75d07d3f2a9  1705  c1fb10         sarl rbx, 16             ;; debug: position 3678
0x75d07d3f2ac  1708  03d9           addl rbx,rcx             ;; debug: position 3671
0x75d07d3f2ae  1710  c1e310         shll rbx, 16             ;; debug: position 3700
0x75d07d3f2b1  1713  81e2ffff0000   andl rdx,0xffff          ;; debug: position 3714
0x75d07d3f2b7  1719  0bd3           orl rdx,rbx              ;; debug: position 3707
0x75d07d3f2b9  1721  48899508ffffff REX.W movq [rbp-0xf8],rdx
0x75d07d3f2c0  1728  488b9d40ffffff REX.W movq rbx,[rbp-0xc0]
0x75d07d3f2c7  1735  81e3ffff0000   andl rbx,0xffff          ;; debug: position 3611
0x75d07d3f2cd  1741  488b8d18ffffff REX.W movq rcx,[rbp-0xe8]
0x75d07d3f2d4  1748  81e1ffff0000   andl rcx,0xffff          ;; debug: position 3626
0x75d07d3f2da  1754  03cb           addl rcx,rbx             ;; debug: position 3621
0x75d07d3f2dc  1756  488b9d40ffffff REX.W movq rbx,[rbp-0xc0]
0x75d07d3f2e3  1763  c1fb10         sarl rbx, 16             ;; debug: position 3652
0x75d07d3f2e6  1766  488bb518ffffff REX.W movq rsi,[rbp-0xe8]
0x75d07d3f2ed  1773  c1fe10         sarl rsi, 16             ;; debug: position 3664
0x75d07d3f2f0  1776  03f3           addl rsi,rbx             ;; debug: position 3659
0x75d07d3f2f2  1778  488bd9         REX.W movq rbx,rcx
0x75d07d3f2f5  1781  c1fb10         sarl rbx, 16             ;; debug: position 3678
0x75d07d3f2f8  1784  03de           addl rbx,rsi             ;; debug: position 3671
0x75d07d3f2fa  1786  c1e310         shll rbx, 16             ;; debug: position 3700
0x75d07d3f2fd  1789  81e1ffff0000   andl rcx,0xffff          ;; debug: position 3714
0x75d07d3f303  1795  0bcb           orl rcx,rbx              ;; debug: position 3707
0x75d07d3f305  1797  488b9d48ffffff REX.W movq rbx,[rbp-0xb8]
0x75d07d3f30c  1804  81e3ffff0000   andl rbx,0xffff          ;; debug: position 3611
0x75d07d3f312  1810  488bb520ffffff REX.W movq rsi,[rbp-0xe0]
0x75d07d3f319  1817  81e6ffff0000   andl rsi,0xffff          ;; debug: position 3626
0x75d07d3f31f  1823  03f3           addl rsi,rbx             ;; debug: position 3621
0x75d07d3f321  1825  488b9d48ffffff REX.W movq rbx,[rbp-0xb8]
0x75d07d3f328  1832  c1fb10         sarl rbx, 16             ;; debug: position 3652
0x75d07d3f32b  1835  488bbd20ffffff REX.W movq rdi,[rbp-0xe0]
0x75d07d3f332  1842  c1ff10         sarl rdi, 16             ;; debug: position 3664
0x75d07d3f335  1845  03fb           addl rdi,rbx             ;; debug: position 3659
0x75d07d3f337  1847  488bde         REX.W movq rbx,rsi
0x75d07d3f33a  1850  c1fb10         sarl rbx, 16             ;; debug: position 3678
0x75d07d3f33d  1853  03df           addl rbx,rdi             ;; debug: position 3671
0x75d07d3f33f  1855  c1e310         shll rbx, 16             ;; debug: position 3700
0x75d07d3f342  1858  81e6ffff0000   andl rsi,0xffff          ;; debug: position 3714
0x75d07d3f348  1864  0bf3           orl rsi,rbx              ;; debug: position 3707
0x75d07d3f34a  1866  488b9d50ffffff REX.W movq rbx,[rbp-0xb0]
0x75d07d3f351  1873  81e3ffff0000   andl rbx,0xffff          ;; debug: position 3611
0x75d07d3f357  1879  488bbd28ffffff REX.W movq rdi,[rbp-0xd8]
0x75d07d3f35e  1886  81e7ffff0000   andl rdi,0xffff          ;; debug: position 3626
0x75d07d3f364  1892  03fb           addl rdi,rbx             ;; debug: position 3621
0x75d07d3f366  1894  488b9d50ffffff REX.W movq rbx,[rbp-0xb0]
0x75d07d3f36d  1901  c1fb10         sarl rbx, 16             ;; debug: position 3652
0x75d07d3f370  1904  4c8b9d28ffffff REX.W movq r11,[rbp-0xd8]
0x75d07d3f377  1911  41c1fb10       sarl r11, 16             ;; debug: position 3664
0x75d07d3f37b  1915  4403db         addl r11,rbx             ;; debug: position 3659
0x75d07d3f37e  1918  488bdf         REX.W movq rbx,rdi
0x75d07d3f381  1921  c1fb10         sarl rbx, 16             ;; debug: position 3678
0x75d07d3f384  1924  4103db         addl rbx,r11             ;; debug: position 3671
0x75d07d3f387  1927  c1e310         shll rbx, 16             ;; debug: position 3700
0x75d07d3f38a  1930  81e7ffff0000   andl rdi,0xffff          ;; debug: position 3714
0x75d07d3f390  1936  0bfb           orl rdi,rbx              ;; debug: position 3707
0x75d07d3f392  1938  488b9d58ffffff REX.W movq rbx,[rbp-0xa8]
0x75d07d3f399  1945  81e3ffff0000   andl rbx,0xffff          ;; debug: position 3611
0x75d07d3f39f  1951  4c8b9d30ffffff REX.W movq r11,[rbp-0xd0]
0x75d07d3f3a6  1958  4181e3ffff0000 andl r11,0xffff          ;; debug: position 3626
0x75d07d3f3ad  1965  4403db         addl r11,rbx             ;; debug: position 3621
0x75d07d3f3b0  1968  488b9d58ffffff REX.W movq rbx,[rbp-0xa8]
0x75d07d3f3b7  1975  c1fb10         sarl rbx, 16             ;; debug: position 3652
0x75d07d3f3ba  1978  488b9530ffffff REX.W movq rdx,[rbp-0xd0]
0x75d07d3f3c1  1985  c1fa10         sarl rdx, 16             ;; debug: position 3664
0x75d07d3f3c4  1988  03d3           addl rdx,rbx             ;; debug: position 3659
0x75d07d3f3c6  1990  498bdb         REX.W movq rbx,r11
0x75d07d3f3c9  1993  c1fb10         sarl rbx, 16             ;; debug: position 3678
0x75d07d3f3cc  1996  03da           addl rbx,rdx             ;; debug: position 3671
0x75d07d3f3ce  1998  c1e310         shll rbx, 16             ;; debug: position 3700
0x75d07d3f3d1  2001  4181e3ffff0000 andl r11,0xffff          ;; debug: position 3714
0x75d07d3f3d8  2008  440bdb         orl r11,rbx              ;; debug: position 3707
0x75d07d3f3db  2011  488bd8         REX.W movq rbx,rax
0x75d07d3f3de  2014  83c310         addl rbx,0x10            ;; debug: position 1866
0x75d07d3f3e1  2017  0f8078040000   jo 3167  (0x75d07d3f85f)
0x75d07d3f3e7  2023  488bd7         REX.W movq rdx,rdi
0x75d07d3f3ea  2026  488bbd08ffffff REX.W movq rdi,[rbp-0xf8]
0x75d07d3f3f1  2033  4887f1         REX.W xchgq rsi,rcx
0x75d07d3f3f4  2036  488bc3         REX.W movq rax,rbx
0x75d07d3f3f7  2039  498bdb         REX.W movq rbx,r11
0x75d07d3f3fa  2042  e912fbffff     jmp 785  (0x75d07d3ef11)
0x75d07d3f3ff  2047  488b8510ffffff REX.W movq rax,[rbp-0xf0]    ;; debug: position 2461
0x75d07d3f406  2054  8bd8           movl rbx,rax
0x75d07d3f408  2056  48c1e320       REX.W shlq rbx, 32
0x75d07d3f40c  2060  488b8518ffffff REX.W movq rax,[rbp-0xe8]
0x75d07d3f413  2067  8bd0           movl rdx,rax
0x75d07d3f415  2069  48c1e220       REX.W shlq rdx, 32
0x75d07d3f419  2073  488b8520ffffff REX.W movq rax,[rbp-0xe0]
0x75d07d3f420  2080  8bc8           movl rcx,rax
0x75d07d3f422  2082  48c1e120       REX.W shlq rcx, 32
0x75d07d3f426  2086  488b8528ffffff REX.W movq rax,[rbp-0xd8]
0x75d07d3f42d  2093  8bf0           movl rsi,rax
0x75d07d3f42f  2095  48c1e620       REX.W shlq rsi, 32
0x75d07d3f433  2099  488b8530ffffff REX.W movq rax,[rbp-0xd0]
0x75d07d3f43a  2106  8bf8           movl rdi,rax
0x75d07d3f43c  2108  48c1e720       REX.W shlq rdi, 32
0x75d07d3f440  2112  49ba8941a0fe40250000 REX.W movq r10,0x2540fea04189    ;; object: 0x2540fea04189 <undefined>
0x75d07d3f44a  2122  4152           push r10
0x75d07d3f44c  2124  53             push rbx
0x75d07d3f44d  2125  52             push rdx
0x75d07d3f44e  2126  51             push rcx
0x75d07d3f44f  2127  56             push rsi
0x75d07d3f450  2128  57             push rdi
0x75d07d3f451  2129  48bfb97cacfe40250000 REX.W movq rdi,0x2540feac7cb9    ;; object: 0x2540feac7cb9 <JS Function Array (SharedFunctionInfo 0x2540fea9d041)>
0x75d07d3f45b  2139  b805000000     movl rax,0x5
0x75d07d3f460  2144  488b772f       REX.W movq rsi,[rdi+0x2f]
0x75d07d3f464  2148  ff5717         call [rdi+0x17]
0x75d07d3f467  2151  488be5         REX.W movq rsp,rbp
0x75d07d3f46a  2154  5d             pop rbp
0x75d07d3f46b  2155  c21800         ret 0x18
0x75d07d3f46e  2158  660f1f440000   nop
0x75d07d3f474  2164  4d8b5508       REX.W movq r10,[r13+0x8]    ;; debug: position 1622
0x75d07d3f478  2168  4c3950ff       REX.W cmpq [rax-0x1],r10
0x75d07d3f47c  2172  7529           jnz 2215  (0x75d07d3f4a7)
0x75d07d3f47e  2174  f20f104007     movsd xmm0,[rax+0x7]
0x75d07d3f483  2179  f2480f2cc0     REX.W cvttsd2siq rax,xmm0
0x75d07d3f488  2184  4883f801       REX.W cmpq rax,0x1
0x75d07d3f48c  2188  7112           jno 2208  (0x75d07d3f4a0)
0x75d07d3f48e  2190  4883ec08       REX.W subq rsp,0x8
0x75d07d3f492  2194  f20f110424     movsd [rsp],xmm0
0x75d07d3f497  2199  e8a4d3ffff     call 0x75d07d3c840       ;; code: STUB, DoubleToIStub, minor: 135172
0x75d07d3f49c  2204  4883c408       REX.W addq rsp,0x8
0x75d07d3f4a0  2208  8bc0           movl rax,rax
0x75d07d3f4a2  2210  e992f7ffff     jmp 57  (0x75d07d3ec39)
0x75d07d3f4a7  2215  493b45a8       REX.W cmpq rax,[r13-0x58]
0x75d07d3f4ab  2219  7507           jnz 2228  (0x75d07d3f4b4)
0x75d07d3f4ad  2221  33c0           xorl rax,rax
0x75d07d3f4af  2223  e985f7ffff     jmp 57  (0x75d07d3ec39)
0x75d07d3f4b4  2228  493b45c0       REX.W cmpq rax,[r13-0x40]
0x75d07d3f4b8  2232  750a           jnz 2244  (0x75d07d3f4c4)
0x75d07d3f4ba  2234  b801000000     movl rax,0x1
0x75d07d3f4bf  2239  e975f7ffff     jmp 57  (0x75d07d3ec39)
0x75d07d3f4c4  2244  493b45c8       REX.W cmpq rax,[r13-0x38]
0x75d07d3f4c8  2248  0f8596030000   jnz 3172  (0x75d07d3f864)
0x75d07d3f4ce  2254  33c0           xorl rax,rax
0x75d07d3f4d0  2256  e964f7ffff     jmp 57  (0x75d07d3ec39)
0x75d07d3f4d5  2261  4d8b5508       REX.W movq r10,[r13+0x8]    ;; debug: position 1649
0x75d07d3f4d9  2265  4d3950ff       REX.W cmpq [r8-0x1],r10
0x75d07d3f4dd  2269  0f8586030000   jnz 3177  (0x75d07d3f869)
0x75d07d3f4e3  2275  f2410f104007   movsd xmm0,[r8+0x7]
0x75d07d3f4e9  2281  f2440f2cc0     cvttsd2sil r8,xmm0
0x75d07d3f4ee  2286  0f57c9         xorps xmm1,xmm1
0x75d07d3f4f1  2289  f2410f2ac8     cvtsi2sd xmm1,r8
0x75d07d3f4f6  2294  660f2ec1       ucomisd xmm0,xmm1
0x75d07d3f4fa  2298  0f8569030000   jnz 3177  (0x75d07d3f869)
0x75d07d3f500  2304  0f8a63030000   jpe 3177  (0x75d07d3f869)
0x75d07d3f506  2310  e97af7ffff     jmp 133  (0x75d07d3ec85)
0x75d07d3f50b  2315  48b80000000000000000 REX.W movq rax,(nil)    ;; debug: position 1636
0x75d07d3f515  2325  50             push rax
0x75d07d3f516  2326  51             push rcx
0x75d07d3f517  2327  52             push rdx
0x75d07d3f518  2328  53             push rbx
0x75d07d3f519  2329  56             push rsi
0x75d07d3f51a  2330  57             push rdi
0x75d07d3f51b  2331  4150           push r8
0x75d07d3f51d  2333  4151           push r9
0x75d07d3f51f  2335  4153           push r11
0x75d07d3f521  2337  4154           push r12
0x75d07d3f523  2339  4156           push r14
0x75d07d3f525  2341  4157           push r15
0x75d07d3f527  2343  488d6424e0     REX.W leaq rsp,[rsp-0x20]
0x75d07d3f52c  2348  488bc2         REX.W movq rax,rdx
0x75d07d3f52f  2351  48c1e320       REX.W shlq rbx, 32
0x75d07d3f533  2355  e8a8f3ffff     call 0x75d07d3e8e0       ;; code: STUB, GrowArrayElementsStub, minor: 256
0x75d07d3f538  2360  4889442478     REX.W movq [rsp+0x78],rax
0x75d07d3f53d  2365  488d642420     REX.W leaq rsp,[rsp+0x20]
0x75d07d3f542  2370  415f           pop r15
0x75d07d3f544  2372  415e           pop r14
0x75d07d3f546  2374  415c           pop r12
0x75d07d3f548  2376  415b           pop r11
0x75d07d3f54a  2378  4159           pop r9
0x75d07d3f54c  2380  4158           pop r8
0x75d07d3f54e  2382  5f             pop rdi
0x75d07d3f54f  2383  5e             pop rsi
0x75d07d3f550  2384  5b             pop rbx
0x75d07d3f551  2385  5a             pop rdx
0x75d07d3f552  2386  59             pop rcx
0x75d07d3f553  2387  58             pop rax
0x75d07d3f554  2388  a801           test al,0x1
0x75d07d3f556  2390  0f8412030000   jz 3182  (0x75d07d3f86e)
0x75d07d3f55c  2396  e97ff7ffff     jmp 224  (0x75d07d3ece0)
0x75d07d3f561  2401  48b80000000000000000 REX.W movq rax,(nil)    ;; debug: position 1683
0x75d07d3f56b  2411  50             push rax
0x75d07d3f56c  2412  51             push rcx
0x75d07d3f56d  2413  52             push rdx
0x75d07d3f56e  2414  53             push rbx
0x75d07d3f56f  2415  56             push rsi
0x75d07d3f570  2416  57             push rdi
0x75d07d3f571  2417  4150           push r8
0x75d07d3f573  2419  4151           push r9
0x75d07d3f575  2421  4153           push r11
0x75d07d3f577  2423  4154           push r12
0x75d07d3f579  2425  4156           push r14
0x75d07d3f57b  2427  4157           push r15
0x75d07d3f57d  2429  488d6424e0     REX.W leaq rsp,[rsp-0x20]
0x75d07d3f582  2434  488bc2         REX.W movq rax,rdx
0x75d07d3f585  2437  488bd9         REX.W movq rbx,rcx
0x75d07d3f588  2440  48c1e320       REX.W shlq rbx, 32
0x75d07d3f58c  2444  e84ff3ffff     call 0x75d07d3e8e0       ;; code: STUB, GrowArrayElementsStub, minor: 256
0x75d07d3f591  2449  4889442478     REX.W movq [rsp+0x78],rax
0x75d07d3f596  2454  488d642420     REX.W leaq rsp,[rsp+0x20]
0x75d07d3f59b  2459  415f           pop r15
0x75d07d3f59d  2461  415e           pop r14
0x75d07d3f59f  2463  415c           pop r12
0x75d07d3f5a1  2465  415b           pop r11
0x75d07d3f5a3  2467  4159           pop r9
0x75d07d3f5a5  2469  4158           pop r8
0x75d07d3f5a7  2471  5f             pop rdi
0x75d07d3f5a8  2472  5e             pop rsi
0x75d07d3f5a9  2473  5b             pop rbx
0x75d07d3f5aa  2474  5a             pop rdx
0x75d07d3f5ab  2475  59             pop rcx
0x75d07d3f5ac  2476  58             pop rax
0x75d07d3f5ad  2477  a801           test al,0x1
0x75d07d3f5af  2479  0f84be020000   jz 3187  (0x75d07d3f873)
0x75d07d3f5b5  2485  e9b2f7ffff     jmp 364  (0x75d07d3ed6c)
0x75d07d3f5ba  2490  4d8b5508       REX.W movq r10,[r13+0x8]    ;; debug: position 1707
0x75d07d3f5be  2494  4c3953ff       REX.W cmpq [rbx-0x1],r10
0x75d07d3f5c2  2498  0f85b0020000   jnz 3192  (0x75d07d3f878)
0x75d07d3f5c8  2504  f20f104307     movsd xmm0,[rbx+0x7]
0x75d07d3f5cd  2509  f20f2cd8       cvttsd2sil rbx,xmm0
0x75d07d3f5d1  2513  0f57c9         xorps xmm1,xmm1
0x75d07d3f5d4  2516  f20f2acb       cvtsi2sd xmm1,rbx
0x75d07d3f5d8  2520  660f2ec1       ucomisd xmm0,xmm1
0x75d07d3f5dc  2524  0f8596020000   jnz 3192  (0x75d07d3f878)
0x75d07d3f5e2  2530  0f8a90020000   jpe 3192  (0x75d07d3f878)
0x75d07d3f5e8  2536  85db           testl rbx,rbx
0x75d07d3f5ea  2538  0f850af8ffff   jnz 506  (0x75d07d3edfa)
0x75d07d3f5f0  2544  660f50d8       movmskpd rbx,xmm0
0x75d07d3f5f4  2548  83e301         andl rbx,0x1
0x75d07d3f5f7  2551  0f857b020000   jnz 3192  (0x75d07d3f878)
0x75d07d3f5fd  2557  e9f8f7ffff     jmp 506  (0x75d07d3edfa)
0x75d07d3f602  2562  4d8b5508       REX.W movq r10,[r13+0x8]
0x75d07d3f606  2566  4c3952ff       REX.W cmpq [rdx-0x1],r10
0x75d07d3f60a  2570  0f856d020000   jnz 3197  (0x75d07d3f87d)
0x75d07d3f610  2576  f20f104207     movsd xmm0,[rdx+0x7]
0x75d07d3f615  2581  f20f2cd0       cvttsd2sil rdx,xmm0
0x75d07d3f619  2585  0f57c9         xorps xmm1,xmm1
0x75d07d3f61c  2588  f20f2aca       cvtsi2sd xmm1,rdx
0x75d07d3f620  2592  660f2ec1       ucomisd xmm0,xmm1
0x75d07d3f624  2596  0f8553020000   jnz 3197  (0x75d07d3f87d)
0x75d07d3f62a  2602  0f8a4d020000   jpe 3197  (0x75d07d3f87d)
0x75d07d3f630  2608  85d2           testl rdx,rdx
0x75d07d3f632  2610  0f85d3f7ffff   jnz 523  (0x75d07d3ee0b)
0x75d07d3f638  2616  660f50d0       movmskpd rdx,xmm0
0x75d07d3f63c  2620  83e201         andl rdx,0x1
0x75d07d3f63f  2623  0f8538020000   jnz 3197  (0x75d07d3f87d)
0x75d07d3f645  2629  e9c1f7ffff     jmp 523  (0x75d07d3ee0b)
0x75d07d3f64a  2634  4d8b5508       REX.W movq r10,[r13+0x8]
0x75d07d3f64e  2638  4c3951ff       REX.W cmpq [rcx-0x1],r10
0x75d07d3f652  2642  0f852a020000   jnz 3202  (0x75d07d3f882)
0x75d07d3f658  2648  f20f104107     movsd xmm0,[rcx+0x7]
0x75d07d3f65d  2653  f20f2cc8       cvttsd2sil rcx,xmm0
0x75d07d3f661  2657  0f57c9         xorps xmm1,xmm1
0x75d07d3f664  2660  f20f2ac9       cvtsi2sd xmm1,rcx
0x75d07d3f668  2664  660f2ec1       ucomisd xmm0,xmm1
0x75d07d3f66c  2668  0f8510020000   jnz 3202  (0x75d07d3f882)
0x75d07d3f672  2674  0f8a0a020000   jpe 3202  (0x75d07d3f882)
0x75d07d3f678  2680  85c9           testl rcx,rcx
0x75d07d3f67a  2682  0f859cf7ffff   jnz 540  (0x75d07d3ee1c)
0x75d07d3f680  2688  660f50c8       movmskpd rcx,xmm0
0x75d07d3f684  2692  83e101         andl rcx,0x1
0x75d07d3f687  2695  0f85f5010000   jnz 3202  (0x75d07d3f882)
0x75d07d3f68d  2701  e98af7ffff     jmp 540  (0x75d07d3ee1c)
0x75d07d3f692  2706  4d8b5508       REX.W movq r10,[r13+0x8]
0x75d07d3f696  2710  4c3956ff       REX.W cmpq [rsi-0x1],r10
0x75d07d3f69a  2714  0f85e7010000   jnz 3207  (0x75d07d3f887)
0x75d07d3f6a0  2720  f20f104607     movsd xmm0,[rsi+0x7]
0x75d07d3f6a5  2725  f20f2cf0       cvttsd2sil rsi,xmm0
0x75d07d3f6a9  2729  0f57c9         xorps xmm1,xmm1
0x75d07d3f6ac  2732  f20f2ace       cvtsi2sd xmm1,rsi
0x75d07d3f6b0  2736  660f2ec1       ucomisd xmm0,xmm1
0x75d07d3f6b4  2740  0f85cd010000   jnz 3207  (0x75d07d3f887)
0x75d07d3f6ba  2746  0f8ac7010000   jpe 3207  (0x75d07d3f887)
0x75d07d3f6c0  2752  85f6           testl rsi,rsi
0x75d07d3f6c2  2754  0f8566f7ffff   jnz 558  (0x75d07d3ee2e)
0x75d07d3f6c8  2760  660f50f0       movmskpd rsi,xmm0
0x75d07d3f6cc  2764  83e601         andl rsi,0x1
0x75d07d3f6cf  2767  0f85b2010000   jnz 3207  (0x75d07d3f887)
0x75d07d3f6d5  2773  e954f7ffff     jmp 558  (0x75d07d3ee2e)
0x75d07d3f6da  2778  4d8b5508       REX.W movq r10,[r13+0x8]
0x75d07d3f6de  2782  4c3957ff       REX.W cmpq [rdi-0x1],r10
0x75d07d3f6e2  2786  0f85a4010000   jnz 3212  (0x75d07d3f88c)
0x75d07d3f6e8  2792  f20f104707     movsd xmm0,[rdi+0x7]
0x75d07d3f6ed  2797  f20f2cf8       cvttsd2sil rdi,xmm0
0x75d07d3f6f1  2801  0f57c9         xorps xmm1,xmm1
0x75d07d3f6f4  2804  f20f2acf       cvtsi2sd xmm1,rdi
0x75d07d3f6f8  2808  660f2ec1       ucomisd xmm0,xmm1
0x75d07d3f6fc  2812  0f858a010000   jnz 3212  (0x75d07d3f88c)
0x75d07d3f702  2818  0f8a84010000   jpe 3212  (0x75d07d3f88c)
0x75d07d3f708  2824  85ff           testl rdi,rdi
0x75d07d3f70a  2826  0f8530f7ffff   jnz 576  (0x75d07d3ee40)
0x75d07d3f710  2832  660f50f8       movmskpd rdi,xmm0
0x75d07d3f714  2836  83e701         andl rdi,0x1
0x75d07d3f717  2839  0f856f010000   jnz 3212  (0x75d07d3f88c)
0x75d07d3f71d  2845  e91ef7ffff     jmp 576  (0x75d07d3ee40)
0x75d07d3f722  2850  4d8b5508       REX.W movq r10,[r13+0x8]
0x75d07d3f726  2854  4d3950ff       REX.W cmpq [r8-0x1],r10
0x75d07d3f72a  2858  0f8561010000   jnz 3217  (0x75d07d3f891)
0x75d07d3f730  2864  f2410f104007   movsd xmm0,[r8+0x7]
0x75d07d3f736  2870  f2440f2cc0     cvttsd2sil r8,xmm0
0x75d07d3f73b  2875  0f57c9         xorps xmm1,xmm1
0x75d07d3f73e  2878  f2410f2ac8     cvtsi2sd xmm1,r8
0x75d07d3f743  2883  660f2ec1       ucomisd xmm0,xmm1
0x75d07d3f747  2887  0f8544010000   jnz 3217  (0x75d07d3f891)
0x75d07d3f74d  2893  0f8a3e010000   jpe 3217  (0x75d07d3f891)
0x75d07d3f753  2899  e9faf6ffff     jmp 594  (0x75d07d3ee52)
0x75d07d3f758  2904  50             push rax                 ;; debug: position 1851
0x75d07d3f759  2905  51             push rcx
0x75d07d3f75a  2906  52             push rdx
0x75d07d3f75b  2907  53             push rbx
0x75d07d3f75c  2908  56             push rsi
0x75d07d3f75d  2909  57             push rdi
0x75d07d3f75e  2910  4150           push r8
0x75d07d3f760  2912  4151           push r9
0x75d07d3f762  2914  4153           push r11
0x75d07d3f764  2916  4154           push r12
0x75d07d3f766  2918  4156           push r14
0x75d07d3f768  2920  4157           push r15
0x75d07d3f76a  2922  488d6424e0     REX.W leaq rsp,[rsp-0x20]
0x75d07d3f76f  2927  488b75f8       REX.W movq rsi,[rbp-0x8]
0x75d07d3f773  2931  33c0           xorl rax,rax
0x75d07d3f775  2933  498d9d88c50bfd REX.W leaq rbx,[r13-0x2f43a78]
0x75d07d3f77c  2940  e81f6bfcff     call 0x75d07d062a0       ;; code: STUB, CEntryStub, minor: 1
0x75d07d3f781  2945  488d642420     REX.W leaq rsp,[rsp+0x20]
0x75d07d3f786  2950  415f           pop r15
0x75d07d3f788  2952  415e           pop r14
0x75d07d3f78a  2954  415c           pop r12
0x75d07d3f78c  2956  415b           pop r11
0x75d07d3f78e  2958  4159           pop r9
0x75d07d3f790  2960  4158           pop r8
0x75d07d3f792  2962  5f             pop rdi
0x75d07d3f793  2963  5e             pop rsi
0x75d07d3f794  2964  5b             pop rbx
0x75d07d3f795  2965  5a             pop rdx
0x75d07d3f796  2966  59             pop rcx
0x75d07d3f797  2967  58             pop rax
0x75d07d3f798  2968  e9adf7ffff     jmp 842  (0x75d07d3ef4a)
0x75d07d3f79d  2973  50             push rax                 ;; debug: position 1988
0x75d07d3f79e  2974  51             push rcx
0x75d07d3f79f  2975  52             push rdx
0x75d07d3f7a0  2976  53             push rbx
0x75d07d3f7a1  2977  56             push rsi
0x75d07d3f7a2  2978  57             push rdi
0x75d07d3f7a3  2979  4150           push r8
0x75d07d3f7a5  2981  4151           push r9
0x75d07d3f7a7  2983  4153           push r11
0x75d07d3f7a9  2985  4154           push r12
0x75d07d3f7ab  2987  4156           push r14
0x75d07d3f7ad  2989  4157           push r15
0x75d07d3f7af  2991  488d6424e0     REX.W leaq rsp,[rsp-0x20]
0x75d07d3f7b4  2996  488b75f8       REX.W movq rsi,[rbp-0x8]
0x75d07d3f7b8  3000  33c0           xorl rax,rax
0x75d07d3f7ba  3002  498d9d88c50bfd REX.W leaq rbx,[r13-0x2f43a78]
0x75d07d3f7c1  3009  e8da6afcff     call 0x75d07d062a0       ;; code: STUB, CEntryStub, minor: 1
0x75d07d3f7c6  3014  488d642420     REX.W leaq rsp,[rsp+0x20]
0x75d07d3f7cb  3019  415f           pop r15
0x75d07d3f7cd  3021  415e           pop r14
0x75d07d3f7cf  3023  415c           pop r12
0x75d07d3f7d1  3025  415b           pop r11
0x75d07d3f7d3  3027  4159           pop r9
0x75d07d3f7d5  3029  4158           pop r8
0x75d07d3f7d7  3031  5f             pop rdi
0x75d07d3f7d8  3032  5e             pop rsi
0x75d07d3f7d9  3033  5b             pop rbx
0x75d07d3f7da  3034  5a             pop rdx
0x75d07d3f7db  3035  59             pop rcx
0x75d07d3f7dc  3036  58             pop rax
0x75d07d3f7dd  3037  e9a5f7ffff     jmp 903  (0x75d07d3ef87)
0x75d07d3f7e2  3042  e82d68ccff     call 0x75d07a06014       ;; deoptimization bailout 2
0x75d07d3f7e7  3047  e83268ccff     call 0x75d07a0601e       ;; deoptimization bailout 3
0x75d07d3f7ec  3052  e83768ccff     call 0x75d07a06028       ;; deoptimization bailout 4
0x75d07d3f7f1  3057  e83c68ccff     call 0x75d07a06032       ;; deoptimization bailout 5
0x75d07d3f7f6  3062  e84168ccff     call 0x75d07a0603c       ;; deoptimization bailout 6
0x75d07d3f7fb  3067  e84668ccff     call 0x75d07a06046       ;; deoptimization bailout 7
0x75d07d3f800  3072  e84b68ccff     call 0x75d07a06050       ;; deoptimization bailout 8
0x75d07d3f805  3077  e86468ccff     call 0x75d07a0606e       ;; deoptimization bailout 11
0x75d07d3f80a  3082  e86968ccff     call 0x75d07a06078       ;; deoptimization bailout 12
0x75d07d3f80f  3087  e86e68ccff     call 0x75d07a06082       ;; deoptimization bailout 13
0x75d07d3f814  3092  e87368ccff     call 0x75d07a0608c       ;; deoptimization bailout 14
0x75d07d3f819  3097  e87868ccff     call 0x75d07a06096       ;; deoptimization bailout 15
0x75d07d3f81e  3102  e89168ccff     call 0x75d07a060b4       ;; deoptimization bailout 18
0x75d07d3f823  3107  e89668ccff     call 0x75d07a060be       ;; deoptimization bailout 19
0x75d07d3f828  3112  e89b68ccff     call 0x75d07a060c8       ;; deoptimization bailout 20
0x75d07d3f82d  3117  e8a068ccff     call 0x75d07a060d2       ;; deoptimization bailout 21
0x75d07d3f832  3122  e8a568ccff     call 0x75d07a060dc       ;; deoptimization bailout 22
0x75d07d3f837  3127  e8aa68ccff     call 0x75d07a060e6       ;; deoptimization bailout 23
0x75d07d3f83c  3132  e8af68ccff     call 0x75d07a060f0       ;; deoptimization bailout 24
0x75d07d3f841  3137  e8b468ccff     call 0x75d07a060fa       ;; deoptimization bailout 25
0x75d07d3f846  3142  e8b968ccff     call 0x75d07a06104       ;; deoptimization bailout 26
0x75d07d3f84b  3147  e8be68ccff     call 0x75d07a0610e       ;; deoptimization bailout 27
0x75d07d3f850  3152  e8c368ccff     call 0x75d07a06118       ;; deoptimization bailout 28
0x75d07d3f855  3157  e8c868ccff     call 0x75d07a06122       ;; deoptimization bailout 29
0x75d07d3f85a  3162  e8cd68ccff     call 0x75d07a0612c       ;; deoptimization bailout 30
0x75d07d3f85f  3167  e8d268ccff     call 0x75d07a06136       ;; deoptimization bailout 31
0x75d07d3f864  3172  e8e168ccff     call 0x75d07a0614a       ;; deoptimization bailout 33
0x75d07d3f869  3177  e8e668ccff     call 0x75d07a06154       ;; deoptimization bailout 34
0x75d07d3f86e  3182  e8eb68ccff     call 0x75d07a0615e       ;; deoptimization bailout 35
0x75d07d3f873  3187  e8f068ccff     call 0x75d07a06168       ;; deoptimization bailout 36
0x75d07d3f878  3192  e8f568ccff     call 0x75d07a06172       ;; deoptimization bailout 37
0x75d07d3f87d  3197  e8fa68ccff     call 0x75d07a0617c       ;; deoptimization bailout 38
0x75d07d3f882  3202  e8ff68ccff     call 0x75d07a06186       ;; deoptimization bailout 39
0x75d07d3f887  3207  e80469ccff     call 0x75d07a06190       ;; deoptimization bailout 40
0x75d07d3f88c  3212  e80969ccff     call 0x75d07a0619a       ;; deoptimization bailout 41
0x75d07d3f891  3217  e80e69ccff     call 0x75d07a061a4       ;; deoptimization bailout 42
0x75d07d3f896  3222  6690           nop

Inlined functions (count = 4)
 0x2540feaebea9 <SharedFunctionInfo rol>
 0x2540feaebbe9 <SharedFunctionInfo sha1_ft>
 0x2540feaebdf9 <SharedFunctionInfo safe_add>
 0x2540feaebc99 <SharedFunctionInfo sha1_kt>

Deoptimization Input Data (deopt points = 43)
 index  ast id    argc     pc
     0       1       0     13
     1       3       0     41
     2       3       0     -1
     3       3       0     -1
     4       3       0     -1
     5      50       0     -1
     6     141       0     -1
     7     141       0     -1
     8     141       0     -1
     9     188       0    476
    10     266       0     -1
    11     264       0     -1
    12     264       0     -1
    13     264       0     -1
    14     264       0     -1
    15     264       0     -1
    16     268       0    842
    17     389       0    903
    18     501       0     -1
    19     501       0     -1
    20     501       0     -1
    21     501       0     -1
    22     501       0     -1
    23     501       0     -1
    24     478       0     -1
    25     425       0     -1
    26     452       0     -1
    27     452       0     -1
    28     452       0     -1
    29     583       0     -1
    30     583       0     -1
    31     816       0     -1
    32     830       0   2151
    33       3       0     -1
    34       3       0     -1
    35      50       0     -1
    36     141       0     -1
    37     264       0     -1
    38     264       0     -1
    39     264       0     -1
    40     264       0     -1
    41     264       0     -1
    42     264       0     -1

Safepoints (size = 120)
0x75d07d3ec29    41  00000000000000100000000000000 (sp -> fp)       1
0x75d07d3edd5   469  00000000000000100000000000000 (sp -> fp)       9
0x75d07d3eddc   476  00000000000000100000000000000 (sp -> fp)       9
0x75d07d3f467  2151  00000000000111000000000000000 (sp -> fp)      32
0x75d07d3f538  2360  00000000000000100000000000000 | rdx | rsi | rdi (sp -> fp)      16
0x75d07d3f591  2449  00000000000000100000000000000 | rdx | rsi | rdi (sp -> fp)      16
0x75d07d3f781  2945  00000000000111000000000000000 | r8 | r12 | r15 (sp -> fp)      16
0x75d07d3f7c6  3014  00000000000111000000000000000 | r8 | r12 | r15 (sp -> fp)      17

RelocInfo (size = 603)
0x75d07d3ec25  code target (BUILTIN)  (0x75d07d36a80)
0x75d07d3ec2d  position  (1622)
0x75d07d3ec4e  embedded object  (0xb2006c07c79 <Map(FAST_SMI_ELEMENTS)>)
0x75d07d3ec77  position  (1649)
0x75d07d3ec98  position  (1622)
0x75d07d3ec9e  position  (1643)
0x75d07d3eca1  position  (1622)
0x75d07d3eca9  position  (1636)
0x75d07d3ecb1  embedded object  (0xb2006c04209 <Map(FAST_SMI_ELEMENTS)>)
0x75d07d3ecfd  position  (1666)
0x75d07d3ed01  position  (1671)
0x75d07d3ed07  position  (1677)
0x75d07d3ed0d  position  (1683)
0x75d07d3ed16  embedded object  (0xb2006c04209 <Map(FAST_SMI_ELEMENTS)>)
0x75d07d3ed8f  position  (1707)
0x75d07d3ed91  embedded object  (0x2540fea04189 <undefined>)
0x75d07d3eda9  embedded object  (0x2540feac7cb9 <JS Function Array (SharedFunctionInfo 0x2540fea9d041)>)
0x75d07d3edbf  embedded object  (0x2540feaee4a9 <AllocationSite>)
0x75d07d3edd1  code target (js construct call) (STUB)  (0x75d07d0fa60)
0x75d07d3edd8  code target (js construct call) (STUB)  (0x75d07d064e0)
0x75d07d3eeb1  position  (1851)
0x75d07d3eebd  embedded object  (0xb2006c07d81 <Map(FAST_HOLEY_SMI_ELEMENTS)>)
0x75d07d3eed3  position  (2064)
0x75d07d3eedf  embedded object  (0xb2006c07d81 <Map(FAST_HOLEY_SMI_ELEMENTS)>)
0x75d07d3eef9  position  (3829)
0x75d07d3eefb  embedded object  (0xb2006c04209 <Map(FAST_SMI_ELEMENTS)>)
0x75d07d3ef0d  position  (2033)
0x75d07d3ef11  position  (1851)
0x75d07d3ef70  position  (1988)
0x75d07d3ef87  position  (2016)
0x75d07d3ef91  position  (2033)
0x75d07d3ef94  position  (2064)
0x75d07d3efa3  position  (2073)
0x75d07d3efa9  position  (2082)
0x75d07d3efaf  position  (2092)
0x75d07d3efb2  position  (2073)
0x75d07d3efbb  position  (2064)
0x75d07d3efca  position  (2073)
0x75d07d3efd8  position  (2068)
0x75d07d3efe2  position  (2082)
0x75d07d3eff0  position  (2077)
0x75d07d3eff6  position  (2092)
0x75d07d3f004  position  (2087)
0x75d07d3f00a  position  (3829)
0x75d07d3f026  position  (2016)
0x75d07d3f029  position  (2033)
0x75d07d3f057  position  (2116)
0x75d07d3f05e  position  (3829)
0x75d07d3f061  position  (2617)
0x75d07d3f06b  position  (2659)
0x75d07d3f075  position  (2690)
0x75d07d3f07f  position  (2743)
0x75d07d3f08c  position  (2747)
0x75d07d3f09a  position  (2706)
0x75d07d3f0ae  position  (2716)
0x75d07d3f0b4  position  (2711)
0x75d07d3f0bd  position  (2726)
0x75d07d3f0c3  position  (2721)
0x75d07d3f0cd  position  (2674)
0x75d07d3f0da  position  (2678)
0x75d07d3f0e8  position  (2633)
0x75d07d3f0fc  position  (2642)
0x75d07d3f0fe  position  (2646)
0x75d07d3f104  position  (2638)
0x75d07d3f106  position  (2747)
0x75d07d3f109  position  (3611)
0x75d07d3f112  position  (3626)
0x75d07d3f118  position  (3621)
0x75d07d3f11a  position  (3652)
0x75d07d3f11d  position  (3664)
0x75d07d3f120  position  (3659)
0x75d07d3f125  position  (3678)
0x75d07d3f128  position  (3671)
0x75d07d3f12a  position  (3700)
0x75d07d3f12d  position  (3714)
0x75d07d3f133  position  (3707)
0x75d07d3f135  position  (2199)
0x75d07d3f153  position  (3611)
0x75d07d3f159  position  (3626)
0x75d07d3f166  position  (3621)
0x75d07d3f16f  position  (3652)
0x75d07d3f172  position  (3664)
0x75d07d3f175  position  (3659)
0x75d07d3f17a  position  (3678)
0x75d07d3f17d  position  (3671)
0x75d07d3f17f  position  (3700)
0x75d07d3f182  position  (3714)
0x75d07d3f188  position  (3707)
0x75d07d3f18a  position  (2869)
0x75d07d3f194  position  (2894)
0x75d07d3f19e  position  (2928)
0x75d07d3f1bc  position  (2928)
0x75d07d3f1c6  position  (2928)
0x75d07d3f1ce  position  (3611)
0x75d07d3f1d7  position  (3626)
0x75d07d3f1dd  position  (3621)
0x75d07d3f1df  position  (3652)
0x75d07d3f1e2  position  (3664)
0x75d07d3f1e5  position  (3659)
0x75d07d3f1ea  position  (3678)
0x75d07d3f1ed  position  (3671)
0x75d07d3f1ef  position  (3700)
0x75d07d3f1f2  position  (3714)
0x75d07d3f1f8  position  (3707)
0x75d07d3f1fd  position  (3611)
0x75d07d3f206  position  (3626)
0x75d07d3f20c  position  (3621)
0x75d07d3f20e  position  (3652)
0x75d07d3f211  position  (3664)
0x75d07d3f214  position  (3659)
0x75d07d3f219  position  (3678)
0x75d07d3f21c  position  (3671)
0x75d07d3f21e  position  (3700)
0x75d07d3f221  position  (3714)
0x75d07d3f227  position  (3707)
0x75d07d3f230  position  (3829)
0x75d07d3f233  position  (1995)
0x75d07d3f274  position  (2321)
0x75d07d3f27b  position  (3611)
0x75d07d3f288  position  (3626)
0x75d07d3f28e  position  (3621)
0x75d07d3f297  position  (3652)
0x75d07d3f2a1  position  (3664)
0x75d07d3f2a4  position  (3659)
0x75d07d3f2a9  position  (3678)
0x75d07d3f2ac  position  (3671)
0x75d07d3f2ae  position  (3700)
0x75d07d3f2b1  position  (3714)
0x75d07d3f2b7  position  (3707)
0x75d07d3f2c7  position  (3611)
0x75d07d3f2d4  position  (3626)
0x75d07d3f2da  position  (3621)
0x75d07d3f2e3  position  (3652)
0x75d07d3f2ed  position  (3664)
0x75d07d3f2f0  position  (3659)
0x75d07d3f2f5  position  (3678)
0x75d07d3f2f8  position  (3671)
0x75d07d3f2fa  position  (3700)
0x75d07d3f2fd  position  (3714)
0x75d07d3f303  position  (3707)
0x75d07d3f30c  position  (3611)
0x75d07d3f319  position  (3626)
0x75d07d3f31f  position  (3621)
0x75d07d3f328  position  (3652)
0x75d07d3f332  position  (3664)
0x75d07d3f335  position  (3659)
0x75d07d3f33a  position  (3678)
0x75d07d3f33d  position  (3671)
0x75d07d3f33f  position  (3700)
0x75d07d3f342  position  (3714)
0x75d07d3f348  position  (3707)
0x75d07d3f351  position  (3611)
0x75d07d3f35e  position  (3626)
0x75d07d3f364  position  (3621)
0x75d07d3f36d  position  (3652)
0x75d07d3f377  position  (3664)
0x75d07d3f37b  position  (3659)
0x75d07d3f381  position  (3678)
0x75d07d3f384  position  (3671)
0x75d07d3f387  position  (3700)
0x75d07d3f38a  position  (3714)
0x75d07d3f390  position  (3707)
0x75d07d3f399  position  (3611)
0x75d07d3f3a6  position  (3626)
0x75d07d3f3ad  position  (3621)
0x75d07d3f3b7  position  (3652)
0x75d07d3f3c1  position  (3664)
0x75d07d3f3c4  position  (3659)
0x75d07d3f3c9  position  (3678)
0x75d07d3f3cc  position  (3671)
0x75d07d3f3ce  position  (3700)
0x75d07d3f3d1  position  (3714)
0x75d07d3f3d8  position  (3707)
0x75d07d3f3de  position  (1866)
0x75d07d3f3ff  position  (2461)
0x75d07d3f442  embedded object  (0x2540fea04189 <undefined>)
0x75d07d3f453  embedded object  (0x2540feac7cb9 <JS Function Array (SharedFunctionInfo 0x2540fea9d041)>)
0x75d07d3f474  position  (1622)
0x75d07d3f498  code target (STUB)  (0x75d07d3c840)
0x75d07d3f4d5  position  (1649)
0x75d07d3f50b  position  (1636)
0x75d07d3f534  code target (STUB)  (0x75d07d3e8e0)
0x75d07d3f561  position  (1683)
0x75d07d3f58d  code target (STUB)  (0x75d07d3e8e0)
0x75d07d3f5ba  position  (1707)
0x75d07d3f758  position  (1851)
0x75d07d3f77d  code target (STUB)  (0x75d07d062a0)
0x75d07d3f79d  position  (1988)
0x75d07d3f7c2  code target (STUB)  (0x75d07d062a0)
0x75d07d3f7e3  runtime entry  (deoptimization bailout 2)
0x75d07d3f7e8  runtime entry  (deoptimization bailout 3)
0x75d07d3f7ed  runtime entry  (deoptimization bailout 4)
0x75d07d3f7f2  runtime entry  (deoptimization bailout 5)
0x75d07d3f7f7  runtime entry  (deoptimization bailout 6)
0x75d07d3f7fc  runtime entry  (deoptimization bailout 7)
0x75d07d3f801  runtime entry  (deoptimization bailout 8)
0x75d07d3f806  runtime entry  (deoptimization bailout 11)
0x75d07d3f80b  runtime entry  (deoptimization bailout 12)
0x75d07d3f810  runtime entry  (deoptimization bailout 13)
0x75d07d3f815  runtime entry  (deoptimization bailout 14)
0x75d07d3f81a  runtime entry  (deoptimization bailout 15)
0x75d07d3f81f  runtime entry  (deoptimization bailout 18)
0x75d07d3f824  runtime entry  (deoptimization bailout 19)
0x75d07d3f829  runtime entry  (deoptimization bailout 20)
0x75d07d3f82e  runtime entry  (deoptimization bailout 21)
0x75d07d3f833  runtime entry  (deoptimization bailout 22)
0x75d07d3f838  runtime entry  (deoptimization bailout 23)
0x75d07d3f83d  runtime entry  (deoptimization bailout 24)
0x75d07d3f842  runtime entry  (deoptimization bailout 25)
0x75d07d3f847  runtime entry  (deoptimization bailout 26)
0x75d07d3f84c  runtime entry  (deoptimization bailout 27)
0x75d07d3f851  runtime entry  (deoptimization bailout 28)
0x75d07d3f856  runtime entry  (deoptimization bailout 29)
0x75d07d3f85b  runtime entry  (deoptimization bailout 30)
0x75d07d3f860  runtime entry  (deoptimization bailout 31)
0x75d07d3f865  runtime entry  (deoptimization bailout 33)
0x75d07d3f86a  runtime entry  (deoptimization bailout 34)
0x75d07d3f86f  runtime entry  (deoptimization bailout 35)
0x75d07d3f874  runtime entry  (deoptimization bailout 36)
0x75d07d3f879  runtime entry  (deoptimization bailout 37)
0x75d07d3f87e  runtime entry  (deoptimization bailout 38)
0x75d07d3f883  runtime entry  (deoptimization bailout 39)
0x75d07d3f888  runtime entry  (deoptimization bailout 40)
0x75d07d3f88d  runtime entry  (deoptimization bailout 41)
0x75d07d3f892  runtime entry  (deoptimization bailout 42)

--- End code ---
--- Raw source ---
(t)
{
  return (t < 20) ?  1518500249 : (t < 40) ?  1859775393 :
         (t < 60) ? -1894007588 : -899497514;
}


--- Optimized code ---
optimization_id = 3
source_position = 2851
kind = OPTIMIZED_FUNCTION
name = sha1_kt
stack_slots = 1
compiler = crankshaft
Instructions (size = 219)
0x75d07d3f980     0  55             push rbp
0x75d07d3f981     1  4889e5         REX.W movq rbp,rsp
0x75d07d3f984     4  56             push rsi
0x75d07d3f985     5  57             push rdi
0x75d07d3f986     6  4883ec08       REX.W subq rsp,0x8
0x75d07d3f98a    10  488b45f8       REX.W movq rax,[rbp-0x8]
0x75d07d3f98e    14  488945e8       REX.W movq [rbp-0x18],rax
0x75d07d3f992    18  488bf0         REX.W movq rsi,rax
0x75d07d3f995    21  6690           nop
0x75d07d3f997    23  493ba548090000 REX.W cmpq rsp,[r13+0x948]
0x75d07d3f99e    30  7305           jnc 37  (0x75d07d3f9a5)
0x75d07d3f9a0    32  e8db70ffff     call StackCheck  (0x75d07d36a80)    ;; code: BUILTIN
0x75d07d3f9a5    37  488b4510       REX.W movq rax,[rbp+0x10]
0x75d07d3f9a9    41  a801           test al,0x1              ;; debug: position 2869
0x75d07d3f9ab    43  0f855d000000   jnz 142  (0x75d07d3fa0e)
0x75d07d3f9b1    49  48c1e820       REX.W shrq rax, 32
0x75d07d3f9b5    53  83f814         cmpl rax,0x14
0x75d07d3f9b8    56  0f8c3f000000   jl 125  (0x75d07d3f9fd)
0x75d07d3f9be    62  83f828         cmpl rax,0x28            ;; debug: position 2894
0x75d07d3f9c1    65  0f8c27000000   jl 110  (0x75d07d3f9ee)
0x75d07d3f9c7    71  83f83c         cmpl rax,0x3c            ;; debug: position 2928
0x75d07d3f9ca    74  0f8c0f000000   jl 95  (0x75d07d3f9df)
0x75d07d3f9d0    80  48b800000000d6c162ca REX.W movq rax,0xca62c1d600000000
0x75d07d3f9da    90  e928000000     jmp 135  (0x75d07d3fa07)
0x75d07d3f9df    95  48b800000000dcbc1b8f REX.W movq rax,0x8f1bbcdc00000000
0x75d07d3f9e9   105  e919000000     jmp 135  (0x75d07d3fa07)
0x75d07d3f9ee   110  48b800000000a1ebd96e REX.W movq rax,0x6ed9eba100000000    ;; debug: position 2928
0x75d07d3f9f8   120  e90a000000     jmp 135  (0x75d07d3fa07)
0x75d07d3f9fd   125  48b8000000009979825a REX.W movq rax,0x5a82799900000000    ;; debug: position 2928
0x75d07d3fa07   135  488be5         REX.W movq rsp,rbp
0x75d07d3fa0a   138  5d             pop rbp
0x75d07d3fa0b   139  c21000         ret 0x10
0x75d07d3fa0e   142  4d8b5508       REX.W movq r10,[r13+0x8]    ;; debug: position 2869
0x75d07d3fa12   146  4c3950ff       REX.W cmpq [rax-0x1],r10
0x75d07d3fa16   150  0f8525000000   jnz 193  (0x75d07d3fa41)
0x75d07d3fa1c   156  f20f104007     movsd xmm0,[rax+0x7]
0x75d07d3fa21   161  f20f2cc0       cvttsd2sil rax,xmm0
0x75d07d3fa25   165  0f57c9         xorps xmm1,xmm1
0x75d07d3fa28   168  f20f2ac8       cvtsi2sd xmm1,rax
0x75d07d3fa2c   172  660f2ec1       ucomisd xmm0,xmm1
0x75d07d3fa30   176  0f850b000000   jnz 193  (0x75d07d3fa41)
0x75d07d3fa36   182  0f8a05000000   jpe 193  (0x75d07d3fa41)
0x75d07d3fa3c   188  e974ffffff     jmp 53  (0x75d07d3f9b5)
0x75d07d3fa41   193  e8ce65ccff     call 0x75d07a06014       ;; deoptimization bailout 2
0x75d07d3fa46   198  6690           nop

Inlined functions (count = 0)

Deoptimization Input Data (deopt points = 3)
 index  ast id    argc     pc
     0       1       0     10
     1       3       0     37
     2       3       0     -1

Safepoints (size = 19)
0x75d07d3f9a5    37  1 (sp -> fp)       1

RelocInfo (size = 27)
0x75d07d3f9a1  code target (BUILTIN)  (0x75d07d36a80)
0x75d07d3f9a9  position  (2869)
0x75d07d3f9be  position  (2894)
0x75d07d3f9c7  position  (2928)
0x75d07d3f9ee  position  (2928)
0x75d07d3f9fd  position  (2928)
0x75d07d3fa0e  position  (2869)
0x75d07d3fa42  runtime entry  (deoptimization bailout 2)

--- End code ---
--- Code ---
kind = BINARY_OP_IC
major_key = <NoCache>Stub
ic_state = MONOMORPHIC
extra_ic_state = 12689
type = NORMAL
name = BinaryOpICStub
compiler = crankshaft
Instructions (size = 304)
0x75d07d3fb60     0  488bda         REX.W movq rbx,rdx
0x75d07d3fb63     3  f6c301         testb rbx,0x1
0x75d07d3fb66     6  0f851d000000   jnz 41  (0x75d07d3fb89)
0x75d07d3fb6c    12  48c1eb20       REX.W shrq rbx, 32
0x75d07d3fb70    16  488bc8         REX.W movq rcx,rax
0x75d07d3fb73    19  f6c101         testb rcx,0x1
0x75d07d3fb76    22  0f8587000000   jnz 163  (0x75d07d3fc03)
0x75d07d3fb7c    28  48c1e920       REX.W shrq rcx, 32
0x75d07d3fb80    32  33cb           xorl rcx,rbx
0x75d07d3fb82    34  8bc1           movl rax,rcx
0x75d07d3fb84    36  48c1e020       REX.W shlq rax, 32
0x75d07d3fb88    40  c3             ret
0x75d07d3fb89    41  55             push rbp
0x75d07d3fb8a    42  ff75f8         push [rbp-0x8]
0x75d07d3fb8d    45  49ba0000000006000000 REX.W movq r10,0x600000000
0x75d07d3fb97    55  4152           push r10
0x75d07d3fb99    57  488d6c2410     REX.W leaq rbp,[rsp+0x10]
0x75d07d3fb9e    62  4d8b5508       REX.W movq r10,[r13+0x8]
0x75d07d3fba2    66  4c3953ff       REX.W cmpq [rbx-0x1],r10
0x75d07d3fba6    70  7529           jnz 113  (0x75d07d3fbd1)
0x75d07d3fba8    72  f20f104307     movsd xmm0,[rbx+0x7]
0x75d07d3fbad    77  f2480f2cd8     REX.W cvttsd2siq rbx,xmm0
0x75d07d3fbb2    82  4883fb01       REX.W cmpq rbx,0x1
0x75d07d3fbb6    86  7112           jno 106  (0x75d07d3fbca)
0x75d07d3fbb8    88  4883ec08       REX.W subq rsp,0x8
0x75d07d3fbbc    92  f20f110424     movsd [rsp],xmm0
0x75d07d3fbc1    97  e8bacfffff     call 0x75d07d3cb80       ;; code: STUB, DoubleToIStub, minor: 135364
0x75d07d3fbc6   102  4883c408       REX.W addq rsp,0x8
0x75d07d3fbca   106  8bdb           movl rbx,rbx
0x75d07d3fbcc   108  e929000000     jmp 154  (0x75d07d3fbfa)
0x75d07d3fbd1   113  493b5da8       REX.W cmpq rbx,[r13-0x58]
0x75d07d3fbd5   117  7507           jnz 126  (0x75d07d3fbde)
0x75d07d3fbd7   119  33db           xorl rbx,rbx
0x75d07d3fbd9   121  e91c000000     jmp 154  (0x75d07d3fbfa)
0x75d07d3fbde   126  493b5dc0       REX.W cmpq rbx,[r13-0x40]
0x75d07d3fbe2   130  750a           jnz 142  (0x75d07d3fbee)
0x75d07d3fbe4   132  bb01000000     movl rbx,0x1
0x75d07d3fbe9   137  e90c000000     jmp 154  (0x75d07d3fbfa)
0x75d07d3fbee   142  493b5dc8       REX.W cmpq rbx,[r13-0x38]
0x75d07d3fbf2   146  0f8585000000   jnz 285  (0x75d07d3fc7d)
0x75d07d3fbf8   152  33db           xorl rbx,rbx
0x75d07d3fbfa   154  488be5         REX.W movq rsp,rbp
0x75d07d3fbfd   157  5d             pop rbp
0x75d07d3fbfe   158  e96dffffff     jmp 16  (0x75d07d3fb70)
0x75d07d3fc03   163  55             push rbp
0x75d07d3fc04   164  ff75f8         push [rbp-0x8]
0x75d07d3fc07   167  49ba0000000006000000 REX.W movq r10,0x600000000
0x75d07d3fc11   177  4152           push r10
0x75d07d3fc13   179  488d6c2410     REX.W leaq rbp,[rsp+0x10]
0x75d07d3fc18   184  4d8b5508       REX.W movq r10,[r13+0x8]
0x75d07d3fc1c   188  4c3951ff       REX.W cmpq [rcx-0x1],r10
0x75d07d3fc20   192  7529           jnz 235  (0x75d07d3fc4b)
0x75d07d3fc22   194  f20f104107     movsd xmm0,[rcx+0x7]
0x75d07d3fc27   199  f2480f2cc8     REX.W cvttsd2siq rcx,xmm0
0x75d07d3fc2c   204  4883f901       REX.W cmpq rcx,0x1
0x75d07d3fc30   208  7112           jno 228  (0x75d07d3fc44)
0x75d07d3fc32   210  4883ec08       REX.W subq rsp,0x8
0x75d07d3fc36   214  f20f110424     movsd [rsp],xmm0
0x75d07d3fc3b   219  e8e0ebffff     call 0x75d07d3e820       ;; code: STUB, DoubleToIStub, minor: 135236
0x75d07d3fc40   224  4883c408       REX.W addq rsp,0x8
0x75d07d3fc44   228  8bc9           movl rcx,rcx
0x75d07d3fc46   230  e929000000     jmp 276  (0x75d07d3fc74)
0x75d07d3fc4b   235  493b4da8       REX.W cmpq rcx,[r13-0x58]
0x75d07d3fc4f   239  7507           jnz 248  (0x75d07d3fc58)
0x75d07d3fc51   241  33c9           xorl rcx,rcx
0x75d07d3fc53   243  e91c000000     jmp 276  (0x75d07d3fc74)
0x75d07d3fc58   248  493b4dc0       REX.W cmpq rcx,[r13-0x40]
0x75d07d3fc5c   252  750a           jnz 264  (0x75d07d3fc68)
0x75d07d3fc5e   254  b901000000     movl rcx,0x1
0x75d07d3fc63   259  e90c000000     jmp 276  (0x75d07d3fc74)
0x75d07d3fc68   264  493b4dc8       REX.W cmpq rcx,[r13-0x38]
0x75d07d3fc6c   268  0f8510000000   jnz 290  (0x75d07d3fc82)
0x75d07d3fc72   274  33c9           xorl rcx,rcx
0x75d07d3fc74   276  488be5         REX.W movq rsp,rbp
0x75d07d3fc77   279  5d             pop rbp
0x75d07d3fc78   280  e903ffffff     jmp 32  (0x75d07d3fb80)
0x75d07d3fc7d   285  e87e63dcff     call 0x75d07b06000       ;; lazy deoptimization bailout 0
0x75d07d3fc82   290  e88363dcff     call 0x75d07b0600a       ;; lazy deoptimization bailout 1
0x75d07d3fc87   295  90             nop


Safepoints (size = 8)

RelocInfo (size = 12)
0x75d07d3fbc2  code target (STUB)  (0x75d07d3cb80)
0x75d07d3fc3c  code target (STUB)  (0x75d07d3e820)
0x75d07d3fc7e  runtime entry
0x75d07d3fc83  runtime entry

--- End code ---
--- Code ---
kind = BINARY_OP_IC
major_key = <NoCache>Stub
ic_state = MONOMORPHIC
extra_ic_state = 12433
type = NORMAL
name = BinaryOpICStub
compiler = crankshaft
Instructions (size = 236)
0x75d07d3fd00     0  488bda         REX.W movq rbx,rdx
0x75d07d3fd03     3  f6c301         testb rbx,0x1
0x75d07d3fd06     6  0f8597000000   jnz 163  (0x75d07d3fda3)
0x75d07d3fd0c    12  488bc8         REX.W movq rcx,rax
0x75d07d3fd0f    15  f6c101         testb rcx,0x1
0x75d07d3fd12    18  0f8511000000   jnz 41  (0x75d07d3fd29)
0x75d07d3fd18    24  48c1e920       REX.W shrq rcx, 32
0x75d07d3fd1c    28  48c1eb20       REX.W shrq rbx, 32
0x75d07d3fd20    32  33cb           xorl rcx,rbx
0x75d07d3fd22    34  8bc1           movl rax,rcx
0x75d07d3fd24    36  48c1e020       REX.W shlq rax, 32
0x75d07d3fd28    40  c3             ret
0x75d07d3fd29    41  55             push rbp
0x75d07d3fd2a    42  ff75f8         push [rbp-0x8]
0x75d07d3fd2d    45  49ba0000000006000000 REX.W movq r10,0x600000000
0x75d07d3fd37    55  4152           push r10
0x75d07d3fd39    57  488d6c2410     REX.W leaq rbp,[rsp+0x10]
0x75d07d3fd3e    62  4d8b5508       REX.W movq r10,[r13+0x8]
0x75d07d3fd42    66  4c3951ff       REX.W cmpq [rcx-0x1],r10
0x75d07d3fd46    70  7529           jnz 113  (0x75d07d3fd71)
0x75d07d3fd48    72  f20f104107     movsd xmm0,[rcx+0x7]
0x75d07d3fd4d    77  f2480f2cc8     REX.W cvttsd2siq rcx,xmm0
0x75d07d3fd52    82  4883f901       REX.W cmpq rcx,0x1
0x75d07d3fd56    86  7112           jno 106  (0x75d07d3fd6a)
0x75d07d3fd58    88  4883ec08       REX.W subq rsp,0x8
0x75d07d3fd5c    92  f20f110424     movsd [rsp],xmm0
0x75d07d3fd61    97  e8baeaffff     call 0x75d07d3e820       ;; code: STUB, DoubleToIStub, minor: 135236
0x75d07d3fd66   102  4883c408       REX.W addq rsp,0x8
0x75d07d3fd6a   106  8bc9           movl rcx,rcx
0x75d07d3fd6c   108  e929000000     jmp 154  (0x75d07d3fd9a)
0x75d07d3fd71   113  493b4da8       REX.W cmpq rcx,[r13-0x58]
0x75d07d3fd75   117  7507           jnz 126  (0x75d07d3fd7e)
0x75d07d3fd77   119  33c9           xorl rcx,rcx
0x75d07d3fd79   121  e91c000000     jmp 154  (0x75d07d3fd9a)
0x75d07d3fd7e   126  493b4dc0       REX.W cmpq rcx,[r13-0x40]
0x75d07d3fd82   130  750a           jnz 142  (0x75d07d3fd8e)
0x75d07d3fd84   132  b901000000     movl rcx,0x1
0x75d07d3fd89   137  e90c000000     jmp 154  (0x75d07d3fd9a)
0x75d07d3fd8e   142  493b4dc8       REX.W cmpq rcx,[r13-0x38]
0x75d07d3fd92   146  0f851a000000   jnz 178  (0x75d07d3fdb2)
0x75d07d3fd98   152  33c9           xorl rcx,rcx
0x75d07d3fd9a   154  488be5         REX.W movq rsp,rbp
0x75d07d3fd9d   157  5d             pop rbp
0x75d07d3fd9e   158  e979ffffff     jmp 28  (0x75d07d3fd1c)
0x75d07d3fda3   163  49ba0060b0075d070000 REX.W movq r10,0x75d07b06000
0x75d07d3fdad   173  e805000000     call 183  (0x75d07d3fdb7)
0x75d07d3fdb2   178  e85362dcff     call 0x75d07b0600a       ;; lazy deoptimization bailout 1
0x75d07d3fdb7   183  4883ec10       REX.W subq rsp,0x10
0x75d07d3fdbb   187  ff742410       push [rsp+0x10]
0x75d07d3fdbf   191  4152           push r10
0x75d07d3fdc1   193  4c8b55f8       REX.W movq r10,[rbp-0x8]
0x75d07d3fdc5   197  4c89542418     REX.W movq [rsp+0x18],r10
0x75d07d3fdca   202  48896c2420     REX.W movq [rsp+0x20],rbp
0x75d07d3fdcf   207  488d6c2420     REX.W leaq rbp,[rsp+0x20]
0x75d07d3fdd4   212  49ba0000000006000000 REX.W movq r10,0x600000000
0x75d07d3fdde   222  4c89542410     REX.W movq [rsp+0x10],r10
0x75d07d3fde3   227  c3             ret


Safepoints (size = 8)

RelocInfo (size = 7)
0x75d07d3fd62  code target (STUB)  (0x75d07d3e820)
0x75d07d3fdb3  runtime entry

--- End code ---
--- Raw source ---
(binarray)
{
  var hex_tab = hexcase ? "0123456789ABCDEF" : "0123456789abcdef";
  var str = "";
  for(var i = 0; i < binarray.length * 4; i++)
  {
    str += hex_tab.charAt((binarray[i>>2] >> ((3 - i%4)*8+4)) & 0xF) +
           hex_tab.charAt((binarray[i>>2] >> ((3 - i%4)*8  )) & 0xF);
  }
  return str;
}


--- Code ---
source_position = 4585
kind = FUNCTION
name = binb2hex
compiler = full-codegen
Instructions (size = 1304)
0x75d07d3ff20     0  55             push rbp                 ;; debug: position 4585
0x75d07d3ff21     1  4889e5         REX.W movq rbp,rsp
0x75d07d3ff24     4  56             push rsi
0x75d07d3ff25     5  57             push rdi
0x75d07d3ff26     6  498b55a8       REX.W movq rdx,[r13-0x58]
0x75d07d3ff2a    10  52             push rdx
0x75d07d3ff2b    11  52             push rdx
0x75d07d3ff2c    12  52             push rdx
0x75d07d3ff2d    13  493ba548090000 REX.W cmpq rsp,[r13+0x948]
0x75d07d3ff34    20  7305           jnc 27  (0x75d07d3ff3b)
0x75d07d3ff36    22  e8456bffff     call StackCheck  (0x75d07d36a80)    ;; code: BUILTIN
0x75d07d3ff3b    27  bb04000000     movl rbx,0x4             ;; debug: statement 4600
                                                             ;; debug: position 4614
0x75d07d3ff40    32  e89ba7feff     call 0x75d07d2a6e0       ;; code: STUB, LoadGlobalViaContextStub, minor: 0
0x75d07d3ff45    37  e89656feff     call 0x75d07d255e0       ;; code: TO_BOOLEAN_IC, UNINITIALIZED (id = 28)
0x75d07d3ff4a    42  4885c0         REX.W testq rax,rax
0x75d07d3ff4d    45  0f840f000000   jz 66  (0x75d07d3ff62)
0x75d07d3ff53    51  48b86132affe40250000 REX.W movq rax,0x2540feaf3261    ;; debug: position 4624
                                                             ;; object: 0x2540feaf3261 <String[16]: 0123456789ABCDEF>
0x75d07d3ff5d    61  e90a000000     jmp 76  (0x75d07d3ff6c)
0x75d07d3ff62    66  48b88932affe40250000 REX.W movq rax,0x2540feaf3289    ;; debug: position 4645
                                                             ;; object: 0x2540feaf3289 <String[16]: 0123456789abcdef>
0x75d07d3ff6c    76  488945e8       REX.W movq [rbp-0x18],rax    ;; debug: position 4600
0x75d07d3ff70    80  48b8e142a0fe40250000 REX.W movq rax,0x2540fea042e1    ;; debug: statement 4667
                                                             ;; object: 0x2540fea042e1 <String[0]: >
0x75d07d3ff7a    90  488945e0       REX.W movq [rbp-0x20],rax
0x75d07d3ff7e    94  48b80000000000000000 REX.W movq rax,(nil)    ;; debug: statement 4683
                                                             ;; debug: statement 4687
0x75d07d3ff88   104  488945d8       REX.W movq [rbp-0x28],rax
0x75d07d3ff8c   108  e9b3030000     jmp 1060  (0x75d07d40344)
0x75d07d3ff91   113  488b45e0       REX.W movq rax,[rbp-0x20]    ;; debug: statement 4736
                                                             ;; debug: position 4736
0x75d07d3ff95   117  50             push rax
0x75d07d3ff96   118  ff75e8         push [rbp-0x18]          ;; debug: position 4743
0x75d07d3ff99   121  488b1424       REX.W movq rdx,[rsp]
0x75d07d3ff9d   125  48b921b6a5fe40250000 REX.W movq rcx,0x2540fea5b621    ;; debug: position 4750
                                                             ;; object: 0x2540fea5b621 <String[6]: charAt>
0x75d07d3ffa7   135  48b80000000015000000 REX.W movq rax,0x1500000000
0x75d07d3ffb1   145  e8aa85feff     call 0x75d07d28560       ;; code: contextual, LOAD_IC, DEFAULT
0x75d07d3ffb6   150  ff3424         push [rsp]
0x75d07d3ffb9   153  4889442408     REX.W movq [rsp+0x8],rax
0x75d07d3ffbe   158  ff7510         push [rbp+0x10]          ;; debug: position 4759
0x75d07d3ffc1   161  ff75d8         push [rbp-0x28]          ;; debug: position 4768
0x75d07d3ffc4   164  48b80000000002000000 REX.W movq rax,0x200000000
0x75d07d3ffce   174  5a             pop rdx                  ;; debug: position 4769
0x75d07d3ffcf   175  488bc8         REX.W movq rcx,rax
0x75d07d3ffd2   178  480bc2         REX.W orq rax,rdx
0x75d07d3ffd5   181  a801           test al,0x1
0x75d07d3ffd7   183  720c           jc 197  (0x75d07d3ffe5)
0x75d07d3ffd9   185  488bc1         REX.W movq rax,rcx
0x75d07d3ffdc   188  e83fdffeff     call 0x75d07d2df20       ;; code: BINARY_OP_IC, UNINITIALIZED (id = 288)
0x75d07d3ffe1   193  a80a           test al,0xa
0x75d07d3ffe3   195  eb11           jmp 214  (0x75d07d3fff6)
0x75d07d3ffe5   197  48c1e920       REX.W shrq rcx, 32
0x75d07d3ffe9   201  488bc2         REX.W movq rax,rdx
0x75d07d3ffec   204  48c1e820       REX.W shrq rax, 32
0x75d07d3fff0   208  d3f8           sarl rax, cl
0x75d07d3fff2   210  48c1e020       REX.W shlq rax, 32
0x75d07d3fff6   214  488bc8         REX.W movq rcx,rax
0x75d07d3fff9   217  5a             pop rdx
0x75d07d3fffa   218  48b80000000017000000 REX.W movq rax,0x1700000000    ;; debug: position 4767
0x75d07d40004   228  e8b7c0fdff     call 0x75d07d1c0c0       ;; code: KEYED_LOAD_IC, DEFAULT
0x75d07d40009   233  50             push rax
0x75d07d4000a   234  49ba0000000003000000 REX.W movq r10,0x300000000
0x75d07d40014   244  4152           push r10
0x75d07d40016   246  ff75d8         push [rbp-0x28]          ;; debug: position 4783
0x75d07d40019   249  48b80000000004000000 REX.W movq rax,0x400000000
0x75d07d40023   259  5a             pop rdx                  ;; debug: position 4784
0x75d07d40024   260  e89782feff     call 0x75d07d282c0       ;; code: BINARY_OP_IC, UNINITIALIZED (id = 316)
0x75d07d40029   265  90             nop
0x75d07d4002a   266  5a             pop rdx                  ;; debug: position 4781
0x75d07d4002b   267  488bc8         REX.W movq rcx,rax
0x75d07d4002e   270  480bc2         REX.W orq rax,rdx
0x75d07d40031   273  a801           test al,0x1
0x75d07d40033   275  720c           jc 289  (0x75d07d40041)
0x75d07d40035   277  488bc1         REX.W movq rax,rcx
0x75d07d40038   280  e8038afcff     call 0x75d07d08a40       ;; code: BINARY_OP_IC, UNINITIALIZED (id = 309)
0x75d07d4003d   285  a80a           test al,0xa
0x75d07d4003f   287  eb0c           jmp 301  (0x75d07d4004d)
0x75d07d40041   289  488bc2         REX.W movq rax,rdx
0x75d07d40044   292  482bc1         REX.W subq rax,rcx
0x75d07d40047   295  0f80e8ffffff   jo 277  (0x75d07d40035)
0x75d07d4004d   301  50             push rax
0x75d07d4004e   302  48b80000000008000000 REX.W movq rax,0x800000000
0x75d07d40058   312  5a             pop rdx                  ;; debug: position 4787
0x75d07d40059   313  488bc8         REX.W movq rcx,rax
0x75d07d4005c   316  480bc2         REX.W orq rax,rdx
0x75d07d4005f   319  a801           test al,0x1
0x75d07d40061   321  720c           jc 335  (0x75d07d4006f)
0x75d07d40063   323  488bc1         REX.W movq rax,rcx
0x75d07d40066   326  e8d518ffff     call 0x75d07d31940       ;; code: BINARY_OP_IC, UNINITIALIZED (id = 305)
0x75d07d4006b   331  a80a           test al,0xa
0x75d07d4006d   333  eb22           jmp 369  (0x75d07d40091)
0x75d07d4006f   335  488bc2         REX.W movq rax,rdx
0x75d07d40072   338  48c1f820       REX.W sarq rax, 32
0x75d07d40076   342  480fafc1       REX.W imulq rax,rcx
0x75d07d4007a   346  0f80e3ffffff   jo 323  (0x75d07d40063)
0x75d07d40080   352  4885c0         REX.W testq rax,rax
0x75d07d40083   355  750c           jnz 369  (0x75d07d40091)
0x75d07d40085   357  4c8bd2         REX.W movq r10,rdx
0x75d07d40088   360  4c33d1         REX.W xorq r10,rcx
0x75d07d4008b   363  0f88d2ffffff   js 323  (0x75d07d40063)
0x75d07d40091   369  50             push rax
0x75d07d40092   370  48b80000000004000000 REX.W movq rax,0x400000000
0x75d07d4009c   380  5a             pop rdx                  ;; debug: position 4789
0x75d07d4009d   381  488bc8         REX.W movq rcx,rax
0x75d07d400a0   384  480bc2         REX.W orq rax,rdx
0x75d07d400a3   387  a801           test al,0x1
0x75d07d400a5   389  720c           jc 403  (0x75d07d400b3)
0x75d07d400a7   391  488bc1         REX.W movq rax,rcx
0x75d07d400aa   394  e8d184fdff     call 0x75d07d18580       ;; code: BINARY_OP_IC, UNINITIALIZED (id = 301)
0x75d07d400af   399  a80a           test al,0xa
0x75d07d400b1   401  eb0c           jmp 415  (0x75d07d400bf)
0x75d07d400b3   403  488bc2         REX.W movq rax,rdx
0x75d07d400b6   406  4803c1         REX.W addq rax,rcx
0x75d07d400b9   409  0f80e8ffffff   jo 391  (0x75d07d400a7)
0x75d07d400bf   415  5a             pop rdx                  ;; debug: position 4774
0x75d07d400c0   416  488bc8         REX.W movq rcx,rax
0x75d07d400c3   419  480bc2         REX.W orq rax,rdx
0x75d07d400c6   422  a801           test al,0x1
0x75d07d400c8   424  720c           jc 438  (0x75d07d400d6)
0x75d07d400ca   426  488bc1         REX.W movq rax,rcx
0x75d07d400cd   429  e84edefeff     call 0x75d07d2df20       ;; code: BINARY_OP_IC, UNINITIALIZED (id = 281)
0x75d07d400d2   434  a80a           test al,0xa
0x75d07d400d4   436  eb11           jmp 455  (0x75d07d400e7)
0x75d07d400d6   438  48c1e920       REX.W shrq rcx, 32
0x75d07d400da   442  488bc2         REX.W movq rax,rdx
0x75d07d400dd   445  48c1e820       REX.W shrq rax, 32
0x75d07d400e1   449  d3f8           sarl rax, cl
0x75d07d400e3   451  48c1e020       REX.W shlq rax, 32
0x75d07d400e7   455  50             push rax
0x75d07d400e8   456  48b8000000000f000000 REX.W movq rax,0xf00000000
0x75d07d400f2   466  5a             pop rdx                  ;; debug: position 4794
0x75d07d400f3   467  488bc8         REX.W movq rcx,rax
0x75d07d400f6   470  480bc2         REX.W orq rax,rdx
0x75d07d400f9   473  a801           test al,0x1
0x75d07d400fb   475  720c           jc 489  (0x75d07d40109)
0x75d07d400fd   477  488bc1         REX.W movq rax,rcx
0x75d07d40100   480  e8fbe4fdff     call 0x75d07d1e600       ;; code: BINARY_OP_IC, UNINITIALIZED (id = 277)
0x75d07d40105   485  a80a           test al,0xa
0x75d07d40107   487  eb06           jmp 495  (0x75d07d4010f)
0x75d07d40109   489  488bc2         REX.W movq rax,rdx
0x75d07d4010c   492  4823c1         REX.W andq rax,rcx
0x75d07d4010f   495  50             push rax
0x75d07d40110   496  48ba0000000013000000 REX.W movq rdx,0x1300000000    ;; debug: position 4751
0x75d07d4011a   506  488b7c2410     REX.W movq rdi,[rsp+0x10]
0x75d07d4011f   511  e89c1ffeff     call 0x75d07d220c0       ;; code: CALL_IC, DEFAULT
0x75d07d40124   516  488b75f8       REX.W movq rsi,[rbp-0x8]
0x75d07d40128   520  48890424       REX.W movq [rsp],rax
0x75d07d4012c   524  ff75e8         push [rbp-0x18]          ;; debug: position 4814
0x75d07d4012f   527  488b1424       REX.W movq rdx,[rsp]
0x75d07d40133   531  48b921b6a5fe40250000 REX.W movq rcx,0x2540fea5b621    ;; debug: position 4821
                                                             ;; object: 0x2540fea5b621 <String[6]: charAt>
0x75d07d4013d   541  48b8000000001b000000 REX.W movq rax,0x1b00000000
0x75d07d40147   551  e81484feff     call 0x75d07d28560       ;; code: contextual, LOAD_IC, DEFAULT
0x75d07d4014c   556  ff3424         push [rsp]
0x75d07d4014f   559  4889442408     REX.W movq [rsp+0x8],rax
0x75d07d40154   564  ff7510         push [rbp+0x10]          ;; debug: position 4830
0x75d07d40157   567  ff75d8         push [rbp-0x28]          ;; debug: position 4839
0x75d07d4015a   570  48b80000000002000000 REX.W movq rax,0x200000000
0x75d07d40164   580  5a             pop rdx                  ;; debug: position 4840
0x75d07d40165   581  488bc8         REX.W movq rcx,rax
0x75d07d40168   584  480bc2         REX.W orq rax,rdx
0x75d07d4016b   587  a801           test al,0x1
0x75d07d4016d   589  720c           jc 603  (0x75d07d4017b)
0x75d07d4016f   591  488bc1         REX.W movq rax,rcx
0x75d07d40172   594  e8a9ddfeff     call 0x75d07d2df20       ;; code: BINARY_OP_IC, UNINITIALIZED (id = 360)
0x75d07d40177   599  a80a           test al,0xa
0x75d07d40179   601  eb11           jmp 620  (0x75d07d4018c)
0x75d07d4017b   603  48c1e920       REX.W shrq rcx, 32
0x75d07d4017f   607  488bc2         REX.W movq rax,rdx
0x75d07d40182   610  48c1e820       REX.W shrq rax, 32
0x75d07d40186   614  d3f8           sarl rax, cl
0x75d07d40188   616  48c1e020       REX.W shlq rax, 32
0x75d07d4018c   620  488bc8         REX.W movq rcx,rax
0x75d07d4018f   623  5a             pop rdx
0x75d07d40190   624  48b8000000001d000000 REX.W movq rax,0x1d00000000    ;; debug: position 4838
0x75d07d4019a   634  e821bffdff     call 0x75d07d1c0c0       ;; code: KEYED_LOAD_IC, DEFAULT
0x75d07d4019f   639  50             push rax
0x75d07d401a0   640  49ba0000000003000000 REX.W movq r10,0x300000000
0x75d07d401aa   650  4152           push r10
0x75d07d401ac   652  ff75d8         push [rbp-0x28]          ;; debug: position 4854
0x75d07d401af   655  48b80000000004000000 REX.W movq rax,0x400000000
0x75d07d401b9   665  5a             pop rdx                  ;; debug: position 4855
0x75d07d401ba   666  e80181feff     call 0x75d07d282c0       ;; code: BINARY_OP_IC, UNINITIALIZED (id = 384)
0x75d07d401bf   671  90             nop
0x75d07d401c0   672  5a             pop rdx                  ;; debug: position 4852
0x75d07d401c1   673  488bc8         REX.W movq rcx,rax
0x75d07d401c4   676  480bc2         REX.W orq rax,rdx
0x75d07d401c7   679  a801           test al,0x1
0x75d07d401c9   681  720c           jc 695  (0x75d07d401d7)
0x75d07d401cb   683  488bc1         REX.W movq rax,rcx
0x75d07d401ce   686  e86d88fcff     call 0x75d07d08a40       ;; code: BINARY_OP_IC, UNINITIALIZED (id = 377)
0x75d07d401d3   691  a80a           test al,0xa
0x75d07d401d5   693  eb0c           jmp 707  (0x75d07d401e3)
0x75d07d401d7   695  488bc2         REX.W movq rax,rdx
0x75d07d401da   698  482bc1         REX.W subq rax,rcx
0x75d07d401dd   701  0f80e8ffffff   jo 683  (0x75d07d401cb)
0x75d07d401e3   707  50             push rax
0x75d07d401e4   708  48b80000000008000000 REX.W movq rax,0x800000000
0x75d07d401ee   718  5a             pop rdx                  ;; debug: position 4858
0x75d07d401ef   719  488bc8         REX.W movq rcx,rax
0x75d07d401f2   722  480bc2         REX.W orq rax,rdx
0x75d07d401f5   725  a801           test al,0x1
0x75d07d401f7   727  720c           jc 741  (0x75d07d40205)
0x75d07d401f9   729  488bc1         REX.W movq rax,rcx
0x75d07d401fc   732  e83f17ffff     call 0x75d07d31940       ;; code: BINARY_OP_IC, UNINITIALIZED (id = 373)
0x75d07d40201   737  a80a           test al,0xa
0x75d07d40203   739  eb22           jmp 775  (0x75d07d40227)
0x75d07d40205   741  488bc2         REX.W movq rax,rdx
0x75d07d40208   744  48c1f820       REX.W sarq rax, 32
0x75d07d4020c   748  480fafc1       REX.W imulq rax,rcx
0x75d07d40210   752  0f80e3ffffff   jo 729  (0x75d07d401f9)
0x75d07d40216   758  4885c0         REX.W testq rax,rax
0x75d07d40219   761  750c           jnz 775  (0x75d07d40227)
0x75d07d4021b   763  4c8bd2         REX.W movq r10,rdx
0x75d07d4021e   766  4c33d1         REX.W xorq r10,rcx
0x75d07d40221   769  0f88d2ffffff   js 729  (0x75d07d401f9)
0x75d07d40227   775  5a             pop rdx                  ;; debug: position 4845
0x75d07d40228   776  488bc8         REX.W movq rcx,rax
0x75d07d4022b   779  480bc2         REX.W orq rax,rdx
0x75d07d4022e   782  a801           test al,0x1
0x75d07d40230   784  720c           jc 798  (0x75d07d4023e)
0x75d07d40232   786  488bc1         REX.W movq rax,rcx
0x75d07d40235   789  e8e6dcfeff     call 0x75d07d2df20       ;; code: BINARY_OP_IC, UNINITIALIZED (id = 353)
0x75d07d4023a   794  a80a           test al,0xa
0x75d07d4023c   796  eb11           jmp 815  (0x75d07d4024f)
0x75d07d4023e   798  48c1e920       REX.W shrq rcx, 32
0x75d07d40242   802  488bc2         REX.W movq rax,rdx
0x75d07d40245   805  48c1e820       REX.W shrq rax, 32
0x75d07d40249   809  d3f8           sarl rax, cl
0x75d07d4024b   811  48c1e020       REX.W shlq rax, 32
0x75d07d4024f   815  50             push rax
0x75d07d40250   816  48b8000000000f000000 REX.W movq rax,0xf00000000
0x75d07d4025a   826  5a             pop rdx                  ;; debug: position 4865
0x75d07d4025b   827  488bc8         REX.W movq rcx,rax
0x75d07d4025e   830  480bc2         REX.W orq rax,rdx
0x75d07d40261   833  a801           test al,0x1
0x75d07d40263   835  720c           jc 849  (0x75d07d40271)
0x75d07d40265   837  488bc1         REX.W movq rax,rcx
0x75d07d40268   840  e893e3fdff     call 0x75d07d1e600       ;; code: BINARY_OP_IC, UNINITIALIZED (id = 349)
0x75d07d4026d   845  a80a           test al,0xa
0x75d07d4026f   847  eb06           jmp 855  (0x75d07d40277)
0x75d07d40271   849  488bc2         REX.W movq rax,rdx
0x75d07d40274   852  4823c1         REX.W andq rax,rcx
0x75d07d40277   855  50             push rax
0x75d07d40278   856  48ba0000000019000000 REX.W movq rdx,0x1900000000    ;; debug: position 4822
0x75d07d40282   866  488b7c2410     REX.W movq rdi,[rsp+0x10]
0x75d07d40287   871  e8341efeff     call 0x75d07d220c0       ;; code: CALL_IC, DEFAULT
0x75d07d4028c   876  488b75f8       REX.W movq rsi,[rbp-0x8]
0x75d07d40290   880  4883c408       REX.W addq rsp,0x8
0x75d07d40294   884  5a             pop rdx                  ;; debug: position 4801
0x75d07d40295   885  488bc8         REX.W movq rcx,rax
0x75d07d40298   888  480bc2         REX.W orq rax,rdx
0x75d07d4029b   891  a801           test al,0x1
0x75d07d4029d   893  720c           jc 907  (0x75d07d402ab)
0x75d07d4029f   895  488bc1         REX.W movq rax,rcx
0x75d07d402a2   898  e8d982fdff     call 0x75d07d18580       ;; code: BINARY_OP_IC, UNINITIALIZED (id = 259)
0x75d07d402a7   903  a80a           test al,0xa
0x75d07d402a9   905  eb0c           jmp 919  (0x75d07d402b7)
0x75d07d402ab   907  488bc2         REX.W movq rax,rdx
0x75d07d402ae   910  4803c1         REX.W addq rax,rcx
0x75d07d402b1   913  0f80e8ffffff   jo 895  (0x75d07d4029f)
0x75d07d402b7   919  5a             pop rdx
0x75d07d402b8   920  488bc8         REX.W movq rcx,rax
0x75d07d402bb   923  480bc2         REX.W orq rax,rdx
0x75d07d402be   926  a801           test al,0x1
0x75d07d402c0   928  720c           jc 942  (0x75d07d402ce)
0x75d07d402c2   930  488bc1         REX.W movq rax,rcx
0x75d07d402c5   933  e8b682fdff     call 0x75d07d18580       ;; code: BINARY_OP_IC, UNINITIALIZED (id = 108)
0x75d07d402ca   938  a80a           test al,0xa
0x75d07d402cc   940  eb0c           jmp 954  (0x75d07d402da)
0x75d07d402ce   942  488bc2         REX.W movq rax,rdx
0x75d07d402d1   945  4803c1         REX.W addq rax,rcx
0x75d07d402d4   948  0f80e8ffffff   jo 930  (0x75d07d402c2)
0x75d07d402da   954  488945e0       REX.W movq [rbp-0x20],rax    ;; debug: position 4740
0x75d07d402de   958  488b45d8       REX.W movq rax,[rbp-0x28]    ;; debug: statement 4724
                                                             ;; debug: position 4723
0x75d07d402e2   962  a801           test al,0x1
0x75d07d402e4   964  7314           jnc 986  (0x75d07d402fa)
0x75d07d402e6   966  49ba0000000001000000 REX.W movq r10,0x100000000
0x75d07d402f0   976  4903c2         REX.W addq rax,r10
0x75d07d402f3   979  711e           jno 1011  (0x75d07d40313)
0x75d07d402f5   981  492bc2         REX.W subq rax,r10
0x75d07d402f8   984  eb05           jmp 991  (0x75d07d402ff)
0x75d07d402fa   986  e8012cfeff     call 0x75d07d22f00       ;; code: STUB, ToNumberStub, minor: 0
0x75d07d402ff   991  488bd0         REX.W movq rdx,rax       ;; debug: position 4724
0x75d07d40302   994  48b80000000001000000 REX.W movq rax,0x100000000
0x75d07d4030c  1004  e86f82fdff     call 0x75d07d18580       ;; code: BINARY_OP_IC, UNINITIALIZED (id = 93)
0x75d07d40311  1009  a82d           test al,0x2d
0x75d07d40313  1011  488945d8       REX.W movq [rbp-0x28],rax
0x75d07d40317  1015  48bbb933affe40250000 REX.W movq rbx,0x2540feaf33b9    ;; object: 0x2540feaf33b9 Cell for 6144
0x75d07d40321  1025  83430bfb       addl [rbx+0xb],0xfb
0x75d07d40325  1029  791d           jns 1060  (0x75d07d40344)
0x75d07d40327  1031  e81466ffff     call InterruptCheck  (0x75d07d36940)    ;; code: BUILTIN
0x75d07d4032c  1036  48bbb933affe40250000 REX.W movq rbx,0x2540feaf33b9    ;; object: 0x2540feaf33b9 Cell for 6144
0x75d07d40336  1046  49ba0000000000180000 REX.W movq r10,0x180000000000
0x75d07d40340  1056  4c895307       REX.W movq [rbx+0x7],r10
0x75d07d40344  1060  ff75d8         push [rbp-0x28]          ;; debug: statement 4700
                                                             ;; debug: position 4698
0x75d07d40347  1063  488b4510       REX.W movq rax,[rbp+0x10]    ;; debug: position 4702
0x75d07d4034b  1067  488bd0         REX.W movq rdx,rax
0x75d07d4034e  1070  48b97107a9fe40250000 REX.W movq rcx,0x2540fea90771    ;; debug: position 4710
                                                             ;; object: 0x2540fea90771 <String[6]: length>
0x75d07d40358  1080  48b80000000005000000 REX.W movq rax,0x500000000
0x75d07d40362  1090  e8f981feff     call 0x75d07d28560       ;; code: contextual, LOAD_IC, DEFAULT
0x75d07d40367  1095  50             push rax
0x75d07d40368  1096  48b80000000004000000 REX.W movq rax,0x400000000
0x75d07d40372  1106  5a             pop rdx                  ;; debug: position 4718
0x75d07d40373  1107  488bc8         REX.W movq rcx,rax
0x75d07d40376  1110  480bc2         REX.W orq rax,rdx
0x75d07d40379  1113  a801           test al,0x1
0x75d07d4037b  1115  720c           jc 1129  (0x75d07d40389)
0x75d07d4037d  1117  488bc1         REX.W movq rax,rcx
0x75d07d40380  1120  e8bb15ffff     call 0x75d07d31940       ;; code: BINARY_OP_IC, UNINITIALIZED (id = 76)
0x75d07d40385  1125  a80a           test al,0xa
0x75d07d40387  1127  eb22           jmp 1163  (0x75d07d403ab)
0x75d07d40389  1129  488bc2         REX.W movq rax,rdx
0x75d07d4038c  1132  48c1f820       REX.W sarq rax, 32
0x75d07d40390  1136  480fafc1       REX.W imulq rax,rcx
0x75d07d40394  1140  0f80e3ffffff   jo 1117  (0x75d07d4037d)
0x75d07d4039a  1146  4885c0         REX.W testq rax,rax
0x75d07d4039d  1149  750c           jnz 1163  (0x75d07d403ab)
0x75d07d4039f  1151  4c8bd2         REX.W movq r10,rdx
0x75d07d403a2  1154  4c33d1         REX.W xorq r10,rcx
0x75d07d403a5  1157  0f88d2ffffff   js 1117  (0x75d07d4037d)
0x75d07d403ab  1163  5a             pop rdx
0x75d07d403ac  1164  488bca         REX.W movq rcx,rdx
0x75d07d403af  1167  480bc8         REX.W orq rcx,rax
0x75d07d403b2  1170  f6c101         testb rcx,0x1
0x75d07d403b5  1173  730e           jnc 1189  (0x75d07d403c5)
0x75d07d403b7  1175  483bd0         REX.W cmpq rdx,rax
0x75d07d403ba  1178  0f8cd1fbffff   jl 113  (0x75d07d3ff91)
0x75d07d403c0  1184  e921000000     jmp 1222  (0x75d07d403e6)
0x75d07d403c5  1189  e8f6c4fdff     call 0x75d07d1c8c0       ;; code: COMPARE_IC, UNINITIALIZED (id = 69)
0x75d07d403ca  1194  a815           test al,0x15
0x75d07d403cc  1196  eb0f           jmp 1213  (0x75d07d403dd)
0x75d07d403ce  1198  493b45c0       REX.W cmpq rax,[r13-0x40]
0x75d07d403d2  1202  0f84b9fbffff   jz 113  (0x75d07d3ff91)
0x75d07d403d8  1208  e909000000     jmp 1222  (0x75d07d403e6)
0x75d07d403dd  1213  4885c0         REX.W testq rax,rax
0x75d07d403e0  1216  0f8cabfbffff   jl 113  (0x75d07d3ff91)
0x75d07d403e6  1222  488b45e0       REX.W movq rax,[rbp-0x20]    ;; debug: statement 4879
                                                             ;; debug: position 4886
0x75d07d403ea  1226  48bbb933affe40250000 REX.W movq rbx,0x2540feaf33b9    ;; object: 0x2540feaf33b9 Cell for 6144
0x75d07d403f4  1236  83430bf9       addl [rbx+0xb],0xf9
0x75d07d403f8  1240  791f           jns 1273  (0x75d07d40419)
0x75d07d403fa  1242  50             push rax
0x75d07d403fb  1243  e84065ffff     call InterruptCheck  (0x75d07d36940)    ;; code: BUILTIN
0x75d07d40400  1248  58             pop rax
0x75d07d40401  1249  48bbb933affe40250000 REX.W movq rbx,0x2540feaf33b9    ;; object: 0x2540feaf33b9 Cell for 6144
0x75d07d4040b  1259  49ba0000000000180000 REX.W movq r10,0x180000000000
0x75d07d40415  1269  4c895307       REX.W movq [rbx+0x7],r10
0x75d07d40419  1273  c9             leave                    ;; debug: statement 4891
0x75d07d4041a  1274  c21000         ret 0x10
0x75d07d4041d  1277  498b45a8       REX.W movq rax,[r13-0x58]
0x75d07d40421  1281  e9c4ffffff     jmp 1226  (0x75d07d403ea)
0x75d07d40426  1286  6690           nop

Deoptimization Output Data (deopt points = 0)

Back edges (size = 1)
ast_id  pc_offset  loop_depth
    51       1036           1

0x2540feaf34b1: [TypeFeedbackInfo]
 - ic_total_count: 26, ic_with_type_info_count: 0, ic_generic_count: 0

RelocInfo (size = 216)
0x75d07d3ff20  position  (4585)
0x75d07d3ff37  code target (BUILTIN)  (0x75d07d36a80)
0x75d07d3ff3b  statement position  (4600)
0x75d07d3ff3b  position  (4614)
0x75d07d3ff41  code target (STUB)  (0x75d07d2a6e0)
0x75d07d3ff46  code target with id (TO_BOOLEAN_IC)  (0x75d07d255e0) (id=28)
0x75d07d3ff53  position  (4624)
0x75d07d3ff55  embedded object  (0x2540feaf3261 <String[16]: 0123456789ABCDEF>)
0x75d07d3ff62  position  (4645)
0x75d07d3ff64  embedded object  (0x2540feaf3289 <String[16]: 0123456789abcdef>)
0x75d07d3ff6c  position  (4600)
0x75d07d3ff70  statement position  (4667)
0x75d07d3ff72  embedded object  (0x2540fea042e1 <String[0]: >)
0x75d07d3ff7e  statement position  (4683)
0x75d07d3ff7e  statement position  (4687)
0x75d07d3ff91  statement position  (4736)
0x75d07d3ff91  position  (4736)
0x75d07d3ff96  position  (4743)
0x75d07d3ff9d  position  (4750)
0x75d07d3ff9f  embedded object  (0x2540fea5b621 <String[6]: charAt>)
0x75d07d3ffb2  code target (LOAD_IC)  (0x75d07d28560)
0x75d07d3ffbe  position  (4759)
0x75d07d3ffc1  position  (4768)
0x75d07d3ffce  position  (4769)
0x75d07d3ffdd  code target with id (BINARY_OP_IC)  (0x75d07d2df20) (id=288)
0x75d07d3fffa  position  (4767)
0x75d07d40005  code target (KEYED_LOAD_IC)  (0x75d07d1c0c0)
0x75d07d40016  position  (4783)
0x75d07d40023  position  (4784)
0x75d07d40025  code target with id (BINARY_OP_IC)  (0x75d07d282c0) (id=316)
0x75d07d4002a  position  (4781)
0x75d07d40039  code target with id (BINARY_OP_IC)  (0x75d07d08a40) (id=309)
0x75d07d40058  position  (4787)
0x75d07d40067  code target with id (BINARY_OP_IC)  (0x75d07d31940) (id=305)
0x75d07d4009c  position  (4789)
0x75d07d400ab  code target with id (BINARY_OP_IC)  (0x75d07d18580) (id=301)
0x75d07d400bf  position  (4774)
0x75d07d400ce  code target with id (BINARY_OP_IC)  (0x75d07d2df20) (id=281)
0x75d07d400f2  position  (4794)
0x75d07d40101  code target with id (BINARY_OP_IC)  (0x75d07d1e600) (id=277)
0x75d07d40110  position  (4751)
0x75d07d40120  code target (CALL_IC)  (0x75d07d220c0)
0x75d07d4012c  position  (4814)
0x75d07d40133  position  (4821)
0x75d07d40135  embedded object  (0x2540fea5b621 <String[6]: charAt>)
0x75d07d40148  code target (LOAD_IC)  (0x75d07d28560)
0x75d07d40154  position  (4830)
0x75d07d40157  position  (4839)
0x75d07d40164  position  (4840)
0x75d07d40173  code target with id (BINARY_OP_IC)  (0x75d07d2df20) (id=360)
0x75d07d40190  position  (4838)
0x75d07d4019b  code target (KEYED_LOAD_IC)  (0x75d07d1c0c0)
0x75d07d401ac  position  (4854)
0x75d07d401b9  position  (4855)
0x75d07d401bb  code target with id (BINARY_OP_IC)  (0x75d07d282c0) (id=384)
0x75d07d401c0  position  (4852)
0x75d07d401cf  code target with id (BINARY_OP_IC)  (0x75d07d08a40) (id=377)
0x75d07d401ee  position  (4858)
0x75d07d401fd  code target with id (BINARY_OP_IC)  (0x75d07d31940) (id=373)
0x75d07d40227  position  (4845)
0x75d07d40236  code target with id (BINARY_OP_IC)  (0x75d07d2df20) (id=353)
0x75d07d4025a  position  (4865)
0x75d07d40269  code target with id (BINARY_OP_IC)  (0x75d07d1e600) (id=349)
0x75d07d40278  position  (4822)
0x75d07d40288  code target (CALL_IC)  (0x75d07d220c0)
0x75d07d40294  position  (4801)
0x75d07d402a3  code target with id (BINARY_OP_IC)  (0x75d07d18580) (id=259)
0x75d07d402c6  code target with id (BINARY_OP_IC)  (0x75d07d18580) (id=108)
0x75d07d402da  position  (4740)
0x75d07d402de  statement position  (4724)
0x75d07d402de  position  (4723)
0x75d07d402fb  code target (STUB)  (0x75d07d22f00)
0x75d07d402ff  position  (4724)
0x75d07d4030d  code target with id (BINARY_OP_IC)  (0x75d07d18580) (id=93)
0x75d07d40319  embedded object  (0x2540feaf33b9 Cell for 6144)
0x75d07d40328  code target (BUILTIN)  (0x75d07d36940)
0x75d07d4032e  embedded object  (0x2540feaf33b9 Cell for 6144)
0x75d07d40344  statement position  (4700)
0x75d07d40344  position  (4698)
0x75d07d40347  position  (4702)
0x75d07d4034e  position  (4710)
0x75d07d40350  embedded object  (0x2540fea90771 <String[6]: length>)
0x75d07d40363  code target (LOAD_IC)  (0x75d07d28560)
0x75d07d40372  position  (4718)
0x75d07d40381  code target with id (BINARY_OP_IC)  (0x75d07d31940) (id=76)
0x75d07d403c6  code target with id (COMPARE_IC)  (0x75d07d1c8c0) (id=69)
0x75d07d403e6  statement position  (4879)
0x75d07d403e6  position  (4886)
0x75d07d403ec  embedded object  (0x2540feaf33b9 Cell for 6144)
0x75d07d403fc  code target (BUILTIN)  (0x75d07d36940)
0x75d07d40403  embedded object  (0x2540feaf33b9 Cell for 6144)
0x75d07d40419  statement position  (4891)

--- End code ---
--- Code ---
kind = TO_BOOLEAN_IC
major_key = <NoCache>Stub
ic_state = MONOMORPHIC
extra_ic_state = 8
type = NORMAL
name = ToBooleanStub
compiler = crankshaft
Instructions (size = 112)
0x75d07d404a0     0  4885c0         REX.W testq rax,rax
0x75d07d404a3     3  0f840d000000   jz 22  (0x75d07d404b6)
0x75d07d404a9     9  a801           test al,0x1
0x75d07d404ab    11  0f8410000000   jz 33  (0x75d07d404c1)
0x75d07d404b1    17  e916000000     jmp 44  (0x75d07d404cc)
0x75d07d404b6    22  48b80000000000000000 REX.W movq rax,(nil)
0x75d07d404c0    32  c3             ret
0x75d07d404c1    33  48b80000000001000000 REX.W movq rax,0x100000000
0x75d07d404cb    43  c3             ret
0x75d07d404cc    44  49ba0060b0075d070000 REX.W movq r10,0x75d07b06000
0x75d07d404d6    54  e800000000     call 59  (0x75d07d404db)
0x75d07d404db    59  4883ec10       REX.W subq rsp,0x10
0x75d07d404df    63  ff742410       push [rsp+0x10]
0x75d07d404e3    67  4152           push r10
0x75d07d404e5    69  4c8b55f8       REX.W movq r10,[rbp-0x8]
0x75d07d404e9    73  4c89542418     REX.W movq [rsp+0x18],r10
0x75d07d404ee    78  48896c2420     REX.W movq [rsp+0x20],rbp
0x75d07d404f3    83  488d6c2420     REX.W leaq rbp,[rsp+0x20]
0x75d07d404f8    88  49ba0000000006000000 REX.W movq r10,0x600000000
0x75d07d40502    98  4c89542410     REX.W movq [rsp+0x10],r10
0x75d07d40507   103  c3             ret


Safepoints (size = 8)

RelocInfo (size = 0)

--- End code ---
--- Raw source ---
(n){
if((%IS_VAR(this)===null)||(this===(void 0)))throw MakeTypeError(15,"String.prototype.charAt");
var o=%_StringCharAt(this,n);
if(%_IsSmi(o)){
o=%_StringCharAt((%_ToString(this)),(%_IsSmi(%IS_VAR(n))?n:%NumberToInteger(l(n))));
}
return o;
}


--- Code ---
source_position = 668
kind = FUNCTION
name = charAt
compiler = full-codegen
Instructions (size = 1444)
0x75d07d40580     0  55             push rbp                 ;; debug: position 668
0x75d07d40581     1  4889e5         REX.W movq rbp,rsp
0x75d07d40584     4  56             push rsi
0x75d07d40585     5  57             push rdi
0x75d07d40586     6  41ff75a8       push [r13-0x58]
0x75d07d4058a    10  493ba548090000 REX.W cmpq rsp,[r13+0x948]
0x75d07d40591    17  7305           jnc 24  (0x75d07d40598)
0x75d07d40593    19  e8e864ffff     call StackCheck  (0x75d07d36a80)    ;; code: BUILTIN
0x75d07d40598    24  488b4518       REX.W movq rax,[rbp+0x18]    ;; debug: statement 673
                                                             ;; debug: position 685
0x75d07d4059c    28  eb0f           jmp 45  (0x75d07d405ad)
0x75d07d4059e    30  493b45c0       REX.W cmpq rax,[r13-0x40]
0x75d07d405a2    34  0f842e000000   jz 86  (0x75d07d405d6)
0x75d07d405a8    40  e90a000000     jmp 55  (0x75d07d405b7)
0x75d07d405ad    45  493b45b8       REX.W cmpq rax,[r13-0x48]
0x75d07d405b1    49  0f841f000000   jz 86  (0x75d07d405d6)
0x75d07d405b7    55  488b4518       REX.W movq rax,[rbp+0x18]    ;; debug: position 701
0x75d07d405bb    59  eb0f           jmp 76  (0x75d07d405cc)
0x75d07d405bd    61  493b45c0       REX.W cmpq rax,[r13-0x40]
0x75d07d405c1    65  0f840f000000   jz 86  (0x75d07d405d6)
0x75d07d405c7    71  e97c000000     jmp 200  (0x75d07d40648)
0x75d07d405cc    76  493b45a8       REX.W cmpq rax,[r13-0x58]
0x75d07d405d0    80  0f8572000000   jnz 200  (0x75d07d40648)
0x75d07d405d6    86  48b9b92ea8fe40250000 REX.W movq rcx,0x2540fea82eb9    ;; debug: statement 718
                                                             ;; debug: position 724
                                                             ;; object: 0x2540fea82eb9 <String[13]: MakeTypeError>
0x75d07d405e0    96  488b5627       REX.W movq rdx,[rsi+0x27]
0x75d07d405e4   100  48b80000000006000000 REX.W movq rax,0x600000000
0x75d07d405ee   110  e86d7ffeff     call 0x75d07d28560       ;; code: contextual, LOAD_IC, DEFAULT
0x75d07d405f3   115  50             push rax
0x75d07d405f4   116  49ba8941a0fe40250000 REX.W movq r10,0x2540fea04189    ;; object: 0x2540fea04189 <undefined>
0x75d07d405fe   126  4152           push r10
0x75d07d40600   128  49ba000000000f000000 REX.W movq r10,0xf00000000
0x75d07d4060a   138  4152           push r10
0x75d07d4060c   140  49bae935affe40250000 REX.W movq r10,0x2540feaf35e9    ;; object: 0x2540feaf35e9 <String[23]: String.prototype.charAt>
0x75d07d40616   150  4152           push r10
0x75d07d40618   152  48ba0000000004000000 REX.W movq rdx,0x400000000
0x75d07d40622   162  488b7c2418     REX.W movq rdi,[rsp+0x18]
0x75d07d40627   167  e8d431fdff     call 0x75d07d13800       ;; code: CALL_IC, DEFAULT
0x75d07d4062c   172  488b75f8       REX.W movq rsi,[rbp-0x8]
0x75d07d40630   176  48890424       REX.W movq [rsp],rax
0x75d07d40634   180  b801000000     movl rax,0x1             ;; debug: position 718
0x75d07d40639   185  48bb9038290100000000 REX.W movq rbx,0x1293890
0x75d07d40643   195  e89884fcff     call 0x75d07d08ae0       ;; code: STUB, CEntryStub, minor: 0
0x75d07d40648   200  ff7518         push [rbp+0x18]          ;; debug: statement 769
                                                             ;; debug: position 790
0x75d07d4064b   203  488b4510       REX.W movq rax,[rbp+0x10]    ;; debug: position 795
0x75d07d4064f   207  5b             pop rbx
0x75d07d40650   208  f6c301         testb rbx,0x1
0x75d07d40653   211  0f84de000000   jz 439  (0x75d07d40737)
0x75d07d40659   217  488b53ff       REX.W movq rdx,[rbx-0x1]
0x75d07d4065d   221  0fb6520b       movzxbl rdx,[rdx+0xb]
0x75d07d40661   225  f6c280         testb rdx,0x80
0x75d07d40664   228  0f85cd000000   jnz 439  (0x75d07d40737)
0x75d07d4066a   234  a801           test al,0x1
0x75d07d4066c   236  0f85f5000000   jnz 487  (0x75d07d40767)
0x75d07d40672   242  483b430f       REX.W cmpq rax,[rbx+0xf]
0x75d07d40676   246  0f83b2000000   jnc 430  (0x75d07d4072e)
0x75d07d4067c   252  48c1e820       REX.W shrq rax, 32
0x75d07d40680   256  488b53ff       REX.W movq rdx,[rbx-0x1]
0x75d07d40684   260  0fb6520b       movzxbl rdx,[rdx+0xb]
0x75d07d40688   264  f6c201         testb rdx,0x1
0x75d07d4068b   267  742b           jz 312  (0x75d07d406b8)
0x75d07d4068d   269  f6c202         testb rdx,0x2
0x75d07d40690   272  740c           jz 286  (0x75d07d4069e)
0x75d07d40692   274  8b5323         movl rdx,[rbx+0x23]
0x75d07d40695   277  4803c2         REX.W addq rax,rdx
0x75d07d40698   280  488b5b17       REX.W movq rbx,[rbx+0x17]
0x75d07d4069c   284  eb12           jmp 304  (0x75d07d406b0)
0x75d07d4069e   286  4d8b55d0       REX.W movq r10,[r13-0x30]
0x75d07d406a2   290  4c39531f       REX.W cmpq [rbx+0x1f],r10
0x75d07d406a6   294  0f85fb000000   jnz 551  (0x75d07d407a7)
0x75d07d406ac   300  488b5b17       REX.W movq rbx,[rbx+0x17]
0x75d07d406b0   304  488b53ff       REX.W movq rdx,[rbx-0x1]
0x75d07d406b4   308  0fb6520b       movzxbl rdx,[rdx+0xb]
0x75d07d406b8   312  f6c203         testb rdx,0x3
0x75d07d406bb   315  741e           jz 347  (0x75d07d406db)
0x75d07d406bd   317  f6c210         testb rdx,0x10
0x75d07d406c0   320  0f85e1000000   jnz 551  (0x75d07d407a7)
0x75d07d406c6   326  f6c204         testb rdx,0x4
0x75d07d406c9   329  488b531f       REX.W movq rdx,[rbx+0x1f]
0x75d07d406cd   333  7506           jnz 341  (0x75d07d406d5)
0x75d07d406cf   335  0fb71442       movzxwl rdx,[rdx+rax*2]
0x75d07d406d3   339  eb17           jmp 364  (0x75d07d406ec)
0x75d07d406d5   341  0fb61402       movzxbl rdx,[rdx+rax*1]
0x75d07d406d9   345  eb11           jmp 364  (0x75d07d406ec)
0x75d07d406db   347  f6c204         testb rdx,0x4
0x75d07d406de   350  7507           jnz 359  (0x75d07d406e7)
0x75d07d406e0   352  0fb7544317     movzxwl rdx,[rbx+rax*2+0x17]
0x75d07d406e5   357  eb05           jmp 364  (0x75d07d406ec)
0x75d07d406e7   359  0fb6540317     movzxbl rdx,[rbx+rax*1+0x17]
0x75d07d406ec   364  48c1e220       REX.W shlq rdx, 32
0x75d07d406f0   368  f6c201         testb rdx,0x1
0x75d07d406f3   371  0f8512010000   jnz 651  (0x75d07d4080b)
0x75d07d406f9   377  49ba00000000ff000000 REX.W movq r10,0xff00000000
0x75d07d40703   387  493bd2         REX.W cmpq rdx,r10
0x75d07d40706   390  0f87ff000000   ja 651  (0x75d07d4080b)
0x75d07d4070c   396  498b8510010000 REX.W movq rax,[r13+0x110]
0x75d07d40713   403  4c8bd2         REX.W movq r10,rdx
0x75d07d40716   406  49c1fa1d       REX.W sarq r10, 29
0x75d07d4071a   410  4a8b44100f     REX.W movq rax,[rax+r10*1+0xf]
0x75d07d4071f   415  493b45a8       REX.W cmpq rax,[r13-0x58]
0x75d07d40723   419  0f84e2000000   jz 651  (0x75d07d4080b)
0x75d07d40729   425  e918010000     jmp 710  (0x75d07d40846)
0x75d07d4072e   430  498b45d0       REX.W movq rax,[r13-0x30]
0x75d07d40732   434  e90f010000     jmp 710  (0x75d07d40846)
0x75d07d40737   439  48b80000000000000000 REX.W movq rax,(nil)
0x75d07d40741   449  e900010000     jmp 710  (0x75d07d40846)
0x75d07d40746   454  49ba00000000b0000000 REX.W movq r10,0xb000000000
0x75d07d40750   464  4152           push r10
0x75d07d40752   466  b801000000     movl rax,0x1
0x75d07d40757   471  48bb609b2f0100000000 REX.W movq rbx,0x12f9b60
0x75d07d40761   481  e87a83fcff     call 0x75d07d08ae0       ;; code: STUB, CEntryStub, minor: 0
0x75d07d40766   486  cc             int3
0x75d07d40767   487  49ba1944c006200b0000 REX.W movq r10,0xb2006c04419    ;; object: 0xb2006c04419 <Map(FAST_HOLEY_ELEMENTS)>
0x75d07d40771   497  4c3950ff       REX.W cmpq [rax-0x1],r10
0x75d07d40775   501  0f85bcffffff   jnz 439  (0x75d07d40737)
0x75d07d4077b   507  53             push rbx
0x75d07d4077c   508  50             push rax
0x75d07d4077d   509  b801000000     movl rax,0x1
0x75d07d40782   514  48bb803f2a0100000000 REX.W movq rbx,0x12a3f80
0x75d07d4078c   524  e84f83fcff     call 0x75d07d08ae0       ;; code: STUB, CEntryStub, minor: 0
0x75d07d40791   529  5b             pop rbx
0x75d07d40792   530  488b53ff       REX.W movq rdx,[rbx-0x1]
0x75d07d40796   534  0fb6520b       movzxbl rdx,[rdx+0xb]
0x75d07d4079a   538  a801           test al,0x1
0x75d07d4079c   540  0f858cffffff   jnz 430  (0x75d07d4072e)
0x75d07d407a2   546  e9cbfeffff     jmp 242  (0x75d07d40672)
0x75d07d407a7   551  53             push rbx
0x75d07d407a8   552  48c1e020       REX.W shlq rax, 32
0x75d07d407ac   556  50             push rax
0x75d07d407ad   557  b802000000     movl rax,0x2
0x75d07d407b2   562  48bb10e02e0100000000 REX.W movq rbx,0x12ee010
0x75d07d407bc   572  e81f83fcff     call 0x75d07d08ae0       ;; code: STUB, CEntryStub, minor: 0
0x75d07d407c1   577  488bd0         REX.W movq rdx,rax
0x75d07d407c4   580  e927ffffff     jmp 368  (0x75d07d406f0)
0x75d07d407c9   585  49ba00000000ad000000 REX.W movq r10,0xad00000000
0x75d07d407d3   595  4152           push r10
0x75d07d407d5   597  b801000000     movl rax,0x1
0x75d07d407da   602  48bb609b2f0100000000 REX.W movq rbx,0x12f9b60
0x75d07d407e4   612  e8f782fcff     call 0x75d07d08ae0       ;; code: STUB, CEntryStub, minor: 0
0x75d07d407e9   617  cc             int3
0x75d07d407ea   618  49ba00000000b1000000 REX.W movq r10,0xb100000000
0x75d07d407f4   628  4152           push r10
0x75d07d407f6   630  b801000000     movl rax,0x1
0x75d07d407fb   635  48bb609b2f0100000000 REX.W movq rbx,0x12f9b60
0x75d07d40805   645  e8d682fcff     call 0x75d07d08ae0       ;; code: STUB, CEntryStub, minor: 0
0x75d07d4080a   650  cc             int3
0x75d07d4080b   651  52             push rdx
0x75d07d4080c   652  b801000000     movl rax,0x1
0x75d07d40811   657  48bb40e22e0100000000 REX.W movq rbx,0x12ee240
0x75d07d4081b   667  e8c082fcff     call 0x75d07d08ae0       ;; code: STUB, CEntryStub, minor: 0
0x75d07d40820   672  e904ffffff     jmp 425  (0x75d07d40729)
0x75d07d40825   677  49ba00000000ae000000 REX.W movq r10,0xae00000000
0x75d07d4082f   687  4152           push r10
0x75d07d40831   689  b801000000     movl rax,0x1
0x75d07d40836   694  48bb609b2f0100000000 REX.W movq rbx,0x12f9b60
0x75d07d40840   704  e89b82fcff     call 0x75d07d08ae0       ;; code: STUB, CEntryStub, minor: 0
0x75d07d40845   709  cc             int3
0x75d07d40846   710  488945e8       REX.W movq [rbp-0x18],rax    ;; debug: position 769
0x75d07d4084a   714  488b45e8       REX.W movq rax,[rbp-0x18]    ;; debug: statement 799
                                                             ;; debug: position 810
0x75d07d4084e   718  eb0f           jmp 735  (0x75d07d4085f)
0x75d07d40850   720  493b45c0       REX.W cmpq rax,[r13-0x40]
0x75d07d40854   724  0f8412000000   jz 748  (0x75d07d4086c)
0x75d07d4085a   730  e97a020000     jmp 1369  (0x75d07d40ad9)
0x75d07d4085f   735  a801           test al,0x1
0x75d07d40861   737  0f8405000000   jz 748  (0x75d07d4086c)
0x75d07d40867   743  e96d020000     jmp 1369  (0x75d07d40ad9)
0x75d07d4086c   748  488b4518       REX.W movq rax,[rbp+0x18]    ;; debug: statement 815
                                                             ;; debug: position 844
0x75d07d40870   752  e86bcbfeff     call 0x75d07d2d3e0       ;; code: STUB, ToStringStub, minor: 0
0x75d07d40875   757  50             push rax
0x75d07d40876   758  488b4510       REX.W movq rax,[rbp+0x10]    ;; debug: position 868
0x75d07d4087a   762  eb0f           jmp 779  (0x75d07d4088b)
0x75d07d4087c   764  493b45c0       REX.W cmpq rax,[r13-0x40]
0x75d07d40880   768  0f8412000000   jz 792  (0x75d07d40898)
0x75d07d40886   774  e916000000     jmp 801  (0x75d07d408a1)
0x75d07d4088b   779  a801           test al,0x1
0x75d07d4088d   781  0f8405000000   jz 792  (0x75d07d40898)
0x75d07d40893   787  e909000000     jmp 801  (0x75d07d408a1)
0x75d07d40898   792  488b4510       REX.W movq rax,[rbp+0x10]    ;; debug: position 872
0x75d07d4089c   796  e93d000000     jmp 862  (0x75d07d408de)
0x75d07d408a1   801  488bc6         REX.W movq rax,rsi       ;; debug: position 891
0x75d07d408a4   804  ff706f         push [rax+0x6f]
0x75d07d408a7   807  41ff75a8       push [r13-0x58]
0x75d07d408ab   811  ff7510         push [rbp+0x10]          ;; debug: position 893
0x75d07d408ae   814  48ba0000000008000000 REX.W movq rdx,0x800000000    ;; debug: position 891
0x75d07d408b8   824  488b7c2410     REX.W movq rdi,[rsp+0x10]
0x75d07d408bd   829  e87e16ffff     call 0x75d07d31f40       ;; code: CALL_IC, DEFAULT
0x75d07d408c2   834  488b75f8       REX.W movq rsi,[rbp-0x8]
0x75d07d408c6   838  48890424       REX.W movq [rsp],rax
0x75d07d408ca   842  b801000000     movl rax,0x1
0x75d07d408cf   847  48bbf03d2a0100000000 REX.W movq rbx,0x12a3df0
0x75d07d408d9   857  e80282fcff     call 0x75d07d08ae0       ;; code: STUB, CEntryStub, minor: 0
0x75d07d408de   862  5b             pop rbx
0x75d07d408df   863  f6c301         testb rbx,0x1
0x75d07d408e2   866  0f84de000000   jz 1094  (0x75d07d409c6)
0x75d07d408e8   872  488b53ff       REX.W movq rdx,[rbx-0x1]
0x75d07d408ec   876  0fb6520b       movzxbl rdx,[rdx+0xb]
0x75d07d408f0   880  f6c280         testb rdx,0x80
0x75d07d408f3   883  0f85cd000000   jnz 1094  (0x75d07d409c6)
0x75d07d408f9   889  a801           test al,0x1
0x75d07d408fb   891  0f85f5000000   jnz 1142  (0x75d07d409f6)
0x75d07d40901   897  483b430f       REX.W cmpq rax,[rbx+0xf]
0x75d07d40905   901  0f83b2000000   jnc 1085  (0x75d07d409bd)
0x75d07d4090b   907  48c1e820       REX.W shrq rax, 32
0x75d07d4090f   911  488b53ff       REX.W movq rdx,[rbx-0x1]
0x75d07d40913   915  0fb6520b       movzxbl rdx,[rdx+0xb]
0x75d07d40917   919  f6c201         testb rdx,0x1
0x75d07d4091a   922  742b           jz 967  (0x75d07d40947)
0x75d07d4091c   924  f6c202         testb rdx,0x2
0x75d07d4091f   927  740c           jz 941  (0x75d07d4092d)
0x75d07d40921   929  8b5323         movl rdx,[rbx+0x23]
0x75d07d40924   932  4803c2         REX.W addq rax,rdx
0x75d07d40927   935  488b5b17       REX.W movq rbx,[rbx+0x17]
0x75d07d4092b   939  eb12           jmp 959  (0x75d07d4093f)
0x75d07d4092d   941  4d8b55d0       REX.W movq r10,[r13-0x30]
0x75d07d40931   945  4c39531f       REX.W cmpq [rbx+0x1f],r10
0x75d07d40935   949  0f85fb000000   jnz 1206  (0x75d07d40a36)
0x75d07d4093b   955  488b5b17       REX.W movq rbx,[rbx+0x17]
0x75d07d4093f   959  488b53ff       REX.W movq rdx,[rbx-0x1]
0x75d07d40943   963  0fb6520b       movzxbl rdx,[rdx+0xb]
0x75d07d40947   967  f6c203         testb rdx,0x3
0x75d07d4094a   970  741e           jz 1002  (0x75d07d4096a)
0x75d07d4094c   972  f6c210         testb rdx,0x10
0x75d07d4094f   975  0f85e1000000   jnz 1206  (0x75d07d40a36)
0x75d07d40955   981  f6c204         testb rdx,0x4
0x75d07d40958   984  488b531f       REX.W movq rdx,[rbx+0x1f]
0x75d07d4095c   988  7506           jnz 996  (0x75d07d40964)
0x75d07d4095e   990  0fb71442       movzxwl rdx,[rdx+rax*2]
0x75d07d40962   994  eb17           jmp 1019  (0x75d07d4097b)
0x75d07d40964   996  0fb61402       movzxbl rdx,[rdx+rax*1]
0x75d07d40968  1000  eb11           jmp 1019  (0x75d07d4097b)
0x75d07d4096a  1002  f6c204         testb rdx,0x4
0x75d07d4096d  1005  7507           jnz 1014  (0x75d07d40976)
0x75d07d4096f  1007  0fb7544317     movzxwl rdx,[rbx+rax*2+0x17]
0x75d07d40974  1012  eb05           jmp 1019  (0x75d07d4097b)
0x75d07d40976  1014  0fb6540317     movzxbl rdx,[rbx+rax*1+0x17]
0x75d07d4097b  1019  48c1e220       REX.W shlq rdx, 32
0x75d07d4097f  1023  f6c201         testb rdx,0x1
0x75d07d40982  1026  0f8512010000   jnz 1306  (0x75d07d40a9a)
0x75d07d40988  1032  49ba00000000ff000000 REX.W movq r10,0xff00000000
0x75d07d40992  1042  493bd2         REX.W cmpq rdx,r10
0x75d07d40995  1045  0f87ff000000   ja 1306  (0x75d07d40a9a)
0x75d07d4099b  1051  498b8510010000 REX.W movq rax,[r13+0x110]
0x75d07d409a2  1058  4c8bd2         REX.W movq r10,rdx
0x75d07d409a5  1061  49c1fa1d       REX.W sarq r10, 29
0x75d07d409a9  1065  4a8b44100f     REX.W movq rax,[rax+r10*1+0xf]
0x75d07d409ae  1070  493b45a8       REX.W cmpq rax,[r13-0x58]
0x75d07d409b2  1074  0f84e2000000   jz 1306  (0x75d07d40a9a)
0x75d07d409b8  1080  e918010000     jmp 1365  (0x75d07d40ad5)
0x75d07d409bd  1085  498b45d0       REX.W movq rax,[r13-0x30]
0x75d07d409c1  1089  e90f010000     jmp 1365  (0x75d07d40ad5)
0x75d07d409c6  1094  48b80000000000000000 REX.W movq rax,(nil)
0x75d07d409d0  1104  e900010000     jmp 1365  (0x75d07d40ad5)
0x75d07d409d5  1109  49ba00000000b0000000 REX.W movq r10,0xb000000000
0x75d07d409df  1119  4152           push r10
0x75d07d409e1  1121  b801000000     movl rax,0x1
0x75d07d409e6  1126  48bb609b2f0100000000 REX.W movq rbx,0x12f9b60
0x75d07d409f0  1136  e8eb80fcff     call 0x75d07d08ae0       ;; code: STUB, CEntryStub, minor: 0
0x75d07d409f5  1141  cc             int3
0x75d07d409f6  1142  49ba1944c006200b0000 REX.W movq r10,0xb2006c04419    ;; object: 0xb2006c04419 <Map(FAST_HOLEY_ELEMENTS)>
0x75d07d40a00  1152  4c3950ff       REX.W cmpq [rax-0x1],r10
0x75d07d40a04  1156  0f85bcffffff   jnz 1094  (0x75d07d409c6)
0x75d07d40a0a  1162  53             push rbx
0x75d07d40a0b  1163  50             push rax
0x75d07d40a0c  1164  b801000000     movl rax,0x1
0x75d07d40a11  1169  48bb803f2a0100000000 REX.W movq rbx,0x12a3f80
0x75d07d40a1b  1179  e8c080fcff     call 0x75d07d08ae0       ;; code: STUB, CEntryStub, minor: 0
0x75d07d40a20  1184  5b             pop rbx
0x75d07d40a21  1185  488b53ff       REX.W movq rdx,[rbx-0x1]
0x75d07d40a25  1189  0fb6520b       movzxbl rdx,[rdx+0xb]
0x75d07d40a29  1193  a801           test al,0x1
0x75d07d40a2b  1195  0f858cffffff   jnz 1085  (0x75d07d409bd)
0x75d07d40a31  1201  e9cbfeffff     jmp 897  (0x75d07d40901)
0x75d07d40a36  1206  53             push rbx
0x75d07d40a37  1207  48c1e020       REX.W shlq rax, 32
0x75d07d40a3b  1211  50             push rax
0x75d07d40a3c  1212  b802000000     movl rax,0x2
0x75d07d40a41  1217  48bb10e02e0100000000 REX.W movq rbx,0x12ee010
0x75d07d40a4b  1227  e89080fcff     call 0x75d07d08ae0       ;; code: STUB, CEntryStub, minor: 0
0x75d07d40a50  1232  488bd0         REX.W movq rdx,rax
0x75d07d40a53  1235  e927ffffff     jmp 1023  (0x75d07d4097f)
0x75d07d40a58  1240  49ba00000000ad000000 REX.W movq r10,0xad00000000
0x75d07d40a62  1250  4152           push r10
0x75d07d40a64  1252  b801000000     movl rax,0x1
0x75d07d40a69  1257  48bb609b2f0100000000 REX.W movq rbx,0x12f9b60
0x75d07d40a73  1267  e86880fcff     call 0x75d07d08ae0       ;; code: STUB, CEntryStub, minor: 0
0x75d07d40a78  1272  cc             int3
0x75d07d40a79  1273  49ba00000000b1000000 REX.W movq r10,0xb100000000
0x75d07d40a83  1283  4152           push r10
0x75d07d40a85  1285  b801000000     movl rax,0x1
0x75d07d40a8a  1290  48bb609b2f0100000000 REX.W movq rbx,0x12f9b60
0x75d07d40a94  1300  e84780fcff     call 0x75d07d08ae0       ;; code: STUB, CEntryStub, minor: 0
0x75d07d40a99  1305  cc             int3
0x75d07d40a9a  1306  52             push rdx
0x75d07d40a9b  1307  b801000000     movl rax,0x1
0x75d07d40aa0  1312  48bb40e22e0100000000 REX.W movq rbx,0x12ee240
0x75d07d40aaa  1322  e83180fcff     call 0x75d07d08ae0       ;; code: STUB, CEntryStub, minor: 0
0x75d07d40aaf  1327  e904ffffff     jmp 1080  (0x75d07d409b8)
0x75d07d40ab4  1332  49ba00000000ae000000 REX.W movq r10,0xae00000000
0x75d07d40abe  1342  4152           push r10
0x75d07d40ac0  1344  b801000000     movl rax,0x1
0x75d07d40ac5  1349  48bb609b2f0100000000 REX.W movq rbx,0x12f9b60
0x75d07d40acf  1359  e80c80fcff     call 0x75d07d08ae0       ;; code: STUB, CEntryStub, minor: 0
0x75d07d40ad4  1364  cc             int3
0x75d07d40ad5  1365  488945e8       REX.W movq [rbp-0x18],rax    ;; debug: position 816
0x75d07d40ad9  1369  488b45e8       REX.W movq rax,[rbp-0x18]    ;; debug: statement 902
                                                             ;; debug: position 909
0x75d07d40add  1373  48bb7936affe40250000 REX.W movq rbx,0x2540feaf3679    ;; object: 0x2540feaf3679 Cell for 6144
0x75d07d40ae7  1383  83430bd1       addl [rbx+0xb],0xd1
0x75d07d40aeb  1387  791f           jns 1420  (0x75d07d40b0c)
0x75d07d40aed  1389  50             push rax
0x75d07d40aee  1390  e84d5effff     call InterruptCheck  (0x75d07d36940)    ;; code: BUILTIN
0x75d07d40af3  1395  58             pop rax
0x75d07d40af4  1396  48bb7936affe40250000 REX.W movq rbx,0x2540feaf3679    ;; object: 0x2540feaf3679 Cell for 6144
0x75d07d40afe  1406  49ba0000000000180000 REX.W movq r10,0x180000000000
0x75d07d40b08  1416  4c895307       REX.W movq [rbx+0x7],r10
0x75d07d40b0c  1420  c9             leave                    ;; debug: statement 912
0x75d07d40b0d  1421  c21000         ret 0x10
0x75d07d40b10  1424  498b45a8       REX.W movq rax,[r13-0x58]
0x75d07d40b14  1428  e9c4ffffff     jmp 1373  (0x75d07d40add)
0x75d07d40b19  1433  0f1f8000000000 nop

Deoptimization Output Data (deopt points = 0)

Back edges (size = 0)
ast_id  pc_offset  loop_depth

0x2540feaf3701: [TypeFeedbackInfo]
 - ic_total_count: 3, ic_with_type_info_count: 0, ic_generic_count: 0

RelocInfo (size = 97)
0x75d07d40580  position  (668)
0x75d07d40594  code target (BUILTIN)  (0x75d07d36a80)
0x75d07d40598  statement position  (673)
0x75d07d40598  position  (685)
0x75d07d405b7  position  (701)
0x75d07d405d6  statement position  (718)
0x75d07d405d6  position  (724)
0x75d07d405d8  embedded object  (0x2540fea82eb9 <String[13]: MakeTypeError>)
0x75d07d405ef  code target (LOAD_IC)  (0x75d07d28560)
0x75d07d405f6  embedded object  (0x2540fea04189 <undefined>)
0x75d07d4060e  embedded object  (0x2540feaf35e9 <String[23]: String.prototype.charAt>)
0x75d07d40628  code target (CALL_IC)  (0x75d07d13800)
0x75d07d40634  position  (718)
0x75d07d40644  code target (STUB)  (0x75d07d08ae0)
0x75d07d40648  statement position  (769)
0x75d07d40648  position  (790)
0x75d07d4064b  position  (795)
0x75d07d40762  code target (STUB)  (0x75d07d08ae0)
0x75d07d40769  embedded object  (0xb2006c04419 <Map(FAST_HOLEY_ELEMENTS)>)
0x75d07d4078d  code target (STUB)  (0x75d07d08ae0)
0x75d07d407bd  code target (STUB)  (0x75d07d08ae0)
0x75d07d407e5  code target (STUB)  (0x75d07d08ae0)
0x75d07d40806  code target (STUB)  (0x75d07d08ae0)
0x75d07d4081c  code target (STUB)  (0x75d07d08ae0)
0x75d07d40841  code target (STUB)  (0x75d07d08ae0)
0x75d07d40846  position  (769)
0x75d07d4084a  statement position  (799)
0x75d07d4084a  position  (810)
0x75d07d4086c  statement position  (815)
0x75d07d4086c  position  (844)
0x75d07d40871  code target (STUB)  (0x75d07d2d3e0)
0x75d07d40876  position  (868)
0x75d07d40898  position  (872)
0x75d07d408a1  position  (891)
0x75d07d408ab  position  (893)
0x75d07d408ae  position  (891)
0x75d07d408be  code target (CALL_IC)  (0x75d07d31f40)
0x75d07d408da  code target (STUB)  (0x75d07d08ae0)
0x75d07d409f1  code target (STUB)  (0x75d07d08ae0)
0x75d07d409f8  embedded object  (0xb2006c04419 <Map(FAST_HOLEY_ELEMENTS)>)
0x75d07d40a1c  code target (STUB)  (0x75d07d08ae0)
0x75d07d40a4c  code target (STUB)  (0x75d07d08ae0)
0x75d07d40a74  code target (STUB)  (0x75d07d08ae0)
0x75d07d40a95  code target (STUB)  (0x75d07d08ae0)
0x75d07d40aab  code target (STUB)  (0x75d07d08ae0)
0x75d07d40ad0  code target (STUB)  (0x75d07d08ae0)
0x75d07d40ad5  position  (816)
0x75d07d40ad9  statement position  (902)
0x75d07d40ad9  position  (909)
0x75d07d40adf  embedded object  (0x2540feaf3679 Cell for 6144)
0x75d07d40aef  code target (BUILTIN)  (0x75d07d36940)
0x75d07d40af6  embedded object  (0x2540feaf3679 Cell for 6144)
0x75d07d40b0c  statement position  (912)

--- End code ---
