--- Raw source ---
function arrayExists(array, x) {
    for (var i = 0; i < array.length; i++) {
        if (array[i] == x) return true;
    }
    return false;
}

Date.prototype.formatDate = function (input,time) {
    // formatDate :
    // a PHP date like function, for formatting date strings
    // See: http://www.php.net/date
    //
    // input : format string
    // time : epoch time (seconds, and optional)
    //
    // if time is not passed, formatting is based on 
    // the current "this" date object's set time.
    //
    // supported:
    // a, A, B, d, D, F, g, G, h, H, i, j, l (lowercase L), L, 
    // m, M, n, O, r, s, S, t, U, w, W, y, Y, z
    //
    // unsupported:
    // I (capital i), T, Z    

    var switches =    ["a", "A", "B", "d", "D", "F", "g", "G", "h", "H", 
                       "i", "j", "l", "L", "m", "M", "n", "O", "r", "s", 
                       "S", "t", "U", "w", "W", "y", "Y", "z"];
    var daysLong =    ["Sunday", "Monday", "Tuesday", "Wednesday", 
                       "Thursday", "Friday", "Saturday"];
    var daysShort =   ["Sun", "Mon", "Tue", "Wed", 
                       "Thu", "Fri", "Sat"];
    var monthsShort = ["Jan", "Feb", "Mar", "Apr",
                       "May", "Jun", "Jul", "Aug", "Sep",
                       "Oct", "Nov", "Dec"];
    var monthsLong =  ["January", "February", "March", "April",
                       "May", "June", "July", "August", "September",
                       "October", "November", "December"];
    var daysSuffix = ["st", "nd", "rd", "th", "th", "th", "th", // 1st - 7th
                      "th", "th", "th", "th", "th", "th", "th", // 8th - 14th
                      "th", "th", "th", "th", "th", "th", "st", // 15th - 21st
                      "nd", "rd", "th", "th", "th", "th", "th", // 22nd - 28th
                      "th", "th", "st"];                        // 29th - 31st

    function a() {
        // Lowercase Ante meridiem and Post meridiem
        return self.getHours() > 11? "pm" : "am";
    }
    function A() {
        // Uppercase Ante meridiem and Post meridiem
        return self.getHours() > 11? "PM" : "AM";
    }

    function B(){
        // Swatch internet time. code simply grabbed from ppk,
        // since I was feeling lazy:
        // http://www.xs4all.nl/~ppk/js/beat.html
        var off = (self.getTimezoneOffset() + 60)*60;
        var theSeconds = (self.getHours() * 3600) + 
                         (self.getMinutes() * 60) + 
                          self.getSeconds() + off;
        var beat = Math.floor(theSeconds/86.4);
        if (beat > 1000) beat -= 1000;
        if (beat < 0) beat += 1000;
        if ((""+beat).length == 1) beat = "00"+beat;
        if ((""+beat).length == 2) beat = "0"+beat;
        return beat;
    }
    
    function d() {
        // Day of the month, 2 digits with leading zeros
        return new String(self.getDate()).length == 1?
        "0"+self.getDate() : self.getDate();
    }
    function D() {
        // A textual representation of a day, three letters
        return daysShort[self.getDay()];
    }
    function F() {
        // A full textual representation of a month
        return monthsLong[self.getMonth()];
    }
    function g() {
        // 12-hour format of an hour without leading zeros
        return self.getHours() > 12? self.getHours()-12 : self.getHours();
    }
    function G() {
        // 24-hour format of an hour without leading zeros
        return self.getHours();
    }
    function h() {
        // 12-hour format of an hour with leading zeros
        if (self.getHours() > 12) {
          var s = new String(self.getHours()-12);
          return s.length == 1?
          "0"+ (self.getHours()-12) : self.getHours()-12;
        } else { 
          var s = new String(self.getHours());
          return s.length == 1?
          "0"+self.getHours() : self.getHours();
        }  
    }
    function H() {
        // 24-hour format of an hour with leading zeros
        return new String(self.getHours()).length == 1?
        "0"+self.getHours() : self.getHours();
    }
    function i() {
        // Minutes with leading zeros
        return new String(self.getMinutes()).length == 1? 
        "0"+self.getMinutes() : self.getMinutes(); 
    }
    function j() {
        // Day of the month without leading zeros
        return self.getDate();
    }    
    function l() {
        // A full textual representation of the day of the week
        return daysLong[self.getDay()];
    }
    function L() {
        // leap year or not. 1 if leap year, 0 if not.
        // the logic should match iso's 8601 standard.
        var y_ = Y();
        if (         
            (y_ % 4 == 0 && y_ % 100 != 0) ||
            (y_ % 4 == 0 && y_ % 100 == 0 && y_ % 400 == 0)
            ) {
            return 1;
        } else {
            return 0;
        }
    }
    function m() {
        // Numeric representation of a month, with leading zeros
        return self.getMonth() < 9?
        "0"+(self.getMonth()+1) : 
        self.getMonth()+1;
    }
    function M() {
        // A short textual representation of a month, three letters
        return monthsShort[self.getMonth()];
    }
    function n() {
        // Numeric representation of a month, without leading zeros
        return self.getMonth()+1;
    }
    function O() {
        // Difference to Greenwich time (GMT) in hours
        var os = Math.abs(self.getTimezoneOffset());
        var h = ""+Math.floor(os/60);
        var m = ""+(os%60);
        h.length == 1? h = "0"+h:1;
        m.length == 1? m = "0"+m:1;
        return self.getTimezoneOffset() < 0 ? "+"+h+m : "-"+h+m;
    }
    function r() {
        // RFC 822 formatted date
        var r; // result
        //  Thu    ,     21          Dec         2000
        r = D() + ", " + j() + " " + M() + " " + Y() +
        //        16     :    01     :    07          +0200
            " " + H() + ":" + i() + ":" + s() + " " + O();
        return r;
    }
    function S() {
        // English ordinal suffix for the day of the month, 2 characters
        return daysSuffix[self.getDate()-1];
    }
    function s() {
        // Seconds, with leading zeros
        return new String(self.getSeconds()).length == 1?
        "0"+self.getSeconds() : self.getSeconds();
    }
    function t() {

        // thanks to Matt Bannon for some much needed code-fixes here!
        var daysinmonths = [null,31,28,31,30,31,30,31,31,30,31,30,31];
        if (L()==1 && n()==2) return 29; // leap day
        return daysinmonths[n()];
    }
    function U() {
        // Seconds since the Unix Epoch (January 1 1970 00:00:00 GMT)
        return Math.round(self.getTime()/1000);
    }
    function W() {
        // Weeknumber, as per ISO specification:
        // http://www.cl.cam.ac.uk/~mgk25/iso-time.html
        
        // if the day is three days before newyears eve,
        // there's a chance it's "week 1" of next year.
        // here we check for that.
        var beforeNY = 364+L() - z();
        var afterNY  = z();
        var weekday = w()!=0?w()-1:6; // makes sunday (0), into 6.
        if (beforeNY <= 2 && weekday <= 2-beforeNY) {
            return 1;
        }
        // similarly, if the day is within threedays of newyears
        // there's a chance it belongs in the old year.
        var ny = new Date("January 1 " + Y() + " 00:00:00");
        var nyDay = ny.getDay()!=0?ny.getDay()-1:6;
        if (
            (afterNY <= 2) && 
            (nyDay >=4)  && 
            (afterNY >= (6-nyDay))
            ) {
            // Since I'm not sure we can just always return 53,
            // i call the function here again, using the last day
            // of the previous year, as the date, and then just
            // return that week.
            var prevNY = new Date("December 31 " + (Y()-1) + " 00:00:00");
            return prevNY.formatDate("W");
        }
        
        // week 1, is the week that has the first thursday in it.
        // note that this value is not zero index.
        if (nyDay <= 3) {
            // first day of the year fell on a thursday, or earlier.
            return 1 + Math.floor( ( z() + nyDay ) / 7 );
        } else {
            // first day of the year fell on a friday, or later.
            return 1 + Math.floor( ( z() - ( 7 - nyDay ) ) / 7 );
        }
    }
    function w() {
        // Numeric representation of the day of the week
        return self.getDay();
    }
    
    function Y() {
        // A full numeric representation of a year, 4 digits

        // we first check, if getFullYear is supported. if it
        // is, we just use that. ppks code is nice, but wont
        // work with dates outside 1900-2038, or something like that
        if (self.getFullYear) {
            var newDate = new Date("January 1 2001 00:00:00 +0000");
            var x = newDate .getFullYear();
            if (x == 2001) {              
                // i trust the method now
                return self.getFullYear();
            }
        }
        // else, do this:
        // codes thanks to ppk:
        // http://www.xs4all.nl/~ppk/js/introdate.html
        var x = self.getYear();
        var y = x % 100;
        y += (y < 38) ? 2000 : 1900;
        return y;
    }
    function y() {
        // A two-digit representation of a year
        var y = Y()+"";
        return y.substring(y.length-2,y.length);
    }
    function z() {
        // The day of the year, zero indexed! 0 through 366
        var t = new Date("January 1 " + Y() + " 00:00:00");
        var diff = self.getTime() - t.getTime();
        return Math.floor(diff/1000/60/60/24);
    }
        
    var self = this;
    if (time) {
        // save time
        var prevTime = self.getTime();
        self.setTime(time);
    }
    
    var ia = input.split("");
    var ij = 0;
    while (ia[ij]) {
        if (ia[ij] == "\x5c\x5c") {
            // this is our way of allowing users to escape stuff
            ia.splice(ij,1);
        } else {
            if (arrayExists(switches,ia[ij])) {
                ia[ij] = eval(ia[ij] + "()");
            }
        }
        ij++;
    }
    // reset time, back to what it was
    if (prevTime) {
        self.setTime(prevTime);
    }
    return ia.join("");
}

var date = new Date("1/1/2007 1:11:11");

for (i = 0; i < 500; ++i) {
    var shortFormat = date.formatDate("Y-m-d");
    var longFormat = date.formatDate("l, F d, Y g:i:s A");
    date.setTime(date.getTime() + 84266956);
}

// FIXME: Find a way to validate this test.
// https://bugs.webkit.org/show_bug.cgi?id=114849


--- Code ---
source_position = 0
kind = FUNCTION
compiler = full-codegen
Instructions (size = 1096)
0x165864f39f40     0  55             push rbp                ;; debug: position 0
0x165864f39f41     1  4889e5         REX.W movq rbp,rsp
0x165864f39f44     4  56             push rsi
0x165864f39f45     5  57             push rdi
0x165864f39f46     6  41ff75a8       push [r13-0x58]
0x165864f39f4a    10  57             push rdi
0x165864f39f4b    11  49ba29af9ecfdd1e0000 REX.W movq r10,0x1eddcf9eaf29    ;; object: 0x1eddcf9eaf29 <FixedArray[16]>
0x165864f39f55    21  4152           push r10
0x165864f39f57    23  b802000000     movl rax,0x2
0x165864f39f5c    28  48bbb0852b0100000000 REX.W movq rbx,0x12b85b0
0x165864f39f66    38  e875ebfcff     call 0x165864f08ae0     ;; code: STUB, CEntryStub, minor: 0
0x165864f39f6b    43  488bf0         REX.W movq rsi,rax
0x165864f39f6e    46  488945f8       REX.W movq [rbp-0x8],rax
0x165864f39f72    50  49ba69b09ecfdd1e0000 REX.W movq r10,0x1eddcf9eb069    ;; object: 0x1eddcf9eb069 <FixedArray[8]>
0x165864f39f7c    60  4152           push r10
0x165864f39f7e    62  6a00           push 0x0
0x165864f39f80    64  b802000000     movl rax,0x2
0x165864f39f85    69  48bbf05d2b0100000000 REX.W movq rbx,0x12b5df0
0x165864f39f8f    79  e84cebfcff     call 0x165864f08ae0     ;; code: STUB, CEntryStub, minor: 0
0x165864f39f94    84  493ba548090000 REX.W cmpq rsp,[r13+0x948]
0x165864f39f9b    91  7305           jnc 98  (0x165864f39fa2)
0x165864f39f9d    93  e8decaffff     call StackCheck  (0x165864f36a80)    ;; code: BUILTIN
0x165864f39fa2    98  48b9f17f96cfdd1e0000 REX.W movq rcx,0x1eddcf967ff1    ;; debug: statement 145
                                                             ;; debug: position 145
                                                             ;; object: 0x1eddcf967ff1 <String[4]: Date>
0x165864f39fac   108  488b5627       REX.W movq rdx,[rsi+0x27]
0x165864f39fb0   112  48b80000000006000000 REX.W movq rax,0x600000000
0x165864f39fba   122  e8a1e5feff     call 0x165864f28560     ;; code: contextual, LOAD_IC, DEFAULT
0x165864f39fbf   127  488bd0         REX.W movq rdx,rax
0x165864f39fc2   130  48b9310999cfdd1e0000 REX.W movq rcx,0x1eddcf990931    ;; debug: position 149
                                                             ;; object: 0x1eddcf990931 <String[9]: prototype>
0x165864f39fcc   140  48b80000000008000000 REX.W movq rax,0x800000000
0x165864f39fd6   150  e885e5feff     call 0x165864f28560     ;; code: contextual, LOAD_IC, DEFAULT
0x165864f39fdb   155  50             push rax
0x165864f39fdc   156  49bab9b09ecfdd1e0000 REX.W movq r10,0x1eddcf9eb0b9    ;; object: 0x1eddcf9eb0b9 <SharedFunctionInfo Date.formatDate>
0x165864f39fe6   166  4152           push r10
0x165864f39fe8   168  b801000000     movl rax,0x1
0x165864f39fed   173  48bbc0832b0100000000 REX.W movq rbx,0x12b83c0
0x165864f39ff7   183  e8e4eafcff     call 0x165864f08ae0     ;; code: STUB, CEntryStub, minor: 0
0x165864f39ffc   188  48b9e1c498cfdd1e0000 REX.W movq rcx,0x1eddcf98c4e1    ;; debug: position 171
                                                             ;; object: 0x1eddcf98c4e1 <String[10]: formatDate>
0x165864f3a006   198  5a             pop rdx
0x165864f3a007   199  e8f483ffff     call 0x165864f32400     ;; code: STORE_IC, UNINITIALIZED (id = 28)
0x165864f3a00c   204  488945e8       REX.W movq [rbp-0x18],rax
0x165864f3a010   208  49ba41ad9ecfdd1e0000 REX.W movq r10,0x1eddcf9ead41    ;; debug: statement 10273
                                                             ;; object: 0x1eddcf9ead41 <String[4]: date>
0x165864f3a01a   218  4152           push r10
0x165864f3a01c   220  6a00           push 0x0
0x165864f3a01e   222  48b9f17f96cfdd1e0000 REX.W movq rcx,0x1eddcf967ff1    ;; debug: position 10288
                                                             ;; object: 0x1eddcf967ff1 <String[4]: Date>
0x165864f3a028   232  488b5627       REX.W movq rdx,[rsi+0x27]
0x165864f3a02c   236  48b80000000006000000 REX.W movq rax,0x600000000
0x165864f3a036   246  e825e5feff     call 0x165864f28560     ;; code: contextual, LOAD_IC, DEFAULT
0x165864f3a03b   251  50             push rax
0x165864f3a03c   252  49ba61ad9ecfdd1e0000 REX.W movq r10,0x1eddcf9ead61    ;; object: 0x1eddcf9ead61 <String[16]: 1/1/2007 1:11:11>
0x165864f3a046   262  4152           push r10
0x165864f3a048   264  b801000000     movl rax,0x1            ;; debug: position 10284
0x165864f3a04d   269  488b7c2408     REX.W movq rdi,[rsp+0x8]
0x165864f3a052   274  488b5df0       REX.W movq rbx,[rbp-0x10]
0x165864f3a056   278  488b5b27       REX.W movq rbx,[rbx+0x27]
0x165864f3a05a   282  488b5b57       REX.W movq rbx,[rbx+0x57]
0x165864f3a05e   286  48ba0000000005000000 REX.W movq rdx,0x500000000
0x165864f3a068   296  e8d305feff     call 0x165864f1a640     ;; code: constructor, STUB, CallConstructStub, minor: 1
0x165864f3a06d   301  488b75f8       REX.W movq rsi,[rbp-0x8]
0x165864f3a071   305  50             push rax
0x165864f3a072   306  b803000000     movl rax,0x3
0x165864f3a077   311  48bb90642b0100000000 REX.W movq rbx,0x12b6490
0x165864f3a081   321  e85aeafcff     call 0x165864f08ae0     ;; code: STUB, CEntryStub, minor: 0
0x165864f3a086   326  48b80000000000000000 REX.W movq rax,(nil)    ;; debug: statement 10315
                                                             ;; debug: statement 10320
                                                             ;; debug: position 10322
0x165864f3a090   336  48b979a194cfdd1e0000 REX.W movq rcx,0x1eddcf94a179    ;; object: 0x1eddcf94a179 <String[1]: i>
0x165864f3a09a   346  488b5627       REX.W movq rdx,[rsi+0x27]
0x165864f3a09e   350  e85d83ffff     call 0x165864f32400     ;; code: STORE_IC, UNINITIALIZED
0x165864f3a0a3   355  e929020000     jmp 913  (0x165864f3a2d1)
0x165864f3a0a8   360  bb05000000     movl rbx,0x5            ;; debug: statement 10347
                                                             ;; debug: position 10365
0x165864f3a0ad   365  e82e06ffff     call 0x165864f2a6e0     ;; code: STUB, LoadGlobalViaContextStub, minor: 0
0x165864f3a0b2   370  50             push rax
0x165864f3a0b3   371  488b1424       REX.W movq rdx,[rsp]
0x165864f3a0b7   375  48b9e1c498cfdd1e0000 REX.W movq rcx,0x1eddcf98c4e1    ;; debug: position 10369
                                                             ;; object: 0x1eddcf98c4e1 <String[10]: formatDate>
0x165864f3a0c1   385  48b8000000000e000000 REX.W movq rax,0xe00000000
0x165864f3a0cb   395  e890e4feff     call 0x165864f28560     ;; code: contextual, LOAD_IC, DEFAULT
0x165864f3a0d0   400  ff3424         push [rsp]
0x165864f3a0d3   403  4889442408     REX.W movq [rsp+0x8],rax
0x165864f3a0d8   408  49bab1ad9ecfdd1e0000 REX.W movq r10,0x1eddcf9eadb1    ;; object: 0x1eddcf9eadb1 <String[5]: Y-m-d>
0x165864f3a0e2   418  4152           push r10
0x165864f3a0e4   420  48ba000000000c000000 REX.W movq rdx,0xc00000000    ;; debug: position 10370
0x165864f3a0ee   430  488b7c2410     REX.W movq rdi,[rsp+0x10]
0x165864f3a0f3   435  e8c87ffeff     call 0x165864f220c0     ;; code: CALL_IC, DEFAULT
0x165864f3a0f8   440  488b75f8       REX.W movq rsi,[rbp-0x8]
0x165864f3a0fc   444  4883c408       REX.W addq rsp,0x8
0x165864f3a100   448  bb06000000     movl rbx,0x6            ;; debug: position 10347
0x165864f3a105   453  e836fdffff     call 0x165864f39e40     ;; code: STUB, StoreGlobalViaContextStub, minor: 0
0x165864f3a10a   458  bb05000000     movl rbx,0x5            ;; debug: statement 10395
                                                             ;; debug: position 10412
0x165864f3a10f   463  e8cc05ffff     call 0x165864f2a6e0     ;; code: STUB, LoadGlobalViaContextStub, minor: 0
0x165864f3a114   468  50             push rax
0x165864f3a115   469  488b1424       REX.W movq rdx,[rsp]
0x165864f3a119   473  48b9e1c498cfdd1e0000 REX.W movq rcx,0x1eddcf98c4e1    ;; debug: position 10416
                                                             ;; object: 0x1eddcf98c4e1 <String[10]: formatDate>
0x165864f3a123   483  48b80000000012000000 REX.W movq rax,0x1200000000
0x165864f3a12d   493  e82ee4feff     call 0x165864f28560     ;; code: contextual, LOAD_IC, DEFAULT
0x165864f3a132   498  ff3424         push [rsp]
0x165864f3a135   501  4889442408     REX.W movq [rsp+0x8],rax
0x165864f3a13a   506  49baf9ad9ecfdd1e0000 REX.W movq r10,0x1eddcf9eadf9    ;; object: 0x1eddcf9eadf9 <String[17]: l, F d, Y g:i:s A>
0x165864f3a144   516  4152           push r10
0x165864f3a146   518  48ba0000000010000000 REX.W movq rdx,0x1000000000    ;; debug: position 10417
0x165864f3a150   528  488b7c2410     REX.W movq rdi,[rsp+0x10]
0x165864f3a155   533  e8667ffeff     call 0x165864f220c0     ;; code: CALL_IC, DEFAULT
0x165864f3a15a   538  488b75f8       REX.W movq rsi,[rbp-0x8]
0x165864f3a15e   542  4883c408       REX.W addq rsp,0x8
0x165864f3a162   546  bb07000000     movl rbx,0x7            ;; debug: position 10395
0x165864f3a167   551  e8d4fcffff     call 0x165864f39e40     ;; code: STUB, StoreGlobalViaContextStub, minor: 0
0x165864f3a16c   556  bb05000000     movl rbx,0x5            ;; debug: statement 10454
0x165864f3a171   561  e86a05ffff     call 0x165864f2a6e0     ;; code: STUB, LoadGlobalViaContextStub, minor: 0
0x165864f3a176   566  50             push rax
0x165864f3a177   567  488b1424       REX.W movq rdx,[rsp]
0x165864f3a17b   571  48b9f95a96cfdd1e0000 REX.W movq rcx,0x1eddcf965af9    ;; debug: position 10458
                                                             ;; object: 0x1eddcf965af9 <String[7]: setTime>
0x165864f3a185   581  48b80000000016000000 REX.W movq rax,0x1600000000
0x165864f3a18f   591  e8cce3feff     call 0x165864f28560     ;; code: contextual, LOAD_IC, DEFAULT
0x165864f3a194   596  ff3424         push [rsp]
0x165864f3a197   599  4889442408     REX.W movq [rsp+0x8],rax
0x165864f3a19c   604  bb05000000     movl rbx,0x5            ;; debug: position 10467
0x165864f3a1a1   609  e83a05ffff     call 0x165864f2a6e0     ;; code: STUB, LoadGlobalViaContextStub, minor: 0
0x165864f3a1a6   614  50             push rax
0x165864f3a1a7   615  488b1424       REX.W movq rdx,[rsp]
0x165864f3a1ab   619  48b9e14b96cfdd1e0000 REX.W movq rcx,0x1eddcf964be1    ;; debug: position 10471
                                                             ;; object: 0x1eddcf964be1 <String[7]: getTime>
0x165864f3a1b5   629  48b8000000001a000000 REX.W movq rax,0x1a00000000
0x165864f3a1bf   639  e89ce3feff     call 0x165864f28560     ;; code: contextual, LOAD_IC, DEFAULT
0x165864f3a1c4   644  ff3424         push [rsp]
0x165864f3a1c7   647  4889442408     REX.W movq [rsp+0x8],rax
0x165864f3a1cc   652  48ba0000000018000000 REX.W movq rdx,0x1800000000    ;; debug: position 10472
0x165864f3a1d6   662  488b7c2408     REX.W movq rdi,[rsp+0x8]
0x165864f3a1db   667  e8a045feff     call 0x165864f1e780     ;; code: CALL_IC, DEFAULT
0x165864f3a1e0   672  488b75f8       REX.W movq rsi,[rbp-0x8]
0x165864f3a1e4   676  48890424       REX.W movq [rsp],rax
0x165864f3a1e8   680  48b800000000eb8d5dd5 REX.W movq rax,0xd55d8deb00000000
0x165864f3a1f2   690  49ba00000000274258d0 REX.W movq r10,0xd058422700000000
0x165864f3a1fc   700  4933c2         REX.W xorq rax,r10
0x165864f3a1ff   703  5a             pop rdx                 ;; debug: position 10482
0x165864f3a200   704  488bc8         REX.W movq rcx,rax
0x165864f3a203   707  480bc2         REX.W orq rax,rdx
0x165864f3a206   710  a801           test al,0x1
0x165864f3a208   712  720c           jc 726  (0x165864f3a216)
0x165864f3a20a   714  488bc1         REX.W movq rax,rcx
0x165864f3a20d   717  e86ee3fdff     call 0x165864f18580     ;; code: BINARY_OP_IC, UNINITIALIZED (id = 181)
0x165864f3a212   722  a80a           test al,0xa
0x165864f3a214   724  eb0c           jmp 738  (0x165864f3a222)
0x165864f3a216   726  488bc2         REX.W movq rax,rdx
0x165864f3a219   729  4803c1         REX.W addq rax,rcx
0x165864f3a21c   732  0f80e8ffffff   jo 714  (0x165864f3a20a)
0x165864f3a222   738  50             push rax
0x165864f3a223   739  48ba0000000014000000 REX.W movq rdx,0x1400000000    ;; debug: position 10459
0x165864f3a22d   749  488b7c2410     REX.W movq rdi,[rsp+0x10]
0x165864f3a232   754  e8897efeff     call 0x165864f220c0     ;; code: CALL_IC, DEFAULT
0x165864f3a237   759  488b75f8       REX.W movq rsi,[rbp-0x8]
0x165864f3a23b   763  4883c408       REX.W addq rsp,0x8
0x165864f3a23f   767  488945e8       REX.W movq [rbp-0x18],rax
0x165864f3a243   771  48b979a194cfdd1e0000 REX.W movq rcx,0x1eddcf94a179    ;; debug: statement 10338
                                                             ;; object: 0x1eddcf94a179 <String[1]: i>
0x165864f3a24d   781  488b5627       REX.W movq rdx,[rsi+0x27]
0x165864f3a251   785  48b8000000000a000000 REX.W movq rax,0xa00000000
0x165864f3a25b   795  e800e3feff     call 0x165864f28560     ;; code: contextual, LOAD_IC, DEFAULT
0x165864f3a260   800  a801           test al,0x1
0x165864f3a262   802  7314           jnc 824  (0x165864f3a278)
0x165864f3a264   804  49ba0000000001000000 REX.W movq r10,0x100000000
0x165864f3a26e   814  4903c2         REX.W addq rax,r10
0x165864f3a271   817  711e           jno 849  (0x165864f3a291)
0x165864f3a273   819  492bc2         REX.W subq rax,r10
0x165864f3a276   822  eb05           jmp 829  (0x165864f3a27d)
0x165864f3a278   824  e8838cfeff     call 0x165864f22f00     ;; code: STUB, ToNumberStub, minor: 0
0x165864f3a27d   829  488bd0         REX.W movq rdx,rax
0x165864f3a280   832  48b80000000001000000 REX.W movq rax,0x100000000
0x165864f3a28a   842  e8f1e2fdff     call 0x165864f18580     ;; code: BINARY_OP_IC, UNINITIALIZED (id = 95)
0x165864f3a28f   847  a82d           test al,0x2d
0x165864f3a291   849  48b979a194cfdd1e0000 REX.W movq rcx,0x1eddcf94a179    ;; object: 0x1eddcf94a179 <String[1]: i>
0x165864f3a29b   859  488b5627       REX.W movq rdx,[rsi+0x27]
0x165864f3a29f   863  e85c81ffff     call 0x165864f32400     ;; code: STORE_IC, UNINITIALIZED
0x165864f3a2a4   868  48bb19af9ecfdd1e0000 REX.W movq rbx,0x1eddcf9eaf19    ;; object: 0x1eddcf9eaf19 Cell for 6144
0x165864f3a2ae   878  83430bfd       addl [rbx+0xb],0xfd
0x165864f3a2b2   882  791d           jns 913  (0x165864f3a2d1)
0x165864f3a2b4   884  e887c6ffff     call InterruptCheck  (0x165864f36940)    ;; code: BUILTIN
0x165864f3a2b9   889  48bb19af9ecfdd1e0000 REX.W movq rbx,0x1eddcf9eaf19    ;; object: 0x1eddcf9eaf19 Cell for 6144
0x165864f3a2c3   899  49ba0000000000180000 REX.W movq r10,0x180000000000
0x165864f3a2cd   909  4c895307       REX.W movq [rbx+0x7],r10
0x165864f3a2d1   913  48b979a194cfdd1e0000 REX.W movq rcx,0x1eddcf94a179    ;; debug: statement 10329
                                                             ;; debug: position 10327
                                                             ;; object: 0x1eddcf94a179 <String[1]: i>
0x165864f3a2db   923  488b5627       REX.W movq rdx,[rsi+0x27]
0x165864f3a2df   927  48b8000000000a000000 REX.W movq rax,0xa00000000
0x165864f3a2e9   937  e872e2feff     call 0x165864f28560     ;; code: contextual, LOAD_IC, DEFAULT
0x165864f3a2ee   942  50             push rax
0x165864f3a2ef   943  48b800000000f4010000 REX.W movq rax,0x1f400000000
0x165864f3a2f9   953  5a             pop rdx
0x165864f3a2fa   954  488bca         REX.W movq rcx,rdx
0x165864f3a2fd   957  480bc8         REX.W orq rcx,rax
0x165864f3a300   960  f6c101         testb rcx,0x1
0x165864f3a303   963  730e           jnc 979  (0x165864f3a313)
0x165864f3a305   965  483bd0         REX.W cmpq rdx,rax
0x165864f3a308   968  0f8c9afdffff   jl 360  (0x165864f3a0a8)
0x165864f3a30e   974  e921000000     jmp 1012  (0x165864f3a334)
0x165864f3a313   979  e8a825feff     call 0x165864f1c8c0     ;; code: COMPARE_IC, UNINITIALIZED (id = 84)
0x165864f3a318   984  a815           test al,0x15
0x165864f3a31a   986  eb0f           jmp 1003  (0x165864f3a32b)
0x165864f3a31c   988  493b45c0       REX.W cmpq rax,[r13-0x40]
0x165864f3a320   992  0f8482fdffff   jz 360  (0x165864f3a0a8)
0x165864f3a326   998  e909000000     jmp 1012  (0x165864f3a334)
0x165864f3a32b  1003  4885c0         REX.W testq rax,rax
0x165864f3a32e  1006  0f8c74fdffff   jl 360  (0x165864f3a0a8)
0x165864f3a334  1012  488b45e8       REX.W movq rax,[rbp-0x18]    ;; debug: statement 10592
0x165864f3a338  1016  48bb19af9ecfdd1e0000 REX.W movq rbx,0x1eddcf9eaf19    ;; object: 0x1eddcf9eaf19 Cell for 6144
0x165864f3a342  1026  83430bfa       addl [rbx+0xb],0xfa
0x165864f3a346  1030  791f           jns 1063  (0x165864f3a367)
0x165864f3a348  1032  50             push rax
0x165864f3a349  1033  e8f2c5ffff     call InterruptCheck  (0x165864f36940)    ;; code: BUILTIN
0x165864f3a34e  1038  58             pop rax
0x165864f3a34f  1039  48bb19af9ecfdd1e0000 REX.W movq rbx,0x1eddcf9eaf19    ;; object: 0x1eddcf9eaf19 Cell for 6144
0x165864f3a359  1049  49ba0000000000180000 REX.W movq r10,0x180000000000
0x165864f3a363  1059  4c895307       REX.W movq [rbx+0x7],r10
0x165864f3a367  1063  c9             leave                   ;; debug: statement 10591
0x165864f3a368  1064  c20800         ret 0x8
0x165864f3a36b  1067  498b45a8       REX.W movq rax,[r13-0x58]
0x165864f3a36f  1071  e9c4ffffff     jmp 1016  (0x165864f3a338)
0x165864f3a374  1076  0f1f4000       nop

Deoptimization Output Data (deopt points = 0)

Back edges (size = 1)
ast_id  pc_offset  loop_depth
    69        889           1

0x1eddcf9eb231: [TypeFeedbackInfo]
 - ic_total_count: 19, ic_with_type_info_count: 0, ic_generic_count: 0

RelocInfo (size = 160)
0x165864f39f40  position  (0)
0x165864f39f4d  embedded object  (0x1eddcf9eaf29 <FixedArray[16]>)
0x165864f39f67  code target (STUB)  (0x165864f08ae0)
0x165864f39f74  embedded object  (0x1eddcf9eb069 <FixedArray[8]>)
0x165864f39f90  code target (STUB)  (0x165864f08ae0)
0x165864f39f9e  code target (BUILTIN)  (0x165864f36a80)
0x165864f39fa2  statement position  (145)
0x165864f39fa2  position  (145)
0x165864f39fa4  embedded object  (0x1eddcf967ff1 <String[4]: Date>)
0x165864f39fbb  code target (LOAD_IC)  (0x165864f28560)
0x165864f39fc2  position  (149)
0x165864f39fc4  embedded object  (0x1eddcf990931 <String[9]: prototype>)
0x165864f39fd7  code target (LOAD_IC)  (0x165864f28560)
0x165864f39fde  embedded object  (0x1eddcf9eb0b9 <SharedFunctionInfo Date.formatDate>)
0x165864f39ff8  code target (STUB)  (0x165864f08ae0)
0x165864f39ffc  position  (171)
0x165864f39ffe  embedded object  (0x1eddcf98c4e1 <String[10]: formatDate>)
0x165864f3a008  code target with id (STORE_IC)  (0x165864f32400) (id=28)
0x165864f3a010  statement position  (10273)
0x165864f3a012  embedded object  (0x1eddcf9ead41 <String[4]: date>)
0x165864f3a01e  position  (10288)
0x165864f3a020  embedded object  (0x1eddcf967ff1 <String[4]: Date>)
0x165864f3a037  code target (LOAD_IC)  (0x165864f28560)
0x165864f3a03e  embedded object  (0x1eddcf9ead61 <String[16]: 1/1/2007 1:11:11>)
0x165864f3a048  position  (10284)
0x165864f3a069  code target (js construct call) (STUB)  (0x165864f1a640)
0x165864f3a082  code target (STUB)  (0x165864f08ae0)
0x165864f3a086  statement position  (10315)
0x165864f3a086  statement position  (10320)
0x165864f3a086  position  (10322)
0x165864f3a092  embedded object  (0x1eddcf94a179 <String[1]: i>)
0x165864f3a09f  code target (STORE_IC)  (0x165864f32400)
0x165864f3a0a8  statement position  (10347)
0x165864f3a0a8  position  (10365)
0x165864f3a0ae  code target (STUB)  (0x165864f2a6e0)
0x165864f3a0b7  position  (10369)
0x165864f3a0b9  embedded object  (0x1eddcf98c4e1 <String[10]: formatDate>)
0x165864f3a0cc  code target (LOAD_IC)  (0x165864f28560)
0x165864f3a0da  embedded object  (0x1eddcf9eadb1 <String[5]: Y-m-d>)
0x165864f3a0e4  position  (10370)
0x165864f3a0f4  code target (CALL_IC)  (0x165864f220c0)
0x165864f3a100  position  (10347)
0x165864f3a106  code target (STUB)  (0x165864f39e40)
0x165864f3a10a  statement position  (10395)
0x165864f3a10a  position  (10412)
0x165864f3a110  code target (STUB)  (0x165864f2a6e0)
0x165864f3a119  position  (10416)
0x165864f3a11b  embedded object  (0x1eddcf98c4e1 <String[10]: formatDate>)
0x165864f3a12e  code target (LOAD_IC)  (0x165864f28560)
0x165864f3a13c  embedded object  (0x1eddcf9eadf9 <String[17]: l, F d, Y g:i:s A>)
0x165864f3a146  position  (10417)
0x165864f3a156  code target (CALL_IC)  (0x165864f220c0)
0x165864f3a162  position  (10395)
0x165864f3a168  code target (STUB)  (0x165864f39e40)
0x165864f3a16c  statement position  (10454)
0x165864f3a172  code target (STUB)  (0x165864f2a6e0)
0x165864f3a17b  position  (10458)
0x165864f3a17d  embedded object  (0x1eddcf965af9 <String[7]: setTime>)
0x165864f3a190  code target (LOAD_IC)  (0x165864f28560)
0x165864f3a19c  position  (10467)
0x165864f3a1a2  code target (STUB)  (0x165864f2a6e0)
0x165864f3a1ab  position  (10471)
0x165864f3a1ad  embedded object  (0x1eddcf964be1 <String[7]: getTime>)
0x165864f3a1c0  code target (LOAD_IC)  (0x165864f28560)
0x165864f3a1cc  position  (10472)
0x165864f3a1dc  code target (CALL_IC)  (0x165864f1e780)
0x165864f3a1ff  position  (10482)
0x165864f3a20e  code target with id (BINARY_OP_IC)  (0x165864f18580) (id=181)
0x165864f3a223  position  (10459)
0x165864f3a233  code target (CALL_IC)  (0x165864f220c0)
0x165864f3a243  statement position  (10338)
0x165864f3a245  embedded object  (0x1eddcf94a179 <String[1]: i>)
0x165864f3a25c  code target (LOAD_IC)  (0x165864f28560)
0x165864f3a279  code target (STUB)  (0x165864f22f00)
0x165864f3a28b  code target with id (BINARY_OP_IC)  (0x165864f18580) (id=95)
0x165864f3a293  embedded object  (0x1eddcf94a179 <String[1]: i>)
0x165864f3a2a0  code target (STORE_IC)  (0x165864f32400)
0x165864f3a2a6  embedded object  (0x1eddcf9eaf19 Cell for 6144)
0x165864f3a2b5  code target (BUILTIN)  (0x165864f36940)
0x165864f3a2bb  embedded object  (0x1eddcf9eaf19 Cell for 6144)
0x165864f3a2d1  statement position  (10329)
0x165864f3a2d1  position  (10327)
0x165864f3a2d3  embedded object  (0x1eddcf94a179 <String[1]: i>)
0x165864f3a2ea  code target (LOAD_IC)  (0x165864f28560)
0x165864f3a314  code target with id (COMPARE_IC)  (0x165864f1c8c0) (id=84)
0x165864f3a334  statement position  (10592)
0x165864f3a33a  embedded object  (0x1eddcf9eaf19 Cell for 6144)
0x165864f3a34a  code target (BUILTIN)  (0x165864f36940)
0x165864f3a351  embedded object  (0x1eddcf9eaf19 Cell for 6144)
0x165864f3a367  statement position  (10591)

--- End code ---
--- Raw source ---
(t,u,v,y,z,A,s){
if(!%_IsConstructCall()){
return %_CallFunction(new c(),DateToString);
}
var B=%_ArgumentsLength();
var C;
if(B==0){
C=%DateCurrentTime();
(%DateSetValue(this,C,1));
}else if(B==1){
if((typeof(t)==='number')){
C=t;
}else if((typeof(t)==='string')){
CheckDateCacheCurrent();
var D=x;
if(D.string===t){
C=D.time;
}else{
C=DateParse(t);
if(!(!%_IsSmi(%IS_VAR(C))&&!(C==C))){
D.time=C;
D.string=t;
}
}
}else if((%_IsDate(t))){
C=(%_DateField(t,0));
}else{
var o=(%_ToPrimitive(t));
C=(typeof(o)==='string')?DateParse(o):i(o);
}
(%DateSetValue(this,C,1));
}else{
t=i(t);
u=i(u);
v=B>2?i(v):1;
y=B>3?i(y):0;
z=B>4?i(z):0;
A=B>5?i(A):0;
s=B>6?i(s):0;
t=(!(!%_IsSmi(%IS_VAR(t))&&!(t==t))&&
0<=(%_IsSmi(%IS_VAR(t))?t:%NumberToInteger(i(t)))&&
(%_IsSmi(%IS_VAR(t))?t:%NumberToInteger(i(t)))<=99)?1900+(%_IsSmi(%IS_VAR(t))?t:%NumberToInteger(i(t))):t;
var w=MakeDay(t,u,v);
var o=MakeTime(y,z,A,s);
C=MakeDate(w,o);
(%DateSetValue(this,C,0));
}
}


--- Code ---
source_position = 1541
kind = FUNCTION
name = Date
compiler = full-codegen
Instructions (size = 2500)
0x165864f3a4c0     0  55             push rbp                ;; debug: position 1541
0x165864f3a4c1     1  4889e5         REX.W movq rbp,rsp
0x165864f3a4c4     4  56             push rsi
0x165864f3a4c5     5  57             push rdi
0x165864f3a4c6     6  498b55a8       REX.W movq rdx,[r13-0x58]
0x165864f3a4ca    10  52             push rdx
0x165864f3a4cb    11  52             push rdx
0x165864f3a4cc    12  52             push rdx
0x165864f3a4cd    13  52             push rdx
0x165864f3a4ce    14  52             push rdx
0x165864f3a4cf    15  493ba548090000 REX.W cmpq rsp,[r13+0x948]
0x165864f3a4d6    22  7305           jnc 29  (0x165864f3a4dd)
0x165864f3a4d8    24  e8a3c5ffff     call StackCheck  (0x165864f36a80)    ;; code: BUILTIN
0x165864f3a4dd    29  488b4500       REX.W movq rax,[rbp+0x0]    ;; debug: statement 1558
0x165864f3a4e1    33  49ba000000000a000000 REX.W movq r10,0xa00000000
0x165864f3a4eb    43  4c3950f8       REX.W cmpq [rax-0x8],r10
0x165864f3a4ef    47  0f8503000000   jnz 56  (0x165864f3a4f8)
0x165864f3a4f5    53  488b00         REX.W movq rax,[rax]
0x165864f3a4f8    56  49ba0000000009000000 REX.W movq r10,0x900000000
0x165864f3a502    66  4c3950f0       REX.W cmpq [rax-0x10],r10
0x165864f3a506    70  eb0f           jmp 87  (0x165864f3a517)
0x165864f3a508    72  493b45c0       REX.W cmpq rax,[r13-0x40]
0x165864f3a50c    76  0f84cc000000   jz 286  (0x165864f3a5de)
0x165864f3a512    82  e906000000     jmp 93  (0x165864f3a51d)
0x165864f3a517    87  0f84c1000000   jz 286  (0x165864f3a5de)
0x165864f3a51d    93  488bc6         REX.W movq rax,rsi      ;; debug: statement 1584
                                                             ;; debug: position 1610
0x165864f3a520    96  ff702f         push [rax+0x2f]
0x165864f3a523    99  33c0           xorl rax,rax            ;; debug: position 1606
0x165864f3a525   101  488b3c24       REX.W movq rdi,[rsp]
0x165864f3a529   105  488b5df0       REX.W movq rbx,[rbp-0x10]
0x165864f3a52d   109  488b5b27       REX.W movq rbx,[rbx+0x27]
0x165864f3a531   113  488b5b57       REX.W movq rbx,[rbx+0x57]
0x165864f3a535   117  48ba0000000005000000 REX.W movq rdx,0x500000000
0x165864f3a53f   127  e8fc00feff     call 0x165864f1a640     ;; code: constructor, STUB, CallConstructStub, minor: 1
0x165864f3a544   132  488b75f8       REX.W movq rsi,[rbp-0x8]
0x165864f3a548   136  50             push rax
0x165864f3a549   137  488bc6         REX.W movq rax,rsi      ;; debug: position 1614
0x165864f3a54c   140  488b8007010000 REX.W movq rax,[rax+0x107]
0x165864f3a553   147  a801           test al,0x1
0x165864f3a555   149  0f843b000000   jz 214  (0x165864f3a596)
0x165864f3a55b   155  488b58ff       REX.W movq rbx,[rax-0x1]
0x165864f3a55f   159  807b0bca       cmpb [rbx+0xb],0xca
0x165864f3a563   163  0f852d000000   jnz 214  (0x165864f3a596)
0x165864f3a569   169  488bf8         REX.W movq rdi,rax
0x165864f3a56c   172  488b5727       REX.W movq rdx,[rdi+0x27]
0x165864f3a570   176  488b772f       REX.W movq rsi,[rdi+0x2f]
0x165864f3a574   180  48635a6b       REX.W movsxlq rbx,[rdx+0x6b]
0x165864f3a578   184  488b5717       REX.W movq rdx,[rdi+0x17]
0x165864f3a57c   188  33c0           xorl rax,rax
0x165864f3a57e   190  4883fb00       REX.W cmpq rbx,0x0
0x165864f3a582   194  7407           jz 203  (0x165864f3a58b)
0x165864f3a584   196  e8f7eefcff     call ArgumentsAdaptorTrampoline  (0x165864f09480)    ;; code: BUILTIN
0x165864f3a589   201  eb02           jmp 205  (0x165864f3a58d)
0x165864f3a58b   203  ffd2           call rdx
0x165864f3a58d   205  488b75f8       REX.W movq rsi,[rbp-0x8]
0x165864f3a591   209  e915000000     jmp 235  (0x165864f3a5ab)
0x165864f3a596   214  50             push rax
0x165864f3a597   215  b802000000     movl rax,0x2
0x165864f3a59c   220  48bbb08c280100000000 REX.W movq rbx,0x1288cb0
0x165864f3a5a6   230  e835e5fcff     call 0x165864f08ae0     ;; code: STUB, CEntryStub, minor: 0
0x165864f3a5ab   235  48bbc9b89ecfdd1e0000 REX.W movq rbx,0x1eddcf9eb8c9    ;; object: 0x1eddcf9eb8c9 Cell for 6144
0x165864f3a5b5   245  83430bd1       addl [rbx+0xb],0xd1
0x165864f3a5b9   249  791f           jns 282  (0x165864f3a5da)
0x165864f3a5bb   251  50             push rax
0x165864f3a5bc   252  e87fc3ffff     call InterruptCheck  (0x165864f36940)    ;; code: BUILTIN
0x165864f3a5c1   257  58             pop rax
0x165864f3a5c2   258  48bbc9b89ecfdd1e0000 REX.W movq rbx,0x1eddcf9eb8c9    ;; object: 0x1eddcf9eb8c9 Cell for 6144
0x165864f3a5cc   268  49ba0000000000180000 REX.W movq r10,0x180000000000
0x165864f3a5d6   278  4c895307       REX.W movq [rbx+0x7],r10
0x165864f3a5da   282  c9             leave                   ;; debug: statement 2492
0x165864f3a5db   283  c24000         ret 0x40
0x165864f3a5de   286  48b80000000007000000 REX.W movq rax,0x700000000    ;; debug: statement 1631
0x165864f3a5e8   296  488b5d00       REX.W movq rbx,[rbp+0x0]
0x165864f3a5ec   300  49ba000000000a000000 REX.W movq r10,0xa00000000
0x165864f3a5f6   310  4c3953f8       REX.W cmpq [rbx-0x8],r10
0x165864f3a5fa   314  7504           jnz 320  (0x165864f3a600)
0x165864f3a5fc   316  488b43e8       REX.W movq rax,[rbx-0x18]
0x165864f3a600   320  488945e8       REX.W movq [rbp-0x18],rax
0x165864f3a604   324  ff75e8         push [rbp-0x18]         ;; debug: statement 1658
                                                             ;; debug: statement 1665
                                                             ;; debug: position 1668
0x165864f3a607   327  48b80000000000000000 REX.W movq rax,(nil)
0x165864f3a611   337  5a             pop rdx
0x165864f3a612   338  e8690dffff     call 0x165864f2b380     ;; code: COMPARE_IC, UNINITIALIZED (id = 68)
0x165864f3a617   343  90             nop
0x165864f3a618   344  eb0f           jmp 361  (0x165864f3a629)
0x165864f3a61a   346  493b45c0       REX.W cmpq rax,[r13-0x40]
0x165864f3a61e   350  0f840e000000   jz 370  (0x165864f3a632)
0x165864f3a624   356  e949000000     jmp 434  (0x165864f3a672)
0x165864f3a629   361  4885c0         REX.W testq rax,rax
0x165864f3a62c   364  0f8540000000   jnz 434  (0x165864f3a672)
0x165864f3a632   370  33c0           xorl rax,rax            ;; debug: statement 1675
                                                             ;; debug: position 1676
0x165864f3a634   372  48bbc0bd270100000000 REX.W movq rbx,0x127bdc0
0x165864f3a63e   382  e89de4fcff     call 0x165864f08ae0     ;; code: STUB, CEntryStub, minor: 0
0x165864f3a643   387  488945e0       REX.W movq [rbp-0x20],rax
0x165864f3a647   391  ff7548         push [rbp+0x48]         ;; debug: statement 1697
                                                             ;; debug: position 1712
0x165864f3a64a   394  ff75e0         push [rbp-0x20]         ;; debug: position 1717
0x165864f3a64d   397  49ba0000000001000000 REX.W movq r10,0x100000000
0x165864f3a657   407  4152           push r10
0x165864f3a659   409  b803000000     movl rax,0x3
0x165864f3a65e   414  48bb70b6270100000000 REX.W movq rbx,0x127b670
0x165864f3a668   424  e873e4fcff     call 0x165864f08ae0     ;; code: STUB, CEntryStub, minor: 0
0x165864f3a66d   429  e903080000     jmp 2485  (0x165864f3ae75)
0x165864f3a672   434  ff75e8         push [rbp-0x18]         ;; debug: statement 1730
                                                             ;; debug: position 1733
0x165864f3a675   437  48b80000000001000000 REX.W movq rax,0x100000000
0x165864f3a67f   447  5a             pop rdx
0x165864f3a680   448  e8fb0cffff     call 0x165864f2b380     ;; code: COMPARE_IC, UNINITIALIZED (id = 105)
0x165864f3a685   453  90             nop
0x165864f3a686   454  eb0f           jmp 471  (0x165864f3a697)
0x165864f3a688   456  493b45c0       REX.W cmpq rax,[r13-0x40]
0x165864f3a68c   460  0f840e000000   jz 480  (0x165864f3a6a0)
0x165864f3a692   466  e9ca020000     jmp 1185  (0x165864f3a961)
0x165864f3a697   471  4885c0         REX.W testq rax,rax
0x165864f3a69a   474  0f85c1020000   jnz 1185  (0x165864f3a961)
0x165864f3a6a0   480  488b4540       REX.W movq rax,[rbp+0x40]    ;; debug: statement 1740
                                                             ;; debug: position 1751
0x165864f3a6a4   484  eb0f           jmp 501  (0x165864f3a6b5)
0x165864f3a6a6   486  493b45c0       REX.W cmpq rax,[r13-0x40]
0x165864f3a6aa   490  0f841b000000   jz 523  (0x165864f3a6cb)
0x165864f3a6b0   496  e923000000     jmp 536  (0x165864f3a6d8)
0x165864f3a6b5   501  a801           test al,0x1
0x165864f3a6b7   503  0f840e000000   jz 523  (0x165864f3a6cb)
0x165864f3a6bd   509  488b40ff       REX.W movq rax,[rax-0x1]
0x165864f3a6c1   513  493b4508       REX.W cmpq rax,[r13+0x8]
0x165864f3a6c5   517  0f850d000000   jnz 536  (0x165864f3a6d8)
0x165864f3a6cb   523  488b4540       REX.W movq rax,[rbp+0x40]    ;; debug: statement 1768
                                                             ;; debug: position 1770
0x165864f3a6cf   527  488945e0       REX.W movq [rbp-0x20],rax    ;; debug: position 1769
0x165864f3a6d3   531  e95e020000     jmp 1142  (0x165864f3a936)
0x165864f3a6d8   536  488b4540       REX.W movq rax,[rbp+0x40]    ;; debug: statement 1779
                                                             ;; debug: position 1790
0x165864f3a6dc   540  eb0f           jmp 557  (0x165864f3a6ed)
0x165864f3a6de   542  493b45c0       REX.W cmpq rax,[r13-0x40]
0x165864f3a6e2   546  0f841b000000   jz 579  (0x165864f3a703)
0x165864f3a6e8   552  e969010000     jmp 918  (0x165864f3a856)
0x165864f3a6ed   557  a801           test al,0x1
0x165864f3a6ef   559  0f8461010000   jz 918  (0x165864f3a856)
0x165864f3a6f5   565  488b50ff       REX.W movq rdx,[rax-0x1]
0x165864f3a6f9   569  807a0b80       cmpb [rdx+0xb],0x80
0x165864f3a6fd   573  0f8353010000   jnc 918  (0x165864f3a856)
0x165864f3a703   579  488bc6         REX.W movq rax,rsi      ;; debug: statement 1807
0x165864f3a706   582  ffb02f010000   push [rax+0x12f]
0x165864f3a70c   588  41ff75a8       push [r13-0x58]
0x165864f3a710   592  48ba0000000006000000 REX.W movq rdx,0x600000000
0x165864f3a71a   602  488b7c2408     REX.W movq rdi,[rsp+0x8]
0x165864f3a71f   607  e81c2affff     call 0x165864f2d140     ;; code: CALL_IC, DEFAULT
0x165864f3a724   612  488b75f8       REX.W movq rsi,[rbp-0x8]
0x165864f3a728   616  4883c408       REX.W addq rsp,0x8
0x165864f3a72c   620  488bc6         REX.W movq rax,rsi      ;; debug: statement 1832
                                                             ;; debug: position 1838
0x165864f3a72f   623  488b8097000000 REX.W movq rax,[rax+0x97]
0x165864f3a736   630  488945d8       REX.W movq [rbp-0x28],rax    ;; debug: position 1832
0x165864f3a73a   634  488b45d8       REX.W movq rax,[rbp-0x28]    ;; debug: statement 1841
                                                             ;; debug: position 1844
0x165864f3a73e   638  488bd0         REX.W movq rdx,rax
0x165864f3a741   641  48b9491791cfdd1e0000 REX.W movq rcx,0x1eddcf911749    ;; debug: position 1845
                                                             ;; object: 0x1eddcf911749 <String[6]: string>
0x165864f3a74b   651  48b80000000008000000 REX.W movq rax,0x800000000
0x165864f3a755   661  e80679ffff     call 0x165864f32060     ;; code: contextual, LOAD_IC, DEFAULT
0x165864f3a75a   666  50             push rax
0x165864f3a75b   667  488b4540       REX.W movq rax,[rbp+0x40]    ;; debug: position 1855
0x165864f3a75f   671  5a             pop rdx
0x165864f3a760   672  e8db0bfeff     call 0x165864f1b340     ;; code: COMPARE_IC, UNINITIALIZED (id = 189)
0x165864f3a765   677  90             nop
0x165864f3a766   678  eb0f           jmp 695  (0x165864f3a777)
0x165864f3a768   680  493b45c0       REX.W cmpq rax,[r13-0x40]
0x165864f3a76c   684  0f840e000000   jz 704  (0x165864f3a780)
0x165864f3a772   690  e932000000     jmp 745  (0x165864f3a7a9)
0x165864f3a777   695  4885c0         REX.W testq rax,rax
0x165864f3a77a   698  0f8529000000   jnz 745  (0x165864f3a7a9)
0x165864f3a780   704  488b45d8       REX.W movq rax,[rbp-0x28]    ;; debug: statement 1859
                                                             ;; debug: position 1861
0x165864f3a784   708  488bd0         REX.W movq rdx,rax
0x165864f3a787   711  48b971f199cfdd1e0000 REX.W movq rcx,0x1eddcf99f171    ;; debug: position 1862
                                                             ;; object: 0x1eddcf99f171 <String[4]: time>
0x165864f3a791   721  48b8000000000a000000 REX.W movq rax,0xa00000000
0x165864f3a79b   731  e8c078ffff     call 0x165864f32060     ;; code: contextual, LOAD_IC, DEFAULT
0x165864f3a7a0   736  488945e0       REX.W movq [rbp-0x20],rax    ;; debug: position 1860
0x165864f3a7a4   740  e9a8000000     jmp 913  (0x165864f3a851)
0x165864f3a7a9   745  488bc6         REX.W movq rax,rsi      ;; debug: statement 1876
                                                             ;; debug: position 1878
0x165864f3a7ac   748  ffb0ff000000   push [rax+0xff]
0x165864f3a7b2   754  41ff75a8       push [r13-0x58]
0x165864f3a7b6   758  ff7540         push [rbp+0x40]         ;; debug: position 1888
0x165864f3a7b9   761  48ba000000000c000000 REX.W movq rdx,0xc00000000    ;; debug: position 1878
0x165864f3a7c3   771  488b7c2410     REX.W movq rdi,[rsp+0x10]
0x165864f3a7c8   776  e87377ffff     call 0x165864f31f40     ;; code: CALL_IC, DEFAULT
0x165864f3a7cd   781  488b75f8       REX.W movq rsi,[rbp-0x8]
0x165864f3a7d1   785  4883c408       REX.W addq rsp,0x8
0x165864f3a7d5   789  488945e0       REX.W movq [rbp-0x20],rax    ;; debug: position 1877
0x165864f3a7d9   793  488b45e0       REX.W movq rax,[rbp-0x20]    ;; debug: statement 1892
                                                             ;; debug: position 1914
0x165864f3a7dd   797  eb0f           jmp 814  (0x165864f3a7ee)
0x165864f3a7df   799  493b45c0       REX.W cmpq rax,[r13-0x40]
0x165864f3a7e3   803  0f843a000000   jz 867  (0x165864f3a823)
0x165864f3a7e9   809  e90d000000     jmp 827  (0x165864f3a7fb)
0x165864f3a7ee   814  a801           test al,0x1
0x165864f3a7f0   816  0f842d000000   jz 867  (0x165864f3a823)
0x165864f3a7f6   822  e900000000     jmp 827  (0x165864f3a7fb)
0x165864f3a7fb   827  ff75e0         push [rbp-0x20]         ;; debug: position 1921
0x165864f3a7fe   830  488b45e0       REX.W movq rax,[rbp-0x20]    ;; debug: position 1924
0x165864f3a802   834  5a             pop rdx
0x165864f3a803   835  e8780bffff     call 0x165864f2b380     ;; code: COMPARE_IC, UNINITIALIZED (id = 269)
0x165864f3a808   840  90             nop
0x165864f3a809   841  eb0f           jmp 858  (0x165864f3a81a)
0x165864f3a80b   843  493b45c0       REX.W cmpq rax,[r13-0x40]
0x165864f3a80f   847  0f840e000000   jz 867  (0x165864f3a823)
0x165864f3a815   853  e937000000     jmp 913  (0x165864f3a851)
0x165864f3a81a   858  4885c0         REX.W testq rax,rax
0x165864f3a81d   861  0f852e000000   jnz 913  (0x165864f3a851)
0x165864f3a823   867  ff75d8         push [rbp-0x28]         ;; debug: statement 1930
                                                             ;; debug: position 1930
0x165864f3a826   870  488b45e0       REX.W movq rax,[rbp-0x20]    ;; debug: position 1937
0x165864f3a82a   874  48b971f199cfdd1e0000 REX.W movq rcx,0x1eddcf99f171    ;; debug: position 1936
                                                             ;; object: 0x1eddcf99f171 <String[4]: time>
0x165864f3a834   884  5a             pop rdx
0x165864f3a835   885  e8467bffff     call 0x165864f32380     ;; code: STORE_IC, UNINITIALIZED (id = 282)
0x165864f3a83a   890  ff75d8         push [rbp-0x28]         ;; debug: statement 1940
                                                             ;; debug: position 1940
0x165864f3a83d   893  488b4540       REX.W movq rax,[rbp+0x40]    ;; debug: position 1949
0x165864f3a841   897  48b9491791cfdd1e0000 REX.W movq rcx,0x1eddcf911749    ;; debug: position 1948
                                                             ;; object: 0x1eddcf911749 <String[6]: string>
0x165864f3a84b   907  5a             pop rdx
0x165864f3a84c   908  e82f7bffff     call 0x165864f32380     ;; code: STORE_IC, UNINITIALIZED (id = 298)
0x165864f3a851   913  e9e0000000     jmp 1142  (0x165864f3a936)
0x165864f3a856   918  488b4540       REX.W movq rax,[rbp+0x40]    ;; debug: statement 1962
                                                             ;; debug: position 1975
0x165864f3a85a   922  a801           test al,0x1
0x165864f3a85c   924  0f8430000000   jz 978  (0x165864f3a892)
0x165864f3a862   930  488b58ff       REX.W movq rbx,[rax-0x1]
0x165864f3a866   934  807b0bb6       cmpb [rbx+0xb],0xb6
0x165864f3a86a   938  eb0f           jmp 955  (0x165864f3a87b)
0x165864f3a86c   940  493b45c0       REX.W cmpq rax,[r13-0x40]
0x165864f3a870   944  0f840b000000   jz 961  (0x165864f3a881)
0x165864f3a876   950  e917000000     jmp 978  (0x165864f3a892)
0x165864f3a87b   955  0f8511000000   jnz 978  (0x165864f3a892)
0x165864f3a881   961  488b4540       REX.W movq rax,[rbp+0x40]    ;; debug: statement 1981
                                                             ;; debug: position 1996
0x165864f3a885   965  488b4017       REX.W movq rax,[rax+0x17]
0x165864f3a889   969  488945e0       REX.W movq [rbp-0x20],rax    ;; debug: position 1982
0x165864f3a88d   973  e9a4000000     jmp 1142  (0x165864f3a936)
0x165864f3a892   978  ff7540         push [rbp+0x40]         ;; debug: statement 2010
                                                             ;; debug: position 2031
0x165864f3a895   981  b801000000     movl rax,0x1
0x165864f3a89a   986  48bb00cff90000000000 REX.W movq rbx,0xf9cf00
0x165864f3a8a4   996  e837e2fcff     call 0x165864f08ae0     ;; code: STUB, CEntryStub, minor: 0
0x165864f3a8a9  1001  488945d0       REX.W movq [rbp-0x30],rax    ;; debug: position 2010
0x165864f3a8ad  1005  488b45d0       REX.W movq rax,[rbp-0x30]    ;; debug: statement 2036
                                                             ;; debug: position 2046
0x165864f3a8b1  1009  eb0f           jmp 1026  (0x165864f3a8c2)
0x165864f3a8b3  1011  493b45c0       REX.W cmpq rax,[r13-0x40]
0x165864f3a8b7  1015  0f841b000000   jz 1048  (0x165864f3a8d8)
0x165864f3a8bd  1021  e947000000     jmp 1097  (0x165864f3a909)
0x165864f3a8c2  1026  a801           test al,0x1
0x165864f3a8c4  1028  0f843f000000   jz 1097  (0x165864f3a909)
0x165864f3a8ca  1034  488b50ff       REX.W movq rdx,[rax-0x1]
0x165864f3a8ce  1038  807a0b80       cmpb [rdx+0xb],0x80
0x165864f3a8d2  1042  0f8331000000   jnc 1097  (0x165864f3a909)
0x165864f3a8d8  1048  488bc6         REX.W movq rax,rsi      ;; debug: position 2061
0x165864f3a8db  1051  ffb0ff000000   push [rax+0xff]
0x165864f3a8e1  1057  41ff75a8       push [r13-0x58]
0x165864f3a8e5  1061  ff75d0         push [rbp-0x30]         ;; debug: position 2071
0x165864f3a8e8  1064  48ba000000000e000000 REX.W movq rdx,0xe00000000    ;; debug: position 2061
0x165864f3a8f2  1074  488b7c2410     REX.W movq rdi,[rsp+0x10]
0x165864f3a8f7  1079  e84476ffff     call 0x165864f31f40     ;; code: CALL_IC, DEFAULT
0x165864f3a8fc  1084  488b75f8       REX.W movq rsi,[rbp-0x8]
0x165864f3a900  1088  4883c408       REX.W addq rsp,0x8
0x165864f3a904  1092  e929000000     jmp 1138  (0x165864f3a932)
0x165864f3a909  1097  488bc6         REX.W movq rax,rsi      ;; debug: position 2074
0x165864f3a90c  1100  ff704f         push [rax+0x4f]
0x165864f3a90f  1103  41ff75a8       push [r13-0x58]
0x165864f3a913  1107  ff75d0         push [rbp-0x30]         ;; debug: position 2076
0x165864f3a916  1110  48ba0000000010000000 REX.W movq rdx,0x1000000000    ;; debug: position 2074
0x165864f3a920  1120  488b7c2410     REX.W movq rdi,[rsp+0x10]
0x165864f3a925  1125  e81676ffff     call 0x165864f31f40     ;; code: CALL_IC, DEFAULT
0x165864f3a92a  1130  488b75f8       REX.W movq rsi,[rbp-0x8]
0x165864f3a92e  1134  4883c408       REX.W addq rsp,0x8
0x165864f3a932  1138  488945e0       REX.W movq [rbp-0x20],rax    ;; debug: position 2037
0x165864f3a936  1142  ff7548         push [rbp+0x48]         ;; debug: statement 2082
                                                             ;; debug: position 2097
0x165864f3a939  1145  ff75e0         push [rbp-0x20]         ;; debug: position 2102
0x165864f3a93c  1148  49ba0000000001000000 REX.W movq r10,0x100000000
0x165864f3a946  1158  4152           push r10
0x165864f3a948  1160  b803000000     movl rax,0x3
0x165864f3a94d  1165  48bb70b6270100000000 REX.W movq rbx,0x127b670
0x165864f3a957  1175  e884e1fcff     call 0x165864f08ae0     ;; code: STUB, CEntryStub, minor: 0
0x165864f3a95c  1180  e914050000     jmp 2485  (0x165864f3ae75)
0x165864f3a961  1185  488bc6         REX.W movq rax,rsi      ;; debug: statement 2116
                                                             ;; debug: position 2118
0x165864f3a964  1188  ff704f         push [rax+0x4f]
0x165864f3a967  1191  41ff75a8       push [r13-0x58]
0x165864f3a96b  1195  ff7540         push [rbp+0x40]         ;; debug: position 2120
0x165864f3a96e  1198  48ba0000000012000000 REX.W movq rdx,0x1200000000    ;; debug: position 2118
0x165864f3a978  1208  488b7c2410     REX.W movq rdi,[rsp+0x10]
0x165864f3a97d  1213  e8be75ffff     call 0x165864f31f40     ;; code: CALL_IC, DEFAULT
0x165864f3a982  1218  488b75f8       REX.W movq rsi,[rbp-0x8]
0x165864f3a986  1222  4883c408       REX.W addq rsp,0x8
0x165864f3a98a  1226  48894540       REX.W movq [rbp+0x40],rax    ;; debug: position 2117
0x165864f3a98e  1230  488bc6         REX.W movq rax,rsi      ;; debug: statement 2124
                                                             ;; debug: position 2126
0x165864f3a991  1233  ff704f         push [rax+0x4f]
0x165864f3a994  1236  41ff75a8       push [r13-0x58]
0x165864f3a998  1240  ff7538         push [rbp+0x38]         ;; debug: position 2128
0x165864f3a99b  1243  48ba0000000014000000 REX.W movq rdx,0x1400000000    ;; debug: position 2126
0x165864f3a9a5  1253  488b7c2410     REX.W movq rdi,[rsp+0x10]
0x165864f3a9aa  1258  e89175ffff     call 0x165864f31f40     ;; code: CALL_IC, DEFAULT
0x165864f3a9af  1263  488b75f8       REX.W movq rsi,[rbp-0x8]
0x165864f3a9b3  1267  4883c408       REX.W addq rsp,0x8
0x165864f3a9b7  1271  48894538       REX.W movq [rbp+0x38],rax    ;; debug: position 2125
0x165864f3a9bb  1275  ff75e8         push [rbp-0x18]         ;; debug: statement 2132
                                                             ;; debug: position 2134
0x165864f3a9be  1278  48b80000000002000000 REX.W movq rax,0x200000000
0x165864f3a9c8  1288  5a             pop rdx
0x165864f3a9c9  1289  e8f217ffff     call 0x165864f2c1c0     ;; code: COMPARE_IC, UNINITIALIZED (id = 468)
0x165864f3a9ce  1294  90             nop
0x165864f3a9cf  1295  eb0f           jmp 1312  (0x165864f3a9e0)
0x165864f3a9d1  1297  493b45c0       REX.W cmpq rax,[r13-0x40]
0x165864f3a9d5  1301  0f840e000000   jz 1321  (0x165864f3a9e9)
0x165864f3a9db  1307  e937000000     jmp 1367  (0x165864f3aa17)
0x165864f3a9e0  1312  4885c0         REX.W testq rax,rax
0x165864f3a9e3  1315  0f8e2e000000   jle 1367  (0x165864f3aa17)
0x165864f3a9e9  1321  488bc6         REX.W movq rax,rsi      ;; debug: position 2138
0x165864f3a9ec  1324  ff704f         push [rax+0x4f]
0x165864f3a9ef  1327  41ff75a8       push [r13-0x58]
0x165864f3a9f3  1331  ff7530         push [rbp+0x30]         ;; debug: position 2140
0x165864f3a9f6  1334  48ba0000000016000000 REX.W movq rdx,0x1600000000    ;; debug: position 2138
0x165864f3aa00  1344  488b7c2410     REX.W movq rdi,[rsp+0x10]
0x165864f3aa05  1349  e83675ffff     call 0x165864f31f40     ;; code: CALL_IC, DEFAULT
0x165864f3aa0a  1354  488b75f8       REX.W movq rsi,[rbp-0x8]
0x165864f3aa0e  1358  4883c408       REX.W addq rsp,0x8
0x165864f3aa12  1362  e90a000000     jmp 1377  (0x165864f3aa21)
0x165864f3aa17  1367  48b80000000001000000 REX.W movq rax,0x100000000    ;; debug: position 2143
0x165864f3aa21  1377  48894530       REX.W movq [rbp+0x30],rax    ;; debug: position 2133
0x165864f3aa25  1381  ff75e8         push [rbp-0x18]         ;; debug: statement 2146
                                                             ;; debug: position 2148
0x165864f3aa28  1384  48b80000000003000000 REX.W movq rax,0x300000000
0x165864f3aa32  1394  5a             pop rdx
0x165864f3aa33  1395  e88817ffff     call 0x165864f2c1c0     ;; code: COMPARE_IC, UNINITIALIZED (id = 502)
0x165864f3aa38  1400  90             nop
0x165864f3aa39  1401  eb0f           jmp 1418  (0x165864f3aa4a)
0x165864f3aa3b  1403  493b45c0       REX.W cmpq rax,[r13-0x40]
0x165864f3aa3f  1407  0f840e000000   jz 1427  (0x165864f3aa53)
0x165864f3aa45  1413  e937000000     jmp 1473  (0x165864f3aa81)
0x165864f3aa4a  1418  4885c0         REX.W testq rax,rax
0x165864f3aa4d  1421  0f8e2e000000   jle 1473  (0x165864f3aa81)
0x165864f3aa53  1427  488bc6         REX.W movq rax,rsi      ;; debug: position 2152
0x165864f3aa56  1430  ff704f         push [rax+0x4f]
0x165864f3aa59  1433  41ff75a8       push [r13-0x58]
0x165864f3aa5d  1437  ff7528         push [rbp+0x28]         ;; debug: position 2154
0x165864f3aa60  1440  48ba0000000018000000 REX.W movq rdx,0x1800000000    ;; debug: position 2152
0x165864f3aa6a  1450  488b7c2410     REX.W movq rdi,[rsp+0x10]
0x165864f3aa6f  1455  e8cc74ffff     call 0x165864f31f40     ;; code: CALL_IC, DEFAULT
0x165864f3aa74  1460  488b75f8       REX.W movq rsi,[rbp-0x8]
0x165864f3aa78  1464  4883c408       REX.W addq rsp,0x8
0x165864f3aa7c  1468  e90a000000     jmp 1483  (0x165864f3aa8b)
0x165864f3aa81  1473  48b80000000000000000 REX.W movq rax,(nil)    ;; debug: position 2157
0x165864f3aa8b  1483  48894528       REX.W movq [rbp+0x28],rax    ;; debug: position 2147
0x165864f3aa8f  1487  ff75e8         push [rbp-0x18]         ;; debug: statement 2160
                                                             ;; debug: position 2162
0x165864f3aa92  1490  48b80000000004000000 REX.W movq rax,0x400000000
0x165864f3aa9c  1500  5a             pop rdx
0x165864f3aa9d  1501  e81e17ffff     call 0x165864f2c1c0     ;; code: COMPARE_IC, UNINITIALIZED (id = 536)
0x165864f3aaa2  1506  90             nop
0x165864f3aaa3  1507  eb0f           jmp 1524  (0x165864f3aab4)
0x165864f3aaa5  1509  493b45c0       REX.W cmpq rax,[r13-0x40]
0x165864f3aaa9  1513  0f840e000000   jz 1533  (0x165864f3aabd)
0x165864f3aaaf  1519  e937000000     jmp 1579  (0x165864f3aaeb)
0x165864f3aab4  1524  4885c0         REX.W testq rax,rax
0x165864f3aab7  1527  0f8e2e000000   jle 1579  (0x165864f3aaeb)
0x165864f3aabd  1533  488bc6         REX.W movq rax,rsi      ;; debug: position 2166
0x165864f3aac0  1536  ff704f         push [rax+0x4f]
0x165864f3aac3  1539  41ff75a8       push [r13-0x58]
0x165864f3aac7  1543  ff7520         push [rbp+0x20]         ;; debug: position 2168
0x165864f3aaca  1546  48ba000000001a000000 REX.W movq rdx,0x1a00000000    ;; debug: position 2166
0x165864f3aad4  1556  488b7c2410     REX.W movq rdi,[rsp+0x10]
0x165864f3aad9  1561  e86274ffff     call 0x165864f31f40     ;; code: CALL_IC, DEFAULT
0x165864f3aade  1566  488b75f8       REX.W movq rsi,[rbp-0x8]
0x165864f3aae2  1570  4883c408       REX.W addq rsp,0x8
0x165864f3aae6  1574  e90a000000     jmp 1589  (0x165864f3aaf5)
0x165864f3aaeb  1579  48b80000000000000000 REX.W movq rax,(nil)    ;; debug: position 2171
0x165864f3aaf5  1589  48894520       REX.W movq [rbp+0x20],rax    ;; debug: position 2161
0x165864f3aaf9  1593  ff75e8         push [rbp-0x18]         ;; debug: statement 2174
                                                             ;; debug: position 2176
0x165864f3aafc  1596  48b80000000005000000 REX.W movq rax,0x500000000
0x165864f3ab06  1606  5a             pop rdx
0x165864f3ab07  1607  e8b416ffff     call 0x165864f2c1c0     ;; code: COMPARE_IC, UNINITIALIZED (id = 570)
0x165864f3ab0c  1612  90             nop
0x165864f3ab0d  1613  eb0f           jmp 1630  (0x165864f3ab1e)
0x165864f3ab0f  1615  493b45c0       REX.W cmpq rax,[r13-0x40]
0x165864f3ab13  1619  0f840e000000   jz 1639  (0x165864f3ab27)
0x165864f3ab19  1625  e937000000     jmp 1685  (0x165864f3ab55)
0x165864f3ab1e  1630  4885c0         REX.W testq rax,rax
0x165864f3ab21  1633  0f8e2e000000   jle 1685  (0x165864f3ab55)
0x165864f3ab27  1639  488bc6         REX.W movq rax,rsi      ;; debug: position 2180
0x165864f3ab2a  1642  ff704f         push [rax+0x4f]
0x165864f3ab2d  1645  41ff75a8       push [r13-0x58]
0x165864f3ab31  1649  ff7518         push [rbp+0x18]         ;; debug: position 2182
0x165864f3ab34  1652  48ba000000001c000000 REX.W movq rdx,0x1c00000000    ;; debug: position 2180
0x165864f3ab3e  1662  488b7c2410     REX.W movq rdi,[rsp+0x10]
0x165864f3ab43  1667  e8f873ffff     call 0x165864f31f40     ;; code: CALL_IC, DEFAULT
0x165864f3ab48  1672  488b75f8       REX.W movq rsi,[rbp-0x8]
0x165864f3ab4c  1676  4883c408       REX.W addq rsp,0x8
0x165864f3ab50  1680  e90a000000     jmp 1695  (0x165864f3ab5f)
0x165864f3ab55  1685  48b80000000000000000 REX.W movq rax,(nil)    ;; debug: position 2185
0x165864f3ab5f  1695  48894518       REX.W movq [rbp+0x18],rax    ;; debug: position 2175
0x165864f3ab63  1699  ff75e8         push [rbp-0x18]         ;; debug: statement 2188
                                                             ;; debug: position 2190
0x165864f3ab66  1702  48b80000000006000000 REX.W movq rax,0x600000000
0x165864f3ab70  1712  5a             pop rdx
0x165864f3ab71  1713  e84a16ffff     call 0x165864f2c1c0     ;; code: COMPARE_IC, UNINITIALIZED (id = 604)
0x165864f3ab76  1718  90             nop
0x165864f3ab77  1719  eb0f           jmp 1736  (0x165864f3ab88)
0x165864f3ab79  1721  493b45c0       REX.W cmpq rax,[r13-0x40]
0x165864f3ab7d  1725  0f840e000000   jz 1745  (0x165864f3ab91)
0x165864f3ab83  1731  e937000000     jmp 1791  (0x165864f3abbf)
0x165864f3ab88  1736  4885c0         REX.W testq rax,rax
0x165864f3ab8b  1739  0f8e2e000000   jle 1791  (0x165864f3abbf)
0x165864f3ab91  1745  488bc6         REX.W movq rax,rsi      ;; debug: position 2194
0x165864f3ab94  1748  ff704f         push [rax+0x4f]
0x165864f3ab97  1751  41ff75a8       push [r13-0x58]
0x165864f3ab9b  1755  ff7510         push [rbp+0x10]         ;; debug: position 2196
0x165864f3ab9e  1758  48ba000000001e000000 REX.W movq rdx,0x1e00000000    ;; debug: position 2194
0x165864f3aba8  1768  488b7c2410     REX.W movq rdi,[rsp+0x10]
0x165864f3abad  1773  e88e73ffff     call 0x165864f31f40     ;; code: CALL_IC, DEFAULT
0x165864f3abb2  1778  488b75f8       REX.W movq rsi,[rbp-0x8]
0x165864f3abb6  1782  4883c408       REX.W addq rsp,0x8
0x165864f3abba  1786  e90a000000     jmp 1801  (0x165864f3abc9)
0x165864f3abbf  1791  48b80000000000000000 REX.W movq rax,(nil)    ;; debug: position 2199
0x165864f3abc9  1801  48894510       REX.W movq [rbp+0x10],rax    ;; debug: position 2189
0x165864f3abcd  1805  488b4540       REX.W movq rax,[rbp+0x40]    ;; debug: statement 2202
                                                             ;; debug: position 2224
0x165864f3abd1  1809  eb0f           jmp 1826  (0x165864f3abe2)
0x165864f3abd3  1811  493b45c0       REX.W cmpq rax,[r13-0x40]
0x165864f3abd7  1815  0f843a000000   jz 1879  (0x165864f3ac17)
0x165864f3abdd  1821  e90d000000     jmp 1839  (0x165864f3abef)
0x165864f3abe2  1826  a801           test al,0x1
0x165864f3abe4  1828  0f842d000000   jz 1879  (0x165864f3ac17)
0x165864f3abea  1834  e900000000     jmp 1839  (0x165864f3abef)
0x165864f3abef  1839  ff7540         push [rbp+0x40]         ;; debug: position 2231
0x165864f3abf2  1842  488b4540       REX.W movq rax,[rbp+0x40]    ;; debug: position 2234
0x165864f3abf6  1846  5a             pop rdx
0x165864f3abf7  1847  e88407ffff     call 0x165864f2b380     ;; code: COMPARE_IC, UNINITIALIZED (id = 668)
0x165864f3abfc  1852  90             nop
0x165864f3abfd  1853  eb0f           jmp 1870  (0x165864f3ac0e)
0x165864f3abff  1855  493b45c0       REX.W cmpq rax,[r13-0x40]
0x165864f3ac03  1859  0f840e000000   jz 1879  (0x165864f3ac17)
0x165864f3ac09  1865  e9a7010000     jmp 2293  (0x165864f3adb5)
0x165864f3ac0e  1870  4885c0         REX.W testq rax,rax
0x165864f3ac11  1873  0f859e010000   jnz 2293  (0x165864f3adb5)
0x165864f3ac17  1879  6a00           push 0x0                ;; debug: position 2241
0x165864f3ac19  1881  488b4540       REX.W movq rax,[rbp+0x40]    ;; debug: position 2260
0x165864f3ac1d  1885  eb0f           jmp 1902  (0x165864f3ac2e)
0x165864f3ac1f  1887  493b45c0       REX.W cmpq rax,[r13-0x40]
0x165864f3ac23  1891  0f8412000000   jz 1915  (0x165864f3ac3b)
0x165864f3ac29  1897  e916000000     jmp 1924  (0x165864f3ac44)
0x165864f3ac2e  1902  a801           test al,0x1
0x165864f3ac30  1904  0f8405000000   jz 1915  (0x165864f3ac3b)
0x165864f3ac36  1910  e909000000     jmp 1924  (0x165864f3ac44)
0x165864f3ac3b  1915  488b4540       REX.W movq rax,[rbp+0x40]    ;; debug: position 2264
0x165864f3ac3f  1919  e93d000000     jmp 1985  (0x165864f3ac81)
0x165864f3ac44  1924  488bc6         REX.W movq rax,rsi      ;; debug: position 2283
0x165864f3ac47  1927  ff704f         push [rax+0x4f]
0x165864f3ac4a  1930  41ff75a8       push [r13-0x58]
0x165864f3ac4e  1934  ff7540         push [rbp+0x40]         ;; debug: position 2285
0x165864f3ac51  1937  48ba0000000020000000 REX.W movq rdx,0x2000000000    ;; debug: position 2283
0x165864f3ac5b  1947  488b7c2410     REX.W movq rdi,[rsp+0x10]
0x165864f3ac60  1952  e8db72ffff     call 0x165864f31f40     ;; code: CALL_IC, DEFAULT
0x165864f3ac65  1957  488b75f8       REX.W movq rsi,[rbp-0x8]
0x165864f3ac69  1961  48890424       REX.W movq [rsp],rax
0x165864f3ac6d  1965  b801000000     movl rax,0x1
0x165864f3ac72  1970  48bbf03d2a0100000000 REX.W movq rbx,0x12a3df0
0x165864f3ac7c  1980  e85fdefcff     call 0x165864f08ae0     ;; code: STUB, CEntryStub, minor: 0
0x165864f3ac81  1985  5a             pop rdx
0x165864f3ac82  1986  e839c4feff     call 0x165864f270c0     ;; code: COMPARE_IC, UNINITIALIZED (id = 677)
0x165864f3ac87  1991  90             nop
0x165864f3ac88  1992  eb0f           jmp 2009  (0x165864f3ac99)
0x165864f3ac8a  1994  493b45c0       REX.W cmpq rax,[r13-0x40]
0x165864f3ac8e  1998  0f840e000000   jz 2018  (0x165864f3aca2)
0x165864f3ac94  2004  e91c010000     jmp 2293  (0x165864f3adb5)
0x165864f3ac99  2009  4885c0         REX.W testq rax,rax
0x165864f3ac9c  2012  0f8f13010000   jg 2293  (0x165864f3adb5)
0x165864f3aca2  2018  488b4540       REX.W movq rax,[rbp+0x40]    ;; debug: position 2309
0x165864f3aca6  2022  eb0f           jmp 2039  (0x165864f3acb7)
0x165864f3aca8  2024  493b45c0       REX.W cmpq rax,[r13-0x40]
0x165864f3acac  2028  0f8412000000   jz 2052  (0x165864f3acc4)
0x165864f3acb2  2034  e915000000     jmp 2060  (0x165864f3accc)
0x165864f3acb7  2039  a801           test al,0x1
0x165864f3acb9  2041  0f8405000000   jz 2052  (0x165864f3acc4)
0x165864f3acbf  2047  e908000000     jmp 2060  (0x165864f3accc)
0x165864f3acc4  2052  ff7540         push [rbp+0x40]         ;; debug: position 2313
0x165864f3acc7  2055  e93e000000     jmp 2122  (0x165864f3ad0a)
0x165864f3accc  2060  488bc6         REX.W movq rax,rsi      ;; debug: position 2332
0x165864f3accf  2063  ff704f         push [rax+0x4f]
0x165864f3acd2  2066  41ff75a8       push [r13-0x58]
0x165864f3acd6  2070  ff7540         push [rbp+0x40]         ;; debug: position 2334
0x165864f3acd9  2073  48ba0000000022000000 REX.W movq rdx,0x2200000000    ;; debug: position 2332
0x165864f3ace3  2083  488b7c2410     REX.W movq rdi,[rsp+0x10]
0x165864f3ace8  2088  e85372ffff     call 0x165864f31f40     ;; code: CALL_IC, DEFAULT
0x165864f3aced  2093  488b75f8       REX.W movq rsi,[rbp-0x8]
0x165864f3acf1  2097  48890424       REX.W movq [rsp],rax
0x165864f3acf5  2101  b801000000     movl rax,0x1
0x165864f3acfa  2106  48bbf03d2a0100000000 REX.W movq rbx,0x12a3df0
0x165864f3ad04  2116  e8d7ddfcff     call 0x165864f08ae0     ;; code: STUB, CEntryStub, minor: 0
0x165864f3ad09  2121  50             push rax
0x165864f3ad0a  2122  48b80000000063000000 REX.W movq rax,0x6300000000
0x165864f3ad14  2132  5a             pop rdx
0x165864f3ad15  2133  e8a6c3feff     call 0x165864f270c0     ;; code: COMPARE_IC, UNINITIALIZED (id = 710)
0x165864f3ad1a  2138  90             nop
0x165864f3ad1b  2139  eb0f           jmp 2156  (0x165864f3ad2c)
0x165864f3ad1d  2141  493b45c0       REX.W cmpq rax,[r13-0x40]
0x165864f3ad21  2145  0f840e000000   jz 2165  (0x165864f3ad35)
0x165864f3ad27  2151  e989000000     jmp 2293  (0x165864f3adb5)
0x165864f3ad2c  2156  4885c0         REX.W testq rax,rax
0x165864f3ad2f  2159  0f8f80000000   jg 2293  (0x165864f3adb5)
0x165864f3ad35  2165  49ba000000006c070000 REX.W movq r10,0x76c00000000    ;; debug: position 2348
0x165864f3ad3f  2175  4152           push r10
0x165864f3ad41  2177  488b4540       REX.W movq rax,[rbp+0x40]    ;; debug: position 2366
0x165864f3ad45  2181  eb0f           jmp 2198  (0x165864f3ad56)
0x165864f3ad47  2183  493b45c0       REX.W cmpq rax,[r13-0x40]
0x165864f3ad4b  2187  0f8412000000   jz 2211  (0x165864f3ad63)
0x165864f3ad51  2193  e916000000     jmp 2220  (0x165864f3ad6c)
0x165864f3ad56  2198  a801           test al,0x1
0x165864f3ad58  2200  0f8405000000   jz 2211  (0x165864f3ad63)
0x165864f3ad5e  2206  e909000000     jmp 2220  (0x165864f3ad6c)
0x165864f3ad63  2211  488b4540       REX.W movq rax,[rbp+0x40]    ;; debug: position 2370
0x165864f3ad67  2215  e93d000000     jmp 2281  (0x165864f3ada9)
0x165864f3ad6c  2220  488bc6         REX.W movq rax,rsi      ;; debug: position 2389
0x165864f3ad6f  2223  ff704f         push [rax+0x4f]
0x165864f3ad72  2226  41ff75a8       push [r13-0x58]
0x165864f3ad76  2230  ff7540         push [rbp+0x40]         ;; debug: position 2391
0x165864f3ad79  2233  48ba0000000024000000 REX.W movq rdx,0x2400000000    ;; debug: position 2389
0x165864f3ad83  2243  488b7c2410     REX.W movq rdi,[rsp+0x10]
0x165864f3ad88  2248  e8b371ffff     call 0x165864f31f40     ;; code: CALL_IC, DEFAULT
0x165864f3ad8d  2253  488b75f8       REX.W movq rsi,[rbp-0x8]
0x165864f3ad91  2257  48890424       REX.W movq [rsp],rax
0x165864f3ad95  2261  b801000000     movl rax,0x1
0x165864f3ad9a  2266  48bbf03d2a0100000000 REX.W movq rbx,0x12a3df0
0x165864f3ada4  2276  e837ddfcff     call 0x165864f08ae0     ;; code: STUB, CEntryStub, minor: 0
0x165864f3ada9  2281  5a             pop rdx                 ;; debug: position 2348
0x165864f3adaa  2282  e8d1d7fdff     call 0x165864f18580     ;; code: BINARY_OP_IC, UNINITIALIZED (id = 744)
0x165864f3adaf  2287  90             nop
0x165864f3adb0  2288  e904000000     jmp 2297  (0x165864f3adb9)
0x165864f3adb5  2293  488b4540       REX.W movq rax,[rbp+0x40]    ;; debug: position 2396
0x165864f3adb9  2297  48894540       REX.W movq [rbp+0x40],rax    ;; debug: position 2203
0x165864f3adbd  2301  488bc6         REX.W movq rax,rsi      ;; debug: statement 2399
                                                             ;; debug: position 2405
0x165864f3adc0  2304  ff707f         push [rax+0x7f]
0x165864f3adc3  2307  41ff75a8       push [r13-0x58]
0x165864f3adc7  2311  ff7540         push [rbp+0x40]         ;; debug: position 2413
0x165864f3adca  2314  ff7538         push [rbp+0x38]         ;; debug: position 2415
0x165864f3adcd  2317  ff7530         push [rbp+0x30]         ;; debug: position 2417
0x165864f3add0  2320  48ba0000000026000000 REX.W movq rdx,0x2600000000    ;; debug: position 2405
0x165864f3adda  2330  488b7c2420     REX.W movq rdi,[rsp+0x20]
0x165864f3addf  2335  e8bccdfdff     call 0x165864f17ba0     ;; code: CALL_IC, DEFAULT
0x165864f3ade4  2340  488b75f8       REX.W movq rsi,[rbp-0x8]
0x165864f3ade8  2344  4883c408       REX.W addq rsp,0x8
0x165864f3adec  2348  488945c8       REX.W movq [rbp-0x38],rax    ;; debug: position 2399
0x165864f3adf0  2352  488bc6         REX.W movq rax,rsi      ;; debug: statement 2421
                                                             ;; debug: position 2427
0x165864f3adf3  2355  ff7077         push [rax+0x77]
0x165864f3adf6  2358  41ff75a8       push [r13-0x58]
0x165864f3adfa  2362  ff7528         push [rbp+0x28]         ;; debug: position 2436
0x165864f3adfd  2365  ff7520         push [rbp+0x20]         ;; debug: position 2438
0x165864f3ae00  2368  ff7518         push [rbp+0x18]         ;; debug: position 2440
0x165864f3ae03  2371  ff7510         push [rbp+0x10]         ;; debug: position 2442
0x165864f3ae06  2374  48ba0000000028000000 REX.W movq rdx,0x2800000000    ;; debug: position 2427
0x165864f3ae10  2384  488b7c2428     REX.W movq rdi,[rsp+0x28]
0x165864f3ae15  2389  e826f6feff     call 0x165864f2a440     ;; code: CALL_IC, DEFAULT
0x165864f3ae1a  2394  488b75f8       REX.W movq rsi,[rbp-0x8]
0x165864f3ae1e  2398  4883c408       REX.W addq rsp,0x8
0x165864f3ae22  2402  488945d0       REX.W movq [rbp-0x30],rax    ;; debug: position 2421
0x165864f3ae26  2406  488bc6         REX.W movq rax,rsi      ;; debug: statement 2446
                                                             ;; debug: position 2448
0x165864f3ae29  2409  ffb087000000   push [rax+0x87]
0x165864f3ae2f  2415  41ff75a8       push [r13-0x58]
0x165864f3ae33  2419  ff75c8         push [rbp-0x38]         ;; debug: position 2457
0x165864f3ae36  2422  ff75d0         push [rbp-0x30]         ;; debug: position 2459
0x165864f3ae39  2425  48ba000000002a000000 REX.W movq rdx,0x2a00000000    ;; debug: position 2448
0x165864f3ae43  2435  488b7c2418     REX.W movq rdi,[rsp+0x18]
0x165864f3ae48  2440  e8b389fdff     call 0x165864f13800     ;; code: CALL_IC, DEFAULT
0x165864f3ae4d  2445  488b75f8       REX.W movq rsi,[rbp-0x8]
0x165864f3ae51  2449  4883c408       REX.W addq rsp,0x8
0x165864f3ae55  2453  488945e0       REX.W movq [rbp-0x20],rax    ;; debug: position 2447
0x165864f3ae59  2457  ff7548         push [rbp+0x48]         ;; debug: statement 2463
                                                             ;; debug: position 2478
0x165864f3ae5c  2460  ff75e0         push [rbp-0x20]         ;; debug: position 2483
0x165864f3ae5f  2463  6a00           push 0x0
0x165864f3ae61  2465  b803000000     movl rax,0x3
0x165864f3ae66  2470  48bb70b6270100000000 REX.W movq rbx,0x127b670
0x165864f3ae70  2480  e86bdcfcff     call 0x165864f08ae0     ;; code: STUB, CEntryStub, minor: 0
0x165864f3ae75  2485  498b45a8       REX.W movq rax,[r13-0x58]
0x165864f3ae79  2489  e92df7ffff     jmp 235  (0x165864f3a5ab)
0x165864f3ae7e  2494  6690           nop

Deoptimization Output Data (deopt points = 0)

Back edges (size = 0)
ast_id  pc_offset  loop_depth

0x1eddcf9ebad9: [TypeFeedbackInfo]
 - ic_total_count: 34, ic_with_type_info_count: 0, ic_generic_count: 0

RelocInfo (size = 489)
0x165864f3a4c0  position  (1541)
0x165864f3a4d9  code target (BUILTIN)  (0x165864f36a80)
0x165864f3a4dd  statement position  (1558)
0x165864f3a51d  statement position  (1584)
0x165864f3a51d  position  (1610)
0x165864f3a523  position  (1606)
0x165864f3a540  code target (js construct call) (STUB)  (0x165864f1a640)
0x165864f3a549  position  (1614)
0x165864f3a585  code target (BUILTIN)  (0x165864f09480)
0x165864f3a5a7  code target (STUB)  (0x165864f08ae0)
0x165864f3a5ad  embedded object  (0x1eddcf9eb8c9 Cell for 6144)
0x165864f3a5bd  code target (BUILTIN)  (0x165864f36940)
0x165864f3a5c4  embedded object  (0x1eddcf9eb8c9 Cell for 6144)
0x165864f3a5da  statement position  (2492)
0x165864f3a5de  statement position  (1631)
0x165864f3a604  statement position  (1658)
0x165864f3a604  statement position  (1665)
0x165864f3a604  position  (1668)
0x165864f3a613  code target with id (COMPARE_IC)  (0x165864f2b380) (id=68)
0x165864f3a632  statement position  (1675)
0x165864f3a632  position  (1676)
0x165864f3a63f  code target (STUB)  (0x165864f08ae0)
0x165864f3a647  statement position  (1697)
0x165864f3a647  position  (1712)
0x165864f3a64a  position  (1717)
0x165864f3a669  code target (STUB)  (0x165864f08ae0)
0x165864f3a672  statement position  (1730)
0x165864f3a672  position  (1733)
0x165864f3a681  code target with id (COMPARE_IC)  (0x165864f2b380) (id=105)
0x165864f3a6a0  statement position  (1740)
0x165864f3a6a0  position  (1751)
0x165864f3a6cb  statement position  (1768)
0x165864f3a6cb  position  (1770)
0x165864f3a6cf  position  (1769)
0x165864f3a6d8  statement position  (1779)
0x165864f3a6d8  position  (1790)
0x165864f3a703  statement position  (1807)
0x165864f3a720  code target (CALL_IC)  (0x165864f2d140)
0x165864f3a72c  statement position  (1832)
0x165864f3a72c  position  (1838)
0x165864f3a736  position  (1832)
0x165864f3a73a  statement position  (1841)
0x165864f3a73a  position  (1844)
0x165864f3a741  position  (1845)
0x165864f3a743  embedded object  (0x1eddcf911749 <String[6]: string>)
0x165864f3a756  code target (LOAD_IC)  (0x165864f32060)
0x165864f3a75b  position  (1855)
0x165864f3a761  code target with id (COMPARE_IC)  (0x165864f1b340) (id=189)
0x165864f3a780  statement position  (1859)
0x165864f3a780  position  (1861)
0x165864f3a787  position  (1862)
0x165864f3a789  embedded object  (0x1eddcf99f171 <String[4]: time>)
0x165864f3a79c  code target (LOAD_IC)  (0x165864f32060)
0x165864f3a7a0  position  (1860)
0x165864f3a7a9  statement position  (1876)
0x165864f3a7a9  position  (1878)
0x165864f3a7b6  position  (1888)
0x165864f3a7b9  position  (1878)
0x165864f3a7c9  code target (CALL_IC)  (0x165864f31f40)
0x165864f3a7d5  position  (1877)
0x165864f3a7d9  statement position  (1892)
0x165864f3a7d9  position  (1914)
0x165864f3a7fb  position  (1921)
0x165864f3a7fe  position  (1924)
0x165864f3a804  code target with id (COMPARE_IC)  (0x165864f2b380) (id=269)
0x165864f3a823  statement position  (1930)
0x165864f3a823  position  (1930)
0x165864f3a826  position  (1937)
0x165864f3a82a  position  (1936)
0x165864f3a82c  embedded object  (0x1eddcf99f171 <String[4]: time>)
0x165864f3a836  code target with id (STORE_IC)  (0x165864f32380) (id=282)
0x165864f3a83a  statement position  (1940)
0x165864f3a83a  position  (1940)
0x165864f3a83d  position  (1949)
0x165864f3a841  position  (1948)
0x165864f3a843  embedded object  (0x1eddcf911749 <String[6]: string>)
0x165864f3a84d  code target with id (STORE_IC)  (0x165864f32380) (id=298)
0x165864f3a856  statement position  (1962)
0x165864f3a856  position  (1975)
0x165864f3a881  statement position  (1981)
0x165864f3a881  position  (1996)
0x165864f3a889  position  (1982)
0x165864f3a892  statement position  (2010)
0x165864f3a892  position  (2031)
0x165864f3a8a5  code target (STUB)  (0x165864f08ae0)
0x165864f3a8a9  position  (2010)
0x165864f3a8ad  statement position  (2036)
0x165864f3a8ad  position  (2046)
0x165864f3a8d8  position  (2061)
0x165864f3a8e5  position  (2071)
0x165864f3a8e8  position  (2061)
0x165864f3a8f8  code target (CALL_IC)  (0x165864f31f40)
0x165864f3a909  position  (2074)
0x165864f3a913  position  (2076)
0x165864f3a916  position  (2074)
0x165864f3a926  code target (CALL_IC)  (0x165864f31f40)
0x165864f3a932  position  (2037)
0x165864f3a936  statement position  (2082)
0x165864f3a936  position  (2097)
0x165864f3a939  position  (2102)
0x165864f3a958  code target (STUB)  (0x165864f08ae0)
0x165864f3a961  statement position  (2116)
0x165864f3a961  position  (2118)
0x165864f3a96b  position  (2120)
0x165864f3a96e  position  (2118)
0x165864f3a97e  code target (CALL_IC)  (0x165864f31f40)
0x165864f3a98a  position  (2117)
0x165864f3a98e  statement position  (2124)
0x165864f3a98e  position  (2126)
0x165864f3a998  position  (2128)
0x165864f3a99b  position  (2126)
0x165864f3a9ab  code target (CALL_IC)  (0x165864f31f40)
0x165864f3a9b7  position  (2125)
0x165864f3a9bb  statement position  (2132)
0x165864f3a9bb  position  (2134)
0x165864f3a9ca  code target with id (COMPARE_IC)  (0x165864f2c1c0) (id=468)
0x165864f3a9e9  position  (2138)
0x165864f3a9f3  position  (2140)
0x165864f3a9f6  position  (2138)
0x165864f3aa06  code target (CALL_IC)  (0x165864f31f40)
0x165864f3aa17  position  (2143)
0x165864f3aa21  position  (2133)
0x165864f3aa25  statement position  (2146)
0x165864f3aa25  position  (2148)
0x165864f3aa34  code target with id (COMPARE_IC)  (0x165864f2c1c0) (id=502)
0x165864f3aa53  position  (2152)
0x165864f3aa5d  position  (2154)
0x165864f3aa60  position  (2152)
0x165864f3aa70  code target (CALL_IC)  (0x165864f31f40)
0x165864f3aa81  position  (2157)
0x165864f3aa8b  position  (2147)
0x165864f3aa8f  statement position  (2160)
0x165864f3aa8f  position  (2162)
0x165864f3aa9e  code target with id (COMPARE_IC)  (0x165864f2c1c0) (id=536)
0x165864f3aabd  position  (2166)
0x165864f3aac7  position  (2168)
0x165864f3aaca  position  (2166)
0x165864f3aada  code target (CALL_IC)  (0x165864f31f40)
0x165864f3aaeb  position  (2171)
0x165864f3aaf5  position  (2161)
0x165864f3aaf9  statement position  (2174)
0x165864f3aaf9  position  (2176)
0x165864f3ab08  code target with id (COMPARE_IC)  (0x165864f2c1c0) (id=570)
0x165864f3ab27  position  (2180)
0x165864f3ab31  position  (2182)
0x165864f3ab34  position  (2180)
0x165864f3ab44  code target (CALL_IC)  (0x165864f31f40)
0x165864f3ab55  position  (2185)
0x165864f3ab5f  position  (2175)
0x165864f3ab63  statement position  (2188)
0x165864f3ab63  position  (2190)
0x165864f3ab72  code target with id (COMPARE_IC)  (0x165864f2c1c0) (id=604)
0x165864f3ab91  position  (2194)
0x165864f3ab9b  position  (2196)
0x165864f3ab9e  position  (2194)
0x165864f3abae  code target (CALL_IC)  (0x165864f31f40)
0x165864f3abbf  position  (2199)
0x165864f3abc9  position  (2189)
0x165864f3abcd  statement position  (2202)
0x165864f3abcd  position  (2224)
0x165864f3abef  position  (2231)
0x165864f3abf2  position  (2234)
0x165864f3abf8  code target with id (COMPARE_IC)  (0x165864f2b380) (id=668)
0x165864f3ac17  position  (2241)
0x165864f3ac19  position  (2260)
0x165864f3ac3b  position  (2264)
0x165864f3ac44  position  (2283)
0x165864f3ac4e  position  (2285)
0x165864f3ac51  position  (2283)
0x165864f3ac61  code target (CALL_IC)  (0x165864f31f40)
0x165864f3ac7d  code target (STUB)  (0x165864f08ae0)
0x165864f3ac83  code target with id (COMPARE_IC)  (0x165864f270c0) (id=677)
0x165864f3aca2  position  (2309)
0x165864f3acc4  position  (2313)
0x165864f3accc  position  (2332)
0x165864f3acd6  position  (2334)
0x165864f3acd9  position  (2332)
0x165864f3ace9  code target (CALL_IC)  (0x165864f31f40)
0x165864f3ad05  code target (STUB)  (0x165864f08ae0)
0x165864f3ad16  code target with id (COMPARE_IC)  (0x165864f270c0) (id=710)
0x165864f3ad35  position  (2348)
0x165864f3ad41  position  (2366)
0x165864f3ad63  position  (2370)
0x165864f3ad6c  position  (2389)
0x165864f3ad76  position  (2391)
0x165864f3ad79  position  (2389)
0x165864f3ad89  code target (CALL_IC)  (0x165864f31f40)
0x165864f3ada5  code target (STUB)  (0x165864f08ae0)
0x165864f3ada9  position  (2348)
0x165864f3adab  code target with id (BINARY_OP_IC)  (0x165864f18580) (id=744)
0x165864f3adb5  position  (2396)
0x165864f3adb9  position  (2203)
0x165864f3adbd  statement position  (2399)
0x165864f3adbd  position  (2405)
0x165864f3adc7  position  (2413)
0x165864f3adca  position  (2415)
0x165864f3adcd  position  (2417)
0x165864f3add0  position  (2405)
0x165864f3ade0  code target (CALL_IC)  (0x165864f17ba0)
0x165864f3adec  position  (2399)
0x165864f3adf0  statement position  (2421)
0x165864f3adf0  position  (2427)
0x165864f3adfa  position  (2436)
0x165864f3adfd  position  (2438)
0x165864f3ae00  position  (2440)
0x165864f3ae03  position  (2442)
0x165864f3ae06  position  (2427)
0x165864f3ae16  code target (CALL_IC)  (0x165864f2a440)
0x165864f3ae22  position  (2421)
0x165864f3ae26  statement position  (2446)
0x165864f3ae26  position  (2448)
0x165864f3ae33  position  (2457)
0x165864f3ae36  position  (2459)
0x165864f3ae39  position  (2448)
0x165864f3ae49  code target (CALL_IC)  (0x165864f13800)
0x165864f3ae55  position  (2447)
0x165864f3ae59  statement position  (2463)
0x165864f3ae59  position  (2478)
0x165864f3ae5c  position  (2483)
0x165864f3ae71  code target (STUB)  (0x165864f08ae0)

--- End code ---
--- Raw source ---
(){
if(!V){
V=%DateCacheVersion();
if(!V)return;
}
if(V[0]==W){
return;
}
W=V[0];
k=$NaN;
l=(void 0);
x.time=$NaN;
x.string=null;
}


--- Code ---
source_position = 14316
kind = FUNCTION
name = CheckDateCacheCurrent
compiler = full-codegen
Instructions (size = 660)
0x165864f3af00     0  55             push rbp                ;; debug: position 14316
0x165864f3af01     1  4889e5         REX.W movq rbp,rsp
0x165864f3af04     4  56             push rsi
0x165864f3af05     5  57             push rdi
0x165864f3af06     6  493ba548090000 REX.W cmpq rsp,[r13+0x948]
0x165864f3af0d    13  7305           jnc 20  (0x165864f3af14)
0x165864f3af0f    15  e86cbbffff     call StackCheck  (0x165864f36a80)    ;; code: BUILTIN
0x165864f3af14    20  488bc6         REX.W movq rax,rsi      ;; debug: statement 14320
                                                             ;; debug: position 14324
0x165864f3af17    23  488b801f010000 REX.W movq rax,[rax+0x11f]
0x165864f3af1e    30  e8bda6feff     call 0x165864f255e0     ;; code: TO_BOOLEAN_IC, UNINITIALIZED (id = 12)
0x165864f3af23    35  4885c0         REX.W testq rax,rax
0x165864f3af26    38  0f85a5000000   jnz 209  (0x165864f3afd1)
0x165864f3af2c    44  33c0           xorl rax,rax            ;; debug: statement 14328
                                                             ;; debug: position 14329
0x165864f3af2e    46  48bbe0c8270100000000 REX.W movq rbx,0x127c8e0
0x165864f3af38    56  e8a3dbfcff     call 0x165864f08ae0     ;; code: STUB, CEntryStub, minor: 0
0x165864f3af3d    61  488bce         REX.W movq rcx,rsi
0x165864f3af40    64  4889811f010000 REX.W movq [rcx+0x11f],rax
0x165864f3af47    71  488bd0         REX.W movq rdx,rax
0x165864f3af4a    74  f6c201         testb rdx,0x1
0x165864f3af4d    77  0f8429000000   jz 124  (0x165864f3af7c)
0x165864f3af53    83  488d991f010000 REX.W leaq rbx,[rcx+0x11f]
0x165864f3af5a    90  4881e20000f0ff REX.W andq rdx,0xfffffffffff00000
0x165864f3af61    97  f6420804       testb [rdx+0x8],0x4
0x165864f3af65   101  7415           jz 124  (0x165864f3af7c)
0x165864f3af67   103  48c7c20000f0ff REX.W movq rdx,0xfff00000
0x165864f3af6e   110  4823d1         REX.W andq rdx,rcx
0x165864f3af71   113  f6420808       testb [rdx+0x8],0x8
0x165864f3af75   117  7405           jz 124  (0x165864f3af7c)
0x165864f3af77   119  e8c449ffff     call 0x165864f2f940     ;; code: STUB, RecordWriteStub, minor: 801
0x165864f3af7c   124  488bc6         REX.W movq rax,rsi      ;; debug: statement 14351
                                                             ;; debug: position 14355
0x165864f3af7f   127  488b801f010000 REX.W movq rax,[rax+0x11f]
0x165864f3af86   134  e855a6feff     call 0x165864f255e0     ;; code: TO_BOOLEAN_IC, UNINITIALIZED (id = 35)
0x165864f3af8b   139  4885c0         REX.W testq rax,rax
0x165864f3af8e   142  0f853d000000   jnz 209  (0x165864f3afd1)
0x165864f3af94   148  48b8894190cfdd1e0000 REX.W movq rax,0x1eddcf904189    ;; debug: statement 14357
                                                             ;; object: 0x1eddcf904189 <undefined>
0x165864f3af9e   158  48bb21bc9ecfdd1e0000 REX.W movq rbx,0x1eddcf9ebc21    ;; object: 0x1eddcf9ebc21 Cell for 6144
0x165864f3afa8   168  83430bd1       addl [rbx+0xb],0xd1
0x165864f3afac   172  791f           jns 205  (0x165864f3afcd)
0x165864f3afae   174  50             push rax
0x165864f3afaf   175  e88cb9ffff     call InterruptCheck  (0x165864f36940)    ;; code: BUILTIN
0x165864f3afb4   180  58             pop rax
0x165864f3afb5   181  48bb21bc9ecfdd1e0000 REX.W movq rbx,0x1eddcf9ebc21    ;; object: 0x1eddcf9ebc21 Cell for 6144
0x165864f3afbf   191  49ba0000000000180000 REX.W movq r10,0x180000000000
0x165864f3afc9   201  4c895307       REX.W movq [rbx+0x7],r10
0x165864f3afcd   205  c9             leave                   ;; debug: statement 14446
0x165864f3afce   206  c20800         ret 0x8
0x165864f3afd1   209  488bc6         REX.W movq rax,rsi      ;; debug: statement 14367
                                                             ;; debug: position 14370
0x165864f3afd4   212  ffb01f010000   push [rax+0x11f]
0x165864f3afda   218  48b80000000000000000 REX.W movq rax,(nil)
0x165864f3afe4   228  488bc8         REX.W movq rcx,rax
0x165864f3afe7   231  5a             pop rdx
0x165864f3afe8   232  48b80000000004000000 REX.W movq rax,0x400000000    ;; debug: position 14371
0x165864f3aff2   242  e8c910feff     call 0x165864f1c0c0     ;; code: KEYED_LOAD_IC, DEFAULT
0x165864f3aff7   247  50             push rax
0x165864f3aff8   248  488bc6         REX.W movq rax,rsi      ;; debug: position 14376
0x165864f3affb   251  488b8027010000 REX.W movq rax,[rax+0x127]
0x165864f3b002   258  5a             pop rdx
0x165864f3b003   259  e87803ffff     call 0x165864f2b380     ;; code: COMPARE_IC, UNINITIALIZED (id = 45)
0x165864f3b008   264  90             nop
0x165864f3b009   265  eb0f           jmp 282  (0x165864f3b01a)
0x165864f3b00b   267  493b45c0       REX.W cmpq rax,[r13-0x40]
0x165864f3b00f   271  0f840e000000   jz 291  (0x165864f3b023)
0x165864f3b015   277  e918000000     jmp 306  (0x165864f3b032)
0x165864f3b01a   282  4885c0         REX.W testq rax,rax
0x165864f3b01d   285  0f850f000000   jnz 306  (0x165864f3b032)
0x165864f3b023   291  48b8894190cfdd1e0000 REX.W movq rax,0x1eddcf904189    ;; debug: statement 14380
                                                             ;; object: 0x1eddcf904189 <undefined>
0x165864f3b02d   301  e96cffffff     jmp 158  (0x165864f3af9e)
0x165864f3b032   306  488bc6         REX.W movq rax,rsi      ;; debug: statement 14390
                                                             ;; debug: position 14392
0x165864f3b035   309  ffb01f010000   push [rax+0x11f]
0x165864f3b03b   315  48b80000000000000000 REX.W movq rax,(nil)
0x165864f3b045   325  488bc8         REX.W movq rcx,rax
0x165864f3b048   328  5a             pop rdx
0x165864f3b049   329  48b80000000006000000 REX.W movq rax,0x600000000    ;; debug: position 14393
0x165864f3b053   339  e86810feff     call 0x165864f1c0c0     ;; code: KEYED_LOAD_IC, DEFAULT
0x165864f3b058   344  488bce         REX.W movq rcx,rsi      ;; debug: position 14391
0x165864f3b05b   347  48898127010000 REX.W movq [rcx+0x127],rax
0x165864f3b062   354  488bd0         REX.W movq rdx,rax
0x165864f3b065   357  f6c201         testb rdx,0x1
0x165864f3b068   360  0f8429000000   jz 407  (0x165864f3b097)
0x165864f3b06e   366  488d9927010000 REX.W leaq rbx,[rcx+0x127]
0x165864f3b075   373  4881e20000f0ff REX.W andq rdx,0xfffffffffff00000
0x165864f3b07c   380  f6420804       testb [rdx+0x8],0x4
0x165864f3b080   384  7415           jz 407  (0x165864f3b097)
0x165864f3b082   386  48c7c20000f0ff REX.W movq rdx,0xfff00000
0x165864f3b089   393  4823d1         REX.W andq rdx,rcx
0x165864f3b08c   396  f6420808       testb [rdx+0x8],0x8
0x165864f3b090   400  7405           jz 407  (0x165864f3b097)
0x165864f3b092   402  e8a948ffff     call 0x165864f2f940     ;; code: STUB, RecordWriteStub, minor: 801
0x165864f3b097   407  48b9099294cfdd1e0000 REX.W movq rcx,0x1eddcf949209    ;; debug: statement 14398
                                                             ;; debug: position 14400
                                                             ;; object: 0x1eddcf949209 <String[4]: $NaN>
0x165864f3b0a1   417  488b5627       REX.W movq rdx,[rsi+0x27]
0x165864f3b0a5   421  48b80000000008000000 REX.W movq rax,0x800000000
0x165864f3b0af   431  e8acd4feff     call 0x165864f28560     ;; code: contextual, LOAD_IC, DEFAULT
0x165864f3b0b4   436  488bce         REX.W movq rcx,rsi      ;; debug: position 14399
0x165864f3b0b7   439  48894157       REX.W movq [rcx+0x57],rax
0x165864f3b0bb   443  488bd0         REX.W movq rdx,rax
0x165864f3b0be   446  f6c201         testb rdx,0x1
0x165864f3b0c1   449  0f8426000000   jz 493  (0x165864f3b0ed)
0x165864f3b0c7   455  488d5957       REX.W leaq rbx,[rcx+0x57]
0x165864f3b0cb   459  4881e20000f0ff REX.W andq rdx,0xfffffffffff00000
0x165864f3b0d2   466  f6420804       testb [rdx+0x8],0x4
0x165864f3b0d6   470  7415           jz 493  (0x165864f3b0ed)
0x165864f3b0d8   472  48c7c20000f0ff REX.W movq rdx,0xfff00000
0x165864f3b0df   479  4823d1         REX.W andq rdx,rcx
0x165864f3b0e2   482  f6420808       testb [rdx+0x8],0x8
0x165864f3b0e6   486  7405           jz 493  (0x165864f3b0ed)
0x165864f3b0e8   488  e85348ffff     call 0x165864f2f940     ;; code: STUB, RecordWriteStub, minor: 801
0x165864f3b0ed   493  498b45a8       REX.W movq rax,[r13-0x58]    ;; debug: statement 14406
                                                             ;; debug: position 14407
0x165864f3b0f1   497  488bce         REX.W movq rcx,rsi
0x165864f3b0f4   500  4889415f       REX.W movq [rcx+0x5f],rax
0x165864f3b0f8   504  488bd0         REX.W movq rdx,rax
0x165864f3b0fb   507  f6c201         testb rdx,0x1
0x165864f3b0fe   510  0f8426000000   jz 554  (0x165864f3b12a)
0x165864f3b104   516  488d595f       REX.W leaq rbx,[rcx+0x5f]
0x165864f3b108   520  4881e20000f0ff REX.W andq rdx,0xfffffffffff00000
0x165864f3b10f   527  f6420804       testb [rdx+0x8],0x4
0x165864f3b113   531  7415           jz 554  (0x165864f3b12a)
0x165864f3b115   533  48c7c20000f0ff REX.W movq rdx,0xfff00000
0x165864f3b11c   540  4823d1         REX.W andq rdx,rcx
0x165864f3b11f   543  f6420808       testb [rdx+0x8],0x8
0x165864f3b123   547  7405           jz 554  (0x165864f3b12a)
0x165864f3b125   549  e81648ffff     call 0x165864f2f940     ;; code: STUB, RecordWriteStub, minor: 801
0x165864f3b12a   554  488bc6         REX.W movq rax,rsi      ;; debug: statement 14418
                                                             ;; debug: position 14418
0x165864f3b12d   557  ffb097000000   push [rax+0x97]
0x165864f3b133   563  48b9099294cfdd1e0000 REX.W movq rcx,0x1eddcf949209    ;; debug: position 14425
                                                             ;; object: 0x1eddcf949209 <String[4]: $NaN>
0x165864f3b13d   573  488b5627       REX.W movq rdx,[rsi+0x27]
0x165864f3b141   577  48b80000000008000000 REX.W movq rax,0x800000000
0x165864f3b14b   587  e810d4feff     call 0x165864f28560     ;; code: contextual, LOAD_IC, DEFAULT
0x165864f3b150   592  48b971f199cfdd1e0000 REX.W movq rcx,0x1eddcf99f171    ;; debug: position 14424
                                                             ;; object: 0x1eddcf99f171 <String[4]: time>
0x165864f3b15a   602  5a             pop rdx
0x165864f3b15b   603  e82072ffff     call 0x165864f32380     ;; code: STORE_IC, UNINITIALIZED (id = 107)
0x165864f3b160   608  488bc6         REX.W movq rax,rsi      ;; debug: statement 14431
                                                             ;; debug: position 14431
0x165864f3b163   611  ffb097000000   push [rax+0x97]
0x165864f3b169   617  48b8014190cfdd1e0000 REX.W movq rax,0x1eddcf904101    ;; object: 0x1eddcf904101 <null>
0x165864f3b173   627  48b9491791cfdd1e0000 REX.W movq rcx,0x1eddcf911749    ;; debug: position 14439
                                                             ;; object: 0x1eddcf911749 <String[6]: string>
0x165864f3b17d   637  5a             pop rdx
0x165864f3b17e   638  e8fd71ffff     call 0x165864f32380     ;; code: STORE_IC, UNINITIALIZED (id = 123)
0x165864f3b183   643  498b45a8       REX.W movq rax,[r13-0x58]
0x165864f3b187   647  e912feffff     jmp 158  (0x165864f3af9e)
0x165864f3b18c   652  0f1f4000       nop

Deoptimization Output Data (deopt points = 0)

Back edges (size = 0)
ast_id  pc_offset  loop_depth

0x1eddcf9ebcb1: [TypeFeedbackInfo]
 - ic_total_count: 9, ic_with_type_info_count: 0, ic_generic_count: 0

RelocInfo (size = 106)
0x165864f3af00  position  (14316)
0x165864f3af10  code target (BUILTIN)  (0x165864f36a80)
0x165864f3af14  statement position  (14320)
0x165864f3af14  position  (14324)
0x165864f3af1f  code target with id (TO_BOOLEAN_IC)  (0x165864f255e0) (id=12)
0x165864f3af2c  statement position  (14328)
0x165864f3af2c  position  (14329)
0x165864f3af39  code target (STUB)  (0x165864f08ae0)
0x165864f3af78  code target (STUB)  (0x165864f2f940)
0x165864f3af7c  statement position  (14351)
0x165864f3af7c  position  (14355)
0x165864f3af87  code target with id (TO_BOOLEAN_IC)  (0x165864f255e0) (id=35)
0x165864f3af94  statement position  (14357)
0x165864f3af96  embedded object  (0x1eddcf904189 <undefined>)
0x165864f3afa0  embedded object  (0x1eddcf9ebc21 Cell for 6144)
0x165864f3afb0  code target (BUILTIN)  (0x165864f36940)
0x165864f3afb7  embedded object  (0x1eddcf9ebc21 Cell for 6144)
0x165864f3afcd  statement position  (14446)
0x165864f3afd1  statement position  (14367)
0x165864f3afd1  position  (14370)
0x165864f3afe8  position  (14371)
0x165864f3aff3  code target (KEYED_LOAD_IC)  (0x165864f1c0c0)
0x165864f3aff8  position  (14376)
0x165864f3b004  code target with id (COMPARE_IC)  (0x165864f2b380) (id=45)
0x165864f3b023  statement position  (14380)
0x165864f3b025  embedded object  (0x1eddcf904189 <undefined>)
0x165864f3b032  statement position  (14390)
0x165864f3b032  position  (14392)
0x165864f3b049  position  (14393)
0x165864f3b054  code target (KEYED_LOAD_IC)  (0x165864f1c0c0)
0x165864f3b058  position  (14391)
0x165864f3b093  code target (STUB)  (0x165864f2f940)
0x165864f3b097  statement position  (14398)
0x165864f3b097  position  (14400)
0x165864f3b099  embedded object  (0x1eddcf949209 <String[4]: $NaN>)
0x165864f3b0b0  code target (LOAD_IC)  (0x165864f28560)
0x165864f3b0b4  position  (14399)
0x165864f3b0e9  code target (STUB)  (0x165864f2f940)
0x165864f3b0ed  statement position  (14406)
0x165864f3b0ed  position  (14407)
0x165864f3b126  code target (STUB)  (0x165864f2f940)
0x165864f3b12a  statement position  (14418)
0x165864f3b12a  position  (14418)
0x165864f3b133  position  (14425)
0x165864f3b135  embedded object  (0x1eddcf949209 <String[4]: $NaN>)
0x165864f3b14c  code target (LOAD_IC)  (0x165864f28560)
0x165864f3b150  position  (14424)
0x165864f3b152  embedded object  (0x1eddcf99f171 <String[4]: time>)
0x165864f3b15c  code target with id (STORE_IC)  (0x165864f32380) (id=107)
0x165864f3b160  statement position  (14431)
0x165864f3b160  position  (14431)
0x165864f3b16b  embedded object  (0x1eddcf904101 <null>)
0x165864f3b173  position  (14439)
0x165864f3b175  embedded object  (0x1eddcf911749 <String[6]: string>)
0x165864f3b17f  code target with id (STORE_IC)  (0x165864f32380) (id=123)

--- End code ---
--- Code ---
kind = TO_BOOLEAN_IC
major_key = <NoCache>Stub
ic_state = MONOMORPHIC
extra_ic_state = 1
type = NORMAL
name = ToBooleanStub
compiler = crankshaft
Instructions (size = 108)
0x165864f3b200     0  493b45a8       REX.W cmpq rax,[r13-0x58]
0x165864f3b204     4  0f8405000000   jz 15  (0x165864f3b20f)
0x165864f3b20a    10  e916000000     jmp 37  (0x165864f3b225)
0x165864f3b20f    15  48b80000000000000000 REX.W movq rax,(nil)
0x165864f3b219    25  c3             ret
0x165864f3b21a    26  48b80000000001000000 REX.W movq rax,0x100000000
0x165864f3b224    36  c3             ret
0x165864f3b225    37  49ba0060d06458160000 REX.W movq r10,0x165864d06000
0x165864f3b22f    47  e800000000     call 52  (0x165864f3b234)
0x165864f3b234    52  4883ec10       REX.W subq rsp,0x10
0x165864f3b238    56  ff742410       push [rsp+0x10]
0x165864f3b23c    60  4152           push r10
0x165864f3b23e    62  4c8b55f8       REX.W movq r10,[rbp-0x8]
0x165864f3b242    66  4c89542418     REX.W movq [rsp+0x18],r10
0x165864f3b247    71  48896c2420     REX.W movq [rsp+0x20],rbp
0x165864f3b24c    76  488d6c2420     REX.W leaq rbp,[rsp+0x20]
0x165864f3b251    81  49ba0000000006000000 REX.W movq r10,0x600000000
0x165864f3b25b    91  4c89542410     REX.W movq [rsp+0x10],r10
0x165864f3b260    96  c3             ret
0x165864f3b261    97  0f1f00         nop


Safepoints (size = 8)

RelocInfo (size = 0)

--- End code ---
--- Code ---
kind = HANDLER
major_key = <NoCache>Stub
name = LoadFastElementStub
compiler = crankshaft
Instructions (size = 200)
0x165864f3b2e0     0  488b7a0f       REX.W movq rdi,[rdx+0xf]
0x165864f3b2e4     4  448b421b       movl r8,[rdx+0x1b]
0x165864f3b2e8     8  4c8bc9         REX.W movq r9,rcx
0x165864f3b2eb    11  41f6c101       testb r9,0x1
0x165864f3b2ef    15  0f851c000000   jnz 49  (0x165864f3b311)
0x165864f3b2f5    21  49c1e920       REX.W shrq r9, 32
0x165864f3b2f9    25  453bc1         cmpl r8,r9
0x165864f3b2fc    28  0f865b000000   jna 125  (0x165864f3b35d)
0x165864f3b302    34  428b44cf13     movl rax,[rdi+r9*8+0x13]
0x165864f3b307    39  8bd8           movl rbx,rax
0x165864f3b309    41  48c1e320       REX.W shlq rbx, 32
0x165864f3b30d    45  488bc3         REX.W movq rax,rbx
0x165864f3b310    48  c3             ret
0x165864f3b311    49  55             push rbp
0x165864f3b312    50  ff75f8         push [rbp-0x8]
0x165864f3b315    53  49ba0000000006000000 REX.W movq r10,0x600000000
0x165864f3b31f    63  4152           push r10
0x165864f3b321    65  488d6c2410     REX.W leaq rbp,[rsp+0x10]
0x165864f3b326    70  4d8b5508       REX.W movq r10,[r13+0x8]
0x165864f3b32a    74  4d3951ff       REX.W cmpq [r9-0x1],r10
0x165864f3b32e    78  0f8538000000   jnz 140  (0x165864f3b36c)
0x165864f3b334    84  f2410f104107   movsd xmm0,[r9+0x7]
0x165864f3b33a    90  f2440f2cc8     cvttsd2sil r9,xmm0
0x165864f3b33f    95  0f57c9         xorps xmm1,xmm1
0x165864f3b342    98  f2410f2ac9     cvtsi2sd xmm1,r9
0x165864f3b347   103  660f2ec1       ucomisd xmm0,xmm1
0x165864f3b34b   107  0f851b000000   jnz 140  (0x165864f3b36c)
0x165864f3b351   113  0f8a15000000   jpe 140  (0x165864f3b36c)
0x165864f3b357   119  488be5         REX.W movq rsp,rbp
0x165864f3b35a   122  5d             pop rbp
0x165864f3b35b   123  eb9c           jmp 25  (0x165864f3b2f9)
0x165864f3b35d   125  49ba0060d06458160000 REX.W movq r10,0x165864d06000
0x165864f3b367   135  e805000000     call 145  (0x165864f3b371)
0x165864f3b36c   140  e899acdcff     call 0x165864d0600a     ;; lazy deoptimization bailout 1
0x165864f3b371   145  4883ec10       REX.W subq rsp,0x10
0x165864f3b375   149  ff742410       push [rsp+0x10]
0x165864f3b379   153  4152           push r10
0x165864f3b37b   155  4c8b55f8       REX.W movq r10,[rbp-0x8]
0x165864f3b37f   159  4c89542418     REX.W movq [rsp+0x18],r10
0x165864f3b384   164  48896c2420     REX.W movq [rsp+0x20],rbp
0x165864f3b389   169  488d6c2420     REX.W leaq rbp,[rsp+0x20]
0x165864f3b38e   174  49ba0000000006000000 REX.W movq r10,0x600000000
0x165864f3b398   184  4c89542410     REX.W movq [rsp+0x10],r10
0x165864f3b39d   189  c3             ret
0x165864f3b39e   190  6690           nop


Safepoints (size = 8)

RelocInfo (size = 4)
0x165864f3b36d  runtime entry

--- End code ---
--- Raw source ---
(M){
var N=%DateParseString(M,L);
if((N===null))return $NaN;
var w=MakeDay(N[0],N[1],N[2]);
var o=MakeTime(N[3],N[4],N[5],N[6]);
var v=MakeDate(w,o);
if((N[7]===null)){
return TimeClip(UTC(v));
}else{
return TimeClip(v-N[7]*1000);
}
}


--- Code ---
source_position = 4075
kind = FUNCTION
name = parse
compiler = full-codegen
Instructions (size = 812)
0x165864f3bba0     0  55             push rbp                ;; debug: position 4075
0x165864f3bba1     1  4889e5         REX.W movq rbp,rsp
0x165864f3bba4     4  56             push rsi
0x165864f3bba5     5  57             push rdi
0x165864f3bba6     6  498b55a8       REX.W movq rdx,[r13-0x58]
0x165864f3bbaa    10  52             push rdx
0x165864f3bbab    11  52             push rdx
0x165864f3bbac    12  52             push rdx
0x165864f3bbad    13  52             push rdx
0x165864f3bbae    14  493ba548090000 REX.W cmpq rsp,[r13+0x948]
0x165864f3bbb5    21  7305           jnc 28  (0x165864f3bbbc)
0x165864f3bbb7    23  e8c4aeffff     call StackCheck  (0x165864f36a80)    ;; code: BUILTIN
0x165864f3bbbc    28  ff7510         push [rbp+0x10]         ;; debug: statement 4080
                                                             ;; debug: position 4103
0x165864f3bbbf    31  488bc6         REX.W movq rax,rsi      ;; debug: position 4105
0x165864f3bbc2    34  ffb0f7000000   push [rax+0xf7]
0x165864f3bbc8    40  b802000000     movl rax,0x2
0x165864f3bbcd    45  48bb70bf270100000000 REX.W movq rbx,0x127bf70
0x165864f3bbd7    55  e804cffcff     call 0x165864f08ae0     ;; code: STUB, CEntryStub, minor: 0
0x165864f3bbdc    60  488945e8       REX.W movq [rbp-0x18],rax    ;; debug: position 4080
0x165864f3bbe0    64  488b45e8       REX.W movq rax,[rbp-0x18]    ;; debug: statement 4109
                                                             ;; debug: position 4113
0x165864f3bbe4    68  eb0f           jmp 85  (0x165864f3bbf5)
0x165864f3bbe6    70  493b45c0       REX.W cmpq rax,[r13-0x40]
0x165864f3bbea    74  0f840f000000   jz 95  (0x165864f3bbff)
0x165864f3bbf0    80  e95a000000     jmp 175  (0x165864f3bc4f)
0x165864f3bbf5    85  493b45b8       REX.W cmpq rax,[r13-0x48]
0x165864f3bbf9    89  0f8550000000   jnz 175  (0x165864f3bc4f)
0x165864f3bbff    95  48b9099294cfdd1e0000 REX.W movq rcx,0x1eddcf949209    ;; debug: statement 4123
                                                             ;; debug: position 4130
                                                             ;; object: 0x1eddcf949209 <String[4]: $NaN>
0x165864f3bc09   105  488b5627       REX.W movq rdx,[rsi+0x27]
0x165864f3bc0d   109  48b80000000005000000 REX.W movq rax,0x500000000
0x165864f3bc17   119  e844c9feff     call 0x165864f28560     ;; code: contextual, LOAD_IC, DEFAULT
0x165864f3bc1c   124  48bb99c09ecfdd1e0000 REX.W movq rbx,0x1eddcf9ec099    ;; object: 0x1eddcf9ec099 Cell for 6144
0x165864f3bc26   134  83430bd1       addl [rbx+0xb],0xd1
0x165864f3bc2a   138  791f           jns 171  (0x165864f3bc4b)
0x165864f3bc2c   140  50             push rax
0x165864f3bc2d   141  e80eadffff     call InterruptCheck  (0x165864f36940)    ;; code: BUILTIN
0x165864f3bc32   146  58             pop rax
0x165864f3bc33   147  48bb99c09ecfdd1e0000 REX.W movq rbx,0x1eddcf9ec099    ;; object: 0x1eddcf9ec099 Cell for 6144
0x165864f3bc3d   157  49ba0000000000180000 REX.W movq r10,0x180000000000
0x165864f3bc47   167  4c895307       REX.W movq [rbx+0x7],r10
0x165864f3bc4b   171  c9             leave                   ;; debug: statement 4308
0x165864f3bc4c   172  c21000         ret 0x10
0x165864f3bc4f   175  488bc6         REX.W movq rax,rsi      ;; debug: statement 4136
                                                             ;; debug: position 4142
0x165864f3bc52   178  ff707f         push [rax+0x7f]
0x165864f3bc55   181  41ff75a8       push [r13-0x58]
0x165864f3bc59   185  ff75e8         push [rbp-0x18]         ;; debug: position 4150
0x165864f3bc5c   188  48b80000000000000000 REX.W movq rax,(nil)
0x165864f3bc66   198  488bc8         REX.W movq rcx,rax
0x165864f3bc69   201  5a             pop rdx
0x165864f3bc6a   202  48b80000000009000000 REX.W movq rax,0x900000000    ;; debug: position 4151
0x165864f3bc74   212  e84704feff     call 0x165864f1c0c0     ;; code: KEYED_LOAD_IC, DEFAULT
0x165864f3bc79   217  50             push rax
0x165864f3bc7a   218  ff75e8         push [rbp-0x18]         ;; debug: position 4155
0x165864f3bc7d   221  48b80000000001000000 REX.W movq rax,0x100000000
0x165864f3bc87   231  488bc8         REX.W movq rcx,rax
0x165864f3bc8a   234  5a             pop rdx
0x165864f3bc8b   235  48b8000000000b000000 REX.W movq rax,0xb00000000    ;; debug: position 4156
0x165864f3bc95   245  e82604feff     call 0x165864f1c0c0     ;; code: KEYED_LOAD_IC, DEFAULT
0x165864f3bc9a   250  50             push rax
0x165864f3bc9b   251  ff75e8         push [rbp-0x18]         ;; debug: position 4160
0x165864f3bc9e   254  48b80000000002000000 REX.W movq rax,0x200000000
0x165864f3bca8   264  488bc8         REX.W movq rcx,rax
0x165864f3bcab   267  5a             pop rdx
0x165864f3bcac   268  48b8000000000d000000 REX.W movq rax,0xd00000000    ;; debug: position 4161
0x165864f3bcb6   278  e80504feff     call 0x165864f1c0c0     ;; code: KEYED_LOAD_IC, DEFAULT
0x165864f3bcbb   283  50             push rax
0x165864f3bcbc   284  48ba0000000007000000 REX.W movq rdx,0x700000000    ;; debug: position 4142
0x165864f3bcc6   294  488b7c2420     REX.W movq rdi,[rsp+0x20]
0x165864f3bccb   299  e8d0befdff     call 0x165864f17ba0     ;; code: CALL_IC, DEFAULT
0x165864f3bcd0   304  488b75f8       REX.W movq rsi,[rbp-0x8]
0x165864f3bcd4   308  4883c408       REX.W addq rsp,0x8
0x165864f3bcd8   312  488945e0       REX.W movq [rbp-0x20],rax    ;; debug: position 4136
0x165864f3bcdc   316  488bc6         REX.W movq rax,rsi      ;; debug: statement 4167
                                                             ;; debug: position 4173
0x165864f3bcdf   319  ff7077         push [rax+0x77]
0x165864f3bce2   322  41ff75a8       push [r13-0x58]
0x165864f3bce6   326  ff75e8         push [rbp-0x18]         ;; debug: position 4182
0x165864f3bce9   329  48b80000000003000000 REX.W movq rax,0x300000000
0x165864f3bcf3   339  488bc8         REX.W movq rcx,rax
0x165864f3bcf6   342  5a             pop rdx
0x165864f3bcf7   343  48b80000000011000000 REX.W movq rax,0x1100000000    ;; debug: position 4183
0x165864f3bd01   353  e8ba03feff     call 0x165864f1c0c0     ;; code: KEYED_LOAD_IC, DEFAULT
0x165864f3bd06   358  50             push rax
0x165864f3bd07   359  ff75e8         push [rbp-0x18]         ;; debug: position 4187
0x165864f3bd0a   362  48b80000000004000000 REX.W movq rax,0x400000000
0x165864f3bd14   372  488bc8         REX.W movq rcx,rax
0x165864f3bd17   375  5a             pop rdx
0x165864f3bd18   376  48b80000000013000000 REX.W movq rax,0x1300000000    ;; debug: position 4188
0x165864f3bd22   386  e89903feff     call 0x165864f1c0c0     ;; code: KEYED_LOAD_IC, DEFAULT
0x165864f3bd27   391  50             push rax
0x165864f3bd28   392  ff75e8         push [rbp-0x18]         ;; debug: position 4192
0x165864f3bd2b   395  48b80000000005000000 REX.W movq rax,0x500000000
0x165864f3bd35   405  488bc8         REX.W movq rcx,rax
0x165864f3bd38   408  5a             pop rdx
0x165864f3bd39   409  48b80000000015000000 REX.W movq rax,0x1500000000    ;; debug: position 4193
0x165864f3bd43   419  e87803feff     call 0x165864f1c0c0     ;; code: KEYED_LOAD_IC, DEFAULT
0x165864f3bd48   424  50             push rax
0x165864f3bd49   425  ff75e8         push [rbp-0x18]         ;; debug: position 4197
0x165864f3bd4c   428  48b80000000006000000 REX.W movq rax,0x600000000
0x165864f3bd56   438  488bc8         REX.W movq rcx,rax
0x165864f3bd59   441  5a             pop rdx
0x165864f3bd5a   442  48b80000000017000000 REX.W movq rax,0x1700000000    ;; debug: position 4198
0x165864f3bd64   452  e85703feff     call 0x165864f1c0c0     ;; code: KEYED_LOAD_IC, DEFAULT
0x165864f3bd69   457  50             push rax
0x165864f3bd6a   458  48ba000000000f000000 REX.W movq rdx,0xf00000000    ;; debug: position 4173
0x165864f3bd74   468  488b7c2428     REX.W movq rdi,[rsp+0x28]
0x165864f3bd79   473  e8c2e6feff     call 0x165864f2a440     ;; code: CALL_IC, DEFAULT
0x165864f3bd7e   478  488b75f8       REX.W movq rsi,[rbp-0x8]
0x165864f3bd82   482  4883c408       REX.W addq rsp,0x8
0x165864f3bd86   486  488945d8       REX.W movq [rbp-0x28],rax    ;; debug: position 4167
0x165864f3bd8a   490  488bc6         REX.W movq rax,rsi      ;; debug: statement 4204
                                                             ;; debug: position 4210
0x165864f3bd8d   493  ffb087000000   push [rax+0x87]
0x165864f3bd93   499  41ff75a8       push [r13-0x58]
0x165864f3bd97   503  ff75e0         push [rbp-0x20]         ;; debug: position 4219
0x165864f3bd9a   506  ff75d8         push [rbp-0x28]         ;; debug: position 4221
0x165864f3bd9d   509  48ba0000000019000000 REX.W movq rdx,0x1900000000    ;; debug: position 4210
0x165864f3bda7   519  488b7c2418     REX.W movq rdi,[rsp+0x18]
0x165864f3bdac   524  e84f7afdff     call 0x165864f13800     ;; code: CALL_IC, DEFAULT
0x165864f3bdb1   529  488b75f8       REX.W movq rsi,[rbp-0x8]
0x165864f3bdb5   533  4883c408       REX.W addq rsp,0x8
0x165864f3bdb9   537  488945d0       REX.W movq [rbp-0x30],rax    ;; debug: position 4204
0x165864f3bdbd   541  ff75e8         push [rbp-0x18]         ;; debug: statement 4225
                                                             ;; debug: position 4229
0x165864f3bdc0   544  48b80000000007000000 REX.W movq rax,0x700000000
0x165864f3bdca   554  488bc8         REX.W movq rcx,rax
0x165864f3bdcd   557  5a             pop rdx
0x165864f3bdce   558  48b8000000001b000000 REX.W movq rax,0x1b00000000    ;; debug: position 4230
0x165864f3bdd8   568  e8e302feff     call 0x165864f1c0c0     ;; code: KEYED_LOAD_IC, DEFAULT
0x165864f3bddd   573  eb0f           jmp 590  (0x165864f3bdee)
0x165864f3bddf   575  493b45c0       REX.W cmpq rax,[r13-0x40]
0x165864f3bde3   579  0f840f000000   jz 600  (0x165864f3bdf8)
0x165864f3bde9   585  e966000000     jmp 692  (0x165864f3be54)
0x165864f3bdee   590  493b45b8       REX.W cmpq rax,[r13-0x48]
0x165864f3bdf2   594  0f855c000000   jnz 692  (0x165864f3be54)
0x165864f3bdf8   600  488bc6         REX.W movq rax,rsi      ;; debug: statement 4244
                                                             ;; debug: position 4251
0x165864f3bdfb   603  ffb08f000000   push [rax+0x8f]
0x165864f3be01   609  41ff75a8       push [r13-0x58]
0x165864f3be05   613  488bc6         REX.W movq rax,rsi      ;; debug: position 4260
0x165864f3be08   616  ff706f         push [rax+0x6f]
0x165864f3be0b   619  41ff75a8       push [r13-0x58]
0x165864f3be0f   623  ff75d0         push [rbp-0x30]         ;; debug: position 4264
0x165864f3be12   626  48ba000000001f000000 REX.W movq rdx,0x1f00000000    ;; debug: position 4260
0x165864f3be1c   636  488b7c2410     REX.W movq rdi,[rsp+0x10]
0x165864f3be21   641  e81a61ffff     call 0x165864f31f40     ;; code: CALL_IC, DEFAULT
0x165864f3be26   646  488b75f8       REX.W movq rsi,[rbp-0x8]
0x165864f3be2a   650  48890424       REX.W movq [rsp],rax
0x165864f3be2e   654  48ba000000001d000000 REX.W movq rdx,0x1d00000000    ;; debug: position 4251
0x165864f3be38   664  488b7c2410     REX.W movq rdi,[rsp+0x10]
0x165864f3be3d   669  e8fe60ffff     call 0x165864f31f40     ;; code: CALL_IC, DEFAULT
0x165864f3be42   674  488b75f8       REX.W movq rsi,[rbp-0x8]
0x165864f3be46   678  4883c408       REX.W addq rsp,0x8
0x165864f3be4a   682  e9cdfdffff     jmp 124  (0x165864f3bc1c)
0x165864f3be4f   687  e96b000000     jmp 799  (0x165864f3bebf)
0x165864f3be54   692  488bc6         REX.W movq rax,rsi      ;; debug: statement 4276
                                                             ;; debug: position 4283
0x165864f3be57   695  ffb08f000000   push [rax+0x8f]
0x165864f3be5d   701  41ff75a8       push [r13-0x58]
0x165864f3be61   705  ff75d0         push [rbp-0x30]         ;; debug: position 4292
0x165864f3be64   708  ff75e8         push [rbp-0x18]         ;; debug: position 4294
0x165864f3be67   711  48b80000000007000000 REX.W movq rax,0x700000000
0x165864f3be71   721  488bc8         REX.W movq rcx,rax
0x165864f3be74   724  5a             pop rdx
0x165864f3be75   725  48b80000000023000000 REX.W movq rax,0x2300000000    ;; debug: position 4295
0x165864f3be7f   735  e83c02feff     call 0x165864f1c0c0     ;; code: KEYED_LOAD_IC, DEFAULT
0x165864f3be84   740  50             push rax
0x165864f3be85   741  48b800000000e8030000 REX.W movq rax,0x3e800000000
0x165864f3be8f   751  5a             pop rdx                 ;; debug: position 4298
0x165864f3be90   752  e8ab5affff     call 0x165864f31940     ;; code: BINARY_OP_IC, UNINITIALIZED (id = 234)
0x165864f3be95   757  90             nop
0x165864f3be96   758  5a             pop rdx                 ;; debug: position 4293
0x165864f3be97   759  e8a4cbfcff     call 0x165864f08a40     ;; code: BINARY_OP_IC, UNINITIALIZED (id = 227)
0x165864f3be9c   764  90             nop
0x165864f3be9d   765  50             push rax
0x165864f3be9e   766  48ba0000000021000000 REX.W movq rdx,0x2100000000    ;; debug: position 4283
0x165864f3bea8   776  488b7c2410     REX.W movq rdi,[rsp+0x10]
0x165864f3bead   781  e88e60ffff     call 0x165864f31f40     ;; code: CALL_IC, DEFAULT
0x165864f3beb2   786  488b75f8       REX.W movq rsi,[rbp-0x8]
0x165864f3beb6   790  4883c408       REX.W addq rsp,0x8
0x165864f3beba   794  e95dfdffff     jmp 124  (0x165864f3bc1c)
0x165864f3bebf   799  498b45a8       REX.W movq rax,[r13-0x58]
0x165864f3bec3   803  e954fdffff     jmp 124  (0x165864f3bc1c)

Deoptimization Output Data (deopt points = 0)

Back edges (size = 0)
ast_id  pc_offset  loop_depth

0x1eddcf9ec159: [TypeFeedbackInfo]
 - ic_total_count: 18, ic_with_type_info_count: 0, ic_generic_count: 0

RelocInfo (size = 156)
0x165864f3bba0  position  (4075)
0x165864f3bbb8  code target (BUILTIN)  (0x165864f36a80)
0x165864f3bbbc  statement position  (4080)
0x165864f3bbbc  position  (4103)
0x165864f3bbbf  position  (4105)
0x165864f3bbd8  code target (STUB)  (0x165864f08ae0)
0x165864f3bbdc  position  (4080)
0x165864f3bbe0  statement position  (4109)
0x165864f3bbe0  position  (4113)
0x165864f3bbff  statement position  (4123)
0x165864f3bbff  position  (4130)
0x165864f3bc01  embedded object  (0x1eddcf949209 <String[4]: $NaN>)
0x165864f3bc18  code target (LOAD_IC)  (0x165864f28560)
0x165864f3bc1e  embedded object  (0x1eddcf9ec099 Cell for 6144)
0x165864f3bc2e  code target (BUILTIN)  (0x165864f36940)
0x165864f3bc35  embedded object  (0x1eddcf9ec099 Cell for 6144)
0x165864f3bc4b  statement position  (4308)
0x165864f3bc4f  statement position  (4136)
0x165864f3bc4f  position  (4142)
0x165864f3bc59  position  (4150)
0x165864f3bc6a  position  (4151)
0x165864f3bc75  code target (KEYED_LOAD_IC)  (0x165864f1c0c0)
0x165864f3bc7a  position  (4155)
0x165864f3bc8b  position  (4156)
0x165864f3bc96  code target (KEYED_LOAD_IC)  (0x165864f1c0c0)
0x165864f3bc9b  position  (4160)
0x165864f3bcac  position  (4161)
0x165864f3bcb7  code target (KEYED_LOAD_IC)  (0x165864f1c0c0)
0x165864f3bcbc  position  (4142)
0x165864f3bccc  code target (CALL_IC)  (0x165864f17ba0)
0x165864f3bcd8  position  (4136)
0x165864f3bcdc  statement position  (4167)
0x165864f3bcdc  position  (4173)
0x165864f3bce6  position  (4182)
0x165864f3bcf7  position  (4183)
0x165864f3bd02  code target (KEYED_LOAD_IC)  (0x165864f1c0c0)
0x165864f3bd07  position  (4187)
0x165864f3bd18  position  (4188)
0x165864f3bd23  code target (KEYED_LOAD_IC)  (0x165864f1c0c0)
0x165864f3bd28  position  (4192)
0x165864f3bd39  position  (4193)
0x165864f3bd44  code target (KEYED_LOAD_IC)  (0x165864f1c0c0)
0x165864f3bd49  position  (4197)
0x165864f3bd5a  position  (4198)
0x165864f3bd65  code target (KEYED_LOAD_IC)  (0x165864f1c0c0)
0x165864f3bd6a  position  (4173)
0x165864f3bd7a  code target (CALL_IC)  (0x165864f2a440)
0x165864f3bd86  position  (4167)
0x165864f3bd8a  statement position  (4204)
0x165864f3bd8a  position  (4210)
0x165864f3bd97  position  (4219)
0x165864f3bd9a  position  (4221)
0x165864f3bd9d  position  (4210)
0x165864f3bdad  code target (CALL_IC)  (0x165864f13800)
0x165864f3bdb9  position  (4204)
0x165864f3bdbd  statement position  (4225)
0x165864f3bdbd  position  (4229)
0x165864f3bdce  position  (4230)
0x165864f3bdd9  code target (KEYED_LOAD_IC)  (0x165864f1c0c0)
0x165864f3bdf8  statement position  (4244)
0x165864f3bdf8  position  (4251)
0x165864f3be05  position  (4260)
0x165864f3be0f  position  (4264)
0x165864f3be12  position  (4260)
0x165864f3be22  code target (CALL_IC)  (0x165864f31f40)
0x165864f3be2e  position  (4251)
0x165864f3be3e  code target (CALL_IC)  (0x165864f31f40)
0x165864f3be54  statement position  (4276)
0x165864f3be54  position  (4283)
0x165864f3be61  position  (4292)
0x165864f3be64  position  (4294)
0x165864f3be75  position  (4295)
0x165864f3be80  code target (KEYED_LOAD_IC)  (0x165864f1c0c0)
0x165864f3be8f  position  (4298)
0x165864f3be91  code target with id (BINARY_OP_IC)  (0x165864f31940) (id=234)
0x165864f3be96  position  (4293)
0x165864f3be98  code target with id (BINARY_OP_IC)  (0x165864f08a40) (id=227)
0x165864f3be9e  position  (4283)
0x165864f3beae  code target (CALL_IC)  (0x165864f31f40)

--- End code ---
--- Code ---
kind = HANDLER
major_key = <NoCache>Stub
name = LoadFastElementStub
compiler = crankshaft
Instructions (size = 204)
0x165864f3bf40     0  488b7a0f       REX.W movq rdi,[rdx+0xf]
0x165864f3bf44     4  448b421b       movl r8,[rdx+0x1b]
0x165864f3bf48     8  4c8bc9         REX.W movq r9,rcx
0x165864f3bf4b    11  41f6c101       testb r9,0x1
0x165864f3bf4f    15  0f8520000000   jnz 53  (0x165864f3bf75)
0x165864f3bf55    21  49c1e920       REX.W shrq r9, 32
0x165864f3bf59    25  453bc1         cmpl r8,r9
0x165864f3bf5c    28  0f8646000000   jna 104  (0x165864f3bfa8)
0x165864f3bf62    34  4a8b7ccf0f     REX.W movq rdi,[rdi+r9*8+0xf]
0x165864f3bf67    39  493b7db0       REX.W cmpq rdi,[r13-0x50]
0x165864f3bf6b    43  0f8446000000   jz 119  (0x165864f3bfb7)
0x165864f3bf71    49  488bc7         REX.W movq rax,rdi
0x165864f3bf74    52  c3             ret
0x165864f3bf75    53  4d8b5508       REX.W movq r10,[r13+0x8]
0x165864f3bf79    57  4d3951ff       REX.W cmpq [r9-0x1],r10
0x165864f3bf7d    61  0f8543000000   jnz 134  (0x165864f3bfc6)
0x165864f3bf83    67  f2410f104107   movsd xmm0,[r9+0x7]
0x165864f3bf89    73  f2440f2cc8     cvttsd2sil r9,xmm0
0x165864f3bf8e    78  0f57c9         xorps xmm1,xmm1
0x165864f3bf91    81  f2410f2ac9     cvtsi2sd xmm1,r9
0x165864f3bf96    86  660f2ec1       ucomisd xmm0,xmm1
0x165864f3bf9a    90  0f8526000000   jnz 134  (0x165864f3bfc6)
0x165864f3bfa0    96  0f8a20000000   jpe 134  (0x165864f3bfc6)
0x165864f3bfa6   102  ebb1           jmp 25  (0x165864f3bf59)
0x165864f3bfa8   104  49ba0060d06458160000 REX.W movq r10,0x165864d06000
0x165864f3bfb2   114  e81e000000     call 149  (0x165864f3bfd5)
0x165864f3bfb7   119  49ba0a60d06458160000 REX.W movq r10,0x165864d0600a
0x165864f3bfc1   129  e80f000000     call 149  (0x165864f3bfd5)
0x165864f3bfc6   134  49ba1460d06458160000 REX.W movq r10,0x165864d06014
0x165864f3bfd0   144  e800000000     call 149  (0x165864f3bfd5)
0x165864f3bfd5   149  4883ec10       REX.W subq rsp,0x10
0x165864f3bfd9   153  ff742410       push [rsp+0x10]
0x165864f3bfdd   157  4152           push r10
0x165864f3bfdf   159  4c8b55f8       REX.W movq r10,[rbp-0x8]
0x165864f3bfe3   163  4c89542418     REX.W movq [rsp+0x18],r10
0x165864f3bfe8   168  48896c2420     REX.W movq [rsp+0x20],rbp
0x165864f3bfed   173  488d6c2420     REX.W leaq rbp,[rsp+0x20]
0x165864f3bff2   178  49ba0000000006000000 REX.W movq r10,0x600000000
0x165864f3bffc   188  4c89542410     REX.W movq [rsp+0x10],r10
0x165864f3c001   193  c3             ret
0x165864f3c002   194  6690           nop


Safepoints (size = 8)

RelocInfo (size = 0)

--- End code ---
--- Raw source ---
(t,u,v){
if(!f(t)||!f(u)||!f(v))return $NaN;
t=(%_IsSmi(%IS_VAR(t))?t:%NumberToIntegerMapMinusZero(i(t)));
u=(%_IsSmi(%IS_VAR(u))?u:%NumberToIntegerMapMinusZero(i(u)));
v=(%_IsSmi(%IS_VAR(v))?v:%NumberToIntegerMapMinusZero(i(v)));
if(t<-1000000||t>1000000||
u<-10000000||u>10000000){
return $NaN;
}
return %DateMakeDay(t|0,u|0)+v-1;
}


--- Code ---
source_position = 919
kind = FUNCTION
name = MakeDay
compiler = full-codegen
Instructions (size = 972)
0x165864f3c080     0  55             push rbp                ;; debug: position 919
0x165864f3c081     1  4889e5         REX.W movq rbp,rsp
0x165864f3c084     4  56             push rsi
0x165864f3c085     5  57             push rdi
0x165864f3c086     6  493ba548090000 REX.W cmpq rsp,[r13+0x948]
0x165864f3c08d    13  7305           jnc 20  (0x165864f3c094)
0x165864f3c08f    15  e8eca9ffff     call StackCheck  (0x165864f36a80)    ;; code: BUILTIN
0x165864f3c094    20  488bc6         REX.W movq rax,rsi      ;; debug: statement 928
                                                             ;; debug: position 932
0x165864f3c097    23  ff7037         push [rax+0x37]
0x165864f3c09a    26  41ff75a8       push [r13-0x58]
0x165864f3c09e    30  ff7520         push [rbp+0x20]         ;; debug: position 934
0x165864f3c0a1    33  48ba0000000004000000 REX.W movq rdx,0x400000000    ;; debug: position 932
0x165864f3c0ab    43  488b7c2410     REX.W movq rdi,[rsp+0x10]
0x165864f3c0b0    48  e88b5effff     call 0x165864f31f40     ;; code: CALL_IC, DEFAULT
0x165864f3c0b5    53  488b75f8       REX.W movq rsi,[rbp-0x8]
0x165864f3c0b9    57  4883c408       REX.W addq rsp,0x8
0x165864f3c0bd    61  e81e95feff     call 0x165864f255e0     ;; code: TO_BOOLEAN_IC, UNINITIALIZED (id = 20)
0x165864f3c0c2    66  4885c0         REX.W testq rax,rax
0x165864f3c0c5    69  0f846e000000   jz 185  (0x165864f3c139)
0x165864f3c0cb    75  488bc6         REX.W movq rax,rsi      ;; debug: position 939
0x165864f3c0ce    78  ff7037         push [rax+0x37]
0x165864f3c0d1    81  41ff75a8       push [r13-0x58]
0x165864f3c0d5    85  ff7518         push [rbp+0x18]         ;; debug: position 941
0x165864f3c0d8    88  48ba0000000006000000 REX.W movq rdx,0x600000000    ;; debug: position 939
0x165864f3c0e2    98  488b7c2410     REX.W movq rdi,[rsp+0x10]
0x165864f3c0e7   103  e8545effff     call 0x165864f31f40     ;; code: CALL_IC, DEFAULT
0x165864f3c0ec   108  488b75f8       REX.W movq rsi,[rbp-0x8]
0x165864f3c0f0   112  4883c408       REX.W addq rsp,0x8
0x165864f3c0f4   116  e8e794feff     call 0x165864f255e0     ;; code: TO_BOOLEAN_IC, UNINITIALIZED (id = 35)
0x165864f3c0f9   121  4885c0         REX.W testq rax,rax
0x165864f3c0fc   124  0f8437000000   jz 185  (0x165864f3c139)
0x165864f3c102   130  488bc6         REX.W movq rax,rsi      ;; debug: position 946
0x165864f3c105   133  ff7037         push [rax+0x37]
0x165864f3c108   136  41ff75a8       push [r13-0x58]
0x165864f3c10c   140  ff7510         push [rbp+0x10]         ;; debug: position 948
0x165864f3c10f   143  48ba0000000008000000 REX.W movq rdx,0x800000000    ;; debug: position 946
0x165864f3c119   153  488b7c2410     REX.W movq rdi,[rsp+0x10]
0x165864f3c11e   158  e81d5effff     call 0x165864f31f40     ;; code: CALL_IC, DEFAULT
0x165864f3c123   163  488b75f8       REX.W movq rsi,[rbp-0x8]
0x165864f3c127   167  4883c408       REX.W addq rsp,0x8
0x165864f3c12b   171  e8b094feff     call 0x165864f255e0     ;; code: TO_BOOLEAN_IC, UNINITIALIZED (id = 50)
0x165864f3c130   176  4885c0         REX.W testq rax,rax
0x165864f3c133   179  0f8550000000   jnz 265  (0x165864f3c189)
0x165864f3c139   185  48b9099294cfdd1e0000 REX.W movq rcx,0x1eddcf949209    ;; debug: statement 951
                                                             ;; debug: position 958
                                                             ;; object: 0x1eddcf949209 <String[4]: $NaN>
0x165864f3c143   195  488b5627       REX.W movq rdx,[rsi+0x27]
0x165864f3c147   199  48b8000000000a000000 REX.W movq rax,0xa00000000
0x165864f3c151   209  e80ac4feff     call 0x165864f28560     ;; code: contextual, LOAD_IC, DEFAULT
0x165864f3c156   214  48bbb1c39ecfdd1e0000 REX.W movq rbx,0x1eddcf9ec3b1    ;; object: 0x1eddcf9ec3b1 Cell for 6144
0x165864f3c160   224  83430bd1       addl [rbx+0xb],0xd1
0x165864f3c164   228  791f           jns 261  (0x165864f3c185)
0x165864f3c166   230  50             push rax
0x165864f3c167   231  e8d4a7ffff     call InterruptCheck  (0x165864f36940)    ;; code: BUILTIN
0x165864f3c16c   236  58             pop rax
0x165864f3c16d   237  48bbb1c39ecfdd1e0000 REX.W movq rbx,0x1eddcf9ec3b1    ;; object: 0x1eddcf9ec3b1 Cell for 6144
0x165864f3c177   247  49ba0000000000180000 REX.W movq r10,0x180000000000
0x165864f3c181   257  4c895307       REX.W movq [rbx+0x7],r10
0x165864f3c185   261  c9             leave                   ;; debug: statement 1252
0x165864f3c186   262  c22000         ret 0x20
0x165864f3c189   265  488b4520       REX.W movq rax,[rbp+0x20]    ;; debug: statement 964
                                                             ;; debug: position 983
0x165864f3c18d   269  eb0f           jmp 286  (0x165864f3c19e)
0x165864f3c18f   271  493b45c0       REX.W cmpq rax,[r13-0x40]
0x165864f3c193   275  0f8412000000   jz 299  (0x165864f3c1ab)
0x165864f3c199   281  e916000000     jmp 308  (0x165864f3c1b4)
0x165864f3c19e   286  a801           test al,0x1
0x165864f3c1a0   288  0f8405000000   jz 299  (0x165864f3c1ab)
0x165864f3c1a6   294  e909000000     jmp 308  (0x165864f3c1b4)
0x165864f3c1ab   299  488b4520       REX.W movq rax,[rbp+0x20]    ;; debug: position 987
0x165864f3c1af   303  e93d000000     jmp 369  (0x165864f3c1f1)
0x165864f3c1b4   308  488bc6         REX.W movq rax,rsi      ;; debug: position 1018
0x165864f3c1b7   311  ff704f         push [rax+0x4f]
0x165864f3c1ba   314  41ff75a8       push [r13-0x58]
0x165864f3c1be   318  ff7520         push [rbp+0x20]         ;; debug: position 1020
0x165864f3c1c1   321  48ba000000000c000000 REX.W movq rdx,0xc00000000    ;; debug: position 1018
0x165864f3c1cb   331  488b7c2410     REX.W movq rdi,[rsp+0x10]
0x165864f3c1d0   336  e86b5dffff     call 0x165864f31f40     ;; code: CALL_IC, DEFAULT
0x165864f3c1d5   341  488b75f8       REX.W movq rsi,[rbp-0x8]
0x165864f3c1d9   345  48890424       REX.W movq [rsp],rax
0x165864f3c1dd   349  b801000000     movl rax,0x1
0x165864f3c1e2   354  48bb803f2a0100000000 REX.W movq rbx,0x12a3f80
0x165864f3c1ec   364  e8efc8fcff     call 0x165864f08ae0     ;; code: STUB, CEntryStub, minor: 0
0x165864f3c1f1   369  48894520       REX.W movq [rbp+0x20],rax    ;; debug: position 965
0x165864f3c1f5   373  488b4518       REX.W movq rax,[rbp+0x18]    ;; debug: statement 1026
                                                             ;; debug: position 1045
0x165864f3c1f9   377  eb0f           jmp 394  (0x165864f3c20a)
0x165864f3c1fb   379  493b45c0       REX.W cmpq rax,[r13-0x40]
0x165864f3c1ff   383  0f8412000000   jz 407  (0x165864f3c217)
0x165864f3c205   389  e916000000     jmp 416  (0x165864f3c220)
0x165864f3c20a   394  a801           test al,0x1
0x165864f3c20c   396  0f8405000000   jz 407  (0x165864f3c217)
0x165864f3c212   402  e909000000     jmp 416  (0x165864f3c220)
0x165864f3c217   407  488b4518       REX.W movq rax,[rbp+0x18]    ;; debug: position 1049
0x165864f3c21b   411  e93d000000     jmp 477  (0x165864f3c25d)
0x165864f3c220   416  488bc6         REX.W movq rax,rsi      ;; debug: position 1080
0x165864f3c223   419  ff704f         push [rax+0x4f]
0x165864f3c226   422  41ff75a8       push [r13-0x58]
0x165864f3c22a   426  ff7518         push [rbp+0x18]         ;; debug: position 1082
0x165864f3c22d   429  48ba000000000e000000 REX.W movq rdx,0xe00000000    ;; debug: position 1080
0x165864f3c237   439  488b7c2410     REX.W movq rdi,[rsp+0x10]
0x165864f3c23c   444  e8ff5cffff     call 0x165864f31f40     ;; code: CALL_IC, DEFAULT
0x165864f3c241   449  488b75f8       REX.W movq rsi,[rbp-0x8]
0x165864f3c245   453  48890424       REX.W movq [rsp],rax
0x165864f3c249   457  b801000000     movl rax,0x1
0x165864f3c24e   462  48bb803f2a0100000000 REX.W movq rbx,0x12a3f80
0x165864f3c258   472  e883c8fcff     call 0x165864f08ae0     ;; code: STUB, CEntryStub, minor: 0
0x165864f3c25d   477  48894518       REX.W movq [rbp+0x18],rax    ;; debug: position 1027
0x165864f3c261   481  488b4510       REX.W movq rax,[rbp+0x10]    ;; debug: statement 1088
                                                             ;; debug: position 1107
0x165864f3c265   485  eb0f           jmp 502  (0x165864f3c276)
0x165864f3c267   487  493b45c0       REX.W cmpq rax,[r13-0x40]
0x165864f3c26b   491  0f8412000000   jz 515  (0x165864f3c283)
0x165864f3c271   497  e916000000     jmp 524  (0x165864f3c28c)
0x165864f3c276   502  a801           test al,0x1
0x165864f3c278   504  0f8405000000   jz 515  (0x165864f3c283)
0x165864f3c27e   510  e909000000     jmp 524  (0x165864f3c28c)
0x165864f3c283   515  488b4510       REX.W movq rax,[rbp+0x10]    ;; debug: position 1111
0x165864f3c287   519  e93d000000     jmp 585  (0x165864f3c2c9)
0x165864f3c28c   524  488bc6         REX.W movq rax,rsi      ;; debug: position 1142
0x165864f3c28f   527  ff704f         push [rax+0x4f]
0x165864f3c292   530  41ff75a8       push [r13-0x58]
0x165864f3c296   534  ff7510         push [rbp+0x10]         ;; debug: position 1144
0x165864f3c299   537  48ba0000000010000000 REX.W movq rdx,0x1000000000    ;; debug: position 1142
0x165864f3c2a3   547  488b7c2410     REX.W movq rdi,[rsp+0x10]
0x165864f3c2a8   552  e8935cffff     call 0x165864f31f40     ;; code: CALL_IC, DEFAULT
0x165864f3c2ad   557  488b75f8       REX.W movq rsi,[rbp-0x8]
0x165864f3c2b1   561  48890424       REX.W movq [rsp],rax
0x165864f3c2b5   565  b801000000     movl rax,0x1
0x165864f3c2ba   570  48bb803f2a0100000000 REX.W movq rbx,0x12a3f80
0x165864f3c2c4   580  e817c8fcff     call 0x165864f08ae0     ;; code: STUB, CEntryStub, minor: 0
0x165864f3c2c9   585  48894510       REX.W movq [rbp+0x10],rax    ;; debug: position 1089
0x165864f3c2cd   589  ff7520         push [rbp+0x20]         ;; debug: statement 1150
                                                             ;; debug: position 1153
0x165864f3c2d0   592  48b800000000fb5f0e31 REX.W movq rax,0x310e5ffb00000000
0x165864f3c2da   602  49ba000000003be2fece REX.W movq r10,0xcefee23b00000000
0x165864f3c2e4   612  4933c2         REX.W xorq rax,r10
0x165864f3c2e7   615  5a             pop rdx
0x165864f3c2e8   616  e8d305feff     call 0x165864f1c8c0     ;; code: COMPARE_IC, UNINITIALIZED (id = 182)
0x165864f3c2ed   621  90             nop
0x165864f3c2ee   622  eb0f           jmp 639  (0x165864f3c2ff)
0x165864f3c2f0   624  493b45c0       REX.W cmpq rax,[r13-0x40]
0x165864f3c2f4   628  0f84bf000000   jz 825  (0x165864f3c3b9)
0x165864f3c2fa   634  e909000000     jmp 648  (0x165864f3c308)
0x165864f3c2ff   639  4885c0         REX.W testq rax,rax
0x165864f3c302   642  0f8cb1000000   jl 825  (0x165864f3c3b9)
0x165864f3c308   648  ff7520         push [rbp+0x20]         ;; debug: position 1165
0x165864f3c30b   651  48b8000000007ba0f1ce REX.W movq rax,0xcef1a07b00000000
0x165864f3c315   661  49ba000000003be2fece REX.W movq r10,0xcefee23b00000000
0x165864f3c31f   671  4933c2         REX.W xorq rax,r10
0x165864f3c322   674  5a             pop rdx
0x165864f3c323   675  e898fefeff     call 0x165864f2c1c0     ;; code: COMPARE_IC, UNINITIALIZED (id = 191)
0x165864f3c328   680  90             nop
0x165864f3c329   681  eb0f           jmp 698  (0x165864f3c33a)
0x165864f3c32b   683  493b45c0       REX.W cmpq rax,[r13-0x40]
0x165864f3c32f   687  0f8484000000   jz 825  (0x165864f3c3b9)
0x165864f3c335   693  e909000000     jmp 707  (0x165864f3c343)
0x165864f3c33a   698  4885c0         REX.W testq rax,rax
0x165864f3c33d   701  0f8f76000000   jg 825  (0x165864f3c3b9)
0x165864f3c343   707  ff7518         push [rbp+0x18]         ;; debug: position 1177
0x165864f3c346   710  48b800000000bb8b9931 REX.W movq rax,0x31998bbb00000000
0x165864f3c350   720  49ba000000003be2fece REX.W movq r10,0xcefee23b00000000
0x165864f3c35a   730  4933c2         REX.W xorq rax,r10
0x165864f3c35d   733  5a             pop rdx
0x165864f3c35e   734  e85d05feff     call 0x165864f1c8c0     ;; code: COMPARE_IC, UNINITIALIZED (id = 200)
0x165864f3c363   739  90             nop
0x165864f3c364   740  eb0f           jmp 757  (0x165864f3c375)
0x165864f3c366   742  493b45c0       REX.W cmpq rax,[r13-0x40]
0x165864f3c36a   746  0f8449000000   jz 825  (0x165864f3c3b9)
0x165864f3c370   752  e909000000     jmp 766  (0x165864f3c37e)
0x165864f3c375   757  4885c0         REX.W testq rax,rax
0x165864f3c378   760  0f8c3b000000   jl 825  (0x165864f3c3b9)
0x165864f3c37e   766  ff7518         push [rbp+0x18]         ;; debug: position 1190
0x165864f3c381   769  48b800000000bb7466ce REX.W movq rax,0xce6674bb00000000
0x165864f3c38b   779  49ba000000003be2fece REX.W movq r10,0xcefee23b00000000
0x165864f3c395   789  4933c2         REX.W xorq rax,r10
0x165864f3c398   792  5a             pop rdx
0x165864f3c399   793  e822fefeff     call 0x165864f2c1c0     ;; code: COMPARE_IC, UNINITIALIZED (id = 209)
0x165864f3c39e   798  90             nop
0x165864f3c39f   799  eb0f           jmp 816  (0x165864f3c3b0)
0x165864f3c3a1   801  493b45c0       REX.W cmpq rax,[r13-0x40]
0x165864f3c3a5   805  0f840e000000   jz 825  (0x165864f3c3b9)
0x165864f3c3ab   811  e92b000000     jmp 859  (0x165864f3c3db)
0x165864f3c3b0   816  4885c0         REX.W testq rax,rax
0x165864f3c3b3   819  0f8e22000000   jle 859  (0x165864f3c3db)
0x165864f3c3b9   825  48b9099294cfdd1e0000 REX.W movq rcx,0x1eddcf949209    ;; debug: statement 1203
                                                             ;; debug: position 1210
                                                             ;; object: 0x1eddcf949209 <String[4]: $NaN>
0x165864f3c3c3   835  488b5627       REX.W movq rdx,[rsi+0x27]
0x165864f3c3c7   839  48b8000000000a000000 REX.W movq rax,0xa00000000
0x165864f3c3d1   849  e88ac1feff     call 0x165864f28560     ;; code: contextual, LOAD_IC, DEFAULT
0x165864f3c3d6   854  e97bfdffff     jmp 214  (0x165864f3c156)
0x165864f3c3db   859  ff7520         push [rbp+0x20]         ;; debug: statement 1218
                                                             ;; debug: position 1238
0x165864f3c3de   862  48b80000000000000000 REX.W movq rax,(nil)
0x165864f3c3e8   872  5a             pop rdx                 ;; debug: position 1239
0x165864f3c3e9   873  e81232ffff     call 0x165864f2f600     ;; code: BINARY_OP_IC, UNINITIALIZED (id = 236)
0x165864f3c3ee   878  90             nop
0x165864f3c3ef   879  50             push rax
0x165864f3c3f0   880  ff7518         push [rbp+0x18]         ;; debug: position 1242
0x165864f3c3f3   883  48b80000000000000000 REX.W movq rax,(nil)
0x165864f3c3fd   893  5a             pop rdx                 ;; debug: position 1243
0x165864f3c3fe   894  e8fd31ffff     call 0x165864f2f600     ;; code: BINARY_OP_IC, UNINITIALIZED (id = 246)
0x165864f3c403   899  90             nop
0x165864f3c404   900  50             push rax
0x165864f3c405   901  b802000000     movl rax,0x2
0x165864f3c40a   906  48bb70b4270100000000 REX.W movq rbx,0x127b470
0x165864f3c414   916  e8c7c6fcff     call 0x165864f08ae0     ;; code: STUB, CEntryStub, minor: 0
0x165864f3c419   921  50             push rax
0x165864f3c41a   922  488b4510       REX.W movq rax,[rbp+0x10]    ;; debug: position 1247
0x165864f3c41e   926  5a             pop rdx                 ;; debug: position 1246
0x165864f3c41f   927  e85cc1fdff     call 0x165864f18580     ;; code: BINARY_OP_IC, UNINITIALIZED (id = 229)
0x165864f3c424   932  90             nop
0x165864f3c425   933  50             push rax
0x165864f3c426   934  48b80000000001000000 REX.W movq rax,0x100000000
0x165864f3c430   944  5a             pop rdx                 ;; debug: position 1248
0x165864f3c431   945  e80ac6fcff     call 0x165864f08a40     ;; code: BINARY_OP_IC, UNINITIALIZED (id = 225)
0x165864f3c436   950  90             nop
0x165864f3c437   951  e91afdffff     jmp 214  (0x165864f3c156)
0x165864f3c43c   956  498b45a8       REX.W movq rax,[r13-0x58]
0x165864f3c440   960  e911fdffff     jmp 214  (0x165864f3c156)
0x165864f3c445   965  0f1f00         nop

Deoptimization Output Data (deopt points = 0)

Back edges (size = 0)
ast_id  pc_offset  loop_depth

0x1eddcf9ec489: [TypeFeedbackInfo]
 - ic_total_count: 19, ic_with_type_info_count: 0, ic_generic_count: 0

RelocInfo (size = 180)
0x165864f3c080  position  (919)
0x165864f3c090  code target (BUILTIN)  (0x165864f36a80)
0x165864f3c094  statement position  (928)
0x165864f3c094  position  (932)
0x165864f3c09e  position  (934)
0x165864f3c0a1  position  (932)
0x165864f3c0b1  code target (CALL_IC)  (0x165864f31f40)
0x165864f3c0be  code target with id (TO_BOOLEAN_IC)  (0x165864f255e0) (id=20)
0x165864f3c0cb  position  (939)
0x165864f3c0d5  position  (941)
0x165864f3c0d8  position  (939)
0x165864f3c0e8  code target (CALL_IC)  (0x165864f31f40)
0x165864f3c0f5  code target with id (TO_BOOLEAN_IC)  (0x165864f255e0) (id=35)
0x165864f3c102  position  (946)
0x165864f3c10c  position  (948)
0x165864f3c10f  position  (946)
0x165864f3c11f  code target (CALL_IC)  (0x165864f31f40)
0x165864f3c12c  code target with id (TO_BOOLEAN_IC)  (0x165864f255e0) (id=50)
0x165864f3c139  statement position  (951)
0x165864f3c139  position  (958)
0x165864f3c13b  embedded object  (0x1eddcf949209 <String[4]: $NaN>)
0x165864f3c152  code target (LOAD_IC)  (0x165864f28560)
0x165864f3c158  embedded object  (0x1eddcf9ec3b1 Cell for 6144)
0x165864f3c168  code target (BUILTIN)  (0x165864f36940)
0x165864f3c16f  embedded object  (0x1eddcf9ec3b1 Cell for 6144)
0x165864f3c185  statement position  (1252)
0x165864f3c189  statement position  (964)
0x165864f3c189  position  (983)
0x165864f3c1ab  position  (987)
0x165864f3c1b4  position  (1018)
0x165864f3c1be  position  (1020)
0x165864f3c1c1  position  (1018)
0x165864f3c1d1  code target (CALL_IC)  (0x165864f31f40)
0x165864f3c1ed  code target (STUB)  (0x165864f08ae0)
0x165864f3c1f1  position  (965)
0x165864f3c1f5  statement position  (1026)
0x165864f3c1f5  position  (1045)
0x165864f3c217  position  (1049)
0x165864f3c220  position  (1080)
0x165864f3c22a  position  (1082)
0x165864f3c22d  position  (1080)
0x165864f3c23d  code target (CALL_IC)  (0x165864f31f40)
0x165864f3c259  code target (STUB)  (0x165864f08ae0)
0x165864f3c25d  position  (1027)
0x165864f3c261  statement position  (1088)
0x165864f3c261  position  (1107)
0x165864f3c283  position  (1111)
0x165864f3c28c  position  (1142)
0x165864f3c296  position  (1144)
0x165864f3c299  position  (1142)
0x165864f3c2a9  code target (CALL_IC)  (0x165864f31f40)
0x165864f3c2c5  code target (STUB)  (0x165864f08ae0)
0x165864f3c2c9  position  (1089)
0x165864f3c2cd  statement position  (1150)
0x165864f3c2cd  position  (1153)
0x165864f3c2e9  code target with id (COMPARE_IC)  (0x165864f1c8c0) (id=182)
0x165864f3c308  position  (1165)
0x165864f3c324  code target with id (COMPARE_IC)  (0x165864f2c1c0) (id=191)
0x165864f3c343  position  (1177)
0x165864f3c35f  code target with id (COMPARE_IC)  (0x165864f1c8c0) (id=200)
0x165864f3c37e  position  (1190)
0x165864f3c39a  code target with id (COMPARE_IC)  (0x165864f2c1c0) (id=209)
0x165864f3c3b9  statement position  (1203)
0x165864f3c3b9  position  (1210)
0x165864f3c3bb  embedded object  (0x1eddcf949209 <String[4]: $NaN>)
0x165864f3c3d2  code target (LOAD_IC)  (0x165864f28560)
0x165864f3c3db  statement position  (1218)
0x165864f3c3db  position  (1238)
0x165864f3c3e8  position  (1239)
0x165864f3c3ea  code target with id (BINARY_OP_IC)  (0x165864f2f600) (id=236)
0x165864f3c3f0  position  (1242)
0x165864f3c3fd  position  (1243)
0x165864f3c3ff  code target with id (BINARY_OP_IC)  (0x165864f2f600) (id=246)
0x165864f3c415  code target (STUB)  (0x165864f08ae0)
0x165864f3c41a  position  (1247)
0x165864f3c41e  position  (1246)
0x165864f3c420  code target with id (BINARY_OP_IC)  (0x165864f18580) (id=229)
0x165864f3c430  position  (1248)
0x165864f3c432  code target with id (BINARY_OP_IC)  (0x165864f08a40) (id=225)

--- End code ---
--- Raw source ---
(t){
t=((typeof(%IS_VAR(t))==='number')?t:$nonNumberToNumber(t));
return(%_IsSmi(%IS_VAR(t))||((t==t)&&(t!=1/0)&&(t!=-1/0)));
}


--- Code ---
source_position = 699
kind = FUNCTION
name = isFinite
compiler = full-codegen
Instructions (size = 484)
0x165864f3c4c0     0  55             push rbp                ;; debug: position 699
0x165864f3c4c1     1  4889e5         REX.W movq rbp,rsp
0x165864f3c4c4     4  56             push rsi
0x165864f3c4c5     5  57             push rdi
0x165864f3c4c6     6  493ba548090000 REX.W cmpq rsp,[r13+0x948]
0x165864f3c4cd    13  7305           jnc 20  (0x165864f3c4d4)
0x165864f3c4cf    15  e8aca5ffff     call StackCheck  (0x165864f36a80)    ;; code: BUILTIN
0x165864f3c4d4    20  488b4510       REX.W movq rax,[rbp+0x10]    ;; debug: statement 704
                                                             ;; debug: position 723
0x165864f3c4d8    24  eb0f           jmp 41  (0x165864f3c4e9)
0x165864f3c4da    26  493b45c0       REX.W cmpq rax,[r13-0x40]
0x165864f3c4de    30  0f841b000000   jz 63  (0x165864f3c4ff)
0x165864f3c4e4    36  e91f000000     jmp 72  (0x165864f3c508)
0x165864f3c4e9    41  a801           test al,0x1
0x165864f3c4eb    43  0f840e000000   jz 63  (0x165864f3c4ff)
0x165864f3c4f1    49  488b40ff       REX.W movq rax,[rax-0x1]
0x165864f3c4f5    53  493b4508       REX.W cmpq rax,[r13+0x8]
0x165864f3c4f9    57  0f8509000000   jnz 72  (0x165864f3c508)
0x165864f3c4ff    63  488b4510       REX.W movq rax,[rbp+0x10]    ;; debug: position 739
0x165864f3c503    67  e949000000     jmp 145  (0x165864f3c551)
0x165864f3c508    72  48b9299294cfdd1e0000 REX.W movq rcx,0x1eddcf949229    ;; debug: position 741
                                                             ;; object: 0x1eddcf949229 <String[18]: $nonNumberToNumber>
0x165864f3c512    82  488b5627       REX.W movq rdx,[rsi+0x27]
0x165864f3c516    86  48b80000000006000000 REX.W movq rax,0x600000000
0x165864f3c520    96  e83bc0feff     call 0x165864f28560     ;; code: contextual, LOAD_IC, DEFAULT
0x165864f3c525   101  50             push rax
0x165864f3c526   102  49ba894190cfdd1e0000 REX.W movq r10,0x1eddcf904189    ;; object: 0x1eddcf904189 <undefined>
0x165864f3c530   112  4152           push r10
0x165864f3c532   114  ff7510         push [rbp+0x10]         ;; debug: position 760
0x165864f3c535   117  48ba0000000004000000 REX.W movq rdx,0x400000000    ;; debug: position 741
0x165864f3c53f   127  488b7c2410     REX.W movq rdi,[rsp+0x10]
0x165864f3c544   132  e8f759ffff     call 0x165864f31f40     ;; code: CALL_IC, DEFAULT
0x165864f3c549   137  488b75f8       REX.W movq rsi,[rbp-0x8]
0x165864f3c54d   141  4883c408       REX.W addq rsp,0x8
0x165864f3c551   145  48894510       REX.W movq [rbp+0x10],rax    ;; debug: position 705
0x165864f3c555   149  488b4510       REX.W movq rax,[rbp+0x10]    ;; debug: statement 765
                                                             ;; debug: position 788
0x165864f3c559   153  a801           test al,0x1
0x165864f3c55b   155  0f8405000000   jz 166  (0x165864f3c566)
0x165864f3c561   161  e90c000000     jmp 178  (0x165864f3c572)
0x165864f3c566   166  48b8314290cfdd1e0000 REX.W movq rax,0x1eddcf904231    ;; object: 0x1eddcf904231 <true>
0x165864f3c570   176  eb0a           jmp 188  (0x165864f3c57c)
0x165864f3c572   178  48b8994290cfdd1e0000 REX.W movq rax,0x1eddcf904299    ;; object: 0x1eddcf904299 <false>
0x165864f3c57c   188  50             push rax
0x165864f3c57d   189  e85e90feff     call 0x165864f255e0     ;; code: TO_BOOLEAN_IC, UNINITIALIZED (id = 47)
0x165864f3c582   194  4885c0         REX.W testq rax,rax
0x165864f3c585   197  0f8406000000   jz 209  (0x165864f3c591)
0x165864f3c58b   203  58             pop rax
0x165864f3c58c   204  e9d3000000     jmp 420  (0x165864f3c664)
0x165864f3c591   209  4883c408       REX.W addq rsp,0x8
0x165864f3c595   213  ff7510         push [rbp+0x10]         ;; debug: position 795
0x165864f3c598   216  488b4510       REX.W movq rax,[rbp+0x10]    ;; debug: position 798
0x165864f3c59c   220  5a             pop rdx
0x165864f3c59d   221  e8deedfeff     call 0x165864f2b380     ;; code: COMPARE_IC, UNINITIALIZED (id = 62)
0x165864f3c5a2   226  90             nop
0x165864f3c5a3   227  4885c0         REX.W testq rax,rax
0x165864f3c5a6   230  0f850c000000   jnz 248  (0x165864f3c5b8)
0x165864f3c5ac   236  48b8314290cfdd1e0000 REX.W movq rax,0x1eddcf904231    ;; object: 0x1eddcf904231 <true>
0x165864f3c5b6   246  eb0a           jmp 258  (0x165864f3c5c2)
0x165864f3c5b8   248  48b8994290cfdd1e0000 REX.W movq rax,0x1eddcf904299    ;; object: 0x1eddcf904299 <false>
0x165864f3c5c2   258  50             push rax
0x165864f3c5c3   259  e81890feff     call 0x165864f255e0     ;; code: TO_BOOLEAN_IC, UNINITIALIZED (id = 61)
0x165864f3c5c8   264  4885c0         REX.W testq rax,rax
0x165864f3c5cb   267  0f8506000000   jnz 279  (0x165864f3c5d7)
0x165864f3c5d1   273  58             pop rax
0x165864f3c5d2   274  e93c000000     jmp 339  (0x165864f3c613)
0x165864f3c5d7   279  4883c408       REX.W addq rsp,0x8
0x165864f3c5db   283  ff7510         push [rbp+0x10]         ;; debug: position 803
0x165864f3c5de   286  48b821c59ecfdd1e0000 REX.W movq rax,0x1eddcf9ec521    ;; object: 0x1eddcf9ec521 <Number: inf>
0x165864f3c5e8   296  5a             pop rdx
0x165864f3c5e9   297  e892edfeff     call 0x165864f2b380     ;; code: COMPARE_IC, UNINITIALIZED (id = 75)
0x165864f3c5ee   302  90             nop
0x165864f3c5ef   303  eb0f           jmp 320  (0x165864f3c600)
0x165864f3c5f1   305  493b45c0       REX.W cmpq rax,[r13-0x40]
0x165864f3c5f5   309  0f8414000000   jz 335  (0x165864f3c60f)
0x165864f3c5fb   315  e909000000     jmp 329  (0x165864f3c609)
0x165864f3c600   320  4885c0         REX.W testq rax,rax
0x165864f3c603   323  0f8406000000   jz 335  (0x165864f3c60f)
0x165864f3c609   329  498b45c0       REX.W movq rax,[r13-0x40]
0x165864f3c60d   333  eb04           jmp 339  (0x165864f3c613)
0x165864f3c60f   335  498b45c8       REX.W movq rax,[r13-0x38]
0x165864f3c613   339  50             push rax
0x165864f3c614   340  e8c78ffeff     call 0x165864f255e0     ;; code: TO_BOOLEAN_IC, UNINITIALIZED (id = 57)
0x165864f3c619   345  4885c0         REX.W testq rax,rax
0x165864f3c61c   348  0f8506000000   jnz 360  (0x165864f3c628)
0x165864f3c622   354  58             pop rax
0x165864f3c623   355  e93c000000     jmp 420  (0x165864f3c664)
0x165864f3c628   360  4883c408       REX.W addq rsp,0x8
0x165864f3c62c   364  ff7510         push [rbp+0x10]         ;; debug: position 813
0x165864f3c62f   367  48b831c59ecfdd1e0000 REX.W movq rax,0x1eddcf9ec531    ;; object: 0x1eddcf9ec531 <Number: -inf>
0x165864f3c639   377  5a             pop rdx
0x165864f3c63a   378  e841edfeff     call 0x165864f2b380     ;; code: COMPARE_IC, UNINITIALIZED (id = 88)
0x165864f3c63f   383  90             nop
0x165864f3c640   384  eb0f           jmp 401  (0x165864f3c651)
0x165864f3c642   386  493b45c0       REX.W cmpq rax,[r13-0x40]
0x165864f3c646   390  0f8414000000   jz 416  (0x165864f3c660)
0x165864f3c64c   396  e909000000     jmp 410  (0x165864f3c65a)
0x165864f3c651   401  4885c0         REX.W testq rax,rax
0x165864f3c654   404  0f8406000000   jz 416  (0x165864f3c660)
0x165864f3c65a   410  498b45c0       REX.W movq rax,[r13-0x40]
0x165864f3c65e   414  eb04           jmp 420  (0x165864f3c664)
0x165864f3c660   416  498b45c8       REX.W movq rax,[r13-0x38]
0x165864f3c664   420  48bb91c59ecfdd1e0000 REX.W movq rbx,0x1eddcf9ec591    ;; object: 0x1eddcf9ec591 Cell for 6144
0x165864f3c66e   430  83430bd1       addl [rbx+0xb],0xd1
0x165864f3c672   434  791f           jns 467  (0x165864f3c693)
0x165864f3c674   436  50             push rax
0x165864f3c675   437  e8c6a2ffff     call InterruptCheck  (0x165864f36940)    ;; code: BUILTIN
0x165864f3c67a   442  58             pop rax
0x165864f3c67b   443  48bb91c59ecfdd1e0000 REX.W movq rbx,0x1eddcf9ec591    ;; object: 0x1eddcf9ec591 Cell for 6144
0x165864f3c685   453  49ba0000000000180000 REX.W movq r10,0x180000000000
0x165864f3c68f   463  4c895307       REX.W movq [rbx+0x7],r10
0x165864f3c693   467  c9             leave                   ;; debug: statement 825
0x165864f3c694   468  c21000         ret 0x10
0x165864f3c697   471  498b45a8       REX.W movq rax,[r13-0x58]
0x165864f3c69b   475  e9c4ffffff     jmp 420  (0x165864f3c664)

Deoptimization Output Data (deopt points = 0)

Back edges (size = 0)
ast_id  pc_offset  loop_depth

0x1eddcf9ec5f9: [TypeFeedbackInfo]
 - ic_total_count: 8, ic_with_type_info_count: 0, ic_generic_count: 0

RelocInfo (size = 72)
0x165864f3c4c0  position  (699)
0x165864f3c4d0  code target (BUILTIN)  (0x165864f36a80)
0x165864f3c4d4  statement position  (704)
0x165864f3c4d4  position  (723)
0x165864f3c4ff  position  (739)
0x165864f3c508  position  (741)
0x165864f3c50a  embedded object  (0x1eddcf949229 <String[18]: $nonNumberToNumber>)
0x165864f3c521  code target (LOAD_IC)  (0x165864f28560)
0x165864f3c528  embedded object  (0x1eddcf904189 <undefined>)
0x165864f3c532  position  (760)
0x165864f3c535  position  (741)
0x165864f3c545  code target (CALL_IC)  (0x165864f31f40)
0x165864f3c551  position  (705)
0x165864f3c555  statement position  (765)
0x165864f3c555  position  (788)
0x165864f3c568  embedded object  (0x1eddcf904231 <true>)
0x165864f3c574  embedded object  (0x1eddcf904299 <false>)
0x165864f3c57e  code target with id (TO_BOOLEAN_IC)  (0x165864f255e0) (id=47)
0x165864f3c595  position  (795)
0x165864f3c598  position  (798)
0x165864f3c59e  code target with id (COMPARE_IC)  (0x165864f2b380) (id=62)
0x165864f3c5ae  embedded object  (0x1eddcf904231 <true>)
0x165864f3c5ba  embedded object  (0x1eddcf904299 <false>)
0x165864f3c5c4  code target with id (TO_BOOLEAN_IC)  (0x165864f255e0) (id=61)
0x165864f3c5db  position  (803)
0x165864f3c5e0  embedded object  (0x1eddcf9ec521 <Number: inf>)
0x165864f3c5ea  code target with id (COMPARE_IC)  (0x165864f2b380) (id=75)
0x165864f3c615  code target with id (TO_BOOLEAN_IC)  (0x165864f255e0) (id=57)
0x165864f3c62c  position  (813)
0x165864f3c631  embedded object  (0x1eddcf9ec531 <Number: -inf>)
0x165864f3c63b  code target with id (COMPARE_IC)  (0x165864f2b380) (id=88)
0x165864f3c666  embedded object  (0x1eddcf9ec591 Cell for 6144)
0x165864f3c676  code target (BUILTIN)  (0x165864f36940)
0x165864f3c67d  embedded object  (0x1eddcf9ec591 Cell for 6144)
0x165864f3c693  statement position  (825)

--- End code ---
--- Raw source ---
(p,q,r,s){
if(!f(p))return $NaN;
if(!f(q))return $NaN;
if(!f(r))return $NaN;
if(!f(s))return $NaN;
return(%_IsSmi(%IS_VAR(p))?p:%NumberToInteger(i(p)))*3600000
+(%_IsSmi(%IS_VAR(q))?q:%NumberToInteger(i(q)))*60000
+(%_IsSmi(%IS_VAR(r))?r:%NumberToInteger(i(r)))*1000
+(%_IsSmi(%IS_VAR(s))?s:%NumberToInteger(i(s)));
}


--- Code ---
source_position = 528
kind = FUNCTION
name = MakeTime
compiler = full-codegen
Instructions (size = 948)
0x165864f3c800     0  55             push rbp                ;; debug: position 528
0x165864f3c801     1  4889e5         REX.W movq rbp,rsp
0x165864f3c804     4  56             push rsi
0x165864f3c805     5  57             push rdi
0x165864f3c806     6  493ba548090000 REX.W cmpq rsp,[r13+0x948]
0x165864f3c80d    13  7305           jnc 20  (0x165864f3c814)
0x165864f3c80f    15  e86ca2ffff     call StackCheck  (0x165864f36a80)    ;; code: BUILTIN
0x165864f3c814    20  488bc6         REX.W movq rax,rsi      ;; debug: statement 539
                                                             ;; debug: position 543
0x165864f3c817    23  ff7037         push [rax+0x37]
0x165864f3c81a    26  41ff75a8       push [r13-0x58]
0x165864f3c81e    30  ff7528         push [rbp+0x28]         ;; debug: position 545
0x165864f3c821    33  48ba0000000004000000 REX.W movq rdx,0x400000000    ;; debug: position 543
0x165864f3c82b    43  488b7c2410     REX.W movq rdi,[rsp+0x10]
0x165864f3c830    48  e80b57ffff     call 0x165864f31f40     ;; code: CALL_IC, DEFAULT
0x165864f3c835    53  488b75f8       REX.W movq rsi,[rbp-0x8]
0x165864f3c839    57  4883c408       REX.W addq rsp,0x8
0x165864f3c83d    61  e89e8dfeff     call 0x165864f255e0     ;; code: TO_BOOLEAN_IC, UNINITIALIZED (id = 12)
0x165864f3c842    66  4885c0         REX.W testq rax,rax
0x165864f3c845    69  0f8550000000   jnz 155  (0x165864f3c89b)
0x165864f3c84b    75  48b9099294cfdd1e0000 REX.W movq rcx,0x1eddcf949209    ;; debug: statement 548
                                                             ;; debug: position 555
                                                             ;; object: 0x1eddcf949209 <String[4]: $NaN>
0x165864f3c855    85  488b5627       REX.W movq rdx,[rsi+0x27]
0x165864f3c859    89  48b80000000006000000 REX.W movq rax,0x600000000
0x165864f3c863    99  e8f8bcfeff     call 0x165864f28560     ;; code: contextual, LOAD_IC, DEFAULT
0x165864f3c868   104  48bb89c79ecfdd1e0000 REX.W movq rbx,0x1eddcf9ec789    ;; object: 0x1eddcf9ec789 Cell for 6144
0x165864f3c872   114  83430bd1       addl [rbx+0xb],0xd1
0x165864f3c876   118  791f           jns 151  (0x165864f3c897)
0x165864f3c878   120  50             push rax
0x165864f3c879   121  e8c2a0ffff     call InterruptCheck  (0x165864f36940)    ;; code: BUILTIN
0x165864f3c87e   126  58             pop rax
0x165864f3c87f   127  48bb89c79ecfdd1e0000 REX.W movq rbx,0x1eddcf9ec789    ;; object: 0x1eddcf9ec789 Cell for 6144
0x165864f3c889   137  49ba0000000000180000 REX.W movq r10,0x180000000000
0x165864f3c893   147  4c895307       REX.W movq [rbx+0x7],r10
0x165864f3c897   151  c9             leave                   ;; debug: statement 844
0x165864f3c898   152  c22800         ret 0x28
0x165864f3c89b   155  488bc6         REX.W movq rax,rsi      ;; debug: statement 561
                                                             ;; debug: position 565
0x165864f3c89e   158  ff7037         push [rax+0x37]
0x165864f3c8a1   161  41ff75a8       push [r13-0x58]
0x165864f3c8a5   165  ff7520         push [rbp+0x20]         ;; debug: position 567
0x165864f3c8a8   168  48ba0000000008000000 REX.W movq rdx,0x800000000    ;; debug: position 565
0x165864f3c8b2   178  488b7c2410     REX.W movq rdi,[rsp+0x10]
0x165864f3c8b7   183  e88456ffff     call 0x165864f31f40     ;; code: CALL_IC, DEFAULT
0x165864f3c8bc   188  488b75f8       REX.W movq rsi,[rbp-0x8]
0x165864f3c8c0   192  4883c408       REX.W addq rsp,0x8
0x165864f3c8c4   196  e8178dfeff     call 0x165864f255e0     ;; code: TO_BOOLEAN_IC, UNINITIALIZED (id = 33)
0x165864f3c8c9   201  4885c0         REX.W testq rax,rax
0x165864f3c8cc   204  0f8522000000   jnz 244  (0x165864f3c8f4)
0x165864f3c8d2   210  48b9099294cfdd1e0000 REX.W movq rcx,0x1eddcf949209    ;; debug: statement 570
                                                             ;; debug: position 577
                                                             ;; object: 0x1eddcf949209 <String[4]: $NaN>
0x165864f3c8dc   220  488b5627       REX.W movq rdx,[rsi+0x27]
0x165864f3c8e0   224  48b80000000006000000 REX.W movq rax,0x600000000
0x165864f3c8ea   234  e871bcfeff     call 0x165864f28560     ;; code: contextual, LOAD_IC, DEFAULT
0x165864f3c8ef   239  e974ffffff     jmp 104  (0x165864f3c868)
0x165864f3c8f4   244  488bc6         REX.W movq rax,rsi      ;; debug: statement 583
                                                             ;; debug: position 587
0x165864f3c8f7   247  ff7037         push [rax+0x37]
0x165864f3c8fa   250  41ff75a8       push [r13-0x58]
0x165864f3c8fe   254  ff7518         push [rbp+0x18]         ;; debug: position 589
0x165864f3c901   257  48ba000000000a000000 REX.W movq rdx,0xa00000000    ;; debug: position 587
0x165864f3c90b   267  488b7c2410     REX.W movq rdi,[rsp+0x10]
0x165864f3c910   272  e82b56ffff     call 0x165864f31f40     ;; code: CALL_IC, DEFAULT
0x165864f3c915   277  488b75f8       REX.W movq rsi,[rbp-0x8]
0x165864f3c919   281  4883c408       REX.W addq rsp,0x8
0x165864f3c91d   285  e8be8cfeff     call 0x165864f255e0     ;; code: TO_BOOLEAN_IC, UNINITIALIZED (id = 54)
0x165864f3c922   290  4885c0         REX.W testq rax,rax
0x165864f3c925   293  0f8522000000   jnz 333  (0x165864f3c94d)
0x165864f3c92b   299  48b9099294cfdd1e0000 REX.W movq rcx,0x1eddcf949209    ;; debug: statement 592
                                                             ;; debug: position 599
                                                             ;; object: 0x1eddcf949209 <String[4]: $NaN>
0x165864f3c935   309  488b5627       REX.W movq rdx,[rsi+0x27]
0x165864f3c939   313  48b80000000006000000 REX.W movq rax,0x600000000
0x165864f3c943   323  e818bcfeff     call 0x165864f28560     ;; code: contextual, LOAD_IC, DEFAULT
0x165864f3c948   328  e91bffffff     jmp 104  (0x165864f3c868)
0x165864f3c94d   333  488bc6         REX.W movq rax,rsi      ;; debug: statement 605
                                                             ;; debug: position 609
0x165864f3c950   336  ff7037         push [rax+0x37]
0x165864f3c953   339  41ff75a8       push [r13-0x58]
0x165864f3c957   343  ff7510         push [rbp+0x10]         ;; debug: position 611
0x165864f3c95a   346  48ba000000000c000000 REX.W movq rdx,0xc00000000    ;; debug: position 609
0x165864f3c964   356  488b7c2410     REX.W movq rdi,[rsp+0x10]
0x165864f3c969   361  e8d255ffff     call 0x165864f31f40     ;; code: CALL_IC, DEFAULT
0x165864f3c96e   366  488b75f8       REX.W movq rsi,[rbp-0x8]
0x165864f3c972   370  4883c408       REX.W addq rsp,0x8
0x165864f3c976   374  e8658cfeff     call 0x165864f255e0     ;; code: TO_BOOLEAN_IC, UNINITIALIZED (id = 75)
0x165864f3c97b   379  4885c0         REX.W testq rax,rax
0x165864f3c97e   382  0f8522000000   jnz 422  (0x165864f3c9a6)
0x165864f3c984   388  48b9099294cfdd1e0000 REX.W movq rcx,0x1eddcf949209    ;; debug: statement 614
                                                             ;; debug: position 621
                                                             ;; object: 0x1eddcf949209 <String[4]: $NaN>
0x165864f3c98e   398  488b5627       REX.W movq rdx,[rsi+0x27]
0x165864f3c992   402  48b80000000006000000 REX.W movq rax,0x600000000
0x165864f3c99c   412  e8bfbbfeff     call 0x165864f28560     ;; code: contextual, LOAD_IC, DEFAULT
0x165864f3c9a1   417  e9c2feffff     jmp 104  (0x165864f3c868)
0x165864f3c9a6   422  488b4528       REX.W movq rax,[rbp+0x28]    ;; debug: statement 627
                                                             ;; debug: position 650
0x165864f3c9aa   426  eb0f           jmp 443  (0x165864f3c9bb)
0x165864f3c9ac   428  493b45c0       REX.W cmpq rax,[r13-0x40]
0x165864f3c9b0   432  0f8412000000   jz 456  (0x165864f3c9c8)
0x165864f3c9b6   438  e915000000     jmp 464  (0x165864f3c9d0)
0x165864f3c9bb   443  a801           test al,0x1
0x165864f3c9bd   445  0f8405000000   jz 456  (0x165864f3c9c8)
0x165864f3c9c3   451  e908000000     jmp 464  (0x165864f3c9d0)
0x165864f3c9c8   456  ff7528         push [rbp+0x28]         ;; debug: position 654
0x165864f3c9cb   459  e93e000000     jmp 526  (0x165864f3ca0e)
0x165864f3c9d0   464  488bc6         REX.W movq rax,rsi      ;; debug: position 673
0x165864f3c9d3   467  ff704f         push [rax+0x4f]
0x165864f3c9d6   470  41ff75a8       push [r13-0x58]
0x165864f3c9da   474  ff7528         push [rbp+0x28]         ;; debug: position 675
0x165864f3c9dd   477  48ba000000000e000000 REX.W movq rdx,0xe00000000    ;; debug: position 673
0x165864f3c9e7   487  488b7c2410     REX.W movq rdi,[rsp+0x10]
0x165864f3c9ec   492  e84f55ffff     call 0x165864f31f40     ;; code: CALL_IC, DEFAULT
0x165864f3c9f1   497  488b75f8       REX.W movq rsi,[rbp-0x8]
0x165864f3c9f5   501  48890424       REX.W movq [rsp],rax
0x165864f3c9f9   505  b801000000     movl rax,0x1
0x165864f3c9fe   510  48bbf03d2a0100000000 REX.W movq rbx,0x12a3df0
0x165864f3ca08   520  e8d3c0fcff     call 0x165864f08ae0     ;; code: STUB, CEntryStub, minor: 0
0x165864f3ca0d   525  50             push rax
0x165864f3ca0e   526  48b800000000bd82e3dd REX.W movq rax,0xdde382bd00000000
0x165864f3ca18   536  49ba000000003d6cd5dd REX.W movq r10,0xddd56c3d00000000
0x165864f3ca22   546  4933c2         REX.W xorq rax,r10
0x165864f3ca25   549  5a             pop rdx                 ;; debug: position 679
0x165864f3ca26   550  e8154fffff     call 0x165864f31940     ;; code: BINARY_OP_IC, UNINITIALIZED (id = 103)
0x165864f3ca2b   555  90             nop
0x165864f3ca2c   556  50             push rax
0x165864f3ca2d   557  488b4520       REX.W movq rax,[rbp+0x20]    ;; debug: position 706
0x165864f3ca31   561  eb0f           jmp 578  (0x165864f3ca42)
0x165864f3ca33   563  493b45c0       REX.W cmpq rax,[r13-0x40]
0x165864f3ca37   567  0f8412000000   jz 591  (0x165864f3ca4f)
0x165864f3ca3d   573  e915000000     jmp 599  (0x165864f3ca57)
0x165864f3ca42   578  a801           test al,0x1
0x165864f3ca44   580  0f8405000000   jz 591  (0x165864f3ca4f)
0x165864f3ca4a   586  e908000000     jmp 599  (0x165864f3ca57)
0x165864f3ca4f   591  ff7520         push [rbp+0x20]         ;; debug: position 710
0x165864f3ca52   594  e93e000000     jmp 661  (0x165864f3ca95)
0x165864f3ca57   599  488bc6         REX.W movq rax,rsi      ;; debug: position 729
0x165864f3ca5a   602  ff704f         push [rax+0x4f]
0x165864f3ca5d   605  41ff75a8       push [r13-0x58]
0x165864f3ca61   609  ff7520         push [rbp+0x20]         ;; debug: position 731
0x165864f3ca64   612  48ba0000000010000000 REX.W movq rdx,0x1000000000    ;; debug: position 729
0x165864f3ca6e   622  488b7c2410     REX.W movq rdi,[rsp+0x10]
0x165864f3ca73   627  e8c854ffff     call 0x165864f31f40     ;; code: CALL_IC, DEFAULT
0x165864f3ca78   632  488b75f8       REX.W movq rsi,[rbp-0x8]
0x165864f3ca7c   636  48890424       REX.W movq [rsp],rax
0x165864f3ca80   640  b801000000     movl rax,0x1
0x165864f3ca85   645  48bbf03d2a0100000000 REX.W movq rbx,0x12a3df0
0x165864f3ca8f   655  e84cc0fcff     call 0x165864f08ae0     ;; code: STUB, CEntryStub, minor: 0
0x165864f3ca94   660  50             push rax
0x165864f3ca95   661  48b80000000060ea0000 REX.W movq rax,0xea6000000000
0x165864f3ca9f   671  5a             pop rdx                 ;; debug: position 735
0x165864f3caa0   672  e89b4effff     call 0x165864f31940     ;; code: BINARY_OP_IC, UNINITIALIZED (id = 137)
0x165864f3caa5   677  90             nop
0x165864f3caa6   678  5a             pop rdx                 ;; debug: position 688
0x165864f3caa7   679  e8d4bafdff     call 0x165864f18580     ;; code: BINARY_OP_IC, UNINITIALIZED (id = 99)
0x165864f3caac   684  90             nop
0x165864f3caad   685  50             push rax
0x165864f3caae   686  488b4518       REX.W movq rax,[rbp+0x18]    ;; debug: position 760
0x165864f3cab2   690  eb0f           jmp 707  (0x165864f3cac3)
0x165864f3cab4   692  493b45c0       REX.W cmpq rax,[r13-0x40]
0x165864f3cab8   696  0f8412000000   jz 720  (0x165864f3cad0)
0x165864f3cabe   702  e915000000     jmp 728  (0x165864f3cad8)
0x165864f3cac3   707  a801           test al,0x1
0x165864f3cac5   709  0f8405000000   jz 720  (0x165864f3cad0)
0x165864f3cacb   715  e908000000     jmp 728  (0x165864f3cad8)
0x165864f3cad0   720  ff7518         push [rbp+0x18]         ;; debug: position 764
0x165864f3cad3   723  e93e000000     jmp 790  (0x165864f3cb16)
0x165864f3cad8   728  488bc6         REX.W movq rax,rsi      ;; debug: position 783
0x165864f3cadb   731  ff704f         push [rax+0x4f]
0x165864f3cade   734  41ff75a8       push [r13-0x58]
0x165864f3cae2   738  ff7518         push [rbp+0x18]         ;; debug: position 785
0x165864f3cae5   741  48ba0000000012000000 REX.W movq rdx,0x1200000000    ;; debug: position 783
0x165864f3caef   751  488b7c2410     REX.W movq rdi,[rsp+0x10]
0x165864f3caf4   756  e84754ffff     call 0x165864f31f40     ;; code: CALL_IC, DEFAULT
0x165864f3caf9   761  488b75f8       REX.W movq rsi,[rbp-0x8]
0x165864f3cafd   765  48890424       REX.W movq [rsp],rax
0x165864f3cb01   769  b801000000     movl rax,0x1
0x165864f3cb06   774  48bbf03d2a0100000000 REX.W movq rbx,0x12a3df0
0x165864f3cb10   784  e8cbbffcff     call 0x165864f08ae0     ;; code: STUB, CEntryStub, minor: 0
0x165864f3cb15   789  50             push rax
0x165864f3cb16   790  48b800000000e8030000 REX.W movq rax,0x3e800000000
0x165864f3cb20   800  5a             pop rdx                 ;; debug: position 789
0x165864f3cb21   801  e81a4effff     call 0x165864f31940     ;; code: BINARY_OP_IC, UNINITIALIZED (id = 171)
0x165864f3cb26   806  90             nop
0x165864f3cb27   807  5a             pop rdx                 ;; debug: position 742
0x165864f3cb28   808  e853bafdff     call 0x165864f18580     ;; code: BINARY_OP_IC, UNINITIALIZED (id = 95)
0x165864f3cb2d   813  90             nop
0x165864f3cb2e   814  50             push rax
0x165864f3cb2f   815  488b4510       REX.W movq rax,[rbp+0x10]    ;; debug: position 813
0x165864f3cb33   819  eb0f           jmp 836  (0x165864f3cb44)
0x165864f3cb35   821  493b45c0       REX.W cmpq rax,[r13-0x40]
0x165864f3cb39   825  0f8412000000   jz 849  (0x165864f3cb51)
0x165864f3cb3f   831  e916000000     jmp 858  (0x165864f3cb5a)
0x165864f3cb44   836  a801           test al,0x1
0x165864f3cb46   838  0f8405000000   jz 849  (0x165864f3cb51)
0x165864f3cb4c   844  e909000000     jmp 858  (0x165864f3cb5a)
0x165864f3cb51   849  488b4510       REX.W movq rax,[rbp+0x10]    ;; debug: position 817
0x165864f3cb55   853  e93d000000     jmp 919  (0x165864f3cb97)
0x165864f3cb5a   858  488bc6         REX.W movq rax,rsi      ;; debug: position 836
0x165864f3cb5d   861  ff704f         push [rax+0x4f]
0x165864f3cb60   864  41ff75a8       push [r13-0x58]
0x165864f3cb64   868  ff7510         push [rbp+0x10]         ;; debug: position 838
0x165864f3cb67   871  48ba0000000014000000 REX.W movq rdx,0x1400000000    ;; debug: position 836
0x165864f3cb71   881  488b7c2410     REX.W movq rdi,[rsp+0x10]
0x165864f3cb76   886  e8c553ffff     call 0x165864f31f40     ;; code: CALL_IC, DEFAULT
0x165864f3cb7b   891  488b75f8       REX.W movq rsi,[rbp-0x8]
0x165864f3cb7f   895  48890424       REX.W movq [rsp],rax
0x165864f3cb83   899  b801000000     movl rax,0x1
0x165864f3cb88   904  48bbf03d2a0100000000 REX.W movq rbx,0x12a3df0
0x165864f3cb92   914  e849bffcff     call 0x165864f08ae0     ;; code: STUB, CEntryStub, minor: 0
0x165864f3cb97   919  5a             pop rdx                 ;; debug: position 795
0x165864f3cb98   920  e8e3b9fdff     call 0x165864f18580     ;; code: BINARY_OP_IC, UNINITIALIZED (id = 91)
0x165864f3cb9d   925  90             nop
0x165864f3cb9e   926  e9c5fcffff     jmp 104  (0x165864f3c868)
0x165864f3cba3   931  498b45a8       REX.W movq rax,[r13-0x58]
0x165864f3cba7   935  e9bcfcffff     jmp 104  (0x165864f3c868)
0x165864f3cbac   940  0f1f4000       nop

Deoptimization Output Data (deopt points = 0)

Back edges (size = 0)
ast_id  pc_offset  loop_depth

0x1eddcf9ec871: [TypeFeedbackInfo]
 - ic_total_count: 22, ic_with_type_info_count: 0, ic_generic_count: 0

RelocInfo (size = 198)
0x165864f3c800  position  (528)
0x165864f3c810  code target (BUILTIN)  (0x165864f36a80)
0x165864f3c814  statement position  (539)
0x165864f3c814  position  (543)
0x165864f3c81e  position  (545)
0x165864f3c821  position  (543)
0x165864f3c831  code target (CALL_IC)  (0x165864f31f40)
0x165864f3c83e  code target with id (TO_BOOLEAN_IC)  (0x165864f255e0) (id=12)
0x165864f3c84b  statement position  (548)
0x165864f3c84b  position  (555)
0x165864f3c84d  embedded object  (0x1eddcf949209 <String[4]: $NaN>)
0x165864f3c864  code target (LOAD_IC)  (0x165864f28560)
0x165864f3c86a  embedded object  (0x1eddcf9ec789 Cell for 6144)
0x165864f3c87a  code target (BUILTIN)  (0x165864f36940)
0x165864f3c881  embedded object  (0x1eddcf9ec789 Cell for 6144)
0x165864f3c897  statement position  (844)
0x165864f3c89b  statement position  (561)
0x165864f3c89b  position  (565)
0x165864f3c8a5  position  (567)
0x165864f3c8a8  position  (565)
0x165864f3c8b8  code target (CALL_IC)  (0x165864f31f40)
0x165864f3c8c5  code target with id (TO_BOOLEAN_IC)  (0x165864f255e0) (id=33)
0x165864f3c8d2  statement position  (570)
0x165864f3c8d2  position  (577)
0x165864f3c8d4  embedded object  (0x1eddcf949209 <String[4]: $NaN>)
0x165864f3c8eb  code target (LOAD_IC)  (0x165864f28560)
0x165864f3c8f4  statement position  (583)
0x165864f3c8f4  position  (587)
0x165864f3c8fe  position  (589)
0x165864f3c901  position  (587)
0x165864f3c911  code target (CALL_IC)  (0x165864f31f40)
0x165864f3c91e  code target with id (TO_BOOLEAN_IC)  (0x165864f255e0) (id=54)
0x165864f3c92b  statement position  (592)
0x165864f3c92b  position  (599)
0x165864f3c92d  embedded object  (0x1eddcf949209 <String[4]: $NaN>)
0x165864f3c944  code target (LOAD_IC)  (0x165864f28560)
0x165864f3c94d  statement position  (605)
0x165864f3c94d  position  (609)
0x165864f3c957  position  (611)
0x165864f3c95a  position  (609)
0x165864f3c96a  code target (CALL_IC)  (0x165864f31f40)
0x165864f3c977  code target with id (TO_BOOLEAN_IC)  (0x165864f255e0) (id=75)
0x165864f3c984  statement position  (614)
0x165864f3c984  position  (621)
0x165864f3c986  embedded object  (0x1eddcf949209 <String[4]: $NaN>)
0x165864f3c99d  code target (LOAD_IC)  (0x165864f28560)
0x165864f3c9a6  statement position  (627)
0x165864f3c9a6  position  (650)
0x165864f3c9c8  position  (654)
0x165864f3c9d0  position  (673)
0x165864f3c9da  position  (675)
0x165864f3c9dd  position  (673)
0x165864f3c9ed  code target (CALL_IC)  (0x165864f31f40)
0x165864f3ca09  code target (STUB)  (0x165864f08ae0)
0x165864f3ca25  position  (679)
0x165864f3ca27  code target with id (BINARY_OP_IC)  (0x165864f31940) (id=103)
0x165864f3ca2d  position  (706)
0x165864f3ca4f  position  (710)
0x165864f3ca57  position  (729)
0x165864f3ca61  position  (731)
0x165864f3ca64  position  (729)
0x165864f3ca74  code target (CALL_IC)  (0x165864f31f40)
0x165864f3ca90  code target (STUB)  (0x165864f08ae0)
0x165864f3ca9f  position  (735)
0x165864f3caa1  code target with id (BINARY_OP_IC)  (0x165864f31940) (id=137)
0x165864f3caa6  position  (688)
0x165864f3caa8  code target with id (BINARY_OP_IC)  (0x165864f18580) (id=99)
0x165864f3caae  position  (760)
0x165864f3cad0  position  (764)
0x165864f3cad8  position  (783)
0x165864f3cae2  position  (785)
0x165864f3cae5  position  (783)
0x165864f3caf5  code target (CALL_IC)  (0x165864f31f40)
0x165864f3cb11  code target (STUB)  (0x165864f08ae0)
0x165864f3cb20  position  (789)
0x165864f3cb22  code target with id (BINARY_OP_IC)  (0x165864f31940) (id=171)
0x165864f3cb27  position  (742)
0x165864f3cb29  code target with id (BINARY_OP_IC)  (0x165864f18580) (id=95)
0x165864f3cb2f  position  (813)
0x165864f3cb51  position  (817)
0x165864f3cb5a  position  (836)
0x165864f3cb64  position  (838)
0x165864f3cb67  position  (836)
0x165864f3cb77  code target (CALL_IC)  (0x165864f31f40)
0x165864f3cb93  code target (STUB)  (0x165864f08ae0)
0x165864f3cb97  position  (795)
0x165864f3cb99  code target with id (BINARY_OP_IC)  (0x165864f18580) (id=91)

--- End code ---
--- Raw source ---
(w,o){
var o=w*86400000+o;
if(g(o)>8640002592000000)return $NaN;
return o;
}


--- Code ---
source_position = 1271
kind = FUNCTION
name = MakeDate
compiler = full-codegen
Instructions (size = 260)
0x165864f3cc20     0  55             push rbp                ;; debug: position 1271
0x165864f3cc21     1  4889e5         REX.W movq rbp,rsp
0x165864f3cc24     4  56             push rsi
0x165864f3cc25     5  57             push rdi
0x165864f3cc26     6  493ba548090000 REX.W cmpq rsp,[r13+0x948]
0x165864f3cc2d    13  7305           jnc 20  (0x165864f3cc34)
0x165864f3cc2f    15  e84c9effff     call StackCheck  (0x165864f36a80)    ;; code: BUILTIN
0x165864f3cc34    20  ff7518         push [rbp+0x18]         ;; debug: statement 1278
                                                             ;; debug: position 1284
0x165864f3cc37    23  48b800000000e74bf76e REX.W movq rax,0x6ef74be700000000
0x165864f3cc41    33  49ba00000000e717d16b REX.W movq r10,0x6bd117e700000000
0x165864f3cc4b    43  4933c2         REX.W xorq rax,r10
0x165864f3cc4e    46  5a             pop rdx                 ;; debug: position 1285
0x165864f3cc4f    47  e8ec4cffff     call 0x165864f31940     ;; code: BINARY_OP_IC, UNINITIALIZED (id = 24)
0x165864f3cc54    52  90             nop
0x165864f3cc55    53  50             push rax
0x165864f3cc56    54  488b4510       REX.W movq rax,[rbp+0x10]    ;; debug: position 1295
0x165864f3cc5a    58  5a             pop rdx                 ;; debug: position 1294
0x165864f3cc5b    59  e820b9fdff     call 0x165864f18580     ;; code: BINARY_OP_IC, UNINITIALIZED (id = 20)
0x165864f3cc60    64  90             nop
0x165864f3cc61    65  48894510       REX.W movq [rbp+0x10],rax    ;; debug: position 1278
0x165864f3cc65    69  488bc6         REX.W movq rax,rsi      ;; debug: statement 1298
                                                             ;; debug: position 1301
0x165864f3cc68    72  ff703f         push [rax+0x3f]
0x165864f3cc6b    75  41ff75a8       push [r13-0x58]
0x165864f3cc6f    79  ff7510         push [rbp+0x10]         ;; debug: position 1303
0x165864f3cc72    82  48ba0000000004000000 REX.W movq rdx,0x400000000    ;; debug: position 1301
0x165864f3cc7c    92  488b7c2410     REX.W movq rdi,[rsp+0x10]
0x165864f3cc81    97  e8ba52ffff     call 0x165864f31f40     ;; code: CALL_IC, DEFAULT
0x165864f3cc86   102  488b75f8       REX.W movq rsi,[rbp-0x8]
0x165864f3cc8a   106  48890424       REX.W movq [rsp],rax
0x165864f3cc8e   110  48b871c99ecfdd1e0000 REX.W movq rax,0x1eddcf9ec971    ;; object: 0x1eddcf9ec971 <Number: 8.64e+15>
0x165864f3cc98   120  5a             pop rdx
0x165864f3cc99   121  e822f5feff     call 0x165864f2c1c0     ;; code: COMPARE_IC, UNINITIALIZED (id = 39)
0x165864f3cc9e   126  90             nop
0x165864f3cc9f   127  eb0f           jmp 144  (0x165864f3ccb0)
0x165864f3cca1   129  493b45c0       REX.W cmpq rax,[r13-0x40]
0x165864f3cca5   133  0f840e000000   jz 153  (0x165864f3ccb9)
0x165864f3ccab   139  e959000000     jmp 233  (0x165864f3cd09)
0x165864f3ccb0   144  4885c0         REX.W testq rax,rax
0x165864f3ccb3   147  0f8e50000000   jle 233  (0x165864f3cd09)
0x165864f3ccb9   153  48b9099294cfdd1e0000 REX.W movq rcx,0x1eddcf949209    ;; debug: statement 1323
                                                             ;; debug: position 1330
                                                             ;; object: 0x1eddcf949209 <String[4]: $NaN>
0x165864f3ccc3   163  488b5627       REX.W movq rdx,[rsi+0x27]
0x165864f3ccc7   167  48b80000000006000000 REX.W movq rax,0x600000000
0x165864f3ccd1   177  e88ab8feff     call 0x165864f28560     ;; code: contextual, LOAD_IC, DEFAULT
0x165864f3ccd6   182  48bbd1c99ecfdd1e0000 REX.W movq rbx,0x1eddcf9ec9d1    ;; object: 0x1eddcf9ec9d1 Cell for 6144
0x165864f3cce0   192  83430bd1       addl [rbx+0xb],0xd1
0x165864f3cce4   196  791f           jns 229  (0x165864f3cd05)
0x165864f3cce6   198  50             push rax
0x165864f3cce7   199  e8549cffff     call InterruptCheck  (0x165864f36940)    ;; code: BUILTIN
0x165864f3ccec   204  58             pop rax
0x165864f3cced   205  48bbd1c99ecfdd1e0000 REX.W movq rbx,0x1eddcf9ec9d1    ;; object: 0x1eddcf9ec9d1 Cell for 6144
0x165864f3ccf7   215  49ba0000000000180000 REX.W movq r10,0x180000000000
0x165864f3cd01   225  4c895307       REX.W movq [rbx+0x7],r10
0x165864f3cd05   229  c9             leave                   ;; debug: statement 1346
0x165864f3cd06   230  c21800         ret 0x18
0x165864f3cd09   233  488b4510       REX.W movq rax,[rbp+0x10]    ;; debug: statement 1336
                                                             ;; debug: position 1343
0x165864f3cd0d   237  e9c4ffffff     jmp 182  (0x165864f3ccd6)
0x165864f3cd12   242  498b45a8       REX.W movq rax,[r13-0x58]
0x165864f3cd16   246  e9bbffffff     jmp 182  (0x165864f3ccd6)
0x165864f3cd1b   251  0f1f440000     nop

Deoptimization Output Data (deopt points = 0)

Back edges (size = 0)
ast_id  pc_offset  loop_depth

0x1eddcf9eca29: [TypeFeedbackInfo]
 - ic_total_count: 5, ic_with_type_info_count: 0, ic_generic_count: 0

RelocInfo (size = 50)
0x165864f3cc20  position  (1271)
0x165864f3cc30  code target (BUILTIN)  (0x165864f36a80)
0x165864f3cc34  statement position  (1278)
0x165864f3cc34  position  (1284)
0x165864f3cc4e  position  (1285)
0x165864f3cc50  code target with id (BINARY_OP_IC)  (0x165864f31940) (id=24)
0x165864f3cc56  position  (1295)
0x165864f3cc5a  position  (1294)
0x165864f3cc5c  code target with id (BINARY_OP_IC)  (0x165864f18580) (id=20)
0x165864f3cc61  position  (1278)
0x165864f3cc65  statement position  (1298)
0x165864f3cc65  position  (1301)
0x165864f3cc6f  position  (1303)
0x165864f3cc72  position  (1301)
0x165864f3cc82  code target (CALL_IC)  (0x165864f31f40)
0x165864f3cc90  embedded object  (0x1eddcf9ec971 <Number: 8.64e+15>)
0x165864f3cc9a  code target with id (COMPARE_IC)  (0x165864f2c1c0) (id=39)
0x165864f3ccb9  statement position  (1323)
0x165864f3ccb9  position  (1330)
0x165864f3ccbb  embedded object  (0x1eddcf949209 <String[4]: $NaN>)
0x165864f3ccd2  code target (LOAD_IC)  (0x165864f28560)
0x165864f3ccd8  embedded object  (0x1eddcf9ec9d1 Cell for 6144)
0x165864f3cce8  code target (BUILTIN)  (0x165864f36940)
0x165864f3ccef  embedded object  (0x1eddcf9ec9d1 Cell for 6144)
0x165864f3cd05  statement position  (1346)
0x165864f3cd09  statement position  (1336)
0x165864f3cd09  position  (1343)

--- End code ---
--- Raw source ---
(g){
g=+g;
return(g>0)?g:0-g;
}


--- Code ---
source_position = 182
kind = FUNCTION
name = abs
compiler = full-codegen
Instructions (size = 180)
0x165864f3cda0     0  55             push rbp                ;; debug: position 182
0x165864f3cda1     1  4889e5         REX.W movq rbp,rsp
0x165864f3cda4     4  56             push rsi
0x165864f3cda5     5  57             push rdi
0x165864f3cda6     6  493ba548090000 REX.W cmpq rsp,[r13+0x948]
0x165864f3cdad    13  7305           jnc 20  (0x165864f3cdb4)
0x165864f3cdaf    15  e8cc9cffff     call StackCheck  (0x165864f36a80)    ;; code: BUILTIN
0x165864f3cdb4    20  ff7510         push [rbp+0x10]         ;; debug: statement 187
                                                             ;; debug: position 190
0x165864f3cdb7    23  48b80000000001000000 REX.W movq rax,0x100000000
0x165864f3cdc1    33  5a             pop rdx                 ;; debug: position 189
0x165864f3cdc2    34  e8794bffff     call 0x165864f31940     ;; code: BINARY_OP_IC, UNINITIALIZED (id = 14)
0x165864f3cdc7    39  90             nop
0x165864f3cdc8    40  48894510       REX.W movq [rbp+0x10],rax    ;; debug: position 188
0x165864f3cdcc    44  ff7510         push [rbp+0x10]         ;; debug: statement 193
                                                             ;; debug: position 200
0x165864f3cdcf    47  48b80000000000000000 REX.W movq rax,(nil)
0x165864f3cdd9    57  5a             pop rdx
0x165864f3cdda    58  e8e1f3feff     call 0x165864f2c1c0     ;; code: COMPARE_IC, UNINITIALIZED (id = 27)
0x165864f3cddf    63  90             nop
0x165864f3cde0    64  eb0f           jmp 81  (0x165864f3cdf1)
0x165864f3cde2    66  493b45c0       REX.W cmpq rax,[r13-0x40]
0x165864f3cde6    70  0f840e000000   jz 90  (0x165864f3cdfa)
0x165864f3cdec    76  e912000000     jmp 99  (0x165864f3ce03)
0x165864f3cdf1    81  4885c0         REX.W testq rax,rax
0x165864f3cdf4    84  0f8e09000000   jle 99  (0x165864f3ce03)
0x165864f3cdfa    90  488b4510       REX.W movq rax,[rbp+0x10]    ;; debug: position 205
0x165864f3cdfe    94  e90d000000     jmp 112  (0x165864f3ce10)
0x165864f3ce03    99  6a00           push 0x0                ;; debug: position 208
0x165864f3ce05   101  488b4510       REX.W movq rax,[rbp+0x10]    ;; debug: position 209
0x165864f3ce09   105  5a             pop rdx                 ;; debug: position 208
0x165864f3ce0a   106  e831bcfcff     call 0x165864f08a40     ;; code: BINARY_OP_IC, UNINITIALIZED (id = 40)
0x165864f3ce0f   111  90             nop
0x165864f3ce10   112  48bbb9ca9ecfdd1e0000 REX.W movq rbx,0x1eddcf9ecab9    ;; object: 0x1eddcf9ecab9 Cell for 6144
0x165864f3ce1a   122  83430bd1       addl [rbx+0xb],0xd1
0x165864f3ce1e   126  791f           jns 159  (0x165864f3ce3f)
0x165864f3ce20   128  50             push rax
0x165864f3ce21   129  e81a9bffff     call InterruptCheck  (0x165864f36940)    ;; code: BUILTIN
0x165864f3ce26   134  58             pop rax
0x165864f3ce27   135  48bbb9ca9ecfdd1e0000 REX.W movq rbx,0x1eddcf9ecab9    ;; object: 0x1eddcf9ecab9 Cell for 6144
0x165864f3ce31   145  49ba0000000000180000 REX.W movq r10,0x180000000000
0x165864f3ce3b   155  4c895307       REX.W movq [rbx+0x7],r10
0x165864f3ce3f   159  c9             leave                   ;; debug: statement 212
0x165864f3ce40   160  c21000         ret 0x10
0x165864f3ce43   163  498b45a8       REX.W movq rax,[r13-0x58]
0x165864f3ce47   167  e9c4ffffff     jmp 112  (0x165864f3ce10)
0x165864f3ce4c   172  0f1f4000       nop

Deoptimization Output Data (deopt points = 0)

Back edges (size = 0)
ast_id  pc_offset  loop_depth

0x1eddcf9ecb01: [TypeFeedbackInfo]
 - ic_total_count: 3, ic_with_type_info_count: 0, ic_generic_count: 0

RelocInfo (size = 38)
0x165864f3cda0  position  (182)
0x165864f3cdb0  code target (BUILTIN)  (0x165864f36a80)
0x165864f3cdb4  statement position  (187)
0x165864f3cdb4  position  (190)
0x165864f3cdc1  position  (189)
0x165864f3cdc3  code target with id (BINARY_OP_IC)  (0x165864f31940) (id=14)
0x165864f3cdc8  position  (188)
0x165864f3cdcc  statement position  (193)
0x165864f3cdcc  position  (200)
0x165864f3cddb  code target with id (COMPARE_IC)  (0x165864f2c1c0) (id=27)
0x165864f3cdfa  position  (205)
0x165864f3ce03  position  (208)
0x165864f3ce05  position  (209)
0x165864f3ce09  position  (208)
0x165864f3ce0b  code target with id (BINARY_OP_IC)  (0x165864f08a40) (id=40)
0x165864f3ce12  embedded object  (0x1eddcf9ecab9 Cell for 6144)
0x165864f3ce22  code target (BUILTIN)  (0x165864f36940)
0x165864f3ce29  embedded object  (0x1eddcf9ecab9 Cell for 6144)
0x165864f3ce3f  statement position  (212)

--- End code ---
--- Raw source ---
(o){
if((!%_IsSmi(%IS_VAR(o))&&!(o==o)))return o;
return %DateToUTC(o);
}


--- Code ---
source_position = 437
kind = FUNCTION
name = UTC
compiler = full-codegen
Instructions (size = 196)
0x165864f3d400     0  55             push rbp                ;; debug: position 437
0x165864f3d401     1  4889e5         REX.W movq rbp,rsp
0x165864f3d404     4  56             push rsi
0x165864f3d405     5  57             push rdi
0x165864f3d406     6  493ba548090000 REX.W cmpq rsp,[r13+0x948]
0x165864f3d40d    13  7305           jnc 20  (0x165864f3d414)
0x165864f3d40f    15  e86c96ffff     call StackCheck  (0x165864f36a80)    ;; code: BUILTIN
0x165864f3d414    20  488b4510       REX.W movq rax,[rbp+0x10]    ;; debug: statement 442
                                                             ;; debug: position 463
0x165864f3d418    24  eb0f           jmp 41  (0x165864f3d429)
0x165864f3d41a    26  493b45c0       REX.W cmpq rax,[r13-0x40]
0x165864f3d41e    30  0f8471000000   jz 149  (0x165864f3d495)
0x165864f3d424    36  e90d000000     jmp 54  (0x165864f3d436)
0x165864f3d429    41  a801           test al,0x1
0x165864f3d42b    43  0f8464000000   jz 149  (0x165864f3d495)
0x165864f3d431    49  e900000000     jmp 54  (0x165864f3d436)
0x165864f3d436    54  ff7510         push [rbp+0x10]         ;; debug: position 470
0x165864f3d439    57  488b4510       REX.W movq rax,[rbp+0x10]    ;; debug: position 473
0x165864f3d43d    61  5a             pop rdx
0x165864f3d43e    62  e83ddffeff     call 0x165864f2b380     ;; code: COMPARE_IC, UNINITIALIZED (id = 27)
0x165864f3d443    67  90             nop
0x165864f3d444    68  eb0f           jmp 85  (0x165864f3d455)
0x165864f3d446    70  493b45c0       REX.W cmpq rax,[r13-0x40]
0x165864f3d44a    74  0f8445000000   jz 149  (0x165864f3d495)
0x165864f3d450    80  e909000000     jmp 94  (0x165864f3d45e)
0x165864f3d455    85  4885c0         REX.W testq rax,rax
0x165864f3d458    88  0f8437000000   jz 149  (0x165864f3d495)
0x165864f3d45e    94  488b4510       REX.W movq rax,[rbp+0x10]    ;; debug: statement 477
                                                             ;; debug: position 484
0x165864f3d462    98  48bbe9cb9ecfdd1e0000 REX.W movq rbx,0x1eddcf9ecbe9    ;; object: 0x1eddcf9ecbe9 Cell for 6144
0x165864f3d46c   108  83430bd1       addl [rbx+0xb],0xd1
0x165864f3d470   112  791f           jns 145  (0x165864f3d491)
0x165864f3d472   114  50             push rax
0x165864f3d473   115  e8c894ffff     call InterruptCheck  (0x165864f36940)    ;; code: BUILTIN
0x165864f3d478   120  58             pop rax
0x165864f3d479   121  48bbe9cb9ecfdd1e0000 REX.W movq rbx,0x1eddcf9ecbe9    ;; object: 0x1eddcf9ecbe9 Cell for 6144
0x165864f3d483   131  49ba0000000000180000 REX.W movq r10,0x180000000000
0x165864f3d48d   141  4c895307       REX.W movq [rbx+0x7],r10
0x165864f3d491   145  c9             leave                   ;; debug: statement 509
0x165864f3d492   146  c21000         ret 0x10
0x165864f3d495   149  ff7510         push [rbp+0x10]         ;; debug: statement 487
                                                             ;; debug: position 505
0x165864f3d498   152  b801000000     movl rax,0x1
0x165864f3d49d   157  48bbf0c6270100000000 REX.W movq rbx,0x127c6f0
0x165864f3d4a7   167  e834b6fcff     call 0x165864f08ae0     ;; code: STUB, CEntryStub, minor: 0
0x165864f3d4ac   172  e9b1ffffff     jmp 98  (0x165864f3d462)
0x165864f3d4b1   177  498b45a8       REX.W movq rax,[r13-0x58]
0x165864f3d4b5   181  e9a8ffffff     jmp 98  (0x165864f3d462)
0x165864f3d4ba   186  660f1f440000   nop

Deoptimization Output Data (deopt points = 0)

Back edges (size = 0)
ast_id  pc_offset  loop_depth

0x1eddcf9ecc29: [TypeFeedbackInfo]
 - ic_total_count: 1, ic_with_type_info_count: 0, ic_generic_count: 0

RelocInfo (size = 31)
0x165864f3d400  position  (437)
0x165864f3d410  code target (BUILTIN)  (0x165864f36a80)
0x165864f3d414  statement position  (442)
0x165864f3d414  position  (463)
0x165864f3d436  position  (470)
0x165864f3d439  position  (473)
0x165864f3d43f  code target with id (COMPARE_IC)  (0x165864f2b380) (id=27)
0x165864f3d45e  statement position  (477)
0x165864f3d45e  position  (484)
0x165864f3d464  embedded object  (0x1eddcf9ecbe9 Cell for 6144)
0x165864f3d474  code target (BUILTIN)  (0x165864f36940)
0x165864f3d47b  embedded object  (0x1eddcf9ecbe9 Cell for 6144)
0x165864f3d491  statement position  (509)
0x165864f3d495  statement position  (487)
0x165864f3d495  position  (505)
0x165864f3d4a8  code target (STUB)  (0x165864f08ae0)

--- End code ---
--- Raw source ---
(o){
if(!f(o))return $NaN;
if(g(o)>8640000000000000)return $NaN;
return(%_IsSmi(%IS_VAR(o))?o:%NumberToInteger(i(o)));
}


--- Code ---
source_position = 1365
kind = FUNCTION
name = TimeClip
compiler = full-codegen
Instructions (size = 396)
0x165864f3d660     0  55             push rbp                ;; debug: position 1365
0x165864f3d661     1  4889e5         REX.W movq rbp,rsp
0x165864f3d664     4  56             push rsi
0x165864f3d665     5  57             push rdi
0x165864f3d666     6  493ba548090000 REX.W cmpq rsp,[r13+0x948]
0x165864f3d66d    13  7305           jnc 20  (0x165864f3d674)
0x165864f3d66f    15  e80c94ffff     call StackCheck  (0x165864f36a80)    ;; code: BUILTIN
0x165864f3d674    20  488bc6         REX.W movq rax,rsi      ;; debug: statement 1370
                                                             ;; debug: position 1374
0x165864f3d677    23  ff7037         push [rax+0x37]
0x165864f3d67a    26  41ff75a8       push [r13-0x58]
0x165864f3d67e    30  ff7510         push [rbp+0x10]         ;; debug: position 1376
0x165864f3d681    33  48ba0000000004000000 REX.W movq rdx,0x400000000    ;; debug: position 1374
0x165864f3d68b    43  488b7c2410     REX.W movq rdi,[rsp+0x10]
0x165864f3d690    48  e8ab48ffff     call 0x165864f31f40     ;; code: CALL_IC, DEFAULT
0x165864f3d695    53  488b75f8       REX.W movq rsi,[rbp-0x8]
0x165864f3d699    57  4883c408       REX.W addq rsp,0x8
0x165864f3d69d    61  e83e7ffeff     call 0x165864f255e0     ;; code: TO_BOOLEAN_IC, UNINITIALIZED (id = 12)
0x165864f3d6a2    66  4885c0         REX.W testq rax,rax
0x165864f3d6a5    69  0f8550000000   jnz 155  (0x165864f3d6fb)
0x165864f3d6ab    75  48b9099294cfdd1e0000 REX.W movq rcx,0x1eddcf949209    ;; debug: statement 1379
                                                             ;; debug: position 1386
                                                             ;; object: 0x1eddcf949209 <String[4]: $NaN>
0x165864f3d6b5    85  488b5627       REX.W movq rdx,[rsi+0x27]
0x165864f3d6b9    89  48b80000000006000000 REX.W movq rax,0x600000000
0x165864f3d6c3    99  e898aefeff     call 0x165864f28560     ;; code: contextual, LOAD_IC, DEFAULT
0x165864f3d6c8   104  48bb49cd9ecfdd1e0000 REX.W movq rbx,0x1eddcf9ecd49    ;; object: 0x1eddcf9ecd49 Cell for 6144
0x165864f3d6d2   114  83430bd1       addl [rbx+0xb],0xd1
0x165864f3d6d6   118  791f           jns 151  (0x165864f3d6f7)
0x165864f3d6d8   120  50             push rax
0x165864f3d6d9   121  e86292ffff     call InterruptCheck  (0x165864f36940)    ;; code: BUILTIN
0x165864f3d6de   126  58             pop rax
0x165864f3d6df   127  48bb49cd9ecfdd1e0000 REX.W movq rbx,0x1eddcf9ecd49    ;; object: 0x1eddcf9ecd49 Cell for 6144
0x165864f3d6e9   137  49ba0000000000180000 REX.W movq r10,0x180000000000
0x165864f3d6f3   147  4c895307       REX.W movq [rbx+0x7],r10
0x165864f3d6f7   151  c9             leave                   ;; debug: statement 1484
0x165864f3d6f8   152  c21000         ret 0x10
0x165864f3d6fb   155  488bc6         REX.W movq rax,rsi      ;; debug: statement 1392
                                                             ;; debug: position 1395
0x165864f3d6fe   158  ff703f         push [rax+0x3f]
0x165864f3d701   161  41ff75a8       push [r13-0x58]
0x165864f3d705   165  ff7510         push [rbp+0x10]         ;; debug: position 1397
0x165864f3d708   168  48ba0000000008000000 REX.W movq rdx,0x800000000    ;; debug: position 1395
0x165864f3d712   178  488b7c2410     REX.W movq rdi,[rsp+0x10]
0x165864f3d717   183  e82448ffff     call 0x165864f31f40     ;; code: CALL_IC, DEFAULT
0x165864f3d71c   188  488b75f8       REX.W movq rsi,[rbp-0x8]
0x165864f3d720   192  48890424       REX.W movq [rsp],rax
0x165864f3d724   196  48b8c9cc9ecfdd1e0000 REX.W movq rax,0x1eddcf9eccc9    ;; object: 0x1eddcf9eccc9 <Number: 8.64e+15>
0x165864f3d72e   206  5a             pop rdx
0x165864f3d72f   207  e88ceafeff     call 0x165864f2c1c0     ;; code: COMPARE_IC, UNINITIALIZED (id = 30)
0x165864f3d734   212  90             nop
0x165864f3d735   213  eb0f           jmp 230  (0x165864f3d746)
0x165864f3d737   215  493b45c0       REX.W cmpq rax,[r13-0x40]
0x165864f3d73b   219  0f840e000000   jz 239  (0x165864f3d74f)
0x165864f3d741   225  e92b000000     jmp 273  (0x165864f3d771)
0x165864f3d746   230  4885c0         REX.W testq rax,rax
0x165864f3d749   233  0f8e22000000   jle 273  (0x165864f3d771)
0x165864f3d74f   239  48b9099294cfdd1e0000 REX.W movq rcx,0x1eddcf949209    ;; debug: statement 1417
                                                             ;; debug: position 1424
                                                             ;; object: 0x1eddcf949209 <String[4]: $NaN>
0x165864f3d759   249  488b5627       REX.W movq rdx,[rsi+0x27]
0x165864f3d75d   253  48b80000000006000000 REX.W movq rax,0x600000000
0x165864f3d767   263  e8f4adfeff     call 0x165864f28560     ;; code: contextual, LOAD_IC, DEFAULT
0x165864f3d76c   268  e957ffffff     jmp 104  (0x165864f3d6c8)
0x165864f3d771   273  488b4510       REX.W movq rax,[rbp+0x10]    ;; debug: statement 1430
                                                             ;; debug: position 1453
0x165864f3d775   277  eb0f           jmp 294  (0x165864f3d786)
0x165864f3d777   279  493b45c0       REX.W cmpq rax,[r13-0x40]
0x165864f3d77b   283  0f8412000000   jz 307  (0x165864f3d793)
0x165864f3d781   289  e916000000     jmp 316  (0x165864f3d79c)
0x165864f3d786   294  a801           test al,0x1
0x165864f3d788   296  0f8405000000   jz 307  (0x165864f3d793)
0x165864f3d78e   302  e909000000     jmp 316  (0x165864f3d79c)
0x165864f3d793   307  488b4510       REX.W movq rax,[rbp+0x10]    ;; debug: position 1457
0x165864f3d797   311  e93d000000     jmp 377  (0x165864f3d7d9)
0x165864f3d79c   316  488bc6         REX.W movq rax,rsi      ;; debug: position 1476
0x165864f3d79f   319  ff704f         push [rax+0x4f]
0x165864f3d7a2   322  41ff75a8       push [r13-0x58]
0x165864f3d7a6   326  ff7510         push [rbp+0x10]         ;; debug: position 1478
0x165864f3d7a9   329  48ba000000000a000000 REX.W movq rdx,0xa00000000    ;; debug: position 1476
0x165864f3d7b3   339  488b7c2410     REX.W movq rdi,[rsp+0x10]
0x165864f3d7b8   344  e88347ffff     call 0x165864f31f40     ;; code: CALL_IC, DEFAULT
0x165864f3d7bd   349  488b75f8       REX.W movq rsi,[rbp-0x8]
0x165864f3d7c1   353  48890424       REX.W movq [rsp],rax
0x165864f3d7c5   357  b801000000     movl rax,0x1
0x165864f3d7ca   362  48bbf03d2a0100000000 REX.W movq rbx,0x12a3df0
0x165864f3d7d4   372  e807b3fcff     call 0x165864f08ae0     ;; code: STUB, CEntryStub, minor: 0
0x165864f3d7d9   377  e9eafeffff     jmp 104  (0x165864f3d6c8)
0x165864f3d7de   382  498b45a8       REX.W movq rax,[r13-0x58]
0x165864f3d7e2   386  e9e1feffff     jmp 104  (0x165864f3d6c8)
0x165864f3d7e7   391  90             nop

Deoptimization Output Data (deopt points = 0)

Back edges (size = 0)
ast_id  pc_offset  loop_depth

0x1eddcf9ecdb1: [TypeFeedbackInfo]
 - ic_total_count: 7, ic_with_type_info_count: 0, ic_generic_count: 0

RelocInfo (size = 69)
0x165864f3d660  position  (1365)
0x165864f3d670  code target (BUILTIN)  (0x165864f36a80)
0x165864f3d674  statement position  (1370)
0x165864f3d674  position  (1374)
0x165864f3d67e  position  (1376)
0x165864f3d681  position  (1374)
0x165864f3d691  code target (CALL_IC)  (0x165864f31f40)
0x165864f3d69e  code target with id (TO_BOOLEAN_IC)  (0x165864f255e0) (id=12)
0x165864f3d6ab  statement position  (1379)
0x165864f3d6ab  position  (1386)
0x165864f3d6ad  embedded object  (0x1eddcf949209 <String[4]: $NaN>)
0x165864f3d6c4  code target (LOAD_IC)  (0x165864f28560)
0x165864f3d6ca  embedded object  (0x1eddcf9ecd49 Cell for 6144)
0x165864f3d6da  code target (BUILTIN)  (0x165864f36940)
0x165864f3d6e1  embedded object  (0x1eddcf9ecd49 Cell for 6144)
0x165864f3d6f7  statement position  (1484)
0x165864f3d6fb  statement position  (1392)
0x165864f3d6fb  position  (1395)
0x165864f3d705  position  (1397)
0x165864f3d708  position  (1395)
0x165864f3d718  code target (CALL_IC)  (0x165864f31f40)
0x165864f3d726  embedded object  (0x1eddcf9eccc9 <Number: 8.64e+15>)
0x165864f3d730  code target with id (COMPARE_IC)  (0x165864f2c1c0) (id=30)
0x165864f3d74f  statement position  (1417)
0x165864f3d74f  position  (1424)
0x165864f3d751  embedded object  (0x1eddcf949209 <String[4]: $NaN>)
0x165864f3d768  code target (LOAD_IC)  (0x165864f28560)
0x165864f3d771  statement position  (1430)
0x165864f3d771  position  (1453)
0x165864f3d793  position  (1457)
0x165864f3d79c  position  (1476)
0x165864f3d7a6  position  (1478)
0x165864f3d7a9  position  (1476)
0x165864f3d7b9  code target (CALL_IC)  (0x165864f31f40)
0x165864f3d7d5  code target (STUB)  (0x165864f08ae0)

--- End code ---
--- Raw source ---
(l){
if((typeof(l)==='number'))return l;
if((typeof(l)==='string')){
return %_HasCachedArrayIndex(l)?%_GetCachedArrayIndex(l)
:%StringToNumber(l);
}
if((typeof(l)==='boolean'))return l?1:0;
if((l===(void 0)))return $NaN;
return((l===null))?0:ToNumber(DefaultNumber(l));
}


--- Code ---
source_position = 2149
kind = FUNCTION
name = ToNumber
compiler = full-codegen
Instructions (size = 532)
0x165864f3d860     0  55             push rbp                ;; debug: position 2149
0x165864f3d861     1  4889e5         REX.W movq rbp,rsp
0x165864f3d864     4  56             push rsi
0x165864f3d865     5  57             push rdi
0x165864f3d866     6  493ba548090000 REX.W cmpq rsp,[r13+0x948]
0x165864f3d86d    13  7305           jnc 20  (0x165864f3d874)
0x165864f3d86f    15  e80c92ffff     call StackCheck  (0x165864f36a80)    ;; code: BUILTIN
0x165864f3d874    20  488b4510       REX.W movq rax,[rbp+0x10]    ;; debug: statement 2154
                                                             ;; debug: position 2165
0x165864f3d878    24  eb0f           jmp 41  (0x165864f3d889)
0x165864f3d87a    26  493b45c0       REX.W cmpq rax,[r13-0x40]
0x165864f3d87e    30  0f841b000000   jz 63  (0x165864f3d89f)
0x165864f3d884    36  e94d000000     jmp 118  (0x165864f3d8d6)
0x165864f3d889    41  a801           test al,0x1
0x165864f3d88b    43  0f840e000000   jz 63  (0x165864f3d89f)
0x165864f3d891    49  488b40ff       REX.W movq rax,[rax-0x1]
0x165864f3d895    53  493b4508       REX.W cmpq rax,[r13+0x8]
0x165864f3d899    57  0f8537000000   jnz 118  (0x165864f3d8d6)
0x165864f3d89f    63  488b4510       REX.W movq rax,[rbp+0x10]    ;; debug: statement 2180
                                                             ;; debug: position 2187
0x165864f3d8a3    67  48bbb9ce9ecfdd1e0000 REX.W movq rbx,0x1eddcf9eceb9    ;; object: 0x1eddcf9eceb9 Cell for 6144
0x165864f3d8ad    77  83430bd1       addl [rbx+0xb],0xd1
0x165864f3d8b1    81  791f           jns 114  (0x165864f3d8d2)
0x165864f3d8b3    83  50             push rax
0x165864f3d8b4    84  e88790ffff     call InterruptCheck  (0x165864f36940)    ;; code: BUILTIN
0x165864f3d8b9    89  58             pop rax
0x165864f3d8ba    90  48bbb9ce9ecfdd1e0000 REX.W movq rbx,0x1eddcf9eceb9    ;; object: 0x1eddcf9eceb9 Cell for 6144
0x165864f3d8c4   100  49ba0000000000180000 REX.W movq r10,0x180000000000
0x165864f3d8ce   110  4c895307       REX.W movq [rbx+0x7],r10
0x165864f3d8d2   114  c9             leave                   ;; debug: statement 2419
0x165864f3d8d3   115  c21000         ret 0x10
0x165864f3d8d6   118  488b4510       REX.W movq rax,[rbp+0x10]    ;; debug: statement 2190
                                                             ;; debug: position 2201
0x165864f3d8da   122  eb0f           jmp 139  (0x165864f3d8eb)
0x165864f3d8dc   124  493b45c0       REX.W cmpq rax,[r13-0x40]
0x165864f3d8e0   128  0f841b000000   jz 161  (0x165864f3d901)
0x165864f3d8e6   134  e96f000000     jmp 250  (0x165864f3d95a)
0x165864f3d8eb   139  a801           test al,0x1
0x165864f3d8ed   141  0f8467000000   jz 250  (0x165864f3d95a)
0x165864f3d8f3   147  488b50ff       REX.W movq rdx,[rax-0x1]
0x165864f3d8f7   151  807a0b80       cmpb [rdx+0xb],0x80
0x165864f3d8fb   155  0f8359000000   jnc 250  (0x165864f3d95a)
0x165864f3d901   161  488b4510       REX.W movq rax,[rbp+0x10]    ;; debug: statement 2218
                                                             ;; debug: position 2247
0x165864f3d905   165  f74007020000e0 testl [rax+0x7],0xe0000002
0x165864f3d90c   172  eb0f           jmp 189  (0x165864f3d91d)
0x165864f3d90e   174  493b45c0       REX.W cmpq rax,[r13-0x40]
0x165864f3d912   178  0f8410000000   jz 200  (0x165864f3d928)
0x165864f3d918   184  e921000000     jmp 222  (0x165864f3d93e)
0x165864f3d91d   189  0f8405000000   jz 200  (0x165864f3d928)
0x165864f3d923   195  e916000000     jmp 222  (0x165864f3d93e)
0x165864f3d928   200  488b4510       REX.W movq rax,[rbp+0x10]    ;; debug: position 2272
0x165864f3d92c   204  8b4007         movl rax,[rax+0x7]
0x165864f3d92f   207  4825fcffff03   REX.W and rax,0x3fffffc
0x165864f3d935   213  48c1e01e       REX.W shlq rax, 30
0x165864f3d939   217  e917000000     jmp 245  (0x165864f3d955)
0x165864f3d93e   222  ff7510         push [rbp+0x10]         ;; debug: position 2292
0x165864f3d941   225  b801000000     movl rax,0x1
0x165864f3d946   230  48bb40342a0100000000 REX.W movq rbx,0x12a3440
0x165864f3d950   240  e88bb1fcff     call 0x165864f08ae0     ;; code: STUB, CEntryStub, minor: 0
0x165864f3d955   245  e949ffffff     jmp 67  (0x165864f3d8a3)
0x165864f3d95a   250  488b4510       REX.W movq rax,[rbp+0x10]    ;; debug: statement 2298
                                                             ;; debug: position 2309
0x165864f3d95e   254  eb0f           jmp 271  (0x165864f3d96f)
0x165864f3d960   256  493b45c0       REX.W cmpq rax,[r13-0x40]
0x165864f3d964   260  0f8419000000   jz 291  (0x165864f3d983)
0x165864f3d96a   266  e944000000     jmp 339  (0x165864f3d9b3)
0x165864f3d96f   271  493b45c0       REX.W cmpq rax,[r13-0x40]
0x165864f3d973   275  0f840a000000   jz 291  (0x165864f3d983)
0x165864f3d979   281  493b45c8       REX.W cmpq rax,[r13-0x38]
0x165864f3d97d   285  0f8530000000   jnz 339  (0x165864f3d9b3)
0x165864f3d983   291  488b4510       REX.W movq rax,[rbp+0x10]    ;; debug: statement 2325
                                                             ;; debug: position 2332
0x165864f3d987   295  e8547cfeff     call 0x165864f255e0     ;; code: TO_BOOLEAN_IC, UNINITIALIZED (id = 85)
0x165864f3d98c   300  4885c0         REX.W testq rax,rax
0x165864f3d98f   303  0f840f000000   jz 324  (0x165864f3d9a4)
0x165864f3d995   309  48b80000000001000000 REX.W movq rax,0x100000000    ;; debug: position 2334
0x165864f3d99f   319  e90a000000     jmp 334  (0x165864f3d9ae)
0x165864f3d9a4   324  48b80000000000000000 REX.W movq rax,(nil)    ;; debug: position 2336
0x165864f3d9ae   334  e9f0feffff     jmp 67  (0x165864f3d8a3)
0x165864f3d9b3   339  488b4510       REX.W movq rax,[rbp+0x10]    ;; debug: statement 2339
                                                             ;; debug: position 2343
0x165864f3d9b7   343  eb0f           jmp 360  (0x165864f3d9c8)
0x165864f3d9b9   345  493b45c0       REX.W cmpq rax,[r13-0x40]
0x165864f3d9bd   349  0f840f000000   jz 370  (0x165864f3d9d2)
0x165864f3d9c3   355  e919000000     jmp 385  (0x165864f3d9e1)
0x165864f3d9c8   360  493b45a8       REX.W cmpq rax,[r13-0x58]
0x165864f3d9cc   364  0f850f000000   jnz 385  (0x165864f3d9e1)
0x165864f3d9d2   370  bb05000000     movl rbx,0x5            ;; debug: statement 2357
                                                             ;; debug: position 2364
0x165864f3d9d7   375  e804dbfdff     call 0x165864f1b4e0     ;; code: STUB, LoadGlobalViaContextStub, minor: 1
0x165864f3d9dc   380  e9c2feffff     jmp 67  (0x165864f3d8a3)
0x165864f3d9e1   385  488b4510       REX.W movq rax,[rbp+0x10]    ;; debug: statement 2370
                                                             ;; debug: position 2378
0x165864f3d9e5   389  eb0f           jmp 406  (0x165864f3d9f6)
0x165864f3d9e7   391  493b45c0       REX.W cmpq rax,[r13-0x40]
0x165864f3d9eb   395  0f840f000000   jz 416  (0x165864f3da00)
0x165864f3d9f1   401  e919000000     jmp 431  (0x165864f3da0f)
0x165864f3d9f6   406  493b45b8       REX.W cmpq rax,[r13-0x48]
0x165864f3d9fa   410  0f850f000000   jnz 431  (0x165864f3da0f)
0x165864f3da00   416  48b80000000000000000 REX.W movq rax,(nil)    ;; debug: position 2389
0x165864f3da0a   426  e94f000000     jmp 510  (0x165864f3da5e)
0x165864f3da0f   431  488bc6         REX.W movq rax,rsi      ;; debug: position 2391
0x165864f3da12   434  ff703f         push [rax+0x3f]
0x165864f3da15   437  41ff75a8       push [r13-0x58]
0x165864f3da19   441  488bc6         REX.W movq rax,rsi      ;; debug: position 2400
0x165864f3da1c   444  ff7067         push [rax+0x67]
0x165864f3da1f   447  41ff75a8       push [r13-0x58]
0x165864f3da23   451  ff7510         push [rbp+0x10]         ;; debug: position 2414
0x165864f3da26   454  48ba0000000006000000 REX.W movq rdx,0x600000000    ;; debug: position 2400
0x165864f3da30   464  488b7c2410     REX.W movq rdi,[rsp+0x10]
0x165864f3da35   469  e80645ffff     call 0x165864f31f40     ;; code: CALL_IC, DEFAULT
0x165864f3da3a   474  488b75f8       REX.W movq rsi,[rbp-0x8]
0x165864f3da3e   478  48890424       REX.W movq [rsp],rax
0x165864f3da42   482  48ba0000000004000000 REX.W movq rdx,0x400000000    ;; debug: position 2391
0x165864f3da4c   492  488b7c2410     REX.W movq rdi,[rsp+0x10]
0x165864f3da51   497  e8ea44ffff     call 0x165864f31f40     ;; code: CALL_IC, DEFAULT
0x165864f3da56   502  488b75f8       REX.W movq rsi,[rbp-0x8]
0x165864f3da5a   506  4883c408       REX.W addq rsp,0x8
0x165864f3da5e   510  e940feffff     jmp 67  (0x165864f3d8a3)
0x165864f3da63   515  498b45a8       REX.W movq rax,[r13-0x58]
0x165864f3da67   519  e937feffff     jmp 67  (0x165864f3d8a3)
0x165864f3da6c   524  0f1f4000       nop

Deoptimization Output Data (deopt points = 0)

Back edges (size = 0)
ast_id  pc_offset  loop_depth

0x1eddcf9ecf31: [TypeFeedbackInfo]
 - ic_total_count: 3, ic_with_type_info_count: 0, ic_generic_count: 0

RelocInfo (size = 86)
0x165864f3d860  position  (2149)
0x165864f3d870  code target (BUILTIN)  (0x165864f36a80)
0x165864f3d874  statement position  (2154)
0x165864f3d874  position  (2165)
0x165864f3d89f  statement position  (2180)
0x165864f3d89f  position  (2187)
0x165864f3d8a5  embedded object  (0x1eddcf9eceb9 Cell for 6144)
0x165864f3d8b5  code target (BUILTIN)  (0x165864f36940)
0x165864f3d8bc  embedded object  (0x1eddcf9eceb9 Cell for 6144)
0x165864f3d8d2  statement position  (2419)
0x165864f3d8d6  statement position  (2190)
0x165864f3d8d6  position  (2201)
0x165864f3d901  statement position  (2218)
0x165864f3d901  position  (2247)
0x165864f3d928  position  (2272)
0x165864f3d93e  position  (2292)
0x165864f3d951  code target (STUB)  (0x165864f08ae0)
0x165864f3d95a  statement position  (2298)
0x165864f3d95a  position  (2309)
0x165864f3d983  statement position  (2325)
0x165864f3d983  position  (2332)
0x165864f3d988  code target with id (TO_BOOLEAN_IC)  (0x165864f255e0) (id=85)
0x165864f3d995  position  (2334)
0x165864f3d9a4  position  (2336)
0x165864f3d9b3  statement position  (2339)
0x165864f3d9b3  position  (2343)
0x165864f3d9d2  statement position  (2357)
0x165864f3d9d2  position  (2364)
0x165864f3d9d8  code target (STUB)  (0x165864f1b4e0)
0x165864f3d9e1  statement position  (2370)
0x165864f3d9e1  position  (2378)
0x165864f3da00  position  (2389)
0x165864f3da0f  position  (2391)
0x165864f3da19  position  (2400)
0x165864f3da23  position  (2414)
0x165864f3da26  position  (2400)
0x165864f3da36  code target (CALL_IC)  (0x165864f31f40)
0x165864f3da42  position  (2391)
0x165864f3da52  code target (CALL_IC)  (0x165864f31f40)

--- End code ---
--- Code ---
kind = STUB
major_key = <NoCache>Stub
name = FastNewContextStub
compiler = crankshaft
Instructions (size = 938)
0x165864f3dae0     0  498b9d900c0000 REX.W movq rbx,[r13+0xc90]
0x165864f3dae7     7  488bc3         REX.W movq rax,rbx
0x165864f3daea    10  480588010000   REX.W add rax,0x188
0x165864f3daf0    16  0f8208030000   jc 798  (0x165864f3ddfe)
0x165864f3daf6    22  493b85980c0000 REX.W cmpq rax,[r13+0xc98]
0x165864f3dafd    29  0f87fb020000   ja 798  (0x165864f3ddfe)
0x165864f3db03    35  498985900c0000 REX.W movq [r13+0xc90],rax
0x165864f3db0a    42  48ffc3         REX.W incq rbx
0x165864f3db0d    45  49bab14cd047962b0000 REX.W movq r10,0x2b9647d04cb1    ;; object: 0x2b9647d04cb1 <Map(FAST_HOLEY_ELEMENTS)>
0x165864f3db17    55  4c8953ff       REX.W movq [rbx-0x1],r10
0x165864f3db1b    59  49ba000000002f000000 REX.W movq r10,0x2f00000000
0x165864f3db25    69  4c895307       REX.W movq [rbx+0x7],r10
0x165864f3db29    73  48897b0f       REX.W movq [rbx+0xf],rdi
0x165864f3db2d    77  48897317       REX.W movq [rbx+0x17],rsi
0x165864f3db31    81  4533d2         xorl r10,r10
0x165864f3db34    84  4c89531f       REX.W movq [rbx+0x1f],r10
0x165864f3db38    88  488b4627       REX.W movq rax,[rsi+0x27]
0x165864f3db3c    92  48894327       REX.W movq [rbx+0x27],rax
0x165864f3db40    96  49ba894190cfdd1e0000 REX.W movq r10,0x1eddcf904189    ;; object: 0x1eddcf904189 <undefined>
0x165864f3db4a   106  4c89532f       REX.W movq [rbx+0x2f],r10
0x165864f3db4e   110  49ba894190cfdd1e0000 REX.W movq r10,0x1eddcf904189    ;; object: 0x1eddcf904189 <undefined>
0x165864f3db58   120  4c895337       REX.W movq [rbx+0x37],r10
0x165864f3db5c   124  49ba894190cfdd1e0000 REX.W movq r10,0x1eddcf904189    ;; object: 0x1eddcf904189 <undefined>
0x165864f3db66   134  4c89533f       REX.W movq [rbx+0x3f],r10
0x165864f3db6a   138  49ba894190cfdd1e0000 REX.W movq r10,0x1eddcf904189    ;; object: 0x1eddcf904189 <undefined>
0x165864f3db74   148  4c895347       REX.W movq [rbx+0x47],r10
0x165864f3db78   152  49ba894190cfdd1e0000 REX.W movq r10,0x1eddcf904189    ;; object: 0x1eddcf904189 <undefined>
0x165864f3db82   162  4c89534f       REX.W movq [rbx+0x4f],r10
0x165864f3db86   166  49ba894190cfdd1e0000 REX.W movq r10,0x1eddcf904189    ;; object: 0x1eddcf904189 <undefined>
0x165864f3db90   176  4c895357       REX.W movq [rbx+0x57],r10
0x165864f3db94   180  49ba894190cfdd1e0000 REX.W movq r10,0x1eddcf904189    ;; object: 0x1eddcf904189 <undefined>
0x165864f3db9e   190  4c89535f       REX.W movq [rbx+0x5f],r10
0x165864f3dba2   194  49ba894190cfdd1e0000 REX.W movq r10,0x1eddcf904189    ;; object: 0x1eddcf904189 <undefined>
0x165864f3dbac   204  4c895367       REX.W movq [rbx+0x67],r10
0x165864f3dbb0   208  49ba894190cfdd1e0000 REX.W movq r10,0x1eddcf904189    ;; object: 0x1eddcf904189 <undefined>
0x165864f3dbba   218  4c89536f       REX.W movq [rbx+0x6f],r10
0x165864f3dbbe   222  49ba894190cfdd1e0000 REX.W movq r10,0x1eddcf904189    ;; object: 0x1eddcf904189 <undefined>
0x165864f3dbc8   232  4c895377       REX.W movq [rbx+0x77],r10
0x165864f3dbcc   236  49ba894190cfdd1e0000 REX.W movq r10,0x1eddcf904189    ;; object: 0x1eddcf904189 <undefined>
0x165864f3dbd6   246  4c89537f       REX.W movq [rbx+0x7f],r10
0x165864f3dbda   250  49ba894190cfdd1e0000 REX.W movq r10,0x1eddcf904189    ;; object: 0x1eddcf904189 <undefined>
0x165864f3dbe4   260  4c899387000000 REX.W movq [rbx+0x87],r10
0x165864f3dbeb   267  49ba894190cfdd1e0000 REX.W movq r10,0x1eddcf904189    ;; object: 0x1eddcf904189 <undefined>
0x165864f3dbf5   277  4c89938f000000 REX.W movq [rbx+0x8f],r10
0x165864f3dbfc   284  49ba894190cfdd1e0000 REX.W movq r10,0x1eddcf904189    ;; object: 0x1eddcf904189 <undefined>
0x165864f3dc06   294  4c899397000000 REX.W movq [rbx+0x97],r10
0x165864f3dc0d   301  49ba894190cfdd1e0000 REX.W movq r10,0x1eddcf904189    ;; object: 0x1eddcf904189 <undefined>
0x165864f3dc17   311  4c89939f000000 REX.W movq [rbx+0x9f],r10
0x165864f3dc1e   318  49ba894190cfdd1e0000 REX.W movq r10,0x1eddcf904189    ;; object: 0x1eddcf904189 <undefined>
0x165864f3dc28   328  4c8993a7000000 REX.W movq [rbx+0xa7],r10
0x165864f3dc2f   335  49ba894190cfdd1e0000 REX.W movq r10,0x1eddcf904189    ;; object: 0x1eddcf904189 <undefined>
0x165864f3dc39   345  4c8993af000000 REX.W movq [rbx+0xaf],r10
0x165864f3dc40   352  49ba894190cfdd1e0000 REX.W movq r10,0x1eddcf904189    ;; object: 0x1eddcf904189 <undefined>
0x165864f3dc4a   362  4c8993b7000000 REX.W movq [rbx+0xb7],r10
0x165864f3dc51   369  49ba894190cfdd1e0000 REX.W movq r10,0x1eddcf904189    ;; object: 0x1eddcf904189 <undefined>
0x165864f3dc5b   379  4c8993bf000000 REX.W movq [rbx+0xbf],r10
0x165864f3dc62   386  49ba894190cfdd1e0000 REX.W movq r10,0x1eddcf904189    ;; object: 0x1eddcf904189 <undefined>
0x165864f3dc6c   396  4c8993c7000000 REX.W movq [rbx+0xc7],r10
0x165864f3dc73   403  49ba894190cfdd1e0000 REX.W movq r10,0x1eddcf904189    ;; object: 0x1eddcf904189 <undefined>
0x165864f3dc7d   413  4c8993cf000000 REX.W movq [rbx+0xcf],r10
0x165864f3dc84   420  49ba894190cfdd1e0000 REX.W movq r10,0x1eddcf904189    ;; object: 0x1eddcf904189 <undefined>
0x165864f3dc8e   430  4c8993d7000000 REX.W movq [rbx+0xd7],r10
0x165864f3dc95   437  49ba894190cfdd1e0000 REX.W movq r10,0x1eddcf904189    ;; object: 0x1eddcf904189 <undefined>
0x165864f3dc9f   447  4c8993df000000 REX.W movq [rbx+0xdf],r10
0x165864f3dca6   454  49ba894190cfdd1e0000 REX.W movq r10,0x1eddcf904189    ;; object: 0x1eddcf904189 <undefined>
0x165864f3dcb0   464  4c8993e7000000 REX.W movq [rbx+0xe7],r10
0x165864f3dcb7   471  49ba894190cfdd1e0000 REX.W movq r10,0x1eddcf904189    ;; object: 0x1eddcf904189 <undefined>
0x165864f3dcc1   481  4c8993ef000000 REX.W movq [rbx+0xef],r10
0x165864f3dcc8   488  49ba894190cfdd1e0000 REX.W movq r10,0x1eddcf904189    ;; object: 0x1eddcf904189 <undefined>
0x165864f3dcd2   498  4c8993f7000000 REX.W movq [rbx+0xf7],r10
0x165864f3dcd9   505  49ba894190cfdd1e0000 REX.W movq r10,0x1eddcf904189    ;; object: 0x1eddcf904189 <undefined>
0x165864f3dce3   515  4c8993ff000000 REX.W movq [rbx+0xff],r10
0x165864f3dcea   522  49ba894190cfdd1e0000 REX.W movq r10,0x1eddcf904189    ;; object: 0x1eddcf904189 <undefined>
0x165864f3dcf4   532  4c899307010000 REX.W movq [rbx+0x107],r10
0x165864f3dcfb   539  49ba894190cfdd1e0000 REX.W movq r10,0x1eddcf904189    ;; object: 0x1eddcf904189 <undefined>
0x165864f3dd05   549  4c89930f010000 REX.W movq [rbx+0x10f],r10
0x165864f3dd0c   556  49ba894190cfdd1e0000 REX.W movq r10,0x1eddcf904189    ;; object: 0x1eddcf904189 <undefined>
0x165864f3dd16   566  4c899317010000 REX.W movq [rbx+0x117],r10
0x165864f3dd1d   573  49ba894190cfdd1e0000 REX.W movq r10,0x1eddcf904189    ;; object: 0x1eddcf904189 <undefined>
0x165864f3dd27   583  4c89931f010000 REX.W movq [rbx+0x11f],r10
0x165864f3dd2e   590  49ba894190cfdd1e0000 REX.W movq r10,0x1eddcf904189    ;; object: 0x1eddcf904189 <undefined>
0x165864f3dd38   600  4c899327010000 REX.W movq [rbx+0x127],r10
0x165864f3dd3f   607  49ba894190cfdd1e0000 REX.W movq r10,0x1eddcf904189    ;; object: 0x1eddcf904189 <undefined>
0x165864f3dd49   617  4c89932f010000 REX.W movq [rbx+0x12f],r10
0x165864f3dd50   624  49ba894190cfdd1e0000 REX.W movq r10,0x1eddcf904189    ;; object: 0x1eddcf904189 <undefined>
0x165864f3dd5a   634  4c899337010000 REX.W movq [rbx+0x137],r10
0x165864f3dd61   641  49ba894190cfdd1e0000 REX.W movq r10,0x1eddcf904189    ;; object: 0x1eddcf904189 <undefined>
0x165864f3dd6b   651  4c89933f010000 REX.W movq [rbx+0x13f],r10
0x165864f3dd72   658  49ba894190cfdd1e0000 REX.W movq r10,0x1eddcf904189    ;; object: 0x1eddcf904189 <undefined>
0x165864f3dd7c   668  4c899347010000 REX.W movq [rbx+0x147],r10
0x165864f3dd83   675  49ba894190cfdd1e0000 REX.W movq r10,0x1eddcf904189    ;; object: 0x1eddcf904189 <undefined>
0x165864f3dd8d   685  4c89934f010000 REX.W movq [rbx+0x14f],r10
0x165864f3dd94   692  49ba894190cfdd1e0000 REX.W movq r10,0x1eddcf904189    ;; object: 0x1eddcf904189 <undefined>
0x165864f3dd9e   702  4c899357010000 REX.W movq [rbx+0x157],r10
0x165864f3dda5   709  49ba894190cfdd1e0000 REX.W movq r10,0x1eddcf904189    ;; object: 0x1eddcf904189 <undefined>
0x165864f3ddaf   719  4c89935f010000 REX.W movq [rbx+0x15f],r10
0x165864f3ddb6   726  49ba894190cfdd1e0000 REX.W movq r10,0x1eddcf904189    ;; object: 0x1eddcf904189 <undefined>
0x165864f3ddc0   736  4c899367010000 REX.W movq [rbx+0x167],r10
0x165864f3ddc7   743  49ba894190cfdd1e0000 REX.W movq r10,0x1eddcf904189    ;; object: 0x1eddcf904189 <undefined>
0x165864f3ddd1   753  4c89936f010000 REX.W movq [rbx+0x16f],r10
0x165864f3ddd8   760  49ba894190cfdd1e0000 REX.W movq r10,0x1eddcf904189    ;; object: 0x1eddcf904189 <undefined>
0x165864f3dde2   770  4c899377010000 REX.W movq [rbx+0x177],r10
0x165864f3dde9   777  49ba894190cfdd1e0000 REX.W movq r10,0x1eddcf904189    ;; object: 0x1eddcf904189 <undefined>
0x165864f3ddf3   787  4c89937f010000 REX.W movq [rbx+0x17f],r10
0x165864f3ddfa   794  488bc3         REX.W movq rax,rbx
0x165864f3ddfd   797  c3             ret
0x165864f3ddfe   798  55             push rbp
0x165864f3ddff   799  ff75f8         push [rbp-0x8]
0x165864f3de02   802  49ba0000000006000000 REX.W movq r10,0x600000000
0x165864f3de0c   812  4152           push r10
0x165864f3de0e   814  488d6c2410     REX.W leaq rbp,[rsp+0x10]
0x165864f3de13   819  48bb0000000000000000 REX.W movq rbx,(nil)
0x165864f3de1d   829  50             push rax
0x165864f3de1e   830  51             push rcx
0x165864f3de1f   831  52             push rdx
0x165864f3de20   832  53             push rbx
0x165864f3de21   833  56             push rsi
0x165864f3de22   834  57             push rdi
0x165864f3de23   835  4150           push r8
0x165864f3de25   837  4151           push r9
0x165864f3de27   839  4153           push r11
0x165864f3de29   841  4154           push r12
0x165864f3de2b   843  4156           push r14
0x165864f3de2d   845  4157           push r15
0x165864f3de2f   847  488d6424e0     REX.W leaq rsp,[rsp-0x20]
0x165864f3de34   852  49ba0000000088010000 REX.W movq r10,0x18800000000
0x165864f3de3e   862  4152           push r10
0x165864f3de40   864  6a00           push 0x0
0x165864f3de42   866  b802000000     movl rax,0x2
0x165864f3de47   871  498d9d287a38fe REX.W leaq rbx,[r13-0x1c785d8]
0x165864f3de4e   878  e84d84fcff     call 0x165864f062a0     ;; code: STUB, CEntryStub, minor: 1
0x165864f3de53   883  4889442460     REX.W movq [rsp+0x60],rax
0x165864f3de58   888  488d642420     REX.W leaq rsp,[rsp+0x20]
0x165864f3de5d   893  415f           pop r15
0x165864f3de5f   895  415e           pop r14
0x165864f3de61   897  415c           pop r12
0x165864f3de63   899  415b           pop r11
0x165864f3de65   901  4159           pop r9
0x165864f3de67   903  4158           pop r8
0x165864f3de69   905  5f             pop rdi
0x165864f3de6a   906  5e             pop rsi
0x165864f3de6b   907  5b             pop rbx
0x165864f3de6c   908  5a             pop rdx
0x165864f3de6d   909  59             pop rcx
0x165864f3de6e   910  58             pop rax
0x165864f3de6f   911  488be5         REX.W movq rsp,rbp
0x165864f3de72   914  5d             pop rbp
0x165864f3de73   915  e995fcffff     jmp 45  (0x165864f3db0d)


Safepoints (size = 18)
0x165864f3de53   883  00000000 | rbx | rsi | rdi (sp -> fp)  <none> argc: 2

RelocInfo (size = 47)
0x165864f3db0f  embedded object  (0x2b9647d04cb1 <Map(FAST_HOLEY_ELEMENTS)>)
0x165864f3db42  embedded object  (0x1eddcf904189 <undefined>)
0x165864f3db50  embedded object  (0x1eddcf904189 <undefined>)
0x165864f3db5e  embedded object  (0x1eddcf904189 <undefined>)
0x165864f3db6c  embedded object  (0x1eddcf904189 <undefined>)
0x165864f3db7a  embedded object  (0x1eddcf904189 <undefined>)
0x165864f3db88  embedded object  (0x1eddcf904189 <undefined>)
0x165864f3db96  embedded object  (0x1eddcf904189 <undefined>)
0x165864f3dba4  embedded object  (0x1eddcf904189 <undefined>)
0x165864f3dbb2  embedded object  (0x1eddcf904189 <undefined>)
0x165864f3dbc0  embedded object  (0x1eddcf904189 <undefined>)
0x165864f3dbce  embedded object  (0x1eddcf904189 <undefined>)
0x165864f3dbdc  embedded object  (0x1eddcf904189 <undefined>)
0x165864f3dbed  embedded object  (0x1eddcf904189 <undefined>)
0x165864f3dbfe  embedded object  (0x1eddcf904189 <undefined>)
0x165864f3dc0f  embedded object  (0x1eddcf904189 <undefined>)
0x165864f3dc20  embedded object  (0x1eddcf904189 <undefined>)
0x165864f3dc31  embedded object  (0x1eddcf904189 <undefined>)
0x165864f3dc42  embedded object  (0x1eddcf904189 <undefined>)
0x165864f3dc53  embedded object  (0x1eddcf904189 <undefined>)
0x165864f3dc64  embedded object  (0x1eddcf904189 <undefined>)
0x165864f3dc75  embedded object  (0x1eddcf904189 <undefined>)
0x165864f3dc86  embedded object  (0x1eddcf904189 <undefined>)
0x165864f3dc97  embedded object  (0x1eddcf904189 <undefined>)
0x165864f3dca8  embedded object  (0x1eddcf904189 <undefined>)
0x165864f3dcb9  embedded object  (0x1eddcf904189 <undefined>)
0x165864f3dcca  embedded object  (0x1eddcf904189 <undefined>)
0x165864f3dcdb  embedded object  (0x1eddcf904189 <undefined>)
0x165864f3dcec  embedded object  (0x1eddcf904189 <undefined>)
0x165864f3dcfd  embedded object  (0x1eddcf904189 <undefined>)
0x165864f3dd0e  embedded object  (0x1eddcf904189 <undefined>)
0x165864f3dd1f  embedded object  (0x1eddcf904189 <undefined>)
0x165864f3dd30  embedded object  (0x1eddcf904189 <undefined>)
0x165864f3dd41  embedded object  (0x1eddcf904189 <undefined>)
0x165864f3dd52  embedded object  (0x1eddcf904189 <undefined>)
0x165864f3dd63  embedded object  (0x1eddcf904189 <undefined>)
0x165864f3dd74  embedded object  (0x1eddcf904189 <undefined>)
0x165864f3dd85  embedded object  (0x1eddcf904189 <undefined>)
0x165864f3dd96  embedded object  (0x1eddcf904189 <undefined>)
0x165864f3dda7  embedded object  (0x1eddcf904189 <undefined>)
0x165864f3ddb8  embedded object  (0x1eddcf904189 <undefined>)
0x165864f3ddc9  embedded object  (0x1eddcf904189 <undefined>)
0x165864f3ddda  embedded object  (0x1eddcf904189 <undefined>)
0x165864f3ddeb  embedded object  (0x1eddcf904189 <undefined>)
0x165864f3de4f  code target (STUB)  (0x165864f062a0)

--- End code ---
--- Raw source ---
(input,time) {
    // formatDate :
    // a PHP date like function, for formatting date strings
    // See: http://www.php.net/date
    //
    // input : format string
    // time : epoch time (seconds, and optional)
    //
    // if time is not passed, formatting is based on 
    // the current "this" date object's set time.
    //
    // supported:
    // a, A, B, d, D, F, g, G, h, H, i, j, l (lowercase L), L, 
    // m, M, n, O, r, s, S, t, U, w, W, y, Y, z
    //
    // unsupported:
    // I (capital i), T, Z    

    var switches =    ["a", "A", "B", "d", "D", "F", "g", "G", "h", "H", 
                       "i", "j", "l", "L", "m", "M", "n", "O", "r", "s", 
                       "S", "t", "U", "w", "W", "y", "Y", "z"];
    var daysLong =    ["Sunday", "Monday", "Tuesday", "Wednesday", 
                       "Thursday", "Friday", "Saturday"];
    var daysShort =   ["Sun", "Mon", "Tue", "Wed", 
                       "Thu", "Fri", "Sat"];
    var monthsShort = ["Jan", "Feb", "Mar", "Apr",
                       "May", "Jun", "Jul", "Aug", "Sep",
                       "Oct", "Nov", "Dec"];
    var monthsLong =  ["January", "February", "March", "April",
                       "May", "June", "July", "August", "September",
                       "October", "November", "December"];
    var daysSuffix = ["st", "nd", "rd", "th", "th", "th", "th", // 1st - 7th
                      "th", "th", "th", "th", "th", "th", "th", // 8th - 14th
                      "th", "th", "th", "th", "th", "th", "st", // 15th - 21st
                      "nd", "rd", "th", "th", "th", "th", "th", // 22nd - 28th
                      "th", "th", "st"];                        // 29th - 31st

    function a() {
        // Lowercase Ante meridiem and Post meridiem
        return self.getHours() > 11? "pm" : "am";
    }
    function A() {
        // Uppercase Ante meridiem and Post meridiem
        return self.getHours() > 11? "PM" : "AM";
    }

    function B(){
        // Swatch internet time. code simply grabbed from ppk,
        // since I was feeling lazy:
        // http://www.xs4all.nl/~ppk/js/beat.html
        var off = (self.getTimezoneOffset() + 60)*60;
        var theSeconds = (self.getHours() * 3600) + 
                         (self.getMinutes() * 60) + 
                          self.getSeconds() + off;
        var beat = Math.floor(theSeconds/86.4);
        if (beat > 1000) beat -= 1000;
        if (beat < 0) beat += 1000;
        if ((""+beat).length == 1) beat = "00"+beat;
        if ((""+beat).length == 2) beat = "0"+beat;
        return beat;
    }
    
    function d() {
        // Day of the month, 2 digits with leading zeros
        return new String(self.getDate()).length == 1?
        "0"+self.getDate() : self.getDate();
    }
    function D() {
        // A textual representation of a day, three letters
        return daysShort[self.getDay()];
    }
    function F() {
        // A full textual representation of a month
        return monthsLong[self.getMonth()];
    }
    function g() {
        // 12-hour format of an hour without leading zeros
        return self.getHours() > 12? self.getHours()-12 : self.getHours();
    }
    function G() {
        // 24-hour format of an hour without leading zeros
        return self.getHours();
    }
    function h() {
        // 12-hour format of an hour with leading zeros
        if (self.getHours() > 12) {
          var s = new String(self.getHours()-12);
          return s.length == 1?
          "0"+ (self.getHours()-12) : self.getHours()-12;
        } else { 
          var s = new String(self.getHours());
          return s.length == 1?
          "0"+self.getHours() : self.getHours();
        }  
    }
    function H() {
        // 24-hour format of an hour with leading zeros
        return new String(self.getHours()).length == 1?
        "0"+self.getHours() : self.getHours();
    }
    function i() {
        // Minutes with leading zeros
        return new String(self.getMinutes()).length == 1? 
        "0"+self.getMinutes() : self.getMinutes(); 
    }
    function j() {
        // Day of the month without leading zeros
        return self.getDate();
    }    
    function l() {
        // A full textual representation of the day of the week
        return daysLong[self.getDay()];
    }
    function L() {
        // leap year or not. 1 if leap year, 0 if not.
        // the logic should match iso's 8601 standard.
        var y_ = Y();
        if (         
            (y_ % 4 == 0 && y_ % 100 != 0) ||
            (y_ % 4 == 0 && y_ % 100 == 0 && y_ % 400 == 0)
            ) {
            return 1;
        } else {
            return 0;
        }
    }
    function m() {
        // Numeric representation of a month, with leading zeros
        return self.getMonth() < 9?
        "0"+(self.getMonth()+1) : 
        self.getMonth()+1;
    }
    function M() {
        // A short textual representation of a month, three letters
        return monthsShort[self.getMonth()];
    }
    function n() {
        // Numeric representation of a month, without leading zeros
        return self.getMonth()+1;
    }
    function O() {
        // Difference to Greenwich time (GMT) in hours
        var os = Math.abs(self.getTimezoneOffset());
        var h = ""+Math.floor(os/60);
        var m = ""+(os%60);
        h.length == 1? h = "0"+h:1;
        m.length == 1? m = "0"+m:1;
        return self.getTimezoneOffset() < 0 ? "+"+h+m : "-"+h+m;
    }
    function r() {
        // RFC 822 formatted date
        var r; // result
        //  Thu    ,     21          Dec         2000
        r = D() + ", " + j() + " " + M() + " " + Y() +
        //        16     :    01     :    07          +0200
            " " + H() + ":" + i() + ":" + s() + " " + O();
        return r;
    }
    function S() {
        // English ordinal suffix for the day of the month, 2 characters
        return daysSuffix[self.getDate()-1];
    }
    function s() {
        // Seconds, with leading zeros
        return new String(self.getSeconds()).length == 1?
        "0"+self.getSeconds() : self.getSeconds();
    }
    function t() {

        // thanks to Matt Bannon for some much needed code-fixes here!
        var daysinmonths = [null,31,28,31,30,31,30,31,31,30,31,30,31];
        if (L()==1 && n()==2) return 29; // leap day
        return daysinmonths[n()];
    }
    function U() {
        // Seconds since the Unix Epoch (January 1 1970 00:00:00 GMT)
        return Math.round(self.getTime()/1000);
    }
    function W() {
        // Weeknumber, as per ISO specification:
        // http://www.cl.cam.ac.uk/~mgk25/iso-time.html
        
        // if the day is three days before newyears eve,
        // there's a chance it's "week 1" of next year.
        // here we check for that.
        var beforeNY = 364+L() - z();
        var afterNY  = z();
        var weekday = w()!=0?w()-1:6; // makes sunday (0), into 6.
        if (beforeNY <= 2 && weekday <= 2-beforeNY) {
            return 1;
        }
        // similarly, if the day is within threedays of newyears
        // there's a chance it belongs in the old year.
        var ny = new Date("January 1 " + Y() + " 00:00:00");
        var nyDay = ny.getDay()!=0?ny.getDay()-1:6;
        if (
            (afterNY <= 2) && 
            (nyDay >=4)  && 
            (afterNY >= (6-nyDay))
            ) {
            // Since I'm not sure we can just always return 53,
            // i call the function here again, using the last day
            // of the previous year, as the date, and then just
            // return that week.
            var prevNY = new Date("December 31 " + (Y()-1) + " 00:00:00");
            return prevNY.formatDate("W");
        }
        
        // week 1, is the week that has the first thursday in it.
        // note that this value is not zero index.
        if (nyDay <= 3) {
            // first day of the year fell on a thursday, or earlier.
            return 1 + Math.floor( ( z() + nyDay ) / 7 );
        } else {
            // first day of the year fell on a friday, or later.
            return 1 + Math.floor( ( z() - ( 7 - nyDay ) ) / 7 );
        }
    }
    function w() {
        // Numeric representation of the day of the week
        return self.getDay();
    }
    
    function Y() {
        // A full numeric representation of a year, 4 digits

        // we first check, if getFullYear is supported. if it
        // is, we just use that. ppks code is nice, but wont
        // work with dates outside 1900-2038, or something like that
        if (self.getFullYear) {
            var newDate = new Date("January 1 2001 00:00:00 +0000");
            var x = newDate .getFullYear();
            if (x == 2001) {              
                // i trust the method now
                return self.getFullYear();
            }
        }
        // else, do this:
        // codes thanks to ppk:
        // http://www.xs4all.nl/~ppk/js/introdate.html
        var x = self.getYear();
        var y = x % 100;
        y += (y < 38) ? 2000 : 1900;
        return y;
    }
    function y() {
        // A two-digit representation of a year
        var y = Y()+"";
        return y.substring(y.length-2,y.length);
    }
    function z() {
        // The day of the year, zero indexed! 0 through 366
        var t = new Date("January 1 " + Y() + " 00:00:00");
        var diff = self.getTime() - t.getTime();
        return Math.floor(diff/1000/60/60/24);
    }
        
    var self = this;
    if (time) {
        // save time
        var prevTime = self.getTime();
        self.setTime(time);
    }
    
    var ia = input.split("");
    var ij = 0;
    while (ia[ij]) {
        if (ia[ij] == "\x5c\x5c") {
            // this is our way of allowing users to escape stuff
            ia.splice(ij,1);
        } else {
            if (arrayExists(switches,ia[ij])) {
                ia[ij] = eval(ia[ij] + "()");
            }
        }
        ij++;
    }
    // reset time, back to what it was
    if (prevTime) {
        self.setTime(prevTime);
    }
    return ia.join("");
}


--- Code ---
source_position = 182
kind = FUNCTION
name = Date.formatDate
compiler = full-codegen
Instructions (size = 4240)
0x165864f3e6c0     0  488b4c2418     REX.W movq rcx,[rsp+0x18]    ;; debug: position 182
0x165864f3e6c5     5  493b4da8       REX.W cmpq rcx,[r13-0x58]
0x165864f3e6c9     9  750d           jnz 24  (0x165864f3e6d8)
0x165864f3e6cb    11  488b4e27       REX.W movq rcx,[rsi+0x27]
0x165864f3e6cf    15  488b4927       REX.W movq rcx,[rcx+0x27]
0x165864f3e6d3    19  48894c2418     REX.W movq [rsp+0x18],rcx
0x165864f3e6d8    24  55             push rbp
0x165864f3e6d9    25  4889e5         REX.W movq rbp,rsp
0x165864f3e6dc    28  56             push rsi
0x165864f3e6dd    29  57             push rdi
0x165864f3e6de    30  e8fdf3ffff     call 0x165864f3dae0     ;; code: STUB, FastNewContextStub, minor: 43
0x165864f3e6e3    35  488bf0         REX.W movq rsi,rax
0x165864f3e6e6    38  488945f8       REX.W movq [rbp-0x8],rax
0x165864f3e6ea    42  488b4520       REX.W movq rax,[rbp+0x20]
0x165864f3e6ee    46  4889463f       REX.W movq [rsi+0x3f],rax
0x165864f3e6f2    50  488b4518       REX.W movq rax,[rbp+0x18]
0x165864f3e6f6    54  48894637       REX.W movq [rsi+0x37],rax
0x165864f3e6fa    58  488b4510       REX.W movq rax,[rbp+0x10]
0x165864f3e6fe    62  4889462f       REX.W movq [rsi+0x2f],rax
0x165864f3e702    66  488b4500       REX.W movq rax,[rbp+0x0]
0x165864f3e706    70  49ba000000000a000000 REX.W movq r10,0xa00000000
0x165864f3e710    80  4c3950f8       REX.W cmpq [rax-0x8],r10
0x165864f3e714    84  0f8503000000   jnz 93  (0x165864f3e71d)
0x165864f3e71a    90  488b00         REX.W movq rax,[rax]
0x165864f3e71d    93  49ba0000000009000000 REX.W movq r10,0x900000000
0x165864f3e727   103  4c3950f0       REX.W cmpq [rax-0x10],r10
0x165864f3e72b   107  0f8509000000   jnz 122  (0x165864f3e73a)
0x165864f3e731   113  488b40d0       REX.W movq rax,[rax-0x30]
0x165864f3e735   117  e904000000     jmp 126  (0x165864f3e73e)
0x165864f3e73a   122  498b45a8       REX.W movq rax,[r13-0x58]
0x165864f3e73e   126  488bde         REX.W movq rbx,rsi
0x165864f3e741   129  4889434f       REX.W movq [rbx+0x4f],rax
0x165864f3e745   133  a801           test al,0x1
0x165864f3e747   135  0f8425000000   jz 178  (0x165864f3e772)
0x165864f3e74d   141  488d534f       REX.W leaq rdx,[rbx+0x4f]
0x165864f3e751   145  48250000f0ff   REX.W and rax,0xfffffffffff00000
0x165864f3e757   151  f6400804       testb [rax+0x8],0x4
0x165864f3e75b   155  7415           jz 178  (0x165864f3e772)
0x165864f3e75d   157  48c7c00000f0ff REX.W movq rax,0xfff00000
0x165864f3e764   164  4823c3         REX.W andq rax,rbx
0x165864f3e767   167  f6400808       testb [rax+0x8],0x8
0x165864f3e76b   171  7405           jz 178  (0x165864f3e772)
0x165864f3e76d   173  e88ef7ffff     call 0x165864f3df00     ;; code: STUB, RecordWriteStub, minor: 515
0x165864f3e772   178  488b7df0       REX.W movq rdi,[rbp-0x10]
0x165864f3e776   182  48b90000000002000000 REX.W movq rcx,0x200000000
0x165864f3e780   192  488d5520       REX.W leaq rdx,[rbp+0x20]
0x165864f3e784   196  e8771bfdff     call 0x165864f10300     ;; code: STUB, ArgumentsAccessStub, minor: 1
0x165864f3e789   201  488bde         REX.W movq rbx,rsi
0x165864f3e78c   204  48894347       REX.W movq [rbx+0x47],rax
0x165864f3e790   208  a801           test al,0x1
0x165864f3e792   210  0f8425000000   jz 253  (0x165864f3e7bd)
0x165864f3e798   216  488d5347       REX.W leaq rdx,[rbx+0x47]
0x165864f3e79c   220  48250000f0ff   REX.W and rax,0xfffffffffff00000
0x165864f3e7a2   226  f6400804       testb [rax+0x8],0x4
0x165864f3e7a6   230  7415           jz 253  (0x165864f3e7bd)
0x165864f3e7a8   232  48c7c00000f0ff REX.W movq rax,0xfff00000
0x165864f3e7af   239  4823c3         REX.W andq rax,rbx
0x165864f3e7b2   242  f6400808       testb [rax+0x8],0x8
0x165864f3e7b6   246  7405           jz 253  (0x165864f3e7bd)
0x165864f3e7b8   248  e843f7ffff     call 0x165864f3df00     ;; code: STUB, RecordWriteStub, minor: 515
0x165864f3e7bd   253  48bbe1d79ecfdd1e0000 REX.W movq rbx,0x1eddcf9ed7e1    ;; object: 0x1eddcf9ed7e1 <SharedFunctionInfo a>
0x165864f3e7c7   263  e8d4a9feff     call 0x165864f291a0     ;; code: STUB, FastNewClosureStub, minor: 0
0x165864f3e7cc   268  48898687000000 REX.W movq [rsi+0x87],rax
0x165864f3e7d3   275  488d8e87000000 REX.W leaq rcx,[rsi+0x87]
0x165864f3e7da   282  48250000f0ff   REX.W and rax,0xfffffffffff00000
0x165864f3e7e0   288  f6400804       testb [rax+0x8],0x4
0x165864f3e7e4   292  7415           jz 315  (0x165864f3e7fb)
0x165864f3e7e6   294  48c7c00000f0ff REX.W movq rax,0xfff00000
0x165864f3e7ed   301  4823c6         REX.W andq rax,rsi
0x165864f3e7f0   304  f6400808       testb [rax+0x8],0x8
0x165864f3e7f4   308  7405           jz 315  (0x165864f3e7fb)
0x165864f3e7f6   310  e8c53bfeff     call 0x165864f223c0     ;; code: STUB, RecordWriteStub, minor: 262
0x165864f3e7fb   315  48bb91d89ecfdd1e0000 REX.W movq rbx,0x1eddcf9ed891    ;; object: 0x1eddcf9ed891 <SharedFunctionInfo A>
0x165864f3e805   325  e896a9feff     call 0x165864f291a0     ;; code: STUB, FastNewClosureStub, minor: 0
0x165864f3e80a   330  4889868f000000 REX.W movq [rsi+0x8f],rax
0x165864f3e811   337  488d8e8f000000 REX.W leaq rcx,[rsi+0x8f]
0x165864f3e818   344  48250000f0ff   REX.W and rax,0xfffffffffff00000
0x165864f3e81e   350  f6400804       testb [rax+0x8],0x4
0x165864f3e822   354  7415           jz 377  (0x165864f3e839)
0x165864f3e824   356  48c7c00000f0ff REX.W movq rax,0xfff00000
0x165864f3e82b   363  4823c6         REX.W andq rax,rsi
0x165864f3e82e   366  f6400808       testb [rax+0x8],0x8
0x165864f3e832   370  7405           jz 377  (0x165864f3e839)
0x165864f3e834   372  e8873bfeff     call 0x165864f223c0     ;; code: STUB, RecordWriteStub, minor: 262
0x165864f3e839   377  48bb41d99ecfdd1e0000 REX.W movq rbx,0x1eddcf9ed941    ;; object: 0x1eddcf9ed941 <SharedFunctionInfo B>
0x165864f3e843   387  e858a9feff     call 0x165864f291a0     ;; code: STUB, FastNewClosureStub, minor: 0
0x165864f3e848   392  48898697000000 REX.W movq [rsi+0x97],rax
0x165864f3e84f   399  488d8e97000000 REX.W leaq rcx,[rsi+0x97]
0x165864f3e856   406  48250000f0ff   REX.W and rax,0xfffffffffff00000
0x165864f3e85c   412  f6400804       testb [rax+0x8],0x4
0x165864f3e860   416  7415           jz 439  (0x165864f3e877)
0x165864f3e862   418  48c7c00000f0ff REX.W movq rax,0xfff00000
0x165864f3e869   425  4823c6         REX.W andq rax,rsi
0x165864f3e86c   428  f6400808       testb [rax+0x8],0x8
0x165864f3e870   432  7405           jz 439  (0x165864f3e877)
0x165864f3e872   434  e8493bfeff     call 0x165864f223c0     ;; code: STUB, RecordWriteStub, minor: 262
0x165864f3e877   439  48bbf1d99ecfdd1e0000 REX.W movq rbx,0x1eddcf9ed9f1    ;; object: 0x1eddcf9ed9f1 <SharedFunctionInfo d>
0x165864f3e881   449  e81aa9feff     call 0x165864f291a0     ;; code: STUB, FastNewClosureStub, minor: 0
0x165864f3e886   454  4889869f000000 REX.W movq [rsi+0x9f],rax
0x165864f3e88d   461  488d8e9f000000 REX.W leaq rcx,[rsi+0x9f]
0x165864f3e894   468  48250000f0ff   REX.W and rax,0xfffffffffff00000
0x165864f3e89a   474  f6400804       testb [rax+0x8],0x4
0x165864f3e89e   478  7415           jz 501  (0x165864f3e8b5)
0x165864f3e8a0   480  48c7c00000f0ff REX.W movq rax,0xfff00000
0x165864f3e8a7   487  4823c6         REX.W andq rax,rsi
0x165864f3e8aa   490  f6400808       testb [rax+0x8],0x8
0x165864f3e8ae   494  7405           jz 501  (0x165864f3e8b5)
0x165864f3e8b0   496  e80b3bfeff     call 0x165864f223c0     ;; code: STUB, RecordWriteStub, minor: 262
0x165864f3e8b5   501  48bba1da9ecfdd1e0000 REX.W movq rbx,0x1eddcf9edaa1    ;; object: 0x1eddcf9edaa1 <SharedFunctionInfo D>
0x165864f3e8bf   511  e8dca8feff     call 0x165864f291a0     ;; code: STUB, FastNewClosureStub, minor: 0
0x165864f3e8c4   516  488986a7000000 REX.W movq [rsi+0xa7],rax
0x165864f3e8cb   523  488d8ea7000000 REX.W leaq rcx,[rsi+0xa7]
0x165864f3e8d2   530  48250000f0ff   REX.W and rax,0xfffffffffff00000
0x165864f3e8d8   536  f6400804       testb [rax+0x8],0x4
0x165864f3e8dc   540  7415           jz 563  (0x165864f3e8f3)
0x165864f3e8de   542  48c7c00000f0ff REX.W movq rax,0xfff00000
0x165864f3e8e5   549  4823c6         REX.W andq rax,rsi
0x165864f3e8e8   552  f6400808       testb [rax+0x8],0x8
0x165864f3e8ec   556  7405           jz 563  (0x165864f3e8f3)
0x165864f3e8ee   558  e8cd3afeff     call 0x165864f223c0     ;; code: STUB, RecordWriteStub, minor: 262
0x165864f3e8f3   563  48bb51db9ecfdd1e0000 REX.W movq rbx,0x1eddcf9edb51    ;; object: 0x1eddcf9edb51 <SharedFunctionInfo F>
0x165864f3e8fd   573  e89ea8feff     call 0x165864f291a0     ;; code: STUB, FastNewClosureStub, minor: 0
0x165864f3e902   578  488986af000000 REX.W movq [rsi+0xaf],rax
0x165864f3e909   585  488d8eaf000000 REX.W leaq rcx,[rsi+0xaf]
0x165864f3e910   592  48250000f0ff   REX.W and rax,0xfffffffffff00000
0x165864f3e916   598  f6400804       testb [rax+0x8],0x4
0x165864f3e91a   602  7415           jz 625  (0x165864f3e931)
0x165864f3e91c   604  48c7c00000f0ff REX.W movq rax,0xfff00000
0x165864f3e923   611  4823c6         REX.W andq rax,rsi
0x165864f3e926   614  f6400808       testb [rax+0x8],0x8
0x165864f3e92a   618  7405           jz 625  (0x165864f3e931)
0x165864f3e92c   620  e88f3afeff     call 0x165864f223c0     ;; code: STUB, RecordWriteStub, minor: 262
0x165864f3e931   625  48bb01dc9ecfdd1e0000 REX.W movq rbx,0x1eddcf9edc01    ;; object: 0x1eddcf9edc01 <SharedFunctionInfo g>
0x165864f3e93b   635  e860a8feff     call 0x165864f291a0     ;; code: STUB, FastNewClosureStub, minor: 0
0x165864f3e940   640  488986b7000000 REX.W movq [rsi+0xb7],rax
0x165864f3e947   647  488d8eb7000000 REX.W leaq rcx,[rsi+0xb7]
0x165864f3e94e   654  48250000f0ff   REX.W and rax,0xfffffffffff00000
0x165864f3e954   660  f6400804       testb [rax+0x8],0x4
0x165864f3e958   664  7415           jz 687  (0x165864f3e96f)
0x165864f3e95a   666  48c7c00000f0ff REX.W movq rax,0xfff00000
0x165864f3e961   673  4823c6         REX.W andq rax,rsi
0x165864f3e964   676  f6400808       testb [rax+0x8],0x8
0x165864f3e968   680  7405           jz 687  (0x165864f3e96f)
0x165864f3e96a   682  e8513afeff     call 0x165864f223c0     ;; code: STUB, RecordWriteStub, minor: 262
0x165864f3e96f   687  48bbb1dc9ecfdd1e0000 REX.W movq rbx,0x1eddcf9edcb1    ;; object: 0x1eddcf9edcb1 <SharedFunctionInfo G>
0x165864f3e979   697  e822a8feff     call 0x165864f291a0     ;; code: STUB, FastNewClosureStub, minor: 0
0x165864f3e97e   702  488986bf000000 REX.W movq [rsi+0xbf],rax
0x165864f3e985   709  488d8ebf000000 REX.W leaq rcx,[rsi+0xbf]
0x165864f3e98c   716  48250000f0ff   REX.W and rax,0xfffffffffff00000
0x165864f3e992   722  f6400804       testb [rax+0x8],0x4
0x165864f3e996   726  7415           jz 749  (0x165864f3e9ad)
0x165864f3e998   728  48c7c00000f0ff REX.W movq rax,0xfff00000
0x165864f3e99f   735  4823c6         REX.W andq rax,rsi
0x165864f3e9a2   738  f6400808       testb [rax+0x8],0x8
0x165864f3e9a6   742  7405           jz 749  (0x165864f3e9ad)
0x165864f3e9a8   744  e8133afeff     call 0x165864f223c0     ;; code: STUB, RecordWriteStub, minor: 262
0x165864f3e9ad   749  48bb61dd9ecfdd1e0000 REX.W movq rbx,0x1eddcf9edd61    ;; object: 0x1eddcf9edd61 <SharedFunctionInfo h>
0x165864f3e9b7   759  e8e4a7feff     call 0x165864f291a0     ;; code: STUB, FastNewClosureStub, minor: 0
0x165864f3e9bc   764  488986c7000000 REX.W movq [rsi+0xc7],rax
0x165864f3e9c3   771  488d8ec7000000 REX.W leaq rcx,[rsi+0xc7]
0x165864f3e9ca   778  48250000f0ff   REX.W and rax,0xfffffffffff00000
0x165864f3e9d0   784  f6400804       testb [rax+0x8],0x4
0x165864f3e9d4   788  7415           jz 811  (0x165864f3e9eb)
0x165864f3e9d6   790  48c7c00000f0ff REX.W movq rax,0xfff00000
0x165864f3e9dd   797  4823c6         REX.W andq rax,rsi
0x165864f3e9e0   800  f6400808       testb [rax+0x8],0x8
0x165864f3e9e4   804  7405           jz 811  (0x165864f3e9eb)
0x165864f3e9e6   806  e8d539feff     call 0x165864f223c0     ;; code: STUB, RecordWriteStub, minor: 262
0x165864f3e9eb   811  48bb11de9ecfdd1e0000 REX.W movq rbx,0x1eddcf9ede11    ;; object: 0x1eddcf9ede11 <SharedFunctionInfo H>
0x165864f3e9f5   821  e8a6a7feff     call 0x165864f291a0     ;; code: STUB, FastNewClosureStub, minor: 0
0x165864f3e9fa   826  488986cf000000 REX.W movq [rsi+0xcf],rax
0x165864f3ea01   833  488d8ecf000000 REX.W leaq rcx,[rsi+0xcf]
0x165864f3ea08   840  48250000f0ff   REX.W and rax,0xfffffffffff00000
0x165864f3ea0e   846  f6400804       testb [rax+0x8],0x4
0x165864f3ea12   850  7415           jz 873  (0x165864f3ea29)
0x165864f3ea14   852  48c7c00000f0ff REX.W movq rax,0xfff00000
0x165864f3ea1b   859  4823c6         REX.W andq rax,rsi
0x165864f3ea1e   862  f6400808       testb [rax+0x8],0x8
0x165864f3ea22   866  7405           jz 873  (0x165864f3ea29)
0x165864f3ea24   868  e89739feff     call 0x165864f223c0     ;; code: STUB, RecordWriteStub, minor: 262
0x165864f3ea29   873  48bbc1de9ecfdd1e0000 REX.W movq rbx,0x1eddcf9edec1    ;; object: 0x1eddcf9edec1 <SharedFunctionInfo i>
0x165864f3ea33   883  e868a7feff     call 0x165864f291a0     ;; code: STUB, FastNewClosureStub, minor: 0
0x165864f3ea38   888  488986d7000000 REX.W movq [rsi+0xd7],rax
0x165864f3ea3f   895  488d8ed7000000 REX.W leaq rcx,[rsi+0xd7]
0x165864f3ea46   902  48250000f0ff   REX.W and rax,0xfffffffffff00000
0x165864f3ea4c   908  f6400804       testb [rax+0x8],0x4
0x165864f3ea50   912  7415           jz 935  (0x165864f3ea67)
0x165864f3ea52   914  48c7c00000f0ff REX.W movq rax,0xfff00000
0x165864f3ea59   921  4823c6         REX.W andq rax,rsi
0x165864f3ea5c   924  f6400808       testb [rax+0x8],0x8
0x165864f3ea60   928  7405           jz 935  (0x165864f3ea67)
0x165864f3ea62   930  e85939feff     call 0x165864f223c0     ;; code: STUB, RecordWriteStub, minor: 262
0x165864f3ea67   935  48bb71df9ecfdd1e0000 REX.W movq rbx,0x1eddcf9edf71    ;; object: 0x1eddcf9edf71 <SharedFunctionInfo j>
0x165864f3ea71   945  e82aa7feff     call 0x165864f291a0     ;; code: STUB, FastNewClosureStub, minor: 0
0x165864f3ea76   950  488986df000000 REX.W movq [rsi+0xdf],rax
0x165864f3ea7d   957  488d8edf000000 REX.W leaq rcx,[rsi+0xdf]
0x165864f3ea84   964  48250000f0ff   REX.W and rax,0xfffffffffff00000
0x165864f3ea8a   970  f6400804       testb [rax+0x8],0x4
0x165864f3ea8e   974  7415           jz 997  (0x165864f3eaa5)
0x165864f3ea90   976  48c7c00000f0ff REX.W movq rax,0xfff00000
0x165864f3ea97   983  4823c6         REX.W andq rax,rsi
0x165864f3ea9a   986  f6400808       testb [rax+0x8],0x8
0x165864f3ea9e   990  7405           jz 997  (0x165864f3eaa5)
0x165864f3eaa0   992  e81b39feff     call 0x165864f223c0     ;; code: STUB, RecordWriteStub, minor: 262
0x165864f3eaa5   997  48bb21e09ecfdd1e0000 REX.W movq rbx,0x1eddcf9ee021    ;; object: 0x1eddcf9ee021 <SharedFunctionInfo l>
0x165864f3eaaf  1007  e8eca6feff     call 0x165864f291a0     ;; code: STUB, FastNewClosureStub, minor: 0
0x165864f3eab4  1012  488986e7000000 REX.W movq [rsi+0xe7],rax
0x165864f3eabb  1019  488d8ee7000000 REX.W leaq rcx,[rsi+0xe7]
0x165864f3eac2  1026  48250000f0ff   REX.W and rax,0xfffffffffff00000
0x165864f3eac8  1032  f6400804       testb [rax+0x8],0x4
0x165864f3eacc  1036  7415           jz 1059  (0x165864f3eae3)
0x165864f3eace  1038  48c7c00000f0ff REX.W movq rax,0xfff00000
0x165864f3ead5  1045  4823c6         REX.W andq rax,rsi
0x165864f3ead8  1048  f6400808       testb [rax+0x8],0x8
0x165864f3eadc  1052  7405           jz 1059  (0x165864f3eae3)
0x165864f3eade  1054  e8dd38feff     call 0x165864f223c0     ;; code: STUB, RecordWriteStub, minor: 262
0x165864f3eae3  1059  48bbd1e09ecfdd1e0000 REX.W movq rbx,0x1eddcf9ee0d1    ;; object: 0x1eddcf9ee0d1 <SharedFunctionInfo L>
0x165864f3eaed  1069  e8aea6feff     call 0x165864f291a0     ;; code: STUB, FastNewClosureStub, minor: 0
0x165864f3eaf2  1074  488986ef000000 REX.W movq [rsi+0xef],rax
0x165864f3eaf9  1081  488d8eef000000 REX.W leaq rcx,[rsi+0xef]
0x165864f3eb00  1088  48250000f0ff   REX.W and rax,0xfffffffffff00000
0x165864f3eb06  1094  f6400804       testb [rax+0x8],0x4
0x165864f3eb0a  1098  7415           jz 1121  (0x165864f3eb21)
0x165864f3eb0c  1100  48c7c00000f0ff REX.W movq rax,0xfff00000
0x165864f3eb13  1107  4823c6         REX.W andq rax,rsi
0x165864f3eb16  1110  f6400808       testb [rax+0x8],0x8
0x165864f3eb1a  1114  7405           jz 1121  (0x165864f3eb21)
0x165864f3eb1c  1116  e89f38feff     call 0x165864f223c0     ;; code: STUB, RecordWriteStub, minor: 262
0x165864f3eb21  1121  48bb81e19ecfdd1e0000 REX.W movq rbx,0x1eddcf9ee181    ;; object: 0x1eddcf9ee181 <SharedFunctionInfo m>
0x165864f3eb2b  1131  e870a6feff     call 0x165864f291a0     ;; code: STUB, FastNewClosureStub, minor: 0
0x165864f3eb30  1136  488986f7000000 REX.W movq [rsi+0xf7],rax
0x165864f3eb37  1143  488d8ef7000000 REX.W leaq rcx,[rsi+0xf7]
0x165864f3eb3e  1150  48250000f0ff   REX.W and rax,0xfffffffffff00000
0x165864f3eb44  1156  f6400804       testb [rax+0x8],0x4
0x165864f3eb48  1160  7415           jz 1183  (0x165864f3eb5f)
0x165864f3eb4a  1162  48c7c00000f0ff REX.W movq rax,0xfff00000
0x165864f3eb51  1169  4823c6         REX.W andq rax,rsi
0x165864f3eb54  1172  f6400808       testb [rax+0x8],0x8
0x165864f3eb58  1176  7405           jz 1183  (0x165864f3eb5f)
0x165864f3eb5a  1178  e86138feff     call 0x165864f223c0     ;; code: STUB, RecordWriteStub, minor: 262
0x165864f3eb5f  1183  48bb31e29ecfdd1e0000 REX.W movq rbx,0x1eddcf9ee231    ;; object: 0x1eddcf9ee231 <SharedFunctionInfo M>
0x165864f3eb69  1193  e832a6feff     call 0x165864f291a0     ;; code: STUB, FastNewClosureStub, minor: 0
0x165864f3eb6e  1198  488986ff000000 REX.W movq [rsi+0xff],rax
0x165864f3eb75  1205  488d8eff000000 REX.W leaq rcx,[rsi+0xff]
0x165864f3eb7c  1212  48250000f0ff   REX.W and rax,0xfffffffffff00000
0x165864f3eb82  1218  f6400804       testb [rax+0x8],0x4
0x165864f3eb86  1222  7415           jz 1245  (0x165864f3eb9d)
0x165864f3eb88  1224  48c7c00000f0ff REX.W movq rax,0xfff00000
0x165864f3eb8f  1231  4823c6         REX.W andq rax,rsi
0x165864f3eb92  1234  f6400808       testb [rax+0x8],0x8
0x165864f3eb96  1238  7405           jz 1245  (0x165864f3eb9d)
0x165864f3eb98  1240  e82338feff     call 0x165864f223c0     ;; code: STUB, RecordWriteStub, minor: 262
0x165864f3eb9d  1245  48bbe1e29ecfdd1e0000 REX.W movq rbx,0x1eddcf9ee2e1    ;; object: 0x1eddcf9ee2e1 <SharedFunctionInfo n>
0x165864f3eba7  1255  e8f4a5feff     call 0x165864f291a0     ;; code: STUB, FastNewClosureStub, minor: 0
0x165864f3ebac  1260  48898607010000 REX.W movq [rsi+0x107],rax
0x165864f3ebb3  1267  488d8e07010000 REX.W leaq rcx,[rsi+0x107]
0x165864f3ebba  1274  48250000f0ff   REX.W and rax,0xfffffffffff00000
0x165864f3ebc0  1280  f6400804       testb [rax+0x8],0x4
0x165864f3ebc4  1284  7415           jz 1307  (0x165864f3ebdb)
0x165864f3ebc6  1286  48c7c00000f0ff REX.W movq rax,0xfff00000
0x165864f3ebcd  1293  4823c6         REX.W andq rax,rsi
0x165864f3ebd0  1296  f6400808       testb [rax+0x8],0x8
0x165864f3ebd4  1300  7405           jz 1307  (0x165864f3ebdb)
0x165864f3ebd6  1302  e8e537feff     call 0x165864f223c0     ;; code: STUB, RecordWriteStub, minor: 262
0x165864f3ebdb  1307  48bb91e39ecfdd1e0000 REX.W movq rbx,0x1eddcf9ee391    ;; object: 0x1eddcf9ee391 <SharedFunctionInfo O>
0x165864f3ebe5  1317  e8b6a5feff     call 0x165864f291a0     ;; code: STUB, FastNewClosureStub, minor: 0
0x165864f3ebea  1322  4889860f010000 REX.W movq [rsi+0x10f],rax
0x165864f3ebf1  1329  488d8e0f010000 REX.W leaq rcx,[rsi+0x10f]
0x165864f3ebf8  1336  48250000f0ff   REX.W and rax,0xfffffffffff00000
0x165864f3ebfe  1342  f6400804       testb [rax+0x8],0x4
0x165864f3ec02  1346  7415           jz 1369  (0x165864f3ec19)
0x165864f3ec04  1348  48c7c00000f0ff REX.W movq rax,0xfff00000
0x165864f3ec0b  1355  4823c6         REX.W andq rax,rsi
0x165864f3ec0e  1358  f6400808       testb [rax+0x8],0x8
0x165864f3ec12  1362  7405           jz 1369  (0x165864f3ec19)
0x165864f3ec14  1364  e8a737feff     call 0x165864f223c0     ;; code: STUB, RecordWriteStub, minor: 262
0x165864f3ec19  1369  48bb41e49ecfdd1e0000 REX.W movq rbx,0x1eddcf9ee441    ;; object: 0x1eddcf9ee441 <SharedFunctionInfo r>
0x165864f3ec23  1379  e878a5feff     call 0x165864f291a0     ;; code: STUB, FastNewClosureStub, minor: 0
0x165864f3ec28  1384  48898617010000 REX.W movq [rsi+0x117],rax
0x165864f3ec2f  1391  488d8e17010000 REX.W leaq rcx,[rsi+0x117]
0x165864f3ec36  1398  48250000f0ff   REX.W and rax,0xfffffffffff00000
0x165864f3ec3c  1404  f6400804       testb [rax+0x8],0x4
0x165864f3ec40  1408  7415           jz 1431  (0x165864f3ec57)
0x165864f3ec42  1410  48c7c00000f0ff REX.W movq rax,0xfff00000
0x165864f3ec49  1417  4823c6         REX.W andq rax,rsi
0x165864f3ec4c  1420  f6400808       testb [rax+0x8],0x8
0x165864f3ec50  1424  7405           jz 1431  (0x165864f3ec57)
0x165864f3ec52  1426  e86937feff     call 0x165864f223c0     ;; code: STUB, RecordWriteStub, minor: 262
0x165864f3ec57  1431  48bbf1e49ecfdd1e0000 REX.W movq rbx,0x1eddcf9ee4f1    ;; object: 0x1eddcf9ee4f1 <SharedFunctionInfo S>
0x165864f3ec61  1441  e83aa5feff     call 0x165864f291a0     ;; code: STUB, FastNewClosureStub, minor: 0
0x165864f3ec66  1446  4889861f010000 REX.W movq [rsi+0x11f],rax
0x165864f3ec6d  1453  488d8e1f010000 REX.W leaq rcx,[rsi+0x11f]
0x165864f3ec74  1460  48250000f0ff   REX.W and rax,0xfffffffffff00000
0x165864f3ec7a  1466  f6400804       testb [rax+0x8],0x4
0x165864f3ec7e  1470  7415           jz 1493  (0x165864f3ec95)
0x165864f3ec80  1472  48c7c00000f0ff REX.W movq rax,0xfff00000
0x165864f3ec87  1479  4823c6         REX.W andq rax,rsi
0x165864f3ec8a  1482  f6400808       testb [rax+0x8],0x8
0x165864f3ec8e  1486  7405           jz 1493  (0x165864f3ec95)
0x165864f3ec90  1488  e82b37feff     call 0x165864f223c0     ;; code: STUB, RecordWriteStub, minor: 262
0x165864f3ec95  1493  48bba1e59ecfdd1e0000 REX.W movq rbx,0x1eddcf9ee5a1    ;; object: 0x1eddcf9ee5a1 <SharedFunctionInfo s>
0x165864f3ec9f  1503  e8fca4feff     call 0x165864f291a0     ;; code: STUB, FastNewClosureStub, minor: 0
0x165864f3eca4  1508  48898627010000 REX.W movq [rsi+0x127],rax
0x165864f3ecab  1515  488d8e27010000 REX.W leaq rcx,[rsi+0x127]
0x165864f3ecb2  1522  48250000f0ff   REX.W and rax,0xfffffffffff00000
0x165864f3ecb8  1528  f6400804       testb [rax+0x8],0x4
0x165864f3ecbc  1532  7415           jz 1555  (0x165864f3ecd3)
0x165864f3ecbe  1534  48c7c00000f0ff REX.W movq rax,0xfff00000
0x165864f3ecc5  1541  4823c6         REX.W andq rax,rsi
0x165864f3ecc8  1544  f6400808       testb [rax+0x8],0x8
0x165864f3eccc  1548  7405           jz 1555  (0x165864f3ecd3)
0x165864f3ecce  1550  e8ed36feff     call 0x165864f223c0     ;; code: STUB, RecordWriteStub, minor: 262
0x165864f3ecd3  1555  49ba51e69ecfdd1e0000 REX.W movq r10,0x1eddcf9ee651    ;; object: 0x1eddcf9ee651 <SharedFunctionInfo t>
0x165864f3ecdd  1565  4152           push r10
0x165864f3ecdf  1567  b801000000     movl rax,0x1
0x165864f3ece4  1572  48bbd0812b0100000000 REX.W movq rbx,0x12b81d0
0x165864f3ecee  1582  e8ed9dfcff     call 0x165864f08ae0     ;; code: STUB, CEntryStub, minor: 0
0x165864f3ecf3  1587  4889862f010000 REX.W movq [rsi+0x12f],rax
0x165864f3ecfa  1594  488d8e2f010000 REX.W leaq rcx,[rsi+0x12f]
0x165864f3ed01  1601  48250000f0ff   REX.W and rax,0xfffffffffff00000
0x165864f3ed07  1607  f6400804       testb [rax+0x8],0x4
0x165864f3ed0b  1611  7415           jz 1634  (0x165864f3ed22)
0x165864f3ed0d  1613  48c7c00000f0ff REX.W movq rax,0xfff00000
0x165864f3ed14  1620  4823c6         REX.W andq rax,rsi
0x165864f3ed17  1623  f6400808       testb [rax+0x8],0x8
0x165864f3ed1b  1627  7405           jz 1634  (0x165864f3ed22)
0x165864f3ed1d  1629  e89e36feff     call 0x165864f223c0     ;; code: STUB, RecordWriteStub, minor: 262
0x165864f3ed22  1634  48bb01e79ecfdd1e0000 REX.W movq rbx,0x1eddcf9ee701    ;; object: 0x1eddcf9ee701 <SharedFunctionInfo U>
0x165864f3ed2c  1644  e86fa4feff     call 0x165864f291a0     ;; code: STUB, FastNewClosureStub, minor: 0
0x165864f3ed31  1649  48898637010000 REX.W movq [rsi+0x137],rax
0x165864f3ed38  1656  488d8e37010000 REX.W leaq rcx,[rsi+0x137]
0x165864f3ed3f  1663  48250000f0ff   REX.W and rax,0xfffffffffff00000
0x165864f3ed45  1669  f6400804       testb [rax+0x8],0x4
0x165864f3ed49  1673  7415           jz 1696  (0x165864f3ed60)
0x165864f3ed4b  1675  48c7c00000f0ff REX.W movq rax,0xfff00000
0x165864f3ed52  1682  4823c6         REX.W andq rax,rsi
0x165864f3ed55  1685  f6400808       testb [rax+0x8],0x8
0x165864f3ed59  1689  7405           jz 1696  (0x165864f3ed60)
0x165864f3ed5b  1691  e86036feff     call 0x165864f223c0     ;; code: STUB, RecordWriteStub, minor: 262
0x165864f3ed60  1696  48bbb1e79ecfdd1e0000 REX.W movq rbx,0x1eddcf9ee7b1    ;; object: 0x1eddcf9ee7b1 <SharedFunctionInfo W>
0x165864f3ed6a  1706  e831a4feff     call 0x165864f291a0     ;; code: STUB, FastNewClosureStub, minor: 0
0x165864f3ed6f  1711  4889863f010000 REX.W movq [rsi+0x13f],rax
0x165864f3ed76  1718  488d8e3f010000 REX.W leaq rcx,[rsi+0x13f]
0x165864f3ed7d  1725  48250000f0ff   REX.W and rax,0xfffffffffff00000
0x165864f3ed83  1731  f6400804       testb [rax+0x8],0x4
0x165864f3ed87  1735  7415           jz 1758  (0x165864f3ed9e)
0x165864f3ed89  1737  48c7c00000f0ff REX.W movq rax,0xfff00000
0x165864f3ed90  1744  4823c6         REX.W andq rax,rsi
0x165864f3ed93  1747  f6400808       testb [rax+0x8],0x8
0x165864f3ed97  1751  7405           jz 1758  (0x165864f3ed9e)
0x165864f3ed99  1753  e82236feff     call 0x165864f223c0     ;; code: STUB, RecordWriteStub, minor: 262
0x165864f3ed9e  1758  48bb61e89ecfdd1e0000 REX.W movq rbx,0x1eddcf9ee861    ;; object: 0x1eddcf9ee861 <SharedFunctionInfo w>
0x165864f3eda8  1768  e8f3a3feff     call 0x165864f291a0     ;; code: STUB, FastNewClosureStub, minor: 0
0x165864f3edad  1773  48898647010000 REX.W movq [rsi+0x147],rax
0x165864f3edb4  1780  488d8e47010000 REX.W leaq rcx,[rsi+0x147]
0x165864f3edbb  1787  48250000f0ff   REX.W and rax,0xfffffffffff00000
0x165864f3edc1  1793  f6400804       testb [rax+0x8],0x4
0x165864f3edc5  1797  7415           jz 1820  (0x165864f3eddc)
0x165864f3edc7  1799  48c7c00000f0ff REX.W movq rax,0xfff00000
0x165864f3edce  1806  4823c6         REX.W andq rax,rsi
0x165864f3edd1  1809  f6400808       testb [rax+0x8],0x8
0x165864f3edd5  1813  7405           jz 1820  (0x165864f3eddc)
0x165864f3edd7  1815  e8e435feff     call 0x165864f223c0     ;; code: STUB, RecordWriteStub, minor: 262
0x165864f3eddc  1820  48bb11e99ecfdd1e0000 REX.W movq rbx,0x1eddcf9ee911    ;; object: 0x1eddcf9ee911 <SharedFunctionInfo Y>
0x165864f3ede6  1830  e8b5a3feff     call 0x165864f291a0     ;; code: STUB, FastNewClosureStub, minor: 0
0x165864f3edeb  1835  4889864f010000 REX.W movq [rsi+0x14f],rax
0x165864f3edf2  1842  488d8e4f010000 REX.W leaq rcx,[rsi+0x14f]
0x165864f3edf9  1849  48250000f0ff   REX.W and rax,0xfffffffffff00000
0x165864f3edff  1855  f6400804       testb [rax+0x8],0x4
0x165864f3ee03  1859  7415           jz 1882  (0x165864f3ee1a)
0x165864f3ee05  1861  48c7c00000f0ff REX.W movq rax,0xfff00000
0x165864f3ee0c  1868  4823c6         REX.W andq rax,rsi
0x165864f3ee0f  1871  f6400808       testb [rax+0x8],0x8
0x165864f3ee13  1875  7405           jz 1882  (0x165864f3ee1a)
0x165864f3ee15  1877  e8a635feff     call 0x165864f223c0     ;; code: STUB, RecordWriteStub, minor: 262
0x165864f3ee1a  1882  48bbc1e99ecfdd1e0000 REX.W movq rbx,0x1eddcf9ee9c1    ;; object: 0x1eddcf9ee9c1 <SharedFunctionInfo y>
0x165864f3ee24  1892  e877a3feff     call 0x165864f291a0     ;; code: STUB, FastNewClosureStub, minor: 0
0x165864f3ee29  1897  48898657010000 REX.W movq [rsi+0x157],rax
0x165864f3ee30  1904  488d8e57010000 REX.W leaq rcx,[rsi+0x157]
0x165864f3ee37  1911  48250000f0ff   REX.W and rax,0xfffffffffff00000
0x165864f3ee3d  1917  f6400804       testb [rax+0x8],0x4
0x165864f3ee41  1921  7415           jz 1944  (0x165864f3ee58)
0x165864f3ee43  1923  48c7c00000f0ff REX.W movq rax,0xfff00000
0x165864f3ee4a  1930  4823c6         REX.W andq rax,rsi
0x165864f3ee4d  1933  f6400808       testb [rax+0x8],0x8
0x165864f3ee51  1937  7405           jz 1944  (0x165864f3ee58)
0x165864f3ee53  1939  e86835feff     call 0x165864f223c0     ;; code: STUB, RecordWriteStub, minor: 262
0x165864f3ee58  1944  48bb71ea9ecfdd1e0000 REX.W movq rbx,0x1eddcf9eea71    ;; object: 0x1eddcf9eea71 <SharedFunctionInfo z>
0x165864f3ee62  1954  e839a3feff     call 0x165864f291a0     ;; code: STUB, FastNewClosureStub, minor: 0
0x165864f3ee67  1959  4889865f010000 REX.W movq [rsi+0x15f],rax
0x165864f3ee6e  1966  488d8e5f010000 REX.W leaq rcx,[rsi+0x15f]
0x165864f3ee75  1973  48250000f0ff   REX.W and rax,0xfffffffffff00000
0x165864f3ee7b  1979  f6400804       testb [rax+0x8],0x4
0x165864f3ee7f  1983  7415           jz 2006  (0x165864f3ee96)
0x165864f3ee81  1985  48c7c00000f0ff REX.W movq rax,0xfff00000
0x165864f3ee88  1992  4823c6         REX.W andq rax,rsi
0x165864f3ee8b  1995  f6400808       testb [rax+0x8],0x8
0x165864f3ee8f  1999  7405           jz 2006  (0x165864f3ee96)
0x165864f3ee91  2001  e82a35feff     call 0x165864f223c0     ;; code: STUB, RecordWriteStub, minor: 262
0x165864f3ee96  2006  493ba548090000 REX.W cmpq rsp,[r13+0x948]
0x165864f3ee9d  2013  7305           jnc 2020  (0x165864f3eea4)
0x165864f3ee9f  2015  e8dc7bffff     call StackCheck  (0x165864f36a80)    ;; code: BUILTIN
0x165864f3eea4  2020  488b5df0       REX.W movq rbx,[rbp-0x10]    ;; debug: statement 710
0x165864f3eea8  2024  488b4337       REX.W movq rax,[rbx+0x37]
0x165864f3eeac  2028  48bb0000000000000000 REX.W movq rbx,(nil)
0x165864f3eeb6  2038  48b921eb9ecfdd1e0000 REX.W movq rcx,0x1eddcf9eeb21    ;; object: 0x1eddcf9eeb21 <FixedArray[2]>
0x165864f3eec0  2048  e89bd3fdff     call 0x165864f1c260     ;; code: STUB, FastCloneShallowArrayStub, minor: 1
0x165864f3eec5  2053  488bce         REX.W movq rcx,rsi
0x165864f3eec8  2056  48894157       REX.W movq [rcx+0x57],rax
0x165864f3eecc  2060  488bd0         REX.W movq rdx,rax
0x165864f3eecf  2063  f6c201         testb rdx,0x1
0x165864f3eed2  2066  0f8426000000   jz 2110  (0x165864f3eefe)
0x165864f3eed8  2072  488d5957       REX.W leaq rbx,[rcx+0x57]
0x165864f3eedc  2076  4881e20000f0ff REX.W andq rdx,0xfffffffffff00000
0x165864f3eee3  2083  f6420804       testb [rdx+0x8],0x4
0x165864f3eee7  2087  7415           jz 2110  (0x165864f3eefe)
0x165864f3eee9  2089  48c7c20000f0ff REX.W movq rdx,0xfff00000
0x165864f3eef0  2096  4823d1         REX.W andq rdx,rcx
0x165864f3eef3  2099  f6420808       testb [rdx+0x8],0x8
0x165864f3eef7  2103  7405           jz 2110  (0x165864f3eefe)
0x165864f3eef9  2105  e8420affff     call 0x165864f2f940     ;; code: STUB, RecordWriteStub, minor: 801
0x165864f3eefe  2110  488b5df0       REX.W movq rbx,[rbp-0x10]    ;; debug: statement 922
0x165864f3ef02  2114  488b4337       REX.W movq rax,[rbx+0x37]
0x165864f3ef06  2118  48bb0000000001000000 REX.W movq rbx,0x100000000
0x165864f3ef10  2128  48b941eb9ecfdd1e0000 REX.W movq rcx,0x1eddcf9eeb41    ;; object: 0x1eddcf9eeb41 <FixedArray[2]>
0x165864f3ef1a  2138  e841d3fdff     call 0x165864f1c260     ;; code: STUB, FastCloneShallowArrayStub, minor: 1
0x165864f3ef1f  2143  488bce         REX.W movq rcx,rsi
0x165864f3ef22  2146  4889415f       REX.W movq [rcx+0x5f],rax
0x165864f3ef26  2150  488bd0         REX.W movq rdx,rax
0x165864f3ef29  2153  f6c201         testb rdx,0x1
0x165864f3ef2c  2156  0f8426000000   jz 2200  (0x165864f3ef58)
0x165864f3ef32  2162  488d595f       REX.W leaq rbx,[rcx+0x5f]
0x165864f3ef36  2166  4881e20000f0ff REX.W andq rdx,0xfffffffffff00000
0x165864f3ef3d  2173  f6420804       testb [rdx+0x8],0x4
0x165864f3ef41  2177  7415           jz 2200  (0x165864f3ef58)
0x165864f3ef43  2179  48c7c20000f0ff REX.W movq rdx,0xfff00000
0x165864f3ef4a  2186  4823d1         REX.W andq rdx,rcx
0x165864f3ef4d  2189  f6420808       testb [rdx+0x8],0x8
0x165864f3ef51  2193  7405           jz 2200  (0x165864f3ef58)
0x165864f3ef53  2195  e8e809ffff     call 0x165864f2f940     ;; code: STUB, RecordWriteStub, minor: 801
0x165864f3ef58  2200  488b5df0       REX.W movq rbx,[rbp-0x10]    ;; debug: statement 1048
0x165864f3ef5c  2204  488b4337       REX.W movq rax,[rbx+0x37]
0x165864f3ef60  2208  48bb0000000002000000 REX.W movq rbx,0x200000000
0x165864f3ef6a  2218  48b961eb9ecfdd1e0000 REX.W movq rcx,0x1eddcf9eeb61    ;; object: 0x1eddcf9eeb61 <FixedArray[2]>
0x165864f3ef74  2228  e8e7d2fdff     call 0x165864f1c260     ;; code: STUB, FastCloneShallowArrayStub, minor: 1
0x165864f3ef79  2233  488bce         REX.W movq rcx,rsi
0x165864f3ef7c  2236  48894167       REX.W movq [rcx+0x67],rax
0x165864f3ef80  2240  488bd0         REX.W movq rdx,rax
0x165864f3ef83  2243  f6c201         testb rdx,0x1
0x165864f3ef86  2246  0f8426000000   jz 2290  (0x165864f3efb2)
0x165864f3ef8c  2252  488d5967       REX.W leaq rbx,[rcx+0x67]
0x165864f3ef90  2256  4881e20000f0ff REX.W andq rdx,0xfffffffffff00000
0x165864f3ef97  2263  f6420804       testb [rdx+0x8],0x4
0x165864f3ef9b  2267  7415           jz 2290  (0x165864f3efb2)
0x165864f3ef9d  2269  48c7c20000f0ff REX.W movq rdx,0xfff00000
0x165864f3efa4  2276  4823d1         REX.W andq rdx,rcx
0x165864f3efa7  2279  f6420808       testb [rdx+0x8],0x8
0x165864f3efab  2283  7405           jz 2290  (0x165864f3efb2)
0x165864f3efad  2285  e88e09ffff     call 0x165864f2f940     ;; code: STUB, RecordWriteStub, minor: 801
0x165864f3efb2  2290  488b5df0       REX.W movq rbx,[rbp-0x10]    ;; debug: statement 1145
0x165864f3efb6  2294  488b4337       REX.W movq rax,[rbx+0x37]
0x165864f3efba  2298  48bb0000000003000000 REX.W movq rbx,0x300000000
0x165864f3efc4  2308  48b981eb9ecfdd1e0000 REX.W movq rcx,0x1eddcf9eeb81    ;; object: 0x1eddcf9eeb81 <FixedArray[2]>
0x165864f3efce  2318  e88dd2fdff     call 0x165864f1c260     ;; code: STUB, FastCloneShallowArrayStub, minor: 1
0x165864f3efd3  2323  488bce         REX.W movq rcx,rsi
0x165864f3efd6  2326  4889416f       REX.W movq [rcx+0x6f],rax
0x165864f3efda  2330  488bd0         REX.W movq rdx,rax
0x165864f3efdd  2333  f6c201         testb rdx,0x1
0x165864f3efe0  2336  0f8426000000   jz 2380  (0x165864f3f00c)
0x165864f3efe6  2342  488d596f       REX.W leaq rbx,[rcx+0x6f]
0x165864f3efea  2346  4881e20000f0ff REX.W andq rdx,0xfffffffffff00000
0x165864f3eff1  2353  f6420804       testb [rdx+0x8],0x4
0x165864f3eff5  2357  7415           jz 2380  (0x165864f3f00c)
0x165864f3eff7  2359  48c7c20000f0ff REX.W movq rdx,0xfff00000
0x165864f3effe  2366  4823d1         REX.W andq rdx,rcx
0x165864f3f001  2369  f6420808       testb [rdx+0x8],0x8
0x165864f3f005  2373  7405           jz 2380  (0x165864f3f00c)
0x165864f3f007  2375  e83409ffff     call 0x165864f2f940     ;; code: STUB, RecordWriteStub, minor: 801
0x165864f3f00c  2380  488b5df0       REX.W movq rbx,[rbp-0x10]    ;; debug: statement 1299
0x165864f3f010  2384  488b4337       REX.W movq rax,[rbx+0x37]
0x165864f3f014  2388  48bb0000000004000000 REX.W movq rbx,0x400000000
0x165864f3f01e  2398  48b9a1eb9ecfdd1e0000 REX.W movq rcx,0x1eddcf9eeba1    ;; object: 0x1eddcf9eeba1 <FixedArray[2]>
0x165864f3f028  2408  e833d2fdff     call 0x165864f1c260     ;; code: STUB, FastCloneShallowArrayStub, minor: 1
0x165864f3f02d  2413  488bce         REX.W movq rcx,rsi
0x165864f3f030  2416  48894177       REX.W movq [rcx+0x77],rax
0x165864f3f034  2420  488bd0         REX.W movq rdx,rax
0x165864f3f037  2423  f6c201         testb rdx,0x1
0x165864f3f03a  2426  0f8426000000   jz 2470  (0x165864f3f066)
0x165864f3f040  2432  488d5977       REX.W leaq rbx,[rcx+0x77]
0x165864f3f044  2436  4881e20000f0ff REX.W andq rdx,0xfffffffffff00000
0x165864f3f04b  2443  f6420804       testb [rdx+0x8],0x4
0x165864f3f04f  2447  7415           jz 2470  (0x165864f3f066)
0x165864f3f051  2449  48c7c20000f0ff REX.W movq rdx,0xfff00000
0x165864f3f058  2456  4823d1         REX.W andq rdx,rcx
0x165864f3f05b  2459  f6420808       testb [rdx+0x8],0x8
0x165864f3f05f  2463  7405           jz 2470  (0x165864f3f066)
0x165864f3f061  2465  e8da08ffff     call 0x165864f2f940     ;; code: STUB, RecordWriteStub, minor: 801
0x165864f3f066  2470  488b5df0       REX.W movq rbx,[rbp-0x10]    ;; debug: statement 1491
0x165864f3f06a  2474  488b4337       REX.W movq rax,[rbx+0x37]
0x165864f3f06e  2478  48bb0000000005000000 REX.W movq rbx,0x500000000
0x165864f3f078  2488  48b9c1eb9ecfdd1e0000 REX.W movq rcx,0x1eddcf9eebc1    ;; object: 0x1eddcf9eebc1 <FixedArray[2]>
0x165864f3f082  2498  e8d9d1fdff     call 0x165864f1c260     ;; code: STUB, FastCloneShallowArrayStub, minor: 1
0x165864f3f087  2503  488bce         REX.W movq rcx,rsi
0x165864f3f08a  2506  4889417f       REX.W movq [rcx+0x7f],rax
0x165864f3f08e  2510  488bd0         REX.W movq rdx,rax
0x165864f3f091  2513  f6c201         testb rdx,0x1
0x165864f3f094  2516  0f8426000000   jz 2560  (0x165864f3f0c0)
0x165864f3f09a  2522  488d597f       REX.W leaq rbx,[rcx+0x7f]
0x165864f3f09e  2526  4881e20000f0ff REX.W andq rdx,0xfffffffffff00000
0x165864f3f0a5  2533  f6420804       testb [rdx+0x8],0x4
0x165864f3f0a9  2537  7415           jz 2560  (0x165864f3f0c0)
0x165864f3f0ab  2539  48c7c20000f0ff REX.W movq rdx,0xfff00000
0x165864f3f0b2  2546  4823d1         REX.W andq rdx,rcx
0x165864f3f0b5  2549  f6420808       testb [rdx+0x8],0x8
0x165864f3f0b9  2553  7405           jz 2560  (0x165864f3f0c0)
0x165864f3f0bb  2555  e88008ffff     call 0x165864f2f940     ;; code: STUB, RecordWriteStub, minor: 801
0x165864f3f0c0  2560  488bc6         REX.W movq rax,rsi      ;; debug: statement 9671
                                                             ;; debug: position 9682
0x165864f3f0c3  2563  488b403f       REX.W movq rax,[rax+0x3f]
0x165864f3f0c7  2567  488bce         REX.W movq rcx,rsi      ;; debug: position 9671
0x165864f3f0ca  2570  48898167010000 REX.W movq [rcx+0x167],rax
0x165864f3f0d1  2577  488bd0         REX.W movq rdx,rax
0x165864f3f0d4  2580  f6c201         testb rdx,0x1
0x165864f3f0d7  2583  0f8429000000   jz 2630  (0x165864f3f106)
0x165864f3f0dd  2589  488d9967010000 REX.W leaq rbx,[rcx+0x167]
0x165864f3f0e4  2596  4881e20000f0ff REX.W andq rdx,0xfffffffffff00000
0x165864f3f0eb  2603  f6420804       testb [rdx+0x8],0x4
0x165864f3f0ef  2607  7415           jz 2630  (0x165864f3f106)
0x165864f3f0f1  2609  48c7c20000f0ff REX.W movq rdx,0xfff00000
0x165864f3f0f8  2616  4823d1         REX.W andq rdx,rcx
0x165864f3f0fb  2619  f6420808       testb [rdx+0x8],0x8
0x165864f3f0ff  2623  7405           jz 2630  (0x165864f3f106)
0x165864f3f101  2625  e83a08ffff     call 0x165864f2f940     ;; code: STUB, RecordWriteStub, minor: 801
0x165864f3f106  2630  488bc6         REX.W movq rax,rsi      ;; debug: statement 9692
                                                             ;; debug: position 9696
0x165864f3f109  2633  488b402f       REX.W movq rax,[rax+0x2f]
0x165864f3f10d  2637  e8ce64feff     call 0x165864f255e0     ;; code: TO_BOOLEAN_IC, UNINITIALIZED (id = 657)
0x165864f3f112  2642  4885c0         REX.W testq rax,rax
0x165864f3f115  2645  0f84d9000000   jz 2868  (0x165864f3f1f4)
0x165864f3f11b  2651  488bc6         REX.W movq rax,rsi      ;; debug: statement 9733
                                                             ;; debug: position 9748
0x165864f3f11e  2654  ffb067010000   push [rax+0x167]
0x165864f3f124  2660  488b1424       REX.W movq rdx,[rsp]
0x165864f3f128  2664  48b9e14b96cfdd1e0000 REX.W movq rcx,0x1eddcf964be1    ;; debug: position 9752
                                                             ;; object: 0x1eddcf964be1 <String[7]: getTime>
0x165864f3f132  2674  48b80000000007000000 REX.W movq rax,0x700000000
0x165864f3f13c  2684  e81f94feff     call 0x165864f28560     ;; code: contextual, LOAD_IC, DEFAULT
0x165864f3f141  2689  ff3424         push [rsp]
0x165864f3f144  2692  4889442408     REX.W movq [rsp+0x8],rax
0x165864f3f149  2697  48ba0000000005000000 REX.W movq rdx,0x500000000    ;; debug: position 9753
0x165864f3f153  2707  488b7c2408     REX.W movq rdi,[rsp+0x8]
0x165864f3f158  2712  e823f6fdff     call 0x165864f1e780     ;; code: CALL_IC, DEFAULT
0x165864f3f15d  2717  488b75f8       REX.W movq rsi,[rbp-0x8]
0x165864f3f161  2721  4883c408       REX.W addq rsp,0x8
0x165864f3f165  2725  488bce         REX.W movq rcx,rsi      ;; debug: position 9733
0x165864f3f168  2728  4889816f010000 REX.W movq [rcx+0x16f],rax
0x165864f3f16f  2735  488bd0         REX.W movq rdx,rax
0x165864f3f172  2738  f6c201         testb rdx,0x1
0x165864f3f175  2741  0f8429000000   jz 2788  (0x165864f3f1a4)
0x165864f3f17b  2747  488d996f010000 REX.W leaq rbx,[rcx+0x16f]
0x165864f3f182  2754  4881e20000f0ff REX.W andq rdx,0xfffffffffff00000
0x165864f3f189  2761  f6420804       testb [rdx+0x8],0x4
0x165864f3f18d  2765  7415           jz 2788  (0x165864f3f1a4)
0x165864f3f18f  2767  48c7c20000f0ff REX.W movq rdx,0xfff00000
0x165864f3f196  2774  4823d1         REX.W andq rdx,rcx
0x165864f3f199  2777  f6420808       testb [rdx+0x8],0x8
0x165864f3f19d  2781  7405           jz 2788  (0x165864f3f1a4)
0x165864f3f19f  2783  e89c07ffff     call 0x165864f2f940     ;; code: STUB, RecordWriteStub, minor: 801
0x165864f3f1a4  2788  488bc6         REX.W movq rax,rsi      ;; debug: statement 9772
0x165864f3f1a7  2791  ffb067010000   push [rax+0x167]
0x165864f3f1ad  2797  488b1424       REX.W movq rdx,[rsp]
0x165864f3f1b1  2801  48b9f95a96cfdd1e0000 REX.W movq rcx,0x1eddcf965af9    ;; debug: position 9776
                                                             ;; object: 0x1eddcf965af9 <String[7]: setTime>
0x165864f3f1bb  2811  48b8000000000b000000 REX.W movq rax,0xb00000000
0x165864f3f1c5  2821  e89693feff     call 0x165864f28560     ;; code: contextual, LOAD_IC, DEFAULT
0x165864f3f1ca  2826  ff3424         push [rsp]
0x165864f3f1cd  2829  4889442408     REX.W movq [rsp+0x8],rax
0x165864f3f1d2  2834  488bc6         REX.W movq rax,rsi      ;; debug: position 9785
0x165864f3f1d5  2837  ff702f         push [rax+0x2f]
0x165864f3f1d8  2840  48ba0000000009000000 REX.W movq rdx,0x900000000    ;; debug: position 9777
0x165864f3f1e2  2850  488b7c2410     REX.W movq rdi,[rsp+0x10]
0x165864f3f1e7  2855  e8d42efeff     call 0x165864f220c0     ;; code: CALL_IC, DEFAULT
0x165864f3f1ec  2860  488b75f8       REX.W movq rsi,[rbp-0x8]
0x165864f3f1f0  2864  4883c408       REX.W addq rsp,0x8
0x165864f3f1f4  2868  488bc6         REX.W movq rax,rsi      ;; debug: statement 9807
                                                             ;; debug: position 9816
0x165864f3f1f7  2871  ff7037         push [rax+0x37]
0x165864f3f1fa  2874  488b1424       REX.W movq rdx,[rsp]
0x165864f3f1fe  2878  48b981c295cfdd1e0000 REX.W movq rcx,0x1eddcf95c281    ;; debug: position 9821
                                                             ;; object: 0x1eddcf95c281 <String[5]: split>
0x165864f3f208  2888  48b8000000000f000000 REX.W movq rax,0xf00000000
0x165864f3f212  2898  e84993feff     call 0x165864f28560     ;; code: contextual, LOAD_IC, DEFAULT
0x165864f3f217  2903  ff3424         push [rsp]
0x165864f3f21a  2906  4889442408     REX.W movq [rsp+0x8],rax
0x165864f3f21f  2911  49bae14290cfdd1e0000 REX.W movq r10,0x1eddcf9042e1    ;; object: 0x1eddcf9042e1 <String[0]: >
0x165864f3f229  2921  4152           push r10
0x165864f3f22b  2923  48ba000000000d000000 REX.W movq rdx,0xd00000000    ;; debug: position 9822
0x165864f3f235  2933  488b7c2410     REX.W movq rdi,[rsp+0x10]
0x165864f3f23a  2938  e8812efeff     call 0x165864f220c0     ;; code: CALL_IC, DEFAULT
0x165864f3f23f  2943  488b75f8       REX.W movq rsi,[rbp-0x8]
0x165864f3f243  2947  4883c408       REX.W addq rsp,0x8
0x165864f3f247  2951  488bce         REX.W movq rcx,rsi      ;; debug: position 9807
0x165864f3f24a  2954  48898177010000 REX.W movq [rcx+0x177],rax
0x165864f3f251  2961  488bd0         REX.W movq rdx,rax
0x165864f3f254  2964  f6c201         testb rdx,0x1
0x165864f3f257  2967  0f8429000000   jz 3014  (0x165864f3f286)
0x165864f3f25d  2973  488d9977010000 REX.W leaq rbx,[rcx+0x177]
0x165864f3f264  2980  4881e20000f0ff REX.W andq rdx,0xfffffffffff00000
0x165864f3f26b  2987  f6420804       testb [rdx+0x8],0x4
0x165864f3f26f  2991  7415           jz 3014  (0x165864f3f286)
0x165864f3f271  2993  48c7c20000f0ff REX.W movq rdx,0xfff00000
0x165864f3f278  3000  4823d1         REX.W andq rdx,rcx
0x165864f3f27b  3003  f6420808       testb [rdx+0x8],0x8
0x165864f3f27f  3007  7405           jz 3014  (0x165864f3f286)
0x165864f3f281  3009  e8ba06ffff     call 0x165864f2f940     ;; code: STUB, RecordWriteStub, minor: 801
0x165864f3f286  3014  48b80000000000000000 REX.W movq rax,(nil)    ;; debug: statement 9837
0x165864f3f290  3024  488bce         REX.W movq rcx,rsi
0x165864f3f293  3027  4889817f010000 REX.W movq [rcx+0x17f],rax
0x165864f3f29a  3034  488bd0         REX.W movq rdx,rax
0x165864f3f29d  3037  f6c201         testb rdx,0x1
0x165864f3f2a0  3040  0f8429000000   jz 3087  (0x165864f3f2cf)
0x165864f3f2a6  3046  488d997f010000 REX.W leaq rbx,[rcx+0x17f]
0x165864f3f2ad  3053  4881e20000f0ff REX.W andq rdx,0xfffffffffff00000
0x165864f3f2b4  3060  f6420804       testb [rdx+0x8],0x4
0x165864f3f2b8  3064  7415           jz 3087  (0x165864f3f2cf)
0x165864f3f2ba  3066  48c7c20000f0ff REX.W movq rdx,0xfff00000
0x165864f3f2c1  3073  4823d1         REX.W andq rdx,rcx
0x165864f3f2c4  3076  f6420808       testb [rdx+0x8],0x8
0x165864f3f2c8  3080  7405           jz 3087  (0x165864f3f2cf)
0x165864f3f2ca  3082  e87106ffff     call 0x165864f2f940     ;; code: STUB, RecordWriteStub, minor: 801
0x165864f3f2cf  3087  488bc6         REX.W movq rax,rsi      ;; debug: statement 9862
                                                             ;; debug: position 9860
0x165864f3f2d2  3090  ffb077010000   push [rax+0x177]
0x165864f3f2d8  3096  488bc6         REX.W movq rax,rsi      ;; debug: position 9863
0x165864f3f2db  3099  488b807f010000 REX.W movq rax,[rax+0x17f]
0x165864f3f2e2  3106  488bc8         REX.W movq rcx,rax
0x165864f3f2e5  3109  5a             pop rdx
0x165864f3f2e6  3110  48b80000000011000000 REX.W movq rax,0x1100000000    ;; debug: position 9862
0x165864f3f2f0  3120  e8cbcdfdff     call 0x165864f1c0c0     ;; code: KEYED_LOAD_IC, DEFAULT
0x165864f3f2f5  3125  e8e662feff     call 0x165864f255e0     ;; code: TO_BOOLEAN_IC, UNINITIALIZED (id = 748)
0x165864f3f2fa  3130  4885c0         REX.W testq rax,rax
0x165864f3f2fd  3133  0f843b030000   jz 3966  (0x165864f3f63e)
0x165864f3f303  3139  488bc6         REX.W movq rax,rsi      ;; debug: statement 9878
                                                             ;; debug: position 9882
0x165864f3f306  3142  ffb077010000   push [rax+0x177]
0x165864f3f30c  3148  488bc6         REX.W movq rax,rsi      ;; debug: position 9885
0x165864f3f30f  3151  488b807f010000 REX.W movq rax,[rax+0x17f]
0x165864f3f316  3158  488bc8         REX.W movq rcx,rax
0x165864f3f319  3161  5a             pop rdx
0x165864f3f31a  3162  48b80000000013000000 REX.W movq rax,0x1300000000    ;; debug: position 9884
0x165864f3f324  3172  e897cdfdff     call 0x165864f1c0c0     ;; code: KEYED_LOAD_IC, DEFAULT
0x165864f3f329  3177  50             push rax
0x165864f3f32a  3178  48b899d59ecfdd1e0000 REX.W movq rax,0x1eddcf9ed599    ;; object: 0x1eddcf9ed599 <String[1]: \>
0x165864f3f334  3188  5a             pop rdx
0x165864f3f335  3189  488bca         REX.W movq rcx,rdx
0x165864f3f338  3192  480bc8         REX.W orq rcx,rax
0x165864f3f33b  3195  f6c101         testb rcx,0x1
0x165864f3f33e  3198  730e           jnc 3214  (0x165864f3f34e)
0x165864f3f340  3200  483bd0         REX.W cmpq rdx,rax
0x165864f3f343  3203  0f8426000000   jz 3247  (0x165864f3f36f)
0x165864f3f349  3209  e985000000     jmp 3347  (0x165864f3f3d3)
0x165864f3f34e  3214  e82dc0feff     call 0x165864f2b380     ;; code: COMPARE_IC, UNINITIALIZED (id = 764)
0x165864f3f353  3219  a815           test al,0x15
0x165864f3f355  3221  eb0f           jmp 3238  (0x165864f3f366)
0x165864f3f357  3223  493b45c0       REX.W cmpq rax,[r13-0x40]
0x165864f3f35b  3227  0f840e000000   jz 3247  (0x165864f3f36f)
0x165864f3f361  3233  e96d000000     jmp 3347  (0x165864f3f3d3)
0x165864f3f366  3238  4885c0         REX.W testq rax,rax
0x165864f3f369  3241  0f8564000000   jnz 3347  (0x165864f3f3d3)
0x165864f3f36f  3247  488bc6         REX.W movq rax,rsi      ;; debug: statement 9977
0x165864f3f372  3250  ffb077010000   push [rax+0x177]
0x165864f3f378  3256  488b1424       REX.W movq rdx,[rsp]
0x165864f3f37c  3260  48b9f1ce99cfdd1e0000 REX.W movq rcx,0x1eddcf99cef1    ;; debug: position 9979
                                                             ;; object: 0x1eddcf99cef1 <String[6]: splice>
0x165864f3f386  3270  48b80000000017000000 REX.W movq rax,0x1700000000
0x165864f3f390  3280  e8cb91feff     call 0x165864f28560     ;; code: contextual, LOAD_IC, DEFAULT
0x165864f3f395  3285  ff3424         push [rsp]
0x165864f3f398  3288  4889442408     REX.W movq [rsp+0x8],rax
0x165864f3f39d  3293  488bc6         REX.W movq rax,rsi      ;; debug: position 9987
0x165864f3f3a0  3296  ffb07f010000   push [rax+0x17f]
0x165864f3f3a6  3302  49ba0000000001000000 REX.W movq r10,0x100000000
0x165864f3f3b0  3312  4152           push r10
0x165864f3f3b2  3314  48ba0000000015000000 REX.W movq rdx,0x1500000000    ;; debug: position 9980
0x165864f3f3bc  3324  488b7c2418     REX.W movq rdi,[rsp+0x18]
0x165864f3f3c1  3329  e85a17ffff     call 0x165864f30b20     ;; code: CALL_IC, DEFAULT
0x165864f3f3c6  3334  488b75f8       REX.W movq rsi,[rbp-0x8]
0x165864f3f3ca  3338  4883c408       REX.W addq rsp,0x8
0x165864f3f3ce  3342  e9bf010000     jmp 3794  (0x165864f3f592)
0x165864f3f3d3  3347  48837e1f00     REX.W cmpq [rsi+0x1f],0x0    ;; debug: statement 10023
                                                             ;; debug: position 10027
0x165864f3f3d8  3352  0f8526000000   jnz 3396  (0x165864f3f404)
0x165864f3f3de  3358  488b5617       REX.W movq rdx,[rsi+0x17]
0x165864f3f3e2  3362  48b9f9ac9ecfdd1e0000 REX.W movq rcx,0x1eddcf9eacf9    ;; object: 0x1eddcf9eacf9 <String[11]: arrayExists>
0x165864f3f3ec  3372  488b5627       REX.W movq rdx,[rsi+0x27]
0x165864f3f3f0  3376  48b8000000001b000000 REX.W movq rax,0x1b00000000
0x165864f3f3fa  3386  e86191feff     call 0x165864f28560     ;; code: contextual, LOAD_IC, DEFAULT
0x165864f3f3ff  3391  e925000000     jmp 3433  (0x165864f3f429)
0x165864f3f404  3396  56             push rsi
0x165864f3f405  3397  49baf9ac9ecfdd1e0000 REX.W movq r10,0x1eddcf9eacf9    ;; object: 0x1eddcf9eacf9 <String[11]: arrayExists>
0x165864f3f40f  3407  4152           push r10
0x165864f3f411  3409  b802000000     movl rax,0x2
0x165864f3f416  3414  48bb20a42b0100000000 REX.W movq rbx,0x12ba420
0x165864f3f420  3424  e8bb96fcff     call 0x165864f08ae0     ;; code: STUB, CEntryStub, minor: 0
0x165864f3f425  3429  50             push rax
0x165864f3f426  3430  52             push rdx
0x165864f3f427  3431  eb05           jmp 3438  (0x165864f3f42e)
0x165864f3f429  3433  50             push rax
0x165864f3f42a  3434  41ff75a8       push [r13-0x58]
0x165864f3f42e  3438  488bc6         REX.W movq rax,rsi      ;; debug: position 10039
0x165864f3f431  3441  ff7057         push [rax+0x57]
0x165864f3f434  3444  488bc6         REX.W movq rax,rsi      ;; debug: position 10048
0x165864f3f437  3447  ffb077010000   push [rax+0x177]
0x165864f3f43d  3453  488bc6         REX.W movq rax,rsi      ;; debug: position 10051
0x165864f3f440  3456  488b807f010000 REX.W movq rax,[rax+0x17f]
0x165864f3f447  3463  488bc8         REX.W movq rcx,rax
0x165864f3f44a  3466  5a             pop rdx
0x165864f3f44b  3467  48b8000000001d000000 REX.W movq rax,0x1d00000000    ;; debug: position 10050
0x165864f3f455  3477  e866ccfdff     call 0x165864f1c0c0     ;; code: KEYED_LOAD_IC, DEFAULT
0x165864f3f45a  3482  50             push rax
0x165864f3f45b  3483  48ba0000000019000000 REX.W movq rdx,0x1900000000    ;; debug: position 10027
0x165864f3f465  3493  488b7c2418     REX.W movq rdi,[rsp+0x18]
0x165864f3f46a  3498  e89143fdff     call 0x165864f13800     ;; code: CALL_IC, DEFAULT
0x165864f3f46f  3503  488b75f8       REX.W movq rsi,[rbp-0x8]
0x165864f3f473  3507  4883c408       REX.W addq rsp,0x8
0x165864f3f477  3511  e86461feff     call 0x165864f255e0     ;; code: TO_BOOLEAN_IC, UNINITIALIZED (id = 807)
0x165864f3f47c  3516  4885c0         REX.W testq rax,rax
0x165864f3f47f  3519  0f840d010000   jz 3794  (0x165864f3f592)
0x165864f3f485  3525  488bc6         REX.W movq rax,rsi      ;; debug: statement 10075
                                                             ;; debug: position 10075
0x165864f3f488  3528  ffb077010000   push [rax+0x177]
0x165864f3f48e  3534  488bc6         REX.W movq rax,rsi      ;; debug: position 10078
0x165864f3f491  3537  ffb07f010000   push [rax+0x17f]
0x165864f3f497  3543  48837e1f00     REX.W cmpq [rsi+0x1f],0x0    ;; debug: position 10084
0x165864f3f49c  3548  0f8526000000   jnz 3592  (0x165864f3f4c8)
0x165864f3f4a2  3554  488b5617       REX.W movq rdx,[rsi+0x17]
0x165864f3f4a6  3558  48b919d494cfdd1e0000 REX.W movq rcx,0x1eddcf94d419    ;; object: 0x1eddcf94d419 <String[4]: eval>
0x165864f3f4b0  3568  488b5627       REX.W movq rdx,[rsi+0x27]
0x165864f3f4b4  3572  48b8000000001f000000 REX.W movq rax,0x1f00000000
0x165864f3f4be  3582  e89d90feff     call 0x165864f28560     ;; code: contextual, LOAD_IC, DEFAULT
0x165864f3f4c3  3587  e925000000     jmp 3629  (0x165864f3f4ed)
0x165864f3f4c8  3592  56             push rsi
0x165864f3f4c9  3593  49ba19d494cfdd1e0000 REX.W movq r10,0x1eddcf94d419    ;; object: 0x1eddcf94d419 <String[4]: eval>
0x165864f3f4d3  3603  4152           push r10
0x165864f3f4d5  3605  b802000000     movl rax,0x2
0x165864f3f4da  3610  48bb20a42b0100000000 REX.W movq rbx,0x12ba420
0x165864f3f4e4  3620  e8f795fcff     call 0x165864f08ae0     ;; code: STUB, CEntryStub, minor: 0
0x165864f3f4e9  3625  50             push rax
0x165864f3f4ea  3626  52             push rdx
0x165864f3f4eb  3627  eb05           jmp 3634  (0x165864f3f4f2)
0x165864f3f4ed  3629  50             push rax
0x165864f3f4ee  3630  41ff75a8       push [r13-0x58]
0x165864f3f4f2  3634  488bc6         REX.W movq rax,rsi      ;; debug: position 10089
0x165864f3f4f5  3637  ffb077010000   push [rax+0x177]
0x165864f3f4fb  3643  488bc6         REX.W movq rax,rsi      ;; debug: position 10092
0x165864f3f4fe  3646  488b807f010000 REX.W movq rax,[rax+0x17f]
0x165864f3f505  3653  488bc8         REX.W movq rcx,rax
0x165864f3f508  3656  5a             pop rdx
0x165864f3f509  3657  48b80000000021000000 REX.W movq rax,0x2100000000    ;; debug: position 10091
0x165864f3f513  3667  e8a8cbfdff     call 0x165864f1c0c0     ;; code: KEYED_LOAD_IC, DEFAULT
0x165864f3f518  3672  50             push rax
0x165864f3f519  3673  48b8b9d59ecfdd1e0000 REX.W movq rax,0x1eddcf9ed5b9    ;; object: 0x1eddcf9ed5b9 <String[2]: ()>
0x165864f3f523  3683  5a             pop rdx                 ;; debug: position 10096
0x165864f3f524  3684  488bc8         REX.W movq rcx,rax
0x165864f3f527  3687  480bc2         REX.W orq rax,rdx
0x165864f3f52a  3690  a801           test al,0x1
0x165864f3f52c  3692  720c           jc 3706  (0x165864f3f53a)
0x165864f3f52e  3694  488bc1         REX.W movq rax,rcx
0x165864f3f531  3697  e84a90fdff     call 0x165864f18580     ;; code: BINARY_OP_IC, UNINITIALIZED (id = 853)
0x165864f3f536  3702  a80a           test al,0xa
0x165864f3f538  3704  eb0c           jmp 3718  (0x165864f3f546)
0x165864f3f53a  3706  488bc2         REX.W movq rax,rdx
0x165864f3f53d  3709  4803c1         REX.W addq rax,rcx
0x165864f3f540  3712  0f80e8ffffff   jo 3694  (0x165864f3f52e)
0x165864f3f546  3718  50             push rax
0x165864f3f547  3719  ff742410       push [rsp+0x10]
0x165864f3f54b  3723  ff742408       push [rsp+0x8]
0x165864f3f54f  3727  ff75f0         push [rbp-0x10]
0x165864f3f552  3730  6a00           push 0x0
0x165864f3f554  3732  49ba00000000b6000000 REX.W movq r10,0xb600000000
0x165864f3f55e  3742  4152           push r10
0x165864f3f560  3744  b805000000     movl rax,0x5
0x165864f3f565  3749  48bb50a8270100000000 REX.W movq rbx,0x127a850
0x165864f3f56f  3759  e86c95fcff     call 0x165864f08ae0     ;; code: STUB, CEntryStub, minor: 0
0x165864f3f574  3764  4889442410     REX.W movq [rsp+0x10],rax
0x165864f3f579  3769  488b7c2410     REX.W movq rdi,[rsp+0x10]    ;; debug: position 10084
0x165864f3f57e  3774  e87df0ffff     call 0x165864f3e600     ;; code: STUB, CallFunctionStub, minor: 4
0x165864f3f583  3779  488b75f8       REX.W movq rsi,[rbp-0x8]
0x165864f3f587  3783  4883c408       REX.W addq rsp,0x8
0x165864f3f58b  3787  59             pop rcx                 ;; debug: position 10082
0x165864f3f58c  3788  5a             pop rdx
0x165864f3f58d  3789  e80e55ffff     call KeyedStoreIC_Initialize  (0x165864f34aa0)    ;; code: KEYED_STORE_IC, UNINITIALIZED (id = 832)
0x165864f3f592  3794  488bc6         REX.W movq rax,rsi      ;; debug: statement 10137
0x165864f3f595  3797  488b807f010000 REX.W movq rax,[rax+0x17f]
0x165864f3f59c  3804  a801           test al,0x1
0x165864f3f59e  3806  7314           jnc 3828  (0x165864f3f5b4)
0x165864f3f5a0  3808  49ba0000000001000000 REX.W movq r10,0x100000000
0x165864f3f5aa  3818  4903c2         REX.W addq rax,r10
0x165864f3f5ad  3821  711e           jno 3853  (0x165864f3f5cd)
0x165864f3f5af  3823  492bc2         REX.W subq rax,r10
0x165864f3f5b2  3826  eb05           jmp 3833  (0x165864f3f5b9)
0x165864f3f5b4  3828  e84739feff     call 0x165864f22f00     ;; code: STUB, ToNumberStub, minor: 0
0x165864f3f5b9  3833  488bd0         REX.W movq rdx,rax      ;; debug: position 10139
0x165864f3f5bc  3836  48b80000000001000000 REX.W movq rax,0x100000000
0x165864f3f5c6  3846  e8b58ffdff     call 0x165864f18580     ;; code: BINARY_OP_IC, UNINITIALIZED (id = 870)
0x165864f3f5cb  3851  a82d           test al,0x2d
0x165864f3f5cd  3853  488bce         REX.W movq rcx,rsi
0x165864f3f5d0  3856  4889817f010000 REX.W movq [rcx+0x17f],rax
0x165864f3f5d7  3863  488bd0         REX.W movq rdx,rax
0x165864f3f5da  3866  f6c201         testb rdx,0x1
0x165864f3f5dd  3869  0f8429000000   jz 3916  (0x165864f3f60c)
0x165864f3f5e3  3875  488d997f010000 REX.W leaq rbx,[rcx+0x17f]
0x165864f3f5ea  3882  4881e20000f0ff REX.W andq rdx,0xfffffffffff00000
0x165864f3f5f1  3889  f6420804       testb [rdx+0x8],0x4
0x165864f3f5f5  3893  7415           jz 3916  (0x165864f3f60c)
0x165864f3f5f7  3895  48c7c20000f0ff REX.W movq rdx,0xfff00000
0x165864f3f5fe  3902  4823d1         REX.W andq rdx,rcx
0x165864f3f601  3905  f6420808       testb [rdx+0x8],0x8
0x165864f3f605  3909  7405           jz 3916  (0x165864f3f60c)
0x165864f3f607  3911  e83403ffff     call 0x165864f2f940     ;; code: STUB, RecordWriteStub, minor: 801
0x165864f3f60c  3916  48bb51d79ecfdd1e0000 REX.W movq rbx,0x1eddcf9ed751    ;; object: 0x1eddcf9ed751 Cell for 6144
0x165864f3f616  3926  83430bfb       addl [rbx+0xb],0xfb
0x165864f3f61a  3930  791d           jns 3961  (0x165864f3f639)
0x165864f3f61c  3932  e81f73ffff     call InterruptCheck  (0x165864f36940)    ;; code: BUILTIN
0x165864f3f621  3937  48bb51d79ecfdd1e0000 REX.W movq rbx,0x1eddcf9ed751    ;; object: 0x1eddcf9ed751 Cell for 6144
0x165864f3f62b  3947  49ba0000000000180000 REX.W movq r10,0x180000000000
0x165864f3f635  3957  4c895307       REX.W movq [rbx+0x7],r10
0x165864f3f639  3961  e991fcffff     jmp 3087  (0x165864f3f2cf)
0x165864f3f63e  3966  488bc6         REX.W movq rax,rsi      ;; debug: statement 10192
                                                             ;; debug: position 10196
0x165864f3f641  3969  488b806f010000 REX.W movq rax,[rax+0x16f]
0x165864f3f648  3976  e8935ffeff     call 0x165864f255e0     ;; code: TO_BOOLEAN_IC, UNINITIALIZED (id = 879)
0x165864f3f64d  3981  4885c0         REX.W testq rax,rax
0x165864f3f650  3984  0f8453000000   jz 4073  (0x165864f3f6a9)
0x165864f3f656  3990  488bc6         REX.W movq rax,rsi      ;; debug: statement 10216
0x165864f3f659  3993  ffb067010000   push [rax+0x167]
0x165864f3f65f  3999  488b1424       REX.W movq rdx,[rsp]
0x165864f3f663  4003  48b9f95a96cfdd1e0000 REX.W movq rcx,0x1eddcf965af9    ;; debug: position 10220
                                                             ;; object: 0x1eddcf965af9 <String[7]: setTime>
0x165864f3f66d  4013  48b80000000025000000 REX.W movq rax,0x2500000000
0x165864f3f677  4023  e8e48efeff     call 0x165864f28560     ;; code: contextual, LOAD_IC, DEFAULT
0x165864f3f67c  4028  ff3424         push [rsp]
0x165864f3f67f  4031  4889442408     REX.W movq [rsp+0x8],rax
0x165864f3f684  4036  488bc6         REX.W movq rax,rsi      ;; debug: position 10229
0x165864f3f687  4039  ffb06f010000   push [rax+0x16f]
0x165864f3f68d  4045  48ba0000000023000000 REX.W movq rdx,0x2300000000    ;; debug: position 10221
0x165864f3f697  4055  488b7c2410     REX.W movq rdi,[rsp+0x10]
0x165864f3f69c  4060  e81f2afeff     call 0x165864f220c0     ;; code: CALL_IC, DEFAULT
0x165864f3f6a1  4065  488b75f8       REX.W movq rsi,[rbp-0x8]
0x165864f3f6a5  4069  4883c408       REX.W addq rsp,0x8
0x165864f3f6a9  4073  488bc6         REX.W movq rax,rsi      ;; debug: statement 10250
                                                             ;; debug: position 10257
0x165864f3f6ac  4076  ffb077010000   push [rax+0x177]
0x165864f3f6b2  4082  488b1424       REX.W movq rdx,[rsp]
0x165864f3f6b6  4086  48b9917e95cfdd1e0000 REX.W movq rcx,0x1eddcf957e91    ;; debug: position 10259
                                                             ;; object: 0x1eddcf957e91 <String[4]: join>
0x165864f3f6c0  4096  48b80000000029000000 REX.W movq rax,0x2900000000
0x165864f3f6ca  4106  e8918efeff     call 0x165864f28560     ;; code: contextual, LOAD_IC, DEFAULT
0x165864f3f6cf  4111  ff3424         push [rsp]
0x165864f3f6d2  4114  4889442408     REX.W movq [rsp+0x8],rax
0x165864f3f6d7  4119  49bae14290cfdd1e0000 REX.W movq r10,0x1eddcf9042e1    ;; object: 0x1eddcf9042e1 <String[0]: >
0x165864f3f6e1  4129  4152           push r10
0x165864f3f6e3  4131  48ba0000000027000000 REX.W movq rdx,0x2700000000    ;; debug: position 10260
0x165864f3f6ed  4141  488b7c2410     REX.W movq rdi,[rsp+0x10]
0x165864f3f6f2  4146  e8c929feff     call 0x165864f220c0     ;; code: CALL_IC, DEFAULT
0x165864f3f6f7  4151  488b75f8       REX.W movq rsi,[rbp-0x8]
0x165864f3f6fb  4155  4883c408       REX.W addq rsp,0x8
0x165864f3f6ff  4159  48bb51d79ecfdd1e0000 REX.W movq rbx,0x1eddcf9ed751    ;; object: 0x1eddcf9ed751 Cell for 6144
0x165864f3f709  4169  83430be7       addl [rbx+0xb],0xe7
0x165864f3f70d  4173  791f           jns 4206  (0x165864f3f72e)
0x165864f3f70f  4175  50             push rax
0x165864f3f710  4176  e82b72ffff     call InterruptCheck  (0x165864f36940)    ;; code: BUILTIN
0x165864f3f715  4181  58             pop rax
0x165864f3f716  4182  48bb51d79ecfdd1e0000 REX.W movq rbx,0x1eddcf9ed751    ;; object: 0x1eddcf9ed751 Cell for 6144
0x165864f3f720  4192  49ba0000000000180000 REX.W movq r10,0x180000000000
0x165864f3f72a  4202  4c895307       REX.W movq [rbx+0x7],r10
0x165864f3f72e  4206  c9             leave                   ;; debug: statement 10270
0x165864f3f72f  4207  c21800         ret 0x18
0x165864f3f732  4210  498b45a8       REX.W movq rax,[r13-0x58]
0x165864f3f736  4214  e9c4ffffff     jmp 4159  (0x165864f3f6ff)
0x165864f3f73b  4219  0f1f440000     nop

Deoptimization Output Data (deopt points = 0)

Back edges (size = 1)
ast_id  pc_offset  loop_depth
   745       3937           1

0x1eddcf9eed99: [TypeFeedbackInfo]
 - ic_total_count: 27, ic_with_type_info_count: 0, ic_generic_count: 0

RelocInfo (size = 396)
0x165864f3e6c0  position  (182)
0x165864f3e6df  code target (STUB)  (0x165864f3dae0)
0x165864f3e76e  code target (STUB)  (0x165864f3df00)
0x165864f3e785  code target (STUB)  (0x165864f10300)
0x165864f3e7b9  code target (STUB)  (0x165864f3df00)
0x165864f3e7bf  embedded object  (0x1eddcf9ed7e1 <SharedFunctionInfo a>)
0x165864f3e7c8  code target (STUB)  (0x165864f291a0)
0x165864f3e7f7  code target (STUB)  (0x165864f223c0)
0x165864f3e7fd  embedded object  (0x1eddcf9ed891 <SharedFunctionInfo A>)
0x165864f3e806  code target (STUB)  (0x165864f291a0)
0x165864f3e835  code target (STUB)  (0x165864f223c0)
0x165864f3e83b  embedded object  (0x1eddcf9ed941 <SharedFunctionInfo B>)
0x165864f3e844  code target (STUB)  (0x165864f291a0)
0x165864f3e873  code target (STUB)  (0x165864f223c0)
0x165864f3e879  embedded object  (0x1eddcf9ed9f1 <SharedFunctionInfo d>)
0x165864f3e882  code target (STUB)  (0x165864f291a0)
0x165864f3e8b1  code target (STUB)  (0x165864f223c0)
0x165864f3e8b7  embedded object  (0x1eddcf9edaa1 <SharedFunctionInfo D>)
0x165864f3e8c0  code target (STUB)  (0x165864f291a0)
0x165864f3e8ef  code target (STUB)  (0x165864f223c0)
0x165864f3e8f5  embedded object  (0x1eddcf9edb51 <SharedFunctionInfo F>)
0x165864f3e8fe  code target (STUB)  (0x165864f291a0)
0x165864f3e92d  code target (STUB)  (0x165864f223c0)
0x165864f3e933  embedded object  (0x1eddcf9edc01 <SharedFunctionInfo g>)
0x165864f3e93c  code target (STUB)  (0x165864f291a0)
0x165864f3e96b  code target (STUB)  (0x165864f223c0)
0x165864f3e971  embedded object  (0x1eddcf9edcb1 <SharedFunctionInfo G>)
0x165864f3e97a  code target (STUB)  (0x165864f291a0)
0x165864f3e9a9  code target (STUB)  (0x165864f223c0)
0x165864f3e9af  embedded object  (0x1eddcf9edd61 <SharedFunctionInfo h>)
0x165864f3e9b8  code target (STUB)  (0x165864f291a0)
0x165864f3e9e7  code target (STUB)  (0x165864f223c0)
0x165864f3e9ed  embedded object  (0x1eddcf9ede11 <SharedFunctionInfo H>)
0x165864f3e9f6  code target (STUB)  (0x165864f291a0)
0x165864f3ea25  code target (STUB)  (0x165864f223c0)
0x165864f3ea2b  embedded object  (0x1eddcf9edec1 <SharedFunctionInfo i>)
0x165864f3ea34  code target (STUB)  (0x165864f291a0)
0x165864f3ea63  code target (STUB)  (0x165864f223c0)
0x165864f3ea69  embedded object  (0x1eddcf9edf71 <SharedFunctionInfo j>)
0x165864f3ea72  code target (STUB)  (0x165864f291a0)
0x165864f3eaa1  code target (STUB)  (0x165864f223c0)
0x165864f3eaa7  embedded object  (0x1eddcf9ee021 <SharedFunctionInfo l>)
0x165864f3eab0  code target (STUB)  (0x165864f291a0)
0x165864f3eadf  code target (STUB)  (0x165864f223c0)
0x165864f3eae5  embedded object  (0x1eddcf9ee0d1 <SharedFunctionInfo L>)
0x165864f3eaee  code target (STUB)  (0x165864f291a0)
0x165864f3eb1d  code target (STUB)  (0x165864f223c0)
0x165864f3eb23  embedded object  (0x1eddcf9ee181 <SharedFunctionInfo m>)
0x165864f3eb2c  code target (STUB)  (0x165864f291a0)
0x165864f3eb5b  code target (STUB)  (0x165864f223c0)
0x165864f3eb61  embedded object  (0x1eddcf9ee231 <SharedFunctionInfo M>)
0x165864f3eb6a  code target (STUB)  (0x165864f291a0)
0x165864f3eb99  code target (STUB)  (0x165864f223c0)
0x165864f3eb9f  embedded object  (0x1eddcf9ee2e1 <SharedFunctionInfo n>)
0x165864f3eba8  code target (STUB)  (0x165864f291a0)
0x165864f3ebd7  code target (STUB)  (0x165864f223c0)
0x165864f3ebdd  embedded object  (0x1eddcf9ee391 <SharedFunctionInfo O>)
0x165864f3ebe6  code target (STUB)  (0x165864f291a0)
0x165864f3ec15  code target (STUB)  (0x165864f223c0)
0x165864f3ec1b  embedded object  (0x1eddcf9ee441 <SharedFunctionInfo r>)
0x165864f3ec24  code target (STUB)  (0x165864f291a0)
0x165864f3ec53  code target (STUB)  (0x165864f223c0)
0x165864f3ec59  embedded object  (0x1eddcf9ee4f1 <SharedFunctionInfo S>)
0x165864f3ec62  code target (STUB)  (0x165864f291a0)
0x165864f3ec91  code target (STUB)  (0x165864f223c0)
0x165864f3ec97  embedded object  (0x1eddcf9ee5a1 <SharedFunctionInfo s>)
0x165864f3eca0  code target (STUB)  (0x165864f291a0)
0x165864f3eccf  code target (STUB)  (0x165864f223c0)
0x165864f3ecd5  embedded object  (0x1eddcf9ee651 <SharedFunctionInfo t>)
0x165864f3ecef  code target (STUB)  (0x165864f08ae0)
0x165864f3ed1e  code target (STUB)  (0x165864f223c0)
0x165864f3ed24  embedded object  (0x1eddcf9ee701 <SharedFunctionInfo U>)
0x165864f3ed2d  code target (STUB)  (0x165864f291a0)
0x165864f3ed5c  code target (STUB)  (0x165864f223c0)
0x165864f3ed62  embedded object  (0x1eddcf9ee7b1 <SharedFunctionInfo W>)
0x165864f3ed6b  code target (STUB)  (0x165864f291a0)
0x165864f3ed9a  code target (STUB)  (0x165864f223c0)
0x165864f3eda0  embedded object  (0x1eddcf9ee861 <SharedFunctionInfo w>)
0x165864f3eda9  code target (STUB)  (0x165864f291a0)
0x165864f3edd8  code target (STUB)  (0x165864f223c0)
0x165864f3edde  embedded object  (0x1eddcf9ee911 <SharedFunctionInfo Y>)
0x165864f3ede7  code target (STUB)  (0x165864f291a0)
0x165864f3ee16  code target (STUB)  (0x165864f223c0)
0x165864f3ee1c  embedded object  (0x1eddcf9ee9c1 <SharedFunctionInfo y>)
0x165864f3ee25  code target (STUB)  (0x165864f291a0)
0x165864f3ee54  code target (STUB)  (0x165864f223c0)
0x165864f3ee5a  embedded object  (0x1eddcf9eea71 <SharedFunctionInfo z>)
0x165864f3ee63  code target (STUB)  (0x165864f291a0)
0x165864f3ee92  code target (STUB)  (0x165864f223c0)
0x165864f3eea0  code target (BUILTIN)  (0x165864f36a80)
0x165864f3eea4  statement position  (710)
0x165864f3eeb8  embedded object  (0x1eddcf9eeb21 <FixedArray[2]>)
0x165864f3eec1  code target (STUB)  (0x165864f1c260)
0x165864f3eefa  code target (STUB)  (0x165864f2f940)
0x165864f3eefe  statement position  (922)
0x165864f3ef12  embedded object  (0x1eddcf9eeb41 <FixedArray[2]>)
0x165864f3ef1b  code target (STUB)  (0x165864f1c260)
0x165864f3ef54  code target (STUB)  (0x165864f2f940)
0x165864f3ef58  statement position  (1048)
0x165864f3ef6c  embedded object  (0x1eddcf9eeb61 <FixedArray[2]>)
0x165864f3ef75  code target (STUB)  (0x165864f1c260)
0x165864f3efae  code target (STUB)  (0x165864f2f940)
0x165864f3efb2  statement position  (1145)
0x165864f3efc6  embedded object  (0x1eddcf9eeb81 <FixedArray[2]>)
0x165864f3efcf  code target (STUB)  (0x165864f1c260)
0x165864f3f008  code target (STUB)  (0x165864f2f940)
0x165864f3f00c  statement position  (1299)
0x165864f3f020  embedded object  (0x1eddcf9eeba1 <FixedArray[2]>)
0x165864f3f029  code target (STUB)  (0x165864f1c260)
0x165864f3f062  code target (STUB)  (0x165864f2f940)
0x165864f3f066  statement position  (1491)
0x165864f3f07a  embedded object  (0x1eddcf9eebc1 <FixedArray[2]>)
0x165864f3f083  code target (STUB)  (0x165864f1c260)
0x165864f3f0bc  code target (STUB)  (0x165864f2f940)
0x165864f3f0c0  statement position  (9671)
0x165864f3f0c0  position  (9682)
0x165864f3f0c7  position  (9671)
0x165864f3f102  code target (STUB)  (0x165864f2f940)
0x165864f3f106  statement position  (9692)
0x165864f3f106  position  (9696)
0x165864f3f10e  code target with id (TO_BOOLEAN_IC)  (0x165864f255e0) (id=657)
0x165864f3f11b  statement position  (9733)
0x165864f3f11b  position  (9748)
0x165864f3f128  position  (9752)
0x165864f3f12a  embedded object  (0x1eddcf964be1 <String[7]: getTime>)
0x165864f3f13d  code target (LOAD_IC)  (0x165864f28560)
0x165864f3f149  position  (9753)
0x165864f3f159  code target (CALL_IC)  (0x165864f1e780)
0x165864f3f165  position  (9733)
0x165864f3f1a0  code target (STUB)  (0x165864f2f940)
0x165864f3f1a4  statement position  (9772)
0x165864f3f1b1  position  (9776)
0x165864f3f1b3  embedded object  (0x1eddcf965af9 <String[7]: setTime>)
0x165864f3f1c6  code target (LOAD_IC)  (0x165864f28560)
0x165864f3f1d2  position  (9785)
0x165864f3f1d8  position  (9777)
0x165864f3f1e8  code target (CALL_IC)  (0x165864f220c0)
0x165864f3f1f4  statement position  (9807)
0x165864f3f1f4  position  (9816)
0x165864f3f1fe  position  (9821)
0x165864f3f200  embedded object  (0x1eddcf95c281 <String[5]: split>)
0x165864f3f213  code target (LOAD_IC)  (0x165864f28560)
0x165864f3f221  embedded object  (0x1eddcf9042e1 <String[0]: >)
0x165864f3f22b  position  (9822)
0x165864f3f23b  code target (CALL_IC)  (0x165864f220c0)
0x165864f3f247  position  (9807)
0x165864f3f282  code target (STUB)  (0x165864f2f940)
0x165864f3f286  statement position  (9837)
0x165864f3f2cb  code target (STUB)  (0x165864f2f940)
0x165864f3f2cf  statement position  (9862)
0x165864f3f2cf  position  (9860)
0x165864f3f2d8  position  (9863)
0x165864f3f2e6  position  (9862)
0x165864f3f2f1  code target (KEYED_LOAD_IC)  (0x165864f1c0c0)
0x165864f3f2f6  code target with id (TO_BOOLEAN_IC)  (0x165864f255e0) (id=748)
0x165864f3f303  statement position  (9878)
0x165864f3f303  position  (9882)
0x165864f3f30c  position  (9885)
0x165864f3f31a  position  (9884)
0x165864f3f325  code target (KEYED_LOAD_IC)  (0x165864f1c0c0)
0x165864f3f32c  embedded object  (0x1eddcf9ed599 <String[1]: \>)
0x165864f3f34f  code target with id (COMPARE_IC)  (0x165864f2b380) (id=764)
0x165864f3f36f  statement position  (9977)
0x165864f3f37c  position  (9979)
0x165864f3f37e  embedded object  (0x1eddcf99cef1 <String[6]: splice>)
0x165864f3f391  code target (LOAD_IC)  (0x165864f28560)
0x165864f3f39d  position  (9987)
0x165864f3f3b2  position  (9980)
0x165864f3f3c2  code target (CALL_IC)  (0x165864f30b20)
0x165864f3f3d3  statement position  (10023)
0x165864f3f3d3  position  (10027)
0x165864f3f3e4  embedded object  (0x1eddcf9eacf9 <String[11]: arrayExists>)
0x165864f3f3fb  code target (LOAD_IC)  (0x165864f28560)
0x165864f3f407  embedded object  (0x1eddcf9eacf9 <String[11]: arrayExists>)
0x165864f3f421  code target (STUB)  (0x165864f08ae0)
0x165864f3f42e  position  (10039)
0x165864f3f434  position  (10048)
0x165864f3f43d  position  (10051)
0x165864f3f44b  position  (10050)
0x165864f3f456  code target (KEYED_LOAD_IC)  (0x165864f1c0c0)
0x165864f3f45b  position  (10027)
0x165864f3f46b  code target (CALL_IC)  (0x165864f13800)
0x165864f3f478  code target with id (TO_BOOLEAN_IC)  (0x165864f255e0) (id=807)
0x165864f3f485  statement position  (10075)
0x165864f3f485  position  (10075)
0x165864f3f48e  position  (10078)
0x165864f3f497  position  (10084)
0x165864f3f4a8  embedded object  (0x1eddcf94d419 <String[4]: eval>)
0x165864f3f4bf  code target (LOAD_IC)  (0x165864f28560)
0x165864f3f4cb  embedded object  (0x1eddcf94d419 <String[4]: eval>)
0x165864f3f4e5  code target (STUB)  (0x165864f08ae0)
0x165864f3f4f2  position  (10089)
0x165864f3f4fb  position  (10092)
0x165864f3f509  position  (10091)
0x165864f3f514  code target (KEYED_LOAD_IC)  (0x165864f1c0c0)
0x165864f3f51b  embedded object  (0x1eddcf9ed5b9 <String[2]: ()>)
0x165864f3f523  position  (10096)
0x165864f3f532  code target with id (BINARY_OP_IC)  (0x165864f18580) (id=853)
0x165864f3f570  code target (STUB)  (0x165864f08ae0)
0x165864f3f579  position  (10084)
0x165864f3f57f  code target (STUB)  (0x165864f3e600)
0x165864f3f58b  position  (10082)
0x165864f3f58e  code target with id (KEYED_STORE_IC)  (0x165864f34aa0) (id=832)
0x165864f3f592  statement position  (10137)
0x165864f3f5b5  code target (STUB)  (0x165864f22f00)
0x165864f3f5b9  position  (10139)
0x165864f3f5c7  code target with id (BINARY_OP_IC)  (0x165864f18580) (id=870)
0x165864f3f608  code target (STUB)  (0x165864f2f940)
0x165864f3f60e  embedded object  (0x1eddcf9ed751 Cell for 6144)
0x165864f3f61d  code target (BUILTIN)  (0x165864f36940)
0x165864f3f623  embedded object  (0x1eddcf9ed751 Cell for 6144)
0x165864f3f63e  statement position  (10192)
0x165864f3f63e  position  (10196)
0x165864f3f649  code target with id (TO_BOOLEAN_IC)  (0x165864f255e0) (id=879)
0x165864f3f656  statement position  (10216)
0x165864f3f663  position  (10220)
0x165864f3f665  embedded object  (0x1eddcf965af9 <String[7]: setTime>)
0x165864f3f678  code target (LOAD_IC)  (0x165864f28560)
0x165864f3f684  position  (10229)
0x165864f3f68d  position  (10221)
0x165864f3f69d  code target (CALL_IC)  (0x165864f220c0)
0x165864f3f6a9  statement position  (10250)
0x165864f3f6a9  position  (10257)
0x165864f3f6b6  position  (10259)
0x165864f3f6b8  embedded object  (0x1eddcf957e91 <String[4]: join>)
0x165864f3f6cb  code target (LOAD_IC)  (0x165864f28560)
0x165864f3f6d9  embedded object  (0x1eddcf9042e1 <String[0]: >)
0x165864f3f6e3  position  (10260)
0x165864f3f6f3  code target (CALL_IC)  (0x165864f220c0)
0x165864f3f701  embedded object  (0x1eddcf9ed751 Cell for 6144)
0x165864f3f711  code target (BUILTIN)  (0x165864f36940)
0x165864f3f718  embedded object  (0x1eddcf9ed751 Cell for 6144)
0x165864f3f72e  statement position  (10270)

--- End code ---
--- Raw source ---
(au,av){
if((%IS_VAR(this)===null)||(this===(void 0)))throw MakeTypeError(15,"String.prototype.split");
var w=(%_ToString(this));
av=((av===(void 0)))?0xffffffff:(av>>>0);
var U=w.length;
if(!(%_IsRegExp(au))){
var aw=(%_ToString(au));
if(av===0)return[];
if((au===(void 0)))return[w];
var ax=aw.length;
if(ax===0)return %StringToArray(w,av);
var o=%StringSplit(w,aw,av);
return o;
}
if(av===0)return[];
return StringSplitOnRegExp(w,au,av,U);
}


--- Code ---
source_position = 7589
kind = FUNCTION
name = split
compiler = full-codegen
Instructions (size = 932)
0x165864f3f7c0     0  55             push rbp                ;; debug: position 7589
0x165864f3f7c1     1  4889e5         REX.W movq rbp,rsp
0x165864f3f7c4     4  56             push rsi
0x165864f3f7c5     5  57             push rdi
0x165864f3f7c6     6  498b55a8       REX.W movq rdx,[r13-0x58]
0x165864f3f7ca    10  52             push rdx
0x165864f3f7cb    11  52             push rdx
0x165864f3f7cc    12  52             push rdx
0x165864f3f7cd    13  52             push rdx
0x165864f3f7ce    14  52             push rdx
0x165864f3f7cf    15  493ba548090000 REX.W cmpq rsp,[r13+0x948]
0x165864f3f7d6    22  7305           jnc 29  (0x165864f3f7dd)
0x165864f3f7d8    24  e8a372ffff     call StackCheck  (0x165864f36a80)    ;; code: BUILTIN
0x165864f3f7dd    29  488b4520       REX.W movq rax,[rbp+0x20]    ;; debug: statement 7598
                                                             ;; debug: position 7610
0x165864f3f7e1    33  eb0f           jmp 50  (0x165864f3f7f2)
0x165864f3f7e3    35  493b45c0       REX.W cmpq rax,[r13-0x40]
0x165864f3f7e7    39  0f842e000000   jz 91  (0x165864f3f81b)
0x165864f3f7ed    45  e90a000000     jmp 60  (0x165864f3f7fc)
0x165864f3f7f2    50  493b45b8       REX.W cmpq rax,[r13-0x48]
0x165864f3f7f6    54  0f841f000000   jz 91  (0x165864f3f81b)
0x165864f3f7fc    60  488b4520       REX.W movq rax,[rbp+0x20]    ;; debug: position 7626
0x165864f3f800    64  eb0f           jmp 81  (0x165864f3f811)
0x165864f3f802    66  493b45c0       REX.W cmpq rax,[r13-0x40]
0x165864f3f806    70  0f840f000000   jz 91  (0x165864f3f81b)
0x165864f3f80c    76  e97c000000     jmp 205  (0x165864f3f88d)
0x165864f3f811    81  493b45a8       REX.W cmpq rax,[r13-0x58]
0x165864f3f815    85  0f8572000000   jnz 205  (0x165864f3f88d)
0x165864f3f81b    91  48b9b92e98cfdd1e0000 REX.W movq rcx,0x1eddcf982eb9    ;; debug: statement 7643
                                                             ;; debug: position 7649
                                                             ;; object: 0x1eddcf982eb9 <String[13]: MakeTypeError>
0x165864f3f825   101  488b5627       REX.W movq rdx,[rsi+0x27]
0x165864f3f829   105  48b80000000006000000 REX.W movq rax,0x600000000
0x165864f3f833   115  e8288dfeff     call 0x165864f28560     ;; code: contextual, LOAD_IC, DEFAULT
0x165864f3f838   120  50             push rax
0x165864f3f839   121  49ba894190cfdd1e0000 REX.W movq r10,0x1eddcf904189    ;; object: 0x1eddcf904189 <undefined>
0x165864f3f843   131  4152           push r10
0x165864f3f845   133  49ba000000000f000000 REX.W movq r10,0xf00000000
0x165864f3f84f   143  4152           push r10
0x165864f3f851   145  49ba71f39ecfdd1e0000 REX.W movq r10,0x1eddcf9ef371    ;; object: 0x1eddcf9ef371 <String[22]: String.prototype.split>
0x165864f3f85b   155  4152           push r10
0x165864f3f85d   157  48ba0000000004000000 REX.W movq rdx,0x400000000
0x165864f3f867   167  488b7c2418     REX.W movq rdi,[rsp+0x18]
0x165864f3f86c   172  e88f3ffdff     call 0x165864f13800     ;; code: CALL_IC, DEFAULT
0x165864f3f871   177  488b75f8       REX.W movq rsi,[rbp-0x8]
0x165864f3f875   181  48890424       REX.W movq [rsp],rax
0x165864f3f879   185  b801000000     movl rax,0x1            ;; debug: position 7643
0x165864f3f87e   190  48bb9038290100000000 REX.W movq rbx,0x1293890
0x165864f3f888   200  e85392fcff     call 0x165864f08ae0     ;; code: STUB, CEntryStub, minor: 0
0x165864f3f88d   205  488b4520       REX.W movq rax,[rbp+0x20]    ;; debug: statement 7693
                                                             ;; debug: position 7711
0x165864f3f891   209  e84adbfeff     call 0x165864f2d3e0     ;; code: STUB, ToStringStub, minor: 0
0x165864f3f896   214  488945e8       REX.W movq [rbp-0x18],rax    ;; debug: position 7693
0x165864f3f89a   218  488b4510       REX.W movq rax,[rbp+0x10]    ;; debug: statement 7719
                                                             ;; debug: position 7724
0x165864f3f89e   222  eb0f           jmp 239  (0x165864f3f8af)
0x165864f3f8a0   224  493b45c0       REX.W cmpq rax,[r13-0x40]
0x165864f3f8a4   228  0f840f000000   jz 249  (0x165864f3f8b9)
0x165864f3f8aa   234  e919000000     jmp 264  (0x165864f3f8c8)
0x165864f3f8af   239  493b45a8       REX.W cmpq rax,[r13-0x58]
0x165864f3f8b3   243  0f850f000000   jnz 264  (0x165864f3f8c8)
0x165864f3f8b9   249  48b8a1f39ecfdd1e0000 REX.W movq rax,0x1eddcf9ef3a1    ;; debug: position 7740
                                                             ;; object: 0x1eddcf9ef3a1 <Number: 4.29497e+09>
0x165864f3f8c3   259  e914000000     jmp 284  (0x165864f3f8dc)
0x165864f3f8c8   264  ff7510         push [rbp+0x10]         ;; debug: position 7752
0x165864f3f8cb   267  48b80000000000000000 REX.W movq rax,(nil)
0x165864f3f8d5   277  5a             pop rdx                 ;; debug: position 7754
0x165864f3f8d6   278  e8a5d2fcff     call 0x165864f0cb80     ;; code: BINARY_OP_IC, UNINITIALIZED (id = 110)
0x165864f3f8db   283  90             nop
0x165864f3f8dc   284  48894510       REX.W movq [rbp+0x10],rax    ;; debug: position 7721
0x165864f3f8e0   288  488b45e8       REX.W movq rax,[rbp-0x18]    ;; debug: statement 7761
                                                             ;; debug: position 7767
0x165864f3f8e4   292  488bd0         REX.W movq rdx,rax
0x165864f3f8e7   295  48b9710799cfdd1e0000 REX.W movq rcx,0x1eddcf990771    ;; debug: position 7768
                                                             ;; object: 0x1eddcf990771 <String[6]: length>
0x165864f3f8f1   305  48b80000000008000000 REX.W movq rax,0x800000000
0x165864f3f8fb   315  e8608cfeff     call 0x165864f28560     ;; code: contextual, LOAD_IC, DEFAULT
0x165864f3f900   320  488945e0       REX.W movq [rbp-0x20],rax    ;; debug: position 7761
0x165864f3f904   324  488b4518       REX.W movq rax,[rbp+0x18]    ;; debug: statement 7777
                                                             ;; debug: position 7793
0x165864f3f908   328  a801           test al,0x1
0x165864f3f90a   330  0f841f000000   jz 367  (0x165864f3f92f)
0x165864f3f910   336  488b58ff       REX.W movq rbx,[rax-0x1]
0x165864f3f914   340  807b0bc9       cmpb [rbx+0xb],0xc9
0x165864f3f918   344  eb0f           jmp 361  (0x165864f3f929)
0x165864f3f91a   346  493b45c0       REX.W cmpq rax,[r13-0x40]
0x165864f3f91e   350  0f849f010000   jz 771  (0x165864f3fac3)
0x165864f3f924   356  e906000000     jmp 367  (0x165864f3f92f)
0x165864f3f929   361  0f8494010000   jz 771  (0x165864f3fac3)
0x165864f3f92f   367  488b4518       REX.W movq rax,[rbp+0x18]    ;; debug: statement 7800
                                                             ;; debug: position 7819
0x165864f3f933   371  e8a8dafeff     call 0x165864f2d3e0     ;; code: STUB, ToStringStub, minor: 0
0x165864f3f938   376  488945d8       REX.W movq [rbp-0x28],rax    ;; debug: position 7800
0x165864f3f93c   380  ff7510         push [rbp+0x10]         ;; debug: statement 7825
                                                             ;; debug: position 7828
0x165864f3f93f   383  48b80000000000000000 REX.W movq rax,(nil)
0x165864f3f949   393  5a             pop rdx
0x165864f3f94a   394  e8f1b9fdff     call 0x165864f1b340     ;; code: COMPARE_IC, UNINITIALIZED (id = 173)
0x165864f3f94f   399  90             nop
0x165864f3f950   400  eb0f           jmp 417  (0x165864f3f961)
0x165864f3f952   402  493b45c0       REX.W cmpq rax,[r13-0x40]
0x165864f3f956   406  0f840e000000   jz 426  (0x165864f3f96a)
0x165864f3f95c   412  e95d000000     jmp 510  (0x165864f3f9be)
0x165864f3f961   417  4885c0         REX.W testq rax,rax
0x165864f3f964   420  0f8554000000   jnz 510  (0x165864f3f9be)
0x165864f3f96a   426  488b5df0       REX.W movq rbx,[rbp-0x10]    ;; debug: statement 7835
0x165864f3f96e   430  488b4337       REX.W movq rax,[rbx+0x37]
0x165864f3f972   434  48bb0000000000000000 REX.W movq rbx,(nil)
0x165864f3f97c   444  48b981f49ecfdd1e0000 REX.W movq rcx,0x1eddcf9ef481    ;; object: 0x1eddcf9ef481 <FixedArray[2]>
0x165864f3f986   454  e8d5c8fdff     call 0x165864f1c260     ;; code: STUB, FastCloneShallowArrayStub, minor: 1
0x165864f3f98b   459  48bb71f49ecfdd1e0000 REX.W movq rbx,0x1eddcf9ef471    ;; object: 0x1eddcf9ef471 Cell for 6144
0x165864f3f995   469  83430bd1       addl [rbx+0xb],0xd1
0x165864f3f999   473  791f           jns 506  (0x165864f3f9ba)
0x165864f3f99b   475  50             push rax
0x165864f3f99c   476  e89f6fffff     call InterruptCheck  (0x165864f36940)    ;; code: BUILTIN
0x165864f3f9a1   481  58             pop rax
0x165864f3f9a2   482  48bb71f49ecfdd1e0000 REX.W movq rbx,0x1eddcf9ef471    ;; object: 0x1eddcf9ef471 Cell for 6144
0x165864f3f9ac   492  49ba0000000000180000 REX.W movq r10,0x180000000000
0x165864f3f9b6   502  4c895307       REX.W movq [rbx+0x7],r10
0x165864f3f9ba   506  c9             leave                   ;; debug: statement 8032
0x165864f3f9bb   507  c21800         ret 0x18
0x165864f3f9be   510  488b4518       REX.W movq rax,[rbp+0x18]    ;; debug: statement 7845
                                                             ;; debug: position 7849
0x165864f3f9c2   514  eb0f           jmp 531  (0x165864f3f9d3)
0x165864f3f9c4   516  493b45c0       REX.W cmpq rax,[r13-0x40]
0x165864f3f9c8   520  0f840f000000   jz 541  (0x165864f3f9dd)
0x165864f3f9ce   526  e955000000     jmp 616  (0x165864f3fa28)
0x165864f3f9d3   531  493b45a8       REX.W cmpq rax,[r13-0x58]
0x165864f3f9d7   535  0f854b000000   jnz 616  (0x165864f3fa28)
0x165864f3f9dd   541  488b5df0       REX.W movq rbx,[rbp-0x10]    ;; debug: statement 7864
0x165864f3f9e1   545  488b4337       REX.W movq rax,[rbx+0x37]
0x165864f3f9e5   549  48bb0000000001000000 REX.W movq rbx,0x100000000
0x165864f3f9ef   559  48b9a1f49ecfdd1e0000 REX.W movq rcx,0x1eddcf9ef4a1    ;; object: 0x1eddcf9ef4a1 <FixedArray[2]>
0x165864f3f9f9   569  e862c8fdff     call 0x165864f1c260     ;; code: STUB, FastCloneShallowArrayStub, minor: 1
0x165864f3f9fe   574  50             push rax
0x165864f3f9ff   575  49ba0000000001000000 REX.W movq r10,0x100000000
0x165864f3fa09   585  4152           push r10
0x165864f3fa0b   587  488b45e8       REX.W movq rax,[rbp-0x18]    ;; debug: position 7871
0x165864f3fa0f   591  48b90000000000000000 REX.W movq rcx,(nil)
0x165864f3fa19   601  e80208feff     call 0x165864f20220     ;; code: STUB, StoreArrayLiteralElementStub, minor: 0
0x165864f3fa1e   606  4883c408       REX.W addq rsp,0x8
0x165864f3fa22   610  58             pop rax
0x165864f3fa23   611  e963ffffff     jmp 459  (0x165864f3f98b)
0x165864f3fa28   616  488b45d8       REX.W movq rax,[rbp-0x28]    ;; debug: statement 7875
                                                             ;; debug: position 7882
0x165864f3fa2c   620  488bd0         REX.W movq rdx,rax
0x165864f3fa2f   623  48b9710799cfdd1e0000 REX.W movq rcx,0x1eddcf990771    ;; debug: position 7884
                                                             ;; object: 0x1eddcf990771 <String[6]: length>
0x165864f3fa39   633  48b8000000000a000000 REX.W movq rax,0xa00000000
0x165864f3fa43   643  e8188bfeff     call 0x165864f28560     ;; code: contextual, LOAD_IC, DEFAULT
0x165864f3fa48   648  488945d0       REX.W movq [rbp-0x30],rax    ;; debug: position 7875
0x165864f3fa4c   652  ff75d0         push [rbp-0x30]         ;; debug: statement 7893
                                                             ;; debug: position 7896
0x165864f3fa4f   655  48b80000000000000000 REX.W movq rax,(nil)
0x165864f3fa59   665  5a             pop rdx
0x165864f3fa5a   666  e8e1b8fdff     call 0x165864f1b340     ;; code: COMPARE_IC, UNINITIALIZED (id = 230)
0x165864f3fa5f   671  90             nop
0x165864f3fa60   672  eb0f           jmp 689  (0x165864f3fa71)
0x165864f3fa62   674  493b45c0       REX.W cmpq rax,[r13-0x40]
0x165864f3fa66   678  0f840e000000   jz 698  (0x165864f3fa7a)
0x165864f3fa6c   684  e928000000     jmp 729  (0x165864f3fa99)
0x165864f3fa71   689  4885c0         REX.W testq rax,rax
0x165864f3fa74   692  0f851f000000   jnz 729  (0x165864f3fa99)
0x165864f3fa7a   698  ff75e8         push [rbp-0x18]         ;; debug: statement 7903
                                                             ;; debug: position 7925
0x165864f3fa7d   701  ff7510         push [rbp+0x10]         ;; debug: position 7927
0x165864f3fa80   704  b802000000     movl rax,0x2
0x165864f3fa85   709  48bb50002f0100000000 REX.W movq rbx,0x12f0050
0x165864f3fa8f   719  e84c90fcff     call 0x165864f08ae0     ;; code: STUB, CEntryStub, minor: 0
0x165864f3fa94   724  e9f2feffff     jmp 459  (0x165864f3f98b)
0x165864f3fa99   729  ff75e8         push [rbp-0x18]         ;; debug: statement 7932
                                                             ;; debug: position 7951
0x165864f3fa9c   732  ff75d8         push [rbp-0x28]         ;; debug: position 7953
0x165864f3fa9f   735  ff7510         push [rbp+0x10]         ;; debug: position 7956
0x165864f3faa2   738  b803000000     movl rax,0x3
0x165864f3faa7   743  48bb00da2a0100000000 REX.W movq rbx,0x12ada00
0x165864f3fab1   753  e82a90fcff     call 0x165864f08ae0     ;; code: STUB, CEntryStub, minor: 0
0x165864f3fab6   758  488945c8       REX.W movq [rbp-0x38],rax    ;; debug: position 7932
0x165864f3faba   762  488b45c8       REX.W movq rax,[rbp-0x38]    ;; debug: statement 7961
                                                             ;; debug: position 7968
0x165864f3fabe   766  e9c8feffff     jmp 459  (0x165864f3f98b)
0x165864f3fac3   771  ff7510         push [rbp+0x10]         ;; debug: statement 7973
                                                             ;; debug: position 7976
0x165864f3fac6   774  48b80000000000000000 REX.W movq rax,(nil)
0x165864f3fad0   784  5a             pop rdx
0x165864f3fad1   785  e86ab8fdff     call 0x165864f1b340     ;; code: COMPARE_IC, UNINITIALIZED (id = 276)
0x165864f3fad6   790  90             nop
0x165864f3fad7   791  eb0f           jmp 808  (0x165864f3fae8)
0x165864f3fad9   793  493b45c0       REX.W cmpq rax,[r13-0x40]
0x165864f3fadd   797  0f840e000000   jz 817  (0x165864f3faf1)
0x165864f3fae3   803  e92f000000     jmp 855  (0x165864f3fb17)
0x165864f3fae8   808  4885c0         REX.W testq rax,rax
0x165864f3faeb   811  0f8526000000   jnz 855  (0x165864f3fb17)
0x165864f3faf1   817  488b5df0       REX.W movq rbx,[rbp-0x10]    ;; debug: statement 7983
0x165864f3faf5   821  488b4337       REX.W movq rax,[rbx+0x37]
0x165864f3faf9   825  48bb0000000002000000 REX.W movq rbx,0x200000000
0x165864f3fb03   835  48b9c1f49ecfdd1e0000 REX.W movq rcx,0x1eddcf9ef4c1    ;; object: 0x1eddcf9ef4c1 <FixedArray[2]>
0x165864f3fb0d   845  e84ec7fdff     call 0x165864f1c260     ;; code: STUB, FastCloneShallowArrayStub, minor: 1
0x165864f3fb12   850  e974feffff     jmp 459  (0x165864f3f98b)
0x165864f3fb17   855  488bc6         REX.W movq rax,rsi      ;; debug: statement 7993
                                                             ;; debug: position 8000
0x165864f3fb1a   858  ffb0df000000   push [rax+0xdf]
0x165864f3fb20   864  41ff75a8       push [r13-0x58]
0x165864f3fb24   868  ff75e8         push [rbp-0x18]         ;; debug: position 8020
0x165864f3fb27   871  ff7518         push [rbp+0x18]         ;; debug: position 8022
0x165864f3fb2a   874  ff7510         push [rbp+0x10]         ;; debug: position 8025
0x165864f3fb2d   877  ff75e0         push [rbp-0x20]         ;; debug: position 8028
0x165864f3fb30   880  48ba000000000c000000 REX.W movq rdx,0xc00000000    ;; debug: position 8000
0x165864f3fb3a   890  488b7c2428     REX.W movq rdi,[rsp+0x28]
0x165864f3fb3f   895  e8fca8feff     call 0x165864f2a440     ;; code: CALL_IC, DEFAULT
0x165864f3fb44   900  488b75f8       REX.W movq rsi,[rbp-0x8]
0x165864f3fb48   904  4883c408       REX.W addq rsp,0x8
0x165864f3fb4c   908  e93afeffff     jmp 459  (0x165864f3f98b)
0x165864f3fb51   913  498b45a8       REX.W movq rax,[r13-0x58]
0x165864f3fb55   917  e931feffff     jmp 459  (0x165864f3f98b)
0x165864f3fb5a   922  660f1f440000   nop

Deoptimization Output Data (deopt points = 0)

Back edges (size = 0)
ast_id  pc_offset  loop_depth

0x1eddcf9ef5b9: [TypeFeedbackInfo]
 - ic_total_count: 9, ic_with_type_info_count: 0, ic_generic_count: 0

RelocInfo (size = 193)
0x165864f3f7c0  position  (7589)
0x165864f3f7d9  code target (BUILTIN)  (0x165864f36a80)
0x165864f3f7dd  statement position  (7598)
0x165864f3f7dd  position  (7610)
0x165864f3f7fc  position  (7626)
0x165864f3f81b  statement position  (7643)
0x165864f3f81b  position  (7649)
0x165864f3f81d  embedded object  (0x1eddcf982eb9 <String[13]: MakeTypeError>)
0x165864f3f834  code target (LOAD_IC)  (0x165864f28560)
0x165864f3f83b  embedded object  (0x1eddcf904189 <undefined>)
0x165864f3f853  embedded object  (0x1eddcf9ef371 <String[22]: String.prototype.split>)
0x165864f3f86d  code target (CALL_IC)  (0x165864f13800)
0x165864f3f879  position  (7643)
0x165864f3f889  code target (STUB)  (0x165864f08ae0)
0x165864f3f88d  statement position  (7693)
0x165864f3f88d  position  (7711)
0x165864f3f892  code target (STUB)  (0x165864f2d3e0)
0x165864f3f896  position  (7693)
0x165864f3f89a  statement position  (7719)
0x165864f3f89a  position  (7724)
0x165864f3f8b9  position  (7740)
0x165864f3f8bb  embedded object  (0x1eddcf9ef3a1 <Number: 4.29497e+09>)
0x165864f3f8c8  position  (7752)
0x165864f3f8d5  position  (7754)
0x165864f3f8d7  code target with id (BINARY_OP_IC)  (0x165864f0cb80) (id=110)
0x165864f3f8dc  position  (7721)
0x165864f3f8e0  statement position  (7761)
0x165864f3f8e0  position  (7767)
0x165864f3f8e7  position  (7768)
0x165864f3f8e9  embedded object  (0x1eddcf990771 <String[6]: length>)
0x165864f3f8fc  code target (LOAD_IC)  (0x165864f28560)
0x165864f3f900  position  (7761)
0x165864f3f904  statement position  (7777)
0x165864f3f904  position  (7793)
0x165864f3f92f  statement position  (7800)
0x165864f3f92f  position  (7819)
0x165864f3f934  code target (STUB)  (0x165864f2d3e0)
0x165864f3f938  position  (7800)
0x165864f3f93c  statement position  (7825)
0x165864f3f93c  position  (7828)
0x165864f3f94b  code target with id (COMPARE_IC)  (0x165864f1b340) (id=173)
0x165864f3f96a  statement position  (7835)
0x165864f3f97e  embedded object  (0x1eddcf9ef481 <FixedArray[2]>)
0x165864f3f987  code target (STUB)  (0x165864f1c260)
0x165864f3f98d  embedded object  (0x1eddcf9ef471 Cell for 6144)
0x165864f3f99d  code target (BUILTIN)  (0x165864f36940)
0x165864f3f9a4  embedded object  (0x1eddcf9ef471 Cell for 6144)
0x165864f3f9ba  statement position  (8032)
0x165864f3f9be  statement position  (7845)
0x165864f3f9be  position  (7849)
0x165864f3f9dd  statement position  (7864)
0x165864f3f9f1  embedded object  (0x1eddcf9ef4a1 <FixedArray[2]>)
0x165864f3f9fa  code target (STUB)  (0x165864f1c260)
0x165864f3fa0b  position  (7871)
0x165864f3fa1a  code target (STUB)  (0x165864f20220)
0x165864f3fa28  statement position  (7875)
0x165864f3fa28  position  (7882)
0x165864f3fa2f  position  (7884)
0x165864f3fa31  embedded object  (0x1eddcf990771 <String[6]: length>)
0x165864f3fa44  code target (LOAD_IC)  (0x165864f28560)
0x165864f3fa48  position  (7875)
0x165864f3fa4c  statement position  (7893)
0x165864f3fa4c  position  (7896)
0x165864f3fa5b  code target with id (COMPARE_IC)  (0x165864f1b340) (id=230)
0x165864f3fa7a  statement position  (7903)
0x165864f3fa7a  position  (7925)
0x165864f3fa7d  position  (7927)
0x165864f3fa90  code target (STUB)  (0x165864f08ae0)
0x165864f3fa99  statement position  (7932)
0x165864f3fa99  position  (7951)
0x165864f3fa9c  position  (7953)
0x165864f3fa9f  position  (7956)
0x165864f3fab2  code target (STUB)  (0x165864f08ae0)
0x165864f3fab6  position  (7932)
0x165864f3faba  statement position  (7961)
0x165864f3faba  position  (7968)
0x165864f3fac3  statement position  (7973)
0x165864f3fac3  position  (7976)
0x165864f3fad2  code target with id (COMPARE_IC)  (0x165864f1b340) (id=276)
0x165864f3faf1  statement position  (7983)
0x165864f3fb05  embedded object  (0x1eddcf9ef4c1 <FixedArray[2]>)
0x165864f3fb0e  code target (STUB)  (0x165864f1c260)
0x165864f3fb17  statement position  (7993)
0x165864f3fb17  position  (8000)
0x165864f3fb24  position  (8020)
0x165864f3fb27  position  (8022)
0x165864f3fb2a  position  (8025)
0x165864f3fb2d  position  (8028)
0x165864f3fb30  position  (8000)
0x165864f3fb40  code target (CALL_IC)  (0x165864f2a440)

--- End code ---
--- Code ---
kind = TO_BOOLEAN_IC
major_key = <NoCache>Stub
ic_state = MONOMORPHIC
extra_ic_state = 32
type = NORMAL
name = ToBooleanStub
compiler = crankshaft
Instructions (size = 132)
0x165864f3fd20     0  a801           test al,0x1
0x165864f3fd22     2  0f8436000000   jz 62  (0x165864f3fd5e)
0x165864f3fd28     8  4c8b50ff       REX.W movq r10,[rax-0x1]
0x165864f3fd2c    12  41807a0b80     cmpb [r10+0xb],0x80
0x165864f3fd31    17  7310           jnc 35  (0x165864f3fd43)
0x165864f3fd33    19  4883780f00     REX.W cmpq [rax+0xf],0x0
0x165864f3fd38    24  0f8515000000   jnz 51  (0x165864f3fd53)
0x165864f3fd3e    30  e905000000     jmp 40  (0x165864f3fd48)
0x165864f3fd43    35  e916000000     jmp 62  (0x165864f3fd5e)
0x165864f3fd48    40  48b80000000000000000 REX.W movq rax,(nil)
0x165864f3fd52    50  c3             ret
0x165864f3fd53    51  48b80000000001000000 REX.W movq rax,0x100000000
0x165864f3fd5d    61  c3             ret
0x165864f3fd5e    62  49ba0060d06458160000 REX.W movq r10,0x165864d06000
0x165864f3fd68    72  e800000000     call 77  (0x165864f3fd6d)
0x165864f3fd6d    77  4883ec10       REX.W subq rsp,0x10
0x165864f3fd71    81  ff742410       push [rsp+0x10]
0x165864f3fd75    85  4152           push r10
0x165864f3fd77    87  4c8b55f8       REX.W movq r10,[rbp-0x8]
0x165864f3fd7b    91  4c89542418     REX.W movq [rsp+0x18],r10
0x165864f3fd80    96  48896c2420     REX.W movq [rsp+0x20],rbp
0x165864f3fd85   101  488d6c2420     REX.W leaq rbp,[rsp+0x20]
0x165864f3fd8a   106  49ba0000000006000000 REX.W movq r10,0x600000000
0x165864f3fd94   116  4c89542410     REX.W movq [rsp+0x10],r10
0x165864f3fd99   121  c3             ret
0x165864f3fd9a   122  6690           nop


Safepoints (size = 8)

RelocInfo (size = 0)

--- End code ---
--- Raw source ---
(array, x) {
    for (var i = 0; i < array.length; i++) {
        if (array[i] == x) return true;
    }
    return false;
}


--- Code ---
source_position = 20
kind = FUNCTION
name = arrayExists
compiler = full-codegen
Instructions (size = 432)
0x165864f3fe20     0  55             push rbp                ;; debug: position 20
0x165864f3fe21     1  4889e5         REX.W movq rbp,rsp
0x165864f3fe24     4  56             push rsi
0x165864f3fe25     5  57             push rdi
0x165864f3fe26     6  41ff75a8       push [r13-0x58]
0x165864f3fe2a    10  493ba548090000 REX.W cmpq rsp,[r13+0x948]
0x165864f3fe31    17  7305           jnc 24  (0x165864f3fe38)
0x165864f3fe33    19  e8486cffff     call StackCheck  (0x165864f36a80)    ;; code: BUILTIN
0x165864f3fe38    24  48b80000000000000000 REX.W movq rax,(nil)    ;; debug: statement 37
                                                             ;; debug: statement 42
0x165864f3fe42    34  488945e8       REX.W movq [rbp-0x18],rax
0x165864f3fe46    38  e9fd000000     jmp 296  (0x165864f3ff48)
0x165864f3fe4b    43  ff7518         push [rbp+0x18]         ;; debug: statement 86
                                                             ;; debug: position 90
0x165864f3fe4e    46  488b45e8       REX.W movq rax,[rbp-0x18]    ;; debug: position 96
0x165864f3fe52    50  488bc8         REX.W movq rcx,rax
0x165864f3fe55    53  5a             pop rdx
0x165864f3fe56    54  48b80000000006000000 REX.W movq rax,0x600000000    ;; debug: position 95
0x165864f3fe60    64  e85bc2fdff     call 0x165864f1c0c0     ;; code: KEYED_LOAD_IC, DEFAULT
0x165864f3fe65    69  50             push rax
0x165864f3fe66    70  488b4510       REX.W movq rax,[rbp+0x10]    ;; debug: position 102
0x165864f3fe6a    74  5a             pop rdx
0x165864f3fe6b    75  488bca         REX.W movq rcx,rdx
0x165864f3fe6e    78  480bc8         REX.W orq rcx,rax
0x165864f3fe71    81  f6c101         testb rcx,0x1
0x165864f3fe74    84  730e           jnc 100  (0x165864f3fe84)
0x165864f3fe76    86  483bd0         REX.W cmpq rdx,rax
0x165864f3fe79    89  0f8426000000   jz 133  (0x165864f3fea5)
0x165864f3fe7f    95  e95e000000     jmp 194  (0x165864f3fee2)
0x165864f3fe84   100  e8f7b4feff     call 0x165864f2b380     ;; code: COMPARE_IC, UNINITIALIZED (id = 57)
0x165864f3fe89   105  a815           test al,0x15
0x165864f3fe8b   107  eb0f           jmp 124  (0x165864f3fe9c)
0x165864f3fe8d   109  493b45c0       REX.W cmpq rax,[r13-0x40]
0x165864f3fe91   113  0f840e000000   jz 133  (0x165864f3fea5)
0x165864f3fe97   119  e946000000     jmp 194  (0x165864f3fee2)
0x165864f3fe9c   124  4885c0         REX.W testq rax,rax
0x165864f3fe9f   127  0f853d000000   jnz 194  (0x165864f3fee2)
0x165864f3fea5   133  48b8314290cfdd1e0000 REX.W movq rax,0x1eddcf904231    ;; debug: statement 105
                                                             ;; object: 0x1eddcf904231 <true>
0x165864f3feaf   143  48bb79f79ecfdd1e0000 REX.W movq rbx,0x1eddcf9ef779    ;; object: 0x1eddcf9ef779 Cell for 6144
0x165864f3feb9   153  83430bff       addl [rbx+0xb],0xff
0x165864f3febd   157  791f           jns 190  (0x165864f3fede)
0x165864f3febf   159  50             push rax
0x165864f3fec0   160  e87b6affff     call InterruptCheck  (0x165864f36940)    ;; code: BUILTIN
0x165864f3fec5   165  58             pop rax
0x165864f3fec6   166  48bb79f79ecfdd1e0000 REX.W movq rbx,0x1eddcf9ef779    ;; object: 0x1eddcf9ef779 Cell for 6144
0x165864f3fed0   176  49ba0000000000180000 REX.W movq r10,0x180000000000
0x165864f3feda   186  4c895307       REX.W movq [rbx+0x7],r10
0x165864f3fede   190  c9             leave                   ;; debug: statement 142
0x165864f3fedf   191  c21800         ret 0x18
0x165864f3fee2   194  488b45e8       REX.W movq rax,[rbp-0x18]    ;; debug: statement 72
                                                             ;; debug: position 71
0x165864f3fee6   198  a801           test al,0x1
0x165864f3fee8   200  7314           jnc 222  (0x165864f3fefe)
0x165864f3feea   202  49ba0000000001000000 REX.W movq r10,0x100000000
0x165864f3fef4   212  4903c2         REX.W addq rax,r10
0x165864f3fef7   215  711e           jno 247  (0x165864f3ff17)
0x165864f3fef9   217  492bc2         REX.W subq rax,r10
0x165864f3fefc   220  eb05           jmp 227  (0x165864f3ff03)
0x165864f3fefe   222  e8fd2ffeff     call 0x165864f22f00     ;; code: STUB, ToNumberStub, minor: 0
0x165864f3ff03   227  488bd0         REX.W movq rdx,rax      ;; debug: position 72
0x165864f3ff06   230  48b80000000001000000 REX.W movq rax,0x100000000
0x165864f3ff10   240  e86b86fdff     call 0x165864f18580     ;; code: BINARY_OP_IC, UNINITIALIZED (id = 44)
0x165864f3ff15   245  a82d           test al,0x2d
0x165864f3ff17   247  488945e8       REX.W movq [rbp-0x18],rax
0x165864f3ff1b   251  48bb79f79ecfdd1e0000 REX.W movq rbx,0x1eddcf9ef779    ;; object: 0x1eddcf9ef779 Cell for 6144
0x165864f3ff25   261  83430bff       addl [rbx+0xb],0xff
0x165864f3ff29   265  791d           jns 296  (0x165864f3ff48)
0x165864f3ff2b   267  e8106affff     call InterruptCheck  (0x165864f36940)    ;; code: BUILTIN
0x165864f3ff30   272  48bb79f79ecfdd1e0000 REX.W movq rbx,0x1eddcf9ef779    ;; object: 0x1eddcf9ef779 Cell for 6144
0x165864f3ff3a   282  49ba0000000000180000 REX.W movq r10,0x180000000000
0x165864f3ff44   292  4c895307       REX.W movq [rbx+0x7],r10
0x165864f3ff48   296  ff75e8         push [rbp-0x18]         ;; debug: statement 55
                                                             ;; debug: position 53
0x165864f3ff4b   299  488b4518       REX.W movq rax,[rbp+0x18]    ;; debug: position 57
0x165864f3ff4f   303  488bd0         REX.W movq rdx,rax
0x165864f3ff52   306  48b9710799cfdd1e0000 REX.W movq rcx,0x1eddcf990771    ;; debug: position 62
                                                             ;; object: 0x1eddcf990771 <String[6]: length>
0x165864f3ff5c   316  48b80000000004000000 REX.W movq rax,0x400000000
0x165864f3ff66   326  e8f585feff     call 0x165864f28560     ;; code: contextual, LOAD_IC, DEFAULT
0x165864f3ff6b   331  5a             pop rdx
0x165864f3ff6c   332  488bca         REX.W movq rcx,rdx
0x165864f3ff6f   335  480bc8         REX.W orq rcx,rax
0x165864f3ff72   338  f6c101         testb rcx,0x1
0x165864f3ff75   341  730e           jnc 357  (0x165864f3ff85)
0x165864f3ff77   343  483bd0         REX.W cmpq rdx,rax
0x165864f3ff7a   346  0f8ccbfeffff   jl 43  (0x165864f3fe4b)
0x165864f3ff80   352  e921000000     jmp 390  (0x165864f3ffa6)
0x165864f3ff85   357  e836c9fdff     call 0x165864f1c8c0     ;; code: COMPARE_IC, UNINITIALIZED (id = 27)
0x165864f3ff8a   362  a815           test al,0x15
0x165864f3ff8c   364  eb0f           jmp 381  (0x165864f3ff9d)
0x165864f3ff8e   366  493b45c0       REX.W cmpq rax,[r13-0x40]
0x165864f3ff92   370  0f84b3feffff   jz 43  (0x165864f3fe4b)
0x165864f3ff98   376  e909000000     jmp 390  (0x165864f3ffa6)
0x165864f3ff9d   381  4885c0         REX.W testq rax,rax
0x165864f3ffa0   384  0f8ca5feffff   jl 43  (0x165864f3fe4b)
0x165864f3ffa6   390  48b8994290cfdd1e0000 REX.W movq rax,0x1eddcf904299    ;; debug: statement 128
                                                             ;; object: 0x1eddcf904299 <false>
0x165864f3ffb0   400  e9fafeffff     jmp 143  (0x165864f3feaf)
0x165864f3ffb5   405  498b45a8       REX.W movq rax,[r13-0x58]
0x165864f3ffb9   409  e9f1feffff     jmp 143  (0x165864f3feaf)
0x165864f3ffbe   414  6690           nop

Deoptimization Output Data (deopt points = 0)

Back edges (size = 1)
ast_id  pc_offset  loop_depth
     9        272           1

0x1eddcf9ef7e9: [TypeFeedbackInfo]
 - ic_total_count: 5, ic_with_type_info_count: 0, ic_generic_count: 0

RelocInfo (size = 75)
0x165864f3fe20  position  (20)
0x165864f3fe34  code target (BUILTIN)  (0x165864f36a80)
0x165864f3fe38  statement position  (37)
0x165864f3fe38  statement position  (42)
0x165864f3fe4b  statement position  (86)
0x165864f3fe4b  position  (90)
0x165864f3fe4e  position  (96)
0x165864f3fe56  position  (95)
0x165864f3fe61  code target (KEYED_LOAD_IC)  (0x165864f1c0c0)
0x165864f3fe66  position  (102)
0x165864f3fe85  code target with id (COMPARE_IC)  (0x165864f2b380) (id=57)
0x165864f3fea5  statement position  (105)
0x165864f3fea7  embedded object  (0x1eddcf904231 <true>)
0x165864f3feb1  embedded object  (0x1eddcf9ef779 Cell for 6144)
0x165864f3fec1  code target (BUILTIN)  (0x165864f36940)
0x165864f3fec8  embedded object  (0x1eddcf9ef779 Cell for 6144)
0x165864f3fede  statement position  (142)
0x165864f3fee2  statement position  (72)
0x165864f3fee2  position  (71)
0x165864f3feff  code target (STUB)  (0x165864f22f00)
0x165864f3ff03  position  (72)
0x165864f3ff11  code target with id (BINARY_OP_IC)  (0x165864f18580) (id=44)
0x165864f3ff1d  embedded object  (0x1eddcf9ef779 Cell for 6144)
0x165864f3ff2c  code target (BUILTIN)  (0x165864f36940)
0x165864f3ff32  embedded object  (0x1eddcf9ef779 Cell for 6144)
0x165864f3ff48  statement position  (55)
0x165864f3ff48  position  (53)
0x165864f3ff4b  position  (57)
0x165864f3ff52  position  (62)
0x165864f3ff54  embedded object  (0x1eddcf990771 <String[6]: length>)
0x165864f3ff67  code target (LOAD_IC)  (0x165864f28560)
0x165864f3ff86  code target with id (COMPARE_IC)  (0x165864f1c8c0) (id=27)
0x165864f3ffa6  statement position  (128)
0x165864f3ffa8  embedded object  (0x1eddcf904299 <false>)

--- End code ---
--- Raw source ---
Y()

--- Code ---
source_position = 0
kind = FUNCTION
compiler = full-codegen
Instructions (size = 140)
0x165864f400c0     0  55             push rbp                ;; debug: position 0
0x165864f400c1     1  4889e5         REX.W movq rbp,rsp
0x165864f400c4     4  56             push rsi
0x165864f400c5     5  57             push rdi
0x165864f400c6     6  41ff75a8       push [r13-0x58]
0x165864f400ca    10  493ba548090000 REX.W cmpq rsp,[r13+0x948]
0x165864f400d1    17  7305           jnc 24  (0x165864f400d8)
0x165864f400d3    19  e8a869ffff     call StackCheck  (0x165864f36a80)    ;; code: BUILTIN
0x165864f400d8    24  488bc6         REX.W movq rax,rsi      ;; debug: statement 0
0x165864f400db    27  ffb04f010000   push [rax+0x14f]
0x165864f400e1    33  41ff75a8       push [r13-0x58]
0x165864f400e5    37  48ba0000000004000000 REX.W movq rdx,0x400000000
0x165864f400ef    47  488b7c2408     REX.W movq rdi,[rsp+0x8]
0x165864f400f4    52  e847d0feff     call 0x165864f2d140     ;; code: CALL_IC, DEFAULT
0x165864f400f9    57  488b75f8       REX.W movq rsi,[rbp-0x8]
0x165864f400fd    61  4883c408       REX.W addq rsp,0x8
0x165864f40101    65  488945e8       REX.W movq [rbp-0x18],rax
0x165864f40105    69  488b45e8       REX.W movq rax,[rbp-0x18]    ;; debug: statement 3
0x165864f40109    73  48bb79f99ecfdd1e0000 REX.W movq rbx,0x1eddcf9ef979    ;; object: 0x1eddcf9ef979 Cell for 6144
0x165864f40113    83  83430bd1       addl [rbx+0xb],0xd1
0x165864f40117    87  791f           jns 120  (0x165864f40138)
0x165864f40119    89  50             push rax
0x165864f4011a    90  e82168ffff     call InterruptCheck  (0x165864f36940)    ;; code: BUILTIN
0x165864f4011f    95  58             pop rax
0x165864f40120    96  48bb79f99ecfdd1e0000 REX.W movq rbx,0x1eddcf9ef979    ;; object: 0x1eddcf9ef979 Cell for 6144
0x165864f4012a   106  49ba0000000000180000 REX.W movq r10,0x180000000000
0x165864f40134   116  4c895307       REX.W movq [rbx+0x7],r10
0x165864f40138   120  c9             leave                   ;; debug: statement 2
0x165864f40139   121  c20800         ret 0x8
0x165864f4013c   124  498b45a8       REX.W movq rax,[r13-0x58]
0x165864f40140   128  e9c4ffffff     jmp 73  (0x165864f40109)
0x165864f40145   133  0f1f00         nop

Deoptimization Output Data (deopt points = 0)

Back edges (size = 0)
ast_id  pc_offset  loop_depth

0x1eddcf9ef9a9: [TypeFeedbackInfo]
 - ic_total_count: 1, ic_with_type_info_count: 0, ic_generic_count: 0

RelocInfo (size = 13)
0x165864f400c0  position  (0)
0x165864f400d4  code target (BUILTIN)  (0x165864f36a80)
0x165864f400d8  statement position  (0)
0x165864f400f5  code target (CALL_IC)  (0x165864f2d140)
0x165864f40105  statement position  (3)
0x165864f4010b  embedded object  (0x1eddcf9ef979 Cell for 6144)
0x165864f4011b  code target (BUILTIN)  (0x165864f36940)
0x165864f40122  embedded object  (0x1eddcf9ef979 Cell for 6144)
0x165864f40138  statement position  (2)

--- End code ---
--- Raw source ---
() {
        // A full numeric representation of a year, 4 digits

        // we first check, if getFullYear is supported. if it
        // is, we just use that. ppks code is nice, but wont
        // work with dates outside 1900-2038, or something like that
        if (self.getFullYear) {
            var newDate = new Date("January 1 2001 00:00:00 +0000");
            var x = newDate .getFullYear();
            if (x == 2001) {              
                // i trust the method now
                return self.getFullYear();
            }
        }
        // else, do this:
        // codes thanks to ppk:
        // http://www.xs4all.nl/~ppk/js/introdate.html
        var x = self.getYear();
        var y = x % 100;
        y += (y < 38) ? 2000 : 1900;
        return y;
    }


--- Code ---
source_position = 8484
kind = FUNCTION
name = Y
compiler = full-codegen
Instructions (size = 676)
0x165864f401c0     0  55             push rbp                ;; debug: position 8484
0x165864f401c1     1  4889e5         REX.W movq rbp,rsp
0x165864f401c4     4  56             push rsi
0x165864f401c5     5  57             push rdi
0x165864f401c6     6  498b55a8       REX.W movq rdx,[r13-0x58]
0x165864f401ca    10  52             push rdx
0x165864f401cb    11  52             push rdx
0x165864f401cc    12  52             push rdx
0x165864f401cd    13  493ba548090000 REX.W cmpq rsp,[r13+0x948]
0x165864f401d4    20  7305           jnc 27  (0x165864f401db)
0x165864f401d6    22  e8a568ffff     call StackCheck  (0x165864f36a80)    ;; code: BUILTIN
0x165864f401db    27  488bc6         REX.W movq rax,rsi      ;; debug: statement 8751
                                                             ;; debug: position 8755
0x165864f401de    30  488b8067010000 REX.W movq rax,[rax+0x167]
0x165864f401e5    37  488bd0         REX.W movq rdx,rax
0x165864f401e8    40  48b9b14c96cfdd1e0000 REX.W movq rcx,0x1eddcf964cb1    ;; debug: position 8759
                                                             ;; object: 0x1eddcf964cb1 <String[11]: getFullYear>
0x165864f401f2    50  48b80000000005000000 REX.W movq rax,0x500000000
0x165864f401fc    60  e85f83feff     call 0x165864f28560     ;; code: contextual, LOAD_IC, DEFAULT
0x165864f40201    65  e8da53feff     call 0x165864f255e0     ;; code: TO_BOOLEAN_IC, UNINITIALIZED (id = 20)
0x165864f40206    70  4885c0         REX.W testq rax,rax
0x165864f40209    73  0f847f010000   jz 462  (0x165864f4038e)
0x165864f4020f    79  48837e1f00     REX.W cmpq [rsi+0x1f],0x0    ;; debug: statement 8787
                                                             ;; debug: position 8805
0x165864f40214    84  0f8526000000   jnz 128  (0x165864f40240)
0x165864f4021a    90  488b5617       REX.W movq rdx,[rsi+0x17]
0x165864f4021e    94  48b9f17f96cfdd1e0000 REX.W movq rcx,0x1eddcf967ff1    ;; object: 0x1eddcf967ff1 <String[4]: Date>
0x165864f40228   104  488b5627       REX.W movq rdx,[rsi+0x27]
0x165864f4022c   108  48b80000000007000000 REX.W movq rax,0x700000000
0x165864f40236   118  e82583feff     call 0x165864f28560     ;; code: contextual, LOAD_IC, DEFAULT
0x165864f4023b   123  e921000000     jmp 161  (0x165864f40261)
0x165864f40240   128  56             push rsi
0x165864f40241   129  49baf17f96cfdd1e0000 REX.W movq r10,0x1eddcf967ff1    ;; object: 0x1eddcf967ff1 <String[4]: Date>
0x165864f4024b   139  4152           push r10
0x165864f4024d   141  b802000000     movl rax,0x2
0x165864f40252   146  48bb20a42b0100000000 REX.W movq rbx,0x12ba420
0x165864f4025c   156  e87f88fcff     call 0x165864f08ae0     ;; code: STUB, CEntryStub, minor: 0
0x165864f40261   161  50             push rax
0x165864f40262   162  49bae1d49ecfdd1e0000 REX.W movq r10,0x1eddcf9ed4e1    ;; object: 0x1eddcf9ed4e1 <String[29]: January 1 2001 00:00:00 +0000>
0x165864f4026c   172  4152           push r10
0x165864f4026e   174  b801000000     movl rax,0x1            ;; debug: position 8801
0x165864f40273   179  488b7c2408     REX.W movq rdi,[rsp+0x8]
0x165864f40278   184  488b5df0       REX.W movq rbx,[rbp-0x10]
0x165864f4027c   188  488b5b27       REX.W movq rbx,[rbx+0x27]
0x165864f40280   192  488b5b57       REX.W movq rbx,[rbx+0x57]
0x165864f40284   196  48ba0000000004000000 REX.W movq rdx,0x400000000
0x165864f4028e   206  e8ada3fdff     call 0x165864f1a640     ;; code: constructor, STUB, CallConstructStub, minor: 1
0x165864f40293   211  488b75f8       REX.W movq rsi,[rbp-0x8]
0x165864f40297   215  488945e8       REX.W movq [rbp-0x18],rax    ;; debug: position 8787
0x165864f4029b   219  ff75e8         push [rbp-0x18]         ;; debug: statement 8856
                                                             ;; debug: position 8864
0x165864f4029e   222  488b1424       REX.W movq rdx,[rsp]
0x165864f402a2   226  48b9b14c96cfdd1e0000 REX.W movq rcx,0x1eddcf964cb1    ;; debug: position 8872
                                                             ;; object: 0x1eddcf964cb1 <String[11]: getFullYear>
0x165864f402ac   236  48b8000000000b000000 REX.W movq rax,0xb00000000
0x165864f402b6   246  e8a582feff     call 0x165864f28560     ;; code: contextual, LOAD_IC, DEFAULT
0x165864f402bb   251  ff3424         push [rsp]
0x165864f402be   254  4889442408     REX.W movq [rsp+0x8],rax
0x165864f402c3   259  48ba0000000009000000 REX.W movq rdx,0x900000000    ;; debug: position 8873
0x165864f402cd   269  488b7c2408     REX.W movq rdi,[rsp+0x8]
0x165864f402d2   274  e8a9e4fdff     call 0x165864f1e780     ;; code: CALL_IC, DEFAULT
0x165864f402d7   279  488b75f8       REX.W movq rsi,[rbp-0x8]
0x165864f402db   283  4883c408       REX.W addq rsp,0x8
0x165864f402df   287  488945e0       REX.W movq [rbp-0x20],rax    ;; debug: position 8856
0x165864f402e3   291  ff75e0         push [rbp-0x20]         ;; debug: statement 8900
                                                             ;; debug: position 8904
0x165864f402e6   294  48b800000000d1070000 REX.W movq rax,0x7d100000000
0x165864f402f0   304  5a             pop rdx
0x165864f402f1   305  e88ab0feff     call 0x165864f2b380     ;; code: COMPARE_IC, UNINITIALIZED (id = 79)
0x165864f402f6   310  90             nop
0x165864f402f7   311  eb0f           jmp 328  (0x165864f40308)
0x165864f402f9   313  493b45c0       REX.W cmpq rax,[r13-0x40]
0x165864f402fd   317  0f840e000000   jz 337  (0x165864f40311)
0x165864f40303   323  e986000000     jmp 462  (0x165864f4038e)
0x165864f40308   328  4885c0         REX.W testq rax,rax
0x165864f4030b   331  0f857d000000   jnz 462  (0x165864f4038e)
0x165864f40311   337  488bc6         REX.W movq rax,rsi      ;; debug: statement 8989
                                                             ;; debug: position 8996
0x165864f40314   340  ffb067010000   push [rax+0x167]
0x165864f4031a   346  488b1424       REX.W movq rdx,[rsp]
0x165864f4031e   350  48b9b14c96cfdd1e0000 REX.W movq rcx,0x1eddcf964cb1    ;; debug: position 9000
                                                             ;; object: 0x1eddcf964cb1 <String[11]: getFullYear>
0x165864f40328   360  48b8000000000f000000 REX.W movq rax,0xf00000000
0x165864f40332   370  e82982feff     call 0x165864f28560     ;; code: contextual, LOAD_IC, DEFAULT
0x165864f40337   375  ff3424         push [rsp]
0x165864f4033a   378  4889442408     REX.W movq [rsp+0x8],rax
0x165864f4033f   383  48ba000000000d000000 REX.W movq rdx,0xd00000000    ;; debug: position 9001
0x165864f40349   393  488b7c2408     REX.W movq rdi,[rsp+0x8]
0x165864f4034e   398  e82de4fdff     call 0x165864f1e780     ;; code: CALL_IC, DEFAULT
0x165864f40353   403  488b75f8       REX.W movq rsi,[rbp-0x8]
0x165864f40357   407  4883c408       REX.W addq rsp,0x8
0x165864f4035b   411  48bbd9fb9ecfdd1e0000 REX.W movq rbx,0x1eddcf9efbd9    ;; object: 0x1eddcf9efbd9 Cell for 6144
0x165864f40365   421  83430bd1       addl [rbx+0xb],0xd1
0x165864f40369   425  791f           jns 458  (0x165864f4038a)
0x165864f4036b   427  50             push rax
0x165864f4036c   428  e8cf65ffff     call InterruptCheck  (0x165864f36940)    ;; code: BUILTIN
0x165864f40371   433  58             pop rax
0x165864f40372   434  48bbd9fb9ecfdd1e0000 REX.W movq rbx,0x1eddcf9efbd9    ;; object: 0x1eddcf9efbd9 Cell for 6144
0x165864f4037c   444  49ba0000000000180000 REX.W movq r10,0x180000000000
0x165864f40386   454  4c895307       REX.W movq [rbx+0x7],r10
0x165864f4038a   458  c9             leave                   ;; debug: statement 9269
0x165864f4038b   459  c20800         ret 0x8
0x165864f4038e   462  488bc6         REX.W movq rax,rsi      ;; debug: statement 9161
                                                             ;; debug: position 9169
0x165864f40391   465  ffb067010000   push [rax+0x167]
0x165864f40397   471  488b1424       REX.W movq rdx,[rsp]
0x165864f4039b   475  48b9616896cfdd1e0000 REX.W movq rcx,0x1eddcf966861    ;; debug: position 9173
                                                             ;; object: 0x1eddcf966861 <String[7]: getYear>
0x165864f403a5   485  48b80000000013000000 REX.W movq rax,0x1300000000
0x165864f403af   495  e8ac81feff     call 0x165864f28560     ;; code: contextual, LOAD_IC, DEFAULT
0x165864f403b4   500  ff3424         push [rsp]
0x165864f403b7   503  4889442408     REX.W movq [rsp+0x8],rax
0x165864f403bc   508  48ba0000000011000000 REX.W movq rdx,0x1100000000    ;; debug: position 9174
0x165864f403c6   518  488b7c2408     REX.W movq rdi,[rsp+0x8]
0x165864f403cb   523  e8b0e3fdff     call 0x165864f1e780     ;; code: CALL_IC, DEFAULT
0x165864f403d0   528  488b75f8       REX.W movq rsi,[rbp-0x8]
0x165864f403d4   532  4883c408       REX.W addq rsp,0x8
0x165864f403d8   536  488945e0       REX.W movq [rbp-0x20],rax    ;; debug: position 9161
0x165864f403dc   540  ff75e0         push [rbp-0x20]         ;; debug: statement 9193
                                                             ;; debug: position 9201
0x165864f403df   543  48b80000000064000000 REX.W movq rax,0x6400000000
0x165864f403e9   553  5a             pop rdx                 ;; debug: position 9203
0x165864f403ea   554  e8d17efeff     call 0x165864f282c0     ;; code: BINARY_OP_IC, UNINITIALIZED (id = 140)
0x165864f403ef   559  90             nop
0x165864f403f0   560  488945d8       REX.W movq [rbp-0x28],rax    ;; debug: position 9193
0x165864f403f4   564  488b45d8       REX.W movq rax,[rbp-0x28]    ;; debug: statement 9218
                                                             ;; debug: position 9218
0x165864f403f8   568  50             push rax
0x165864f403f9   569  ff75d8         push [rbp-0x28]         ;; debug: position 9224
0x165864f403fc   572  48b80000000026000000 REX.W movq rax,0x2600000000
0x165864f40406   582  5a             pop rdx
0x165864f40407   583  e8b4c4fdff     call 0x165864f1c8c0     ;; code: COMPARE_IC, UNINITIALIZED (id = 186)
0x165864f4040c   588  90             nop
0x165864f4040d   589  eb0f           jmp 606  (0x165864f4041e)
0x165864f4040f   591  493b45c0       REX.W cmpq rax,[r13-0x40]
0x165864f40413   595  0f840e000000   jz 615  (0x165864f40427)
0x165864f40419   601  e918000000     jmp 630  (0x165864f40436)
0x165864f4041e   606  4885c0         REX.W testq rax,rax
0x165864f40421   609  0f8d0f000000   jge 630  (0x165864f40436)
0x165864f40427   615  48b800000000d0070000 REX.W movq rax,0x7d000000000    ;; debug: position 9234
0x165864f40431   625  e90a000000     jmp 640  (0x165864f40440)
0x165864f40436   630  48b8000000006c070000 REX.W movq rax,0x76c00000000    ;; debug: position 9241
0x165864f40440   640  5a             pop rdx
0x165864f40441   641  e83a81fdff     call 0x165864f18580     ;; code: BINARY_OP_IC, UNINITIALIZED (id = 154)
0x165864f40446   646  90             nop
0x165864f40447   647  488945d8       REX.W movq [rbp-0x28],rax    ;; debug: position 9220
0x165864f4044b   651  488b45d8       REX.W movq rax,[rbp-0x28]    ;; debug: statement 9255
                                                             ;; debug: position 9262
0x165864f4044f   655  e907ffffff     jmp 411  (0x165864f4035b)
0x165864f40454   660  498b45a8       REX.W movq rax,[r13-0x58]
0x165864f40458   664  e9fefeffff     jmp 411  (0x165864f4035b)
0x165864f4045d   669  0f1f00         nop

Deoptimization Output Data (deopt points = 0)

Back edges (size = 0)
ast_id  pc_offset  loop_depth

0x1eddcf9efc99: [TypeFeedbackInfo]
 - ic_total_count: 13, ic_with_type_info_count: 0, ic_generic_count: 0

RelocInfo (size = 154)
0x165864f401c0  position  (8484)
0x165864f401d7  code target (BUILTIN)  (0x165864f36a80)
0x165864f401db  statement position  (8751)
0x165864f401db  position  (8755)
0x165864f401e8  position  (8759)
0x165864f401ea  embedded object  (0x1eddcf964cb1 <String[11]: getFullYear>)
0x165864f401fd  code target (LOAD_IC)  (0x165864f28560)
0x165864f40202  code target with id (TO_BOOLEAN_IC)  (0x165864f255e0) (id=20)
0x165864f4020f  statement position  (8787)
0x165864f4020f  position  (8805)
0x165864f40220  embedded object  (0x1eddcf967ff1 <String[4]: Date>)
0x165864f40237  code target (LOAD_IC)  (0x165864f28560)
0x165864f40243  embedded object  (0x1eddcf967ff1 <String[4]: Date>)
0x165864f4025d  code target (STUB)  (0x165864f08ae0)
0x165864f40264  embedded object  (0x1eddcf9ed4e1 <String[29]: January 1 2001 00:00:00 +0000>)
0x165864f4026e  position  (8801)
0x165864f4028f  code target (js construct call) (STUB)  (0x165864f1a640)
0x165864f40297  position  (8787)
0x165864f4029b  statement position  (8856)
0x165864f4029b  position  (8864)
0x165864f402a2  position  (8872)
0x165864f402a4  embedded object  (0x1eddcf964cb1 <String[11]: getFullYear>)
0x165864f402b7  code target (LOAD_IC)  (0x165864f28560)
0x165864f402c3  position  (8873)
0x165864f402d3  code target (CALL_IC)  (0x165864f1e780)
0x165864f402df  position  (8856)
0x165864f402e3  statement position  (8900)
0x165864f402e3  position  (8904)
0x165864f402f2  code target with id (COMPARE_IC)  (0x165864f2b380) (id=79)
0x165864f40311  statement position  (8989)
0x165864f40311  position  (8996)
0x165864f4031e  position  (9000)
0x165864f40320  embedded object  (0x1eddcf964cb1 <String[11]: getFullYear>)
0x165864f40333  code target (LOAD_IC)  (0x165864f28560)
0x165864f4033f  position  (9001)
0x165864f4034f  code target (CALL_IC)  (0x165864f1e780)
0x165864f4035d  embedded object  (0x1eddcf9efbd9 Cell for 6144)
0x165864f4036d  code target (BUILTIN)  (0x165864f36940)
0x165864f40374  embedded object  (0x1eddcf9efbd9 Cell for 6144)
0x165864f4038a  statement position  (9269)
0x165864f4038e  statement position  (9161)
0x165864f4038e  position  (9169)
0x165864f4039b  position  (9173)
0x165864f4039d  embedded object  (0x1eddcf966861 <String[7]: getYear>)
0x165864f403b0  code target (LOAD_IC)  (0x165864f28560)
0x165864f403bc  position  (9174)
0x165864f403cc  code target (CALL_IC)  (0x165864f1e780)
0x165864f403d8  position  (9161)
0x165864f403dc  statement position  (9193)
0x165864f403dc  position  (9201)
0x165864f403e9  position  (9203)
0x165864f403eb  code target with id (BINARY_OP_IC)  (0x165864f282c0) (id=140)
0x165864f403f0  position  (9193)
0x165864f403f4  statement position  (9218)
0x165864f403f4  position  (9218)
0x165864f403f9  position  (9224)
0x165864f40408  code target with id (COMPARE_IC)  (0x165864f1c8c0) (id=186)
0x165864f40427  position  (9234)
0x165864f40436  position  (9241)
0x165864f40442  code target with id (BINARY_OP_IC)  (0x165864f18580) (id=154)
0x165864f40447  position  (9220)
0x165864f4044b  statement position  (9255)
0x165864f4044b  position  (9262)

--- End code ---
--- Code ---
kind = TO_BOOLEAN_IC
major_key = <NoCache>Stub
ic_state = MONOMORPHIC
extra_ic_state = 17
type = NORMAL
name = ToBooleanStub
compiler = crankshaft
Instructions (size = 140)
0x165864f404e0     0  493b45a8       REX.W cmpq rax,[r13-0x58]
0x165864f404e4     4  0f8427000000   jz 49  (0x165864f40511)
0x165864f404ea    10  a801           test al,0x1
0x165864f404ec    12  0f8435000000   jz 71  (0x165864f40527)
0x165864f404f2    18  4c8b50ff       REX.W movq r10,[rax-0x1]
0x165864f404f6    22  41f6420c10     testb [r10+0xc],0x10
0x165864f404fb    27  0f8510000000   jnz 49  (0x165864f40511)
0x165864f40501    33  41807a0bb2     cmpb [r10+0xb],0xb2
0x165864f40506    38  0f8310000000   jnc 60  (0x165864f4051c)
0x165864f4050c    44  e916000000     jmp 71  (0x165864f40527)
0x165864f40511    49  48b80000000000000000 REX.W movq rax,(nil)
0x165864f4051b    59  c3             ret
0x165864f4051c    60  48b80000000001000000 REX.W movq rax,0x100000000
0x165864f40526    70  c3             ret
0x165864f40527    71  49ba0060d06458160000 REX.W movq r10,0x165864d06000
0x165864f40531    81  e800000000     call 86  (0x165864f40536)
0x165864f40536    86  4883ec10       REX.W subq rsp,0x10
0x165864f4053a    90  ff742410       push [rsp+0x10]
0x165864f4053e    94  4152           push r10
0x165864f40540    96  4c8b55f8       REX.W movq r10,[rbp-0x8]
0x165864f40544   100  4c89542418     REX.W movq [rsp+0x18],r10
0x165864f40549   105  48896c2420     REX.W movq [rsp+0x20],rbp
0x165864f4054e   110  488d6c2420     REX.W leaq rbp,[rsp+0x20]
0x165864f40553   115  49ba0000000006000000 REX.W movq r10,0x600000000
0x165864f4055d   125  4c89542410     REX.W movq [rsp+0x10],r10
0x165864f40562   130  c3             ret
0x165864f40563   131  90             nop


Safepoints (size = 8)

RelocInfo (size = 0)

--- End code ---
--- Code ---
kind = HANDLER
major_key = <NoCache>Stub
name = StoreFieldStub
compiler = crankshaft
Instructions (size = 64)
0x165864f40680     0  488bd8         REX.W movq rbx,rax
0x165864f40683     3  48895a1f       REX.W movq [rdx+0x1f],rbx
0x165864f40687     7  f6c301         testb rbx,0x1
0x165864f4068a    10  0f8426000000   jz 54  (0x165864f406b6)
0x165864f40690    16  488d4a1f       REX.W leaq rcx,[rdx+0x1f]
0x165864f40694    20  4881e30000f0ff REX.W andq rbx,0xfffffffffff00000
0x165864f4069b    27  f6430804       testb [rbx+0x8],0x4
0x165864f4069f    31  7415           jz 54  (0x165864f406b6)
0x165864f406a1    33  48c7c30000f0ff REX.W movq rbx,0xfff00000
0x165864f406a8    40  4823da         REX.W andq rbx,rdx
0x165864f406ab    43  f6430808       testb [rbx+0x8],0x8
0x165864f406af    47  7405           jz 54  (0x165864f406b6)
0x165864f406b1    49  e84accfcff     call 0x165864f0d300     ;; code: STUB, RecordWriteStub, minor: 8498
0x165864f406b6    54  c3             ret
0x165864f406b7    55  90             nop


Safepoints (size = 8)

RelocInfo (size = 1)
0x165864f406b2  code target (STUB)  (0x165864f0d300)

--- End code ---
--- Raw source ---
(){
if(!%_IsDate(this))%_ThrowNotDateError();
return(%_DateField(this,1));
}


--- Code ---
source_position = 6123
kind = FUNCTION
name = getFullYear
compiler = full-codegen
Instructions (size = 228)
0x165864f407c0     0  55             push rbp                ;; debug: position 6123
0x165864f407c1     1  4889e5         REX.W movq rbp,rsp
0x165864f407c4     4  56             push rsi
0x165864f407c5     5  57             push rdi
0x165864f407c6     6  493ba548090000 REX.W cmpq rsp,[r13+0x948]
0x165864f407cd    13  7305           jnc 20  (0x165864f407d4)
0x165864f407cf    15  e8ac62ffff     call StackCheck  (0x165864f36a80)    ;; code: BUILTIN
0x165864f407d4    20  488b4510       REX.W movq rax,[rbp+0x10]    ;; debug: statement 6127
                                                             ;; debug: position 6140
0x165864f407d8    24  a801           test al,0x1
0x165864f407da    26  0f841f000000   jz 63  (0x165864f407ff)
0x165864f407e0    32  488b58ff       REX.W movq rbx,[rax-0x1]
0x165864f407e4    36  807b0bb6       cmpb [rbx+0xb],0xb6
0x165864f407e8    40  eb0f           jmp 57  (0x165864f407f9)
0x165864f407ea    42  493b45c0       REX.W cmpq rax,[r13-0x40]
0x165864f407ee    46  0f841c000000   jz 80  (0x165864f40810)
0x165864f407f4    52  e906000000     jmp 63  (0x165864f407ff)
0x165864f407f9    57  0f8411000000   jz 80  (0x165864f40810)
0x165864f407ff    63  33c0           xorl rax,rax            ;; debug: statement 6146
0x165864f40801    65  48bb30bc270100000000 REX.W movq rbx,0x127bc30
0x165864f4080b    75  e8d082fcff     call 0x165864f08ae0     ;; code: STUB, CEntryStub, minor: 0
0x165864f40810    80  488b4510       REX.W movq rax,[rbp+0x10]    ;; debug: statement 6169
                                                             ;; debug: position 6188
0x165864f40814    84  49ba4835f30200000000 REX.W movq r10,0x2f33548
0x165864f4081e    94  498b0a         REX.W movq rcx,[r10]
0x165864f40821    97  483b4857       REX.W cmpq rcx,[rax+0x57]
0x165864f40825   101  7506           jnz 109  (0x165864f4082d)
0x165864f40827   103  488b401f       REX.W movq rax,[rax+0x1f]
0x165864f4082b   107  eb30           jmp 157  (0x165864f4085d)
0x165864f4082d   109  4989e2         REX.W movq r10,rsp
0x165864f40830   112  4883ec08       REX.W subq rsp,0x8
0x165864f40834   116  4883e4f0       REX.W andq rsp,0xf0
0x165864f40838   120  4c891424       REX.W movq [rsp],r10
0x165864f4083c   124  488bf8         REX.W movq rdi,rax
0x165864f4083f   127  48be0000000001000000 REX.W movq rsi,0x100000000
0x165864f40849   137  48b800e7ed0000000000 REX.W movq rax,0xede700
0x165864f40853   147  ffd0           call rax
0x165864f40855   149  488b2424       REX.W movq rsp,[rsp]
0x165864f40859   153  488b75f8       REX.W movq rsi,[rbp-0x8]
0x165864f4085d   157  48bb71fe9ecfdd1e0000 REX.W movq rbx,0x1eddcf9efe71    ;; object: 0x1eddcf9efe71 Cell for 6144
0x165864f40867   167  83430bd1       addl [rbx+0xb],0xd1
0x165864f4086b   171  791f           jns 204  (0x165864f4088c)
0x165864f4086d   173  50             push rax
0x165864f4086e   174  e8cd60ffff     call InterruptCheck  (0x165864f36940)    ;; code: BUILTIN
0x165864f40873   179  58             pop rax
0x165864f40874   180  48bb71fe9ecfdd1e0000 REX.W movq rbx,0x1eddcf9efe71    ;; object: 0x1eddcf9efe71 Cell for 6144
0x165864f4087e   190  49ba0000000000180000 REX.W movq r10,0x180000000000
0x165864f40888   200  4c895307       REX.W movq [rbx+0x7],r10
0x165864f4088c   204  c9             leave                   ;; debug: statement 6198
0x165864f4088d   205  c20800         ret 0x8
0x165864f40890   208  498b45a8       REX.W movq rax,[r13-0x58]
0x165864f40894   212  e9c4ffffff     jmp 157  (0x165864f4085d)
0x165864f40899   217  0f1f8000000000 nop

Deoptimization Output Data (deopt points = 0)

Back edges (size = 0)
ast_id  pc_offset  loop_depth

0x1eddcf9efeb1: [TypeFeedbackInfo]
 - ic_total_count: 0, ic_with_type_info_count: 0, ic_generic_count: 0

RelocInfo (size = 25)
0x165864f407c0  position  (6123)
0x165864f407d0  code target (BUILTIN)  (0x165864f36a80)
0x165864f407d4  statement position  (6127)
0x165864f407d4  position  (6140)
0x165864f407ff  statement position  (6146)
0x165864f4080c  code target (STUB)  (0x165864f08ae0)
0x165864f40810  statement position  (6169)
0x165864f40810  position  (6188)
0x165864f4085f  embedded object  (0x1eddcf9efe71 Cell for 6144)
0x165864f4086f  code target (BUILTIN)  (0x165864f36940)
0x165864f40876  embedded object  (0x1eddcf9efe71 Cell for 6144)
0x165864f4088c  statement position  (6198)

--- End code ---
--- Raw source ---
m()

--- Code ---
source_position = 0
kind = FUNCTION
compiler = full-codegen
Instructions (size = 140)
0x165864f40b40     0  55             push rbp                ;; debug: position 0
0x165864f40b41     1  4889e5         REX.W movq rbp,rsp
0x165864f40b44     4  56             push rsi
0x165864f40b45     5  57             push rdi
0x165864f40b46     6  41ff75a8       push [r13-0x58]
0x165864f40b4a    10  493ba548090000 REX.W cmpq rsp,[r13+0x948]
0x165864f40b51    17  7305           jnc 24  (0x165864f40b58)
0x165864f40b53    19  e8285fffff     call StackCheck  (0x165864f36a80)    ;; code: BUILTIN
0x165864f40b58    24  488bc6         REX.W movq rax,rsi      ;; debug: statement 0
0x165864f40b5b    27  ffb0f7000000   push [rax+0xf7]
0x165864f40b61    33  41ff75a8       push [r13-0x58]
0x165864f40b65    37  48ba0000000004000000 REX.W movq rdx,0x400000000
0x165864f40b6f    47  488b7c2408     REX.W movq rdi,[rsp+0x8]
0x165864f40b74    52  e8c7c5feff     call 0x165864f2d140     ;; code: CALL_IC, DEFAULT
0x165864f40b79    57  488b75f8       REX.W movq rsi,[rbp-0x8]
0x165864f40b7d    61  4883c408       REX.W addq rsp,0x8
0x165864f40b81    65  488945e8       REX.W movq [rbp-0x18],rax
0x165864f40b85    69  488b45e8       REX.W movq rax,[rbp-0x18]    ;; debug: statement 3
0x165864f40b89    73  48bba1009fcfdd1e0000 REX.W movq rbx,0x1eddcf9f00a1    ;; object: 0x1eddcf9f00a1 Cell for 6144
0x165864f40b93    83  83430bd1       addl [rbx+0xb],0xd1
0x165864f40b97    87  791f           jns 120  (0x165864f40bb8)
0x165864f40b99    89  50             push rax
0x165864f40b9a    90  e8a15dffff     call InterruptCheck  (0x165864f36940)    ;; code: BUILTIN
0x165864f40b9f    95  58             pop rax
0x165864f40ba0    96  48bba1009fcfdd1e0000 REX.W movq rbx,0x1eddcf9f00a1    ;; object: 0x1eddcf9f00a1 Cell for 6144
0x165864f40baa   106  49ba0000000000180000 REX.W movq r10,0x180000000000
0x165864f40bb4   116  4c895307       REX.W movq [rbx+0x7],r10
0x165864f40bb8   120  c9             leave                   ;; debug: statement 2
0x165864f40bb9   121  c20800         ret 0x8
0x165864f40bbc   124  498b45a8       REX.W movq rax,[r13-0x58]
0x165864f40bc0   128  e9c4ffffff     jmp 73  (0x165864f40b89)
0x165864f40bc5   133  0f1f00         nop

Deoptimization Output Data (deopt points = 0)

Back edges (size = 0)
ast_id  pc_offset  loop_depth

0x1eddcf9f00d1: [TypeFeedbackInfo]
 - ic_total_count: 1, ic_with_type_info_count: 0, ic_generic_count: 0

RelocInfo (size = 13)
0x165864f40b40  position  (0)
0x165864f40b54  code target (BUILTIN)  (0x165864f36a80)
0x165864f40b58  statement position  (0)
0x165864f40b75  code target (CALL_IC)  (0x165864f2d140)
0x165864f40b85  statement position  (3)
0x165864f40b8b  embedded object  (0x1eddcf9f00a1 Cell for 6144)
0x165864f40b9b  code target (BUILTIN)  (0x165864f36940)
0x165864f40ba2  embedded object  (0x1eddcf9f00a1 Cell for 6144)
0x165864f40bb8  statement position  (2)

--- End code ---
--- Raw source ---
() {
        // Numeric representation of a month, with leading zeros
        return self.getMonth() < 9?
        "0"+(self.getMonth()+1) : 
        self.getMonth()+1;
    }


--- Code ---
source_position = 4878
kind = FUNCTION
name = m
compiler = full-codegen
Instructions (size = 412)
0x165864f40c40     0  55             push rbp                ;; debug: position 4878
0x165864f40c41     1  4889e5         REX.W movq rbp,rsp
0x165864f40c44     4  56             push rsi
0x165864f40c45     5  57             push rdi
0x165864f40c46     6  493ba548090000 REX.W cmpq rsp,[r13+0x948]
0x165864f40c4d    13  7305           jnc 20  (0x165864f40c54)
0x165864f40c4f    15  e82c5effff     call StackCheck  (0x165864f36a80)    ;; code: BUILTIN
0x165864f40c54    20  488bc6         REX.W movq rax,rsi      ;; debug: statement 4956
                                                             ;; debug: position 4963
0x165864f40c57    23  ffb067010000   push [rax+0x167]
0x165864f40c5d    29  488b1424       REX.W movq rdx,[rsp]
0x165864f40c61    33  48b9614e96cfdd1e0000 REX.W movq rcx,0x1eddcf964e61    ;; debug: position 4967
                                                             ;; object: 0x1eddcf964e61 <String[8]: getMonth>
0x165864f40c6b    43  48b80000000006000000 REX.W movq rax,0x600000000
0x165864f40c75    53  e8e678feff     call 0x165864f28560     ;; code: contextual, LOAD_IC, DEFAULT
0x165864f40c7a    58  ff3424         push [rsp]
0x165864f40c7d    61  4889442408     REX.W movq [rsp+0x8],rax
0x165864f40c82    66  48ba0000000004000000 REX.W movq rdx,0x400000000    ;; debug: position 4968
0x165864f40c8c    76  488b7c2408     REX.W movq rdi,[rsp+0x8]
0x165864f40c91    81  e8eadafdff     call 0x165864f1e780     ;; code: CALL_IC, DEFAULT
0x165864f40c96    86  488b75f8       REX.W movq rsi,[rbp-0x8]
0x165864f40c9a    90  48890424       REX.W movq [rsp],rax
0x165864f40c9e    94  48b80000000009000000 REX.W movq rax,0x900000000
0x165864f40ca8   104  5a             pop rdx
0x165864f40ca9   105  e812bcfdff     call 0x165864f1c8c0     ;; code: COMPARE_IC, UNINITIALIZED (id = 10)
0x165864f40cae   110  90             nop
0x165864f40caf   111  eb0f           jmp 128  (0x165864f40cc0)
0x165864f40cb1   113  493b45c0       REX.W cmpq rax,[r13-0x40]
0x165864f40cb5   117  0f840e000000   jz 137  (0x165864f40cc9)
0x165864f40cbb   123  e97c000000     jmp 252  (0x165864f40d3c)
0x165864f40cc0   128  4885c0         REX.W testq rax,rax
0x165864f40cc3   131  0f8d73000000   jge 252  (0x165864f40d3c)
0x165864f40cc9   137  49ba81d29ecfdd1e0000 REX.W movq r10,0x1eddcf9ed281    ;; debug: position 4995
                                                             ;; object: 0x1eddcf9ed281 <String[1]: 0>
0x165864f40cd3   147  4152           push r10
0x165864f40cd5   149  488bc6         REX.W movq rax,rsi      ;; debug: position 4997
0x165864f40cd8   152  ffb067010000   push [rax+0x167]
0x165864f40cde   158  488b1424       REX.W movq rdx,[rsp]
0x165864f40ce2   162  48b9614e96cfdd1e0000 REX.W movq rcx,0x1eddcf964e61    ;; debug: position 5001
                                                             ;; object: 0x1eddcf964e61 <String[8]: getMonth>
0x165864f40cec   172  48b8000000000a000000 REX.W movq rax,0xa00000000
0x165864f40cf6   182  e86578feff     call 0x165864f28560     ;; code: contextual, LOAD_IC, DEFAULT
0x165864f40cfb   187  ff3424         push [rsp]
0x165864f40cfe   190  4889442408     REX.W movq [rsp+0x8],rax
0x165864f40d03   195  48ba0000000008000000 REX.W movq rdx,0x800000000    ;; debug: position 5002
0x165864f40d0d   205  488b7c2408     REX.W movq rdi,[rsp+0x8]
0x165864f40d12   210  e869dafdff     call 0x165864f1e780     ;; code: CALL_IC, DEFAULT
0x165864f40d17   215  488b75f8       REX.W movq rsi,[rbp-0x8]
0x165864f40d1b   219  48890424       REX.W movq [rsp],rax
0x165864f40d1f   223  48b80000000001000000 REX.W movq rax,0x100000000
0x165864f40d29   233  5a             pop rdx                 ;; debug: position 5012
0x165864f40d2a   234  e85178fdff     call 0x165864f18580     ;; code: BINARY_OP_IC, UNINITIALIZED (id = 38)
0x165864f40d2f   239  90             nop
0x165864f40d30   240  5a             pop rdx                 ;; debug: position 4995
0x165864f40d31   241  e84a78fdff     call 0x165864f18580     ;; code: BINARY_OP_IC, UNINITIALIZED (id = 31)
0x165864f40d36   246  90             nop
0x165864f40d37   247  e95b000000     jmp 343  (0x165864f40d97)
0x165864f40d3c   252  488bc6         REX.W movq rax,rsi      ;; debug: position 5027
0x165864f40d3f   255  ffb067010000   push [rax+0x167]
0x165864f40d45   261  488b1424       REX.W movq rdx,[rsp]
0x165864f40d49   265  48b9614e96cfdd1e0000 REX.W movq rcx,0x1eddcf964e61    ;; debug: position 5031
                                                             ;; object: 0x1eddcf964e61 <String[8]: getMonth>
0x165864f40d53   275  48b8000000000e000000 REX.W movq rax,0xe00000000
0x165864f40d5d   285  e8fe77feff     call 0x165864f28560     ;; code: contextual, LOAD_IC, DEFAULT
0x165864f40d62   290  ff3424         push [rsp]
0x165864f40d65   293  4889442408     REX.W movq [rsp+0x8],rax
0x165864f40d6a   298  48ba000000000c000000 REX.W movq rdx,0xc00000000    ;; debug: position 5032
0x165864f40d74   308  488b7c2408     REX.W movq rdi,[rsp+0x8]
0x165864f40d79   313  e802dafdff     call 0x165864f1e780     ;; code: CALL_IC, DEFAULT
0x165864f40d7e   318  488b75f8       REX.W movq rsi,[rbp-0x8]
0x165864f40d82   322  48890424       REX.W movq [rsp],rax
0x165864f40d86   326  48b80000000001000000 REX.W movq rax,0x100000000
0x165864f40d90   336  5a             pop rdx                 ;; debug: position 5042
0x165864f40d91   337  e8ea77fdff     call 0x165864f18580     ;; code: BINARY_OP_IC, UNINITIALIZED (id = 59)
0x165864f40d96   342  90             nop
0x165864f40d97   343  48bbd9029fcfdd1e0000 REX.W movq rbx,0x1eddcf9f02d9    ;; object: 0x1eddcf9f02d9 Cell for 6144
0x165864f40da1   353  83430bd1       addl [rbx+0xb],0xd1
0x165864f40da5   357  791f           jns 390  (0x165864f40dc6)
0x165864f40da7   359  50             push rax
0x165864f40da8   360  e8935bffff     call InterruptCheck  (0x165864f36940)    ;; code: BUILTIN
0x165864f40dad   365  58             pop rax
0x165864f40dae   366  48bbd9029fcfdd1e0000 REX.W movq rbx,0x1eddcf9f02d9    ;; object: 0x1eddcf9f02d9 Cell for 6144
0x165864f40db8   376  49ba0000000000180000 REX.W movq r10,0x180000000000
0x165864f40dc2   386  4c895307       REX.W movq [rbx+0x7],r10
0x165864f40dc6   390  c9             leave                   ;; debug: statement 5050
0x165864f40dc7   391  c20800         ret 0x8
0x165864f40dca   394  498b45a8       REX.W movq rax,[r13-0x58]
0x165864f40dce   398  e9c4ffffff     jmp 343  (0x165864f40d97)
0x165864f40dd3   403  0f1f440000     nop

Deoptimization Output Data (deopt points = 0)

Back edges (size = 0)
ast_id  pc_offset  loop_depth

0x1eddcf9f0341: [TypeFeedbackInfo]
 - ic_total_count: 10, ic_with_type_info_count: 0, ic_generic_count: 0

RelocInfo (size = 66)
0x165864f40c40  position  (4878)
0x165864f40c50  code target (BUILTIN)  (0x165864f36a80)
0x165864f40c54  statement position  (4956)
0x165864f40c54  position  (4963)
0x165864f40c61  position  (4967)
0x165864f40c63  embedded object  (0x1eddcf964e61 <String[8]: getMonth>)
0x165864f40c76  code target (LOAD_IC)  (0x165864f28560)
0x165864f40c82  position  (4968)
0x165864f40c92  code target (CALL_IC)  (0x165864f1e780)
0x165864f40caa  code target with id (COMPARE_IC)  (0x165864f1c8c0) (id=10)
0x165864f40cc9  position  (4995)
0x165864f40ccb  embedded object  (0x1eddcf9ed281 <String[1]: 0>)
0x165864f40cd5  position  (4997)
0x165864f40ce2  position  (5001)
0x165864f40ce4  embedded object  (0x1eddcf964e61 <String[8]: getMonth>)
0x165864f40cf7  code target (LOAD_IC)  (0x165864f28560)
0x165864f40d03  position  (5002)
0x165864f40d13  code target (CALL_IC)  (0x165864f1e780)
0x165864f40d29  position  (5012)
0x165864f40d2b  code target with id (BINARY_OP_IC)  (0x165864f18580) (id=38)
0x165864f40d30  position  (4995)
0x165864f40d32  code target with id (BINARY_OP_IC)  (0x165864f18580) (id=31)
0x165864f40d3c  position  (5027)
0x165864f40d49  position  (5031)
0x165864f40d4b  embedded object  (0x1eddcf964e61 <String[8]: getMonth>)
0x165864f40d5e  code target (LOAD_IC)  (0x165864f28560)
0x165864f40d6a  position  (5032)
0x165864f40d7a  code target (CALL_IC)  (0x165864f1e780)
0x165864f40d90  position  (5042)
0x165864f40d92  code target with id (BINARY_OP_IC)  (0x165864f18580) (id=59)
0x165864f40d99  embedded object  (0x1eddcf9f02d9 Cell for 6144)
0x165864f40da9  code target (BUILTIN)  (0x165864f36940)
0x165864f40db0  embedded object  (0x1eddcf9f02d9 Cell for 6144)
0x165864f40dc6  statement position  (5050)

--- End code ---
--- Raw source ---
(){
if(!%_IsDate(this))%_ThrowNotDateError();
return(%_DateField(this,2));
}


--- Code ---
source_position = 6326
kind = FUNCTION
name = getMonth
compiler = full-codegen
Instructions (size = 228)
0x165864f40e40     0  55             push rbp                ;; debug: position 6326
0x165864f40e41     1  4889e5         REX.W movq rbp,rsp
0x165864f40e44     4  56             push rsi
0x165864f40e45     5  57             push rdi
0x165864f40e46     6  493ba548090000 REX.W cmpq rsp,[r13+0x948]
0x165864f40e4d    13  7305           jnc 20  (0x165864f40e54)
0x165864f40e4f    15  e82c5cffff     call StackCheck  (0x165864f36a80)    ;; code: BUILTIN
0x165864f40e54    20  488b4510       REX.W movq rax,[rbp+0x10]    ;; debug: statement 6330
                                                             ;; debug: position 6343
0x165864f40e58    24  a801           test al,0x1
0x165864f40e5a    26  0f841f000000   jz 63  (0x165864f40e7f)
0x165864f40e60    32  488b58ff       REX.W movq rbx,[rax-0x1]
0x165864f40e64    36  807b0bb6       cmpb [rbx+0xb],0xb6
0x165864f40e68    40  eb0f           jmp 57  (0x165864f40e79)
0x165864f40e6a    42  493b45c0       REX.W cmpq rax,[r13-0x40]
0x165864f40e6e    46  0f841c000000   jz 80  (0x165864f40e90)
0x165864f40e74    52  e906000000     jmp 63  (0x165864f40e7f)
0x165864f40e79    57  0f8411000000   jz 80  (0x165864f40e90)
0x165864f40e7f    63  33c0           xorl rax,rax            ;; debug: statement 6349
0x165864f40e81    65  48bb30bc270100000000 REX.W movq rbx,0x127bc30
0x165864f40e8b    75  e8507cfcff     call 0x165864f08ae0     ;; code: STUB, CEntryStub, minor: 0
0x165864f40e90    80  488b4510       REX.W movq rax,[rbp+0x10]    ;; debug: statement 6372
                                                             ;; debug: position 6391
0x165864f40e94    84  49ba4835f30200000000 REX.W movq r10,0x2f33548
0x165864f40e9e    94  498b0a         REX.W movq rcx,[r10]
0x165864f40ea1    97  483b4857       REX.W cmpq rcx,[rax+0x57]
0x165864f40ea5   101  7506           jnz 109  (0x165864f40ead)
0x165864f40ea7   103  488b4027       REX.W movq rax,[rax+0x27]
0x165864f40eab   107  eb30           jmp 157  (0x165864f40edd)
0x165864f40ead   109  4989e2         REX.W movq r10,rsp
0x165864f40eb0   112  4883ec08       REX.W subq rsp,0x8
0x165864f40eb4   116  4883e4f0       REX.W andq rsp,0xf0
0x165864f40eb8   120  4c891424       REX.W movq [rsp],r10
0x165864f40ebc   124  488bf8         REX.W movq rdi,rax
0x165864f40ebf   127  48be0000000002000000 REX.W movq rsi,0x200000000
0x165864f40ec9   137  48b800e7ed0000000000 REX.W movq rax,0xede700
0x165864f40ed3   147  ffd0           call rax
0x165864f40ed5   149  488b2424       REX.W movq rsp,[rsp]
0x165864f40ed9   153  488b75f8       REX.W movq rsi,[rbp-0x8]
0x165864f40edd   157  48bbc1039fcfdd1e0000 REX.W movq rbx,0x1eddcf9f03c1    ;; object: 0x1eddcf9f03c1 Cell for 6144
0x165864f40ee7   167  83430bd1       addl [rbx+0xb],0xd1
0x165864f40eeb   171  791f           jns 204  (0x165864f40f0c)
0x165864f40eed   173  50             push rax
0x165864f40eee   174  e84d5affff     call InterruptCheck  (0x165864f36940)    ;; code: BUILTIN
0x165864f40ef3   179  58             pop rax
0x165864f40ef4   180  48bbc1039fcfdd1e0000 REX.W movq rbx,0x1eddcf9f03c1    ;; object: 0x1eddcf9f03c1 Cell for 6144
0x165864f40efe   190  49ba0000000000180000 REX.W movq r10,0x180000000000
0x165864f40f08   200  4c895307       REX.W movq [rbx+0x7],r10
0x165864f40f0c   204  c9             leave                   ;; debug: statement 6401
0x165864f40f0d   205  c20800         ret 0x8
0x165864f40f10   208  498b45a8       REX.W movq rax,[r13-0x58]
0x165864f40f14   212  e9c4ffffff     jmp 157  (0x165864f40edd)
0x165864f40f19   217  0f1f8000000000 nop

Deoptimization Output Data (deopt points = 0)

Back edges (size = 0)
ast_id  pc_offset  loop_depth

0x1eddcf9f0401: [TypeFeedbackInfo]
 - ic_total_count: 0, ic_with_type_info_count: 0, ic_generic_count: 0

RelocInfo (size = 25)
0x165864f40e40  position  (6326)
0x165864f40e50  code target (BUILTIN)  (0x165864f36a80)
0x165864f40e54  statement position  (6330)
0x165864f40e54  position  (6343)
0x165864f40e7f  statement position  (6349)
0x165864f40e8c  code target (STUB)  (0x165864f08ae0)
0x165864f40e90  statement position  (6372)
0x165864f40e90  position  (6391)
0x165864f40edf  embedded object  (0x1eddcf9f03c1 Cell for 6144)
0x165864f40eef  code target (BUILTIN)  (0x165864f36940)
0x165864f40ef6  embedded object  (0x1eddcf9f03c1 Cell for 6144)
0x165864f40f0c  statement position  (6401)

--- End code ---
--- Raw source ---
d()

--- Code ---
source_position = 0
kind = FUNCTION
compiler = full-codegen
Instructions (size = 140)
0x165864f41020     0  55             push rbp                ;; debug: position 0
0x165864f41021     1  4889e5         REX.W movq rbp,rsp
0x165864f41024     4  56             push rsi
0x165864f41025     5  57             push rdi
0x165864f41026     6  41ff75a8       push [r13-0x58]
0x165864f4102a    10  493ba548090000 REX.W cmpq rsp,[r13+0x948]
0x165864f41031    17  7305           jnc 24  (0x165864f41038)
0x165864f41033    19  e8485affff     call StackCheck  (0x165864f36a80)    ;; code: BUILTIN
0x165864f41038    24  488bc6         REX.W movq rax,rsi      ;; debug: statement 0
0x165864f4103b    27  ffb09f000000   push [rax+0x9f]
0x165864f41041    33  41ff75a8       push [r13-0x58]
0x165864f41045    37  48ba0000000004000000 REX.W movq rdx,0x400000000
0x165864f4104f    47  488b7c2408     REX.W movq rdi,[rsp+0x8]
0x165864f41054    52  e8e7c0feff     call 0x165864f2d140     ;; code: CALL_IC, DEFAULT
0x165864f41059    57  488b75f8       REX.W movq rsi,[rbp-0x8]
0x165864f4105d    61  4883c408       REX.W addq rsp,0x8
0x165864f41061    65  488945e8       REX.W movq [rbp-0x18],rax
0x165864f41065    69  488b45e8       REX.W movq rax,[rbp-0x18]    ;; debug: statement 3
0x165864f41069    73  48bb99059fcfdd1e0000 REX.W movq rbx,0x1eddcf9f0599    ;; object: 0x1eddcf9f0599 Cell for 6144
0x165864f41073    83  83430bd1       addl [rbx+0xb],0xd1
0x165864f41077    87  791f           jns 120  (0x165864f41098)
0x165864f41079    89  50             push rax
0x165864f4107a    90  e8c158ffff     call InterruptCheck  (0x165864f36940)    ;; code: BUILTIN
0x165864f4107f    95  58             pop rax
0x165864f41080    96  48bb99059fcfdd1e0000 REX.W movq rbx,0x1eddcf9f0599    ;; object: 0x1eddcf9f0599 Cell for 6144
0x165864f4108a   106  49ba0000000000180000 REX.W movq r10,0x180000000000
0x165864f41094   116  4c895307       REX.W movq [rbx+0x7],r10
0x165864f41098   120  c9             leave                   ;; debug: statement 2
0x165864f41099   121  c20800         ret 0x8
0x165864f4109c   124  498b45a8       REX.W movq rax,[r13-0x58]
0x165864f410a0   128  e9c4ffffff     jmp 73  (0x165864f41069)
0x165864f410a5   133  0f1f00         nop

Deoptimization Output Data (deopt points = 0)

Back edges (size = 0)
ast_id  pc_offset  loop_depth

0x1eddcf9f05c9: [TypeFeedbackInfo]
 - ic_total_count: 1, ic_with_type_info_count: 0, ic_generic_count: 0

RelocInfo (size = 13)
0x165864f41020  position  (0)
0x165864f41034  code target (BUILTIN)  (0x165864f36a80)
0x165864f41038  statement position  (0)
0x165864f41055  code target (CALL_IC)  (0x165864f2d140)
0x165864f41065  statement position  (3)
0x165864f4106b  embedded object  (0x1eddcf9f0599 Cell for 6144)
0x165864f4107b  code target (BUILTIN)  (0x165864f36940)
0x165864f41082  embedded object  (0x1eddcf9f0599 Cell for 6144)
0x165864f41098  statement position  (2)

--- End code ---
--- Raw source ---
() {
        // Day of the month, 2 digits with leading zeros
        return new String(self.getDate()).length == 1?
        "0"+self.getDate() : self.getDate();
    }


--- Code ---
source_position = 2790
kind = FUNCTION
name = d
compiler = full-codegen
Instructions (size = 532)
0x165864f41120     0  55             push rbp                ;; debug: position 2790
0x165864f41121     1  4889e5         REX.W movq rbp,rsp
0x165864f41124     4  56             push rsi
0x165864f41125     5  57             push rdi
0x165864f41126     6  493ba548090000 REX.W cmpq rsp,[r13+0x948]
0x165864f4112d    13  7305           jnc 20  (0x165864f41134)
0x165864f4112f    15  e84c59ffff     call StackCheck  (0x165864f36a80)    ;; code: BUILTIN
0x165864f41134    20  48837e1f00     REX.W cmpq [rsi+0x1f],0x0    ;; debug: statement 2860
                                                             ;; debug: position 2871
0x165864f41139    25  0f8526000000   jnz 69  (0x165864f41165)
0x165864f4113f    31  488b5617       REX.W movq rdx,[rsi+0x17]
0x165864f41143    35  48b9811a99cfdd1e0000 REX.W movq rcx,0x1eddcf991a81    ;; object: 0x1eddcf991a81 <String[6]: String>
0x165864f4114d    45  488b5627       REX.W movq rdx,[rsi+0x27]
0x165864f41151    49  48b80000000005000000 REX.W movq rax,0x500000000
0x165864f4115b    59  e80074feff     call 0x165864f28560     ;; code: contextual, LOAD_IC, DEFAULT
0x165864f41160    64  e921000000     jmp 102  (0x165864f41186)
0x165864f41165    69  56             push rsi
0x165864f41166    70  49ba811a99cfdd1e0000 REX.W movq r10,0x1eddcf991a81    ;; object: 0x1eddcf991a81 <String[6]: String>
0x165864f41170    80  4152           push r10
0x165864f41172    82  b802000000     movl rax,0x2
0x165864f41177    87  48bb20a42b0100000000 REX.W movq rbx,0x12ba420
0x165864f41181    97  e85a79fcff     call 0x165864f08ae0     ;; code: STUB, CEntryStub, minor: 0
0x165864f41186   102  50             push rax
0x165864f41187   103  488bc6         REX.W movq rax,rsi      ;; debug: position 2878
0x165864f4118a   106  ffb067010000   push [rax+0x167]
0x165864f41190   112  488b1424       REX.W movq rdx,[rsp]
0x165864f41194   116  48b9095096cfdd1e0000 REX.W movq rcx,0x1eddcf965009    ;; debug: position 2882
                                                             ;; object: 0x1eddcf965009 <String[7]: getDate>
0x165864f4119e   126  48b80000000009000000 REX.W movq rax,0x900000000
0x165864f411a8   136  e8b373feff     call 0x165864f28560     ;; code: contextual, LOAD_IC, DEFAULT
0x165864f411ad   141  ff3424         push [rsp]
0x165864f411b0   144  4889442408     REX.W movq [rsp+0x8],rax
0x165864f411b5   149  48ba0000000007000000 REX.W movq rdx,0x700000000    ;; debug: position 2883
0x165864f411bf   159  488b7c2408     REX.W movq rdi,[rsp+0x8]
0x165864f411c4   164  e8b7d5fdff     call 0x165864f1e780     ;; code: CALL_IC, DEFAULT
0x165864f411c9   169  488b75f8       REX.W movq rsi,[rbp-0x8]
0x165864f411cd   173  48890424       REX.W movq [rsp],rax
0x165864f411d1   177  b801000000     movl rax,0x1            ;; debug: position 2867
0x165864f411d6   182  488b7c2408     REX.W movq rdi,[rsp+0x8]
0x165864f411db   187  488b5df0       REX.W movq rbx,[rbp-0x10]
0x165864f411df   191  488b5b27       REX.W movq rbx,[rbx+0x27]
0x165864f411e3   195  488b5b57       REX.W movq rbx,[rbx+0x57]
0x165864f411e7   199  48ba0000000004000000 REX.W movq rdx,0x400000000
0x165864f411f1   209  e84a94fdff     call 0x165864f1a640     ;; code: constructor, STUB, CallConstructStub, minor: 1
0x165864f411f6   214  488b75f8       REX.W movq rsi,[rbp-0x8]
0x165864f411fa   218  488bd0         REX.W movq rdx,rax
0x165864f411fd   221  48b9710799cfdd1e0000 REX.W movq rcx,0x1eddcf990771    ;; debug: position 2893
                                                             ;; object: 0x1eddcf990771 <String[6]: length>
0x165864f41207   231  48b8000000000b000000 REX.W movq rax,0xb00000000
0x165864f41211   241  e84a73feff     call 0x165864f28560     ;; code: contextual, LOAD_IC, DEFAULT
0x165864f41216   246  50             push rax
0x165864f41217   247  48b80000000001000000 REX.W movq rax,0x100000000
0x165864f41221   257  5a             pop rdx
0x165864f41222   258  e859a1feff     call 0x165864f2b380     ;; code: COMPARE_IC, UNINITIALIZED (id = 10)
0x165864f41227   263  90             nop
0x165864f41228   264  eb0f           jmp 281  (0x165864f41239)
0x165864f4122a   266  493b45c0       REX.W cmpq rax,[r13-0x40]
0x165864f4122e   270  0f840e000000   jz 290  (0x165864f41242)
0x165864f41234   276  e96b000000     jmp 388  (0x165864f412a4)
0x165864f41239   281  4885c0         REX.W testq rax,rax
0x165864f4123c   284  0f8562000000   jnz 388  (0x165864f412a4)
0x165864f41242   290  49ba81d29ecfdd1e0000 REX.W movq r10,0x1eddcf9ed281    ;; debug: position 2918
                                                             ;; object: 0x1eddcf9ed281 <String[1]: 0>
0x165864f4124c   300  4152           push r10
0x165864f4124e   302  488bc6         REX.W movq rax,rsi      ;; debug: position 2919
0x165864f41251   305  ffb067010000   push [rax+0x167]
0x165864f41257   311  488b1424       REX.W movq rdx,[rsp]
0x165864f4125b   315  48b9095096cfdd1e0000 REX.W movq rcx,0x1eddcf965009    ;; debug: position 2923
                                                             ;; object: 0x1eddcf965009 <String[7]: getDate>
0x165864f41265   325  48b8000000000f000000 REX.W movq rax,0xf00000000
0x165864f4126f   335  e8ec72feff     call 0x165864f28560     ;; code: contextual, LOAD_IC, DEFAULT
0x165864f41274   340  ff3424         push [rsp]
0x165864f41277   343  4889442408     REX.W movq [rsp+0x8],rax
0x165864f4127c   348  48ba000000000d000000 REX.W movq rdx,0xd00000000    ;; debug: position 2924
0x165864f41286   358  488b7c2408     REX.W movq rdi,[rsp+0x8]
0x165864f4128b   363  e8f0d4fdff     call 0x165864f1e780     ;; code: CALL_IC, DEFAULT
0x165864f41290   368  488b75f8       REX.W movq rsi,[rbp-0x8]
0x165864f41294   372  4883c408       REX.W addq rsp,0x8
0x165864f41298   376  5a             pop rdx                 ;; debug: position 2918
0x165864f41299   377  e8e272fdff     call 0x165864f18580     ;; code: BINARY_OP_IC, UNINITIALIZED (id = 43)
0x165864f4129e   382  90             nop
0x165864f4129f   383  e94a000000     jmp 462  (0x165864f412ee)
0x165864f412a4   388  488bc6         REX.W movq rax,rsi      ;; debug: position 2936
0x165864f412a7   391  ffb067010000   push [rax+0x167]
0x165864f412ad   397  488b1424       REX.W movq rdx,[rsp]
0x165864f412b1   401  48b9095096cfdd1e0000 REX.W movq rcx,0x1eddcf965009    ;; debug: position 2940
                                                             ;; object: 0x1eddcf965009 <String[7]: getDate>
0x165864f412bb   411  48b80000000013000000 REX.W movq rax,0x1300000000
0x165864f412c5   421  e89672feff     call 0x165864f28560     ;; code: contextual, LOAD_IC, DEFAULT
0x165864f412ca   426  ff3424         push [rsp]
0x165864f412cd   429  4889442408     REX.W movq [rsp+0x8],rax
0x165864f412d2   434  48ba0000000011000000 REX.W movq rdx,0x1100000000    ;; debug: position 2941
0x165864f412dc   444  488b7c2408     REX.W movq rdi,[rsp+0x8]
0x165864f412e1   449  e89ad4fdff     call 0x165864f1e780     ;; code: CALL_IC, DEFAULT
0x165864f412e6   454  488b75f8       REX.W movq rsi,[rbp-0x8]
0x165864f412ea   458  4883c408       REX.W addq rsp,0x8
0x165864f412ee   462  48bbf9079fcfdd1e0000 REX.W movq rbx,0x1eddcf9f07f9    ;; object: 0x1eddcf9f07f9 Cell for 6144
0x165864f412f8   472  83430bd1       addl [rbx+0xb],0xd1
0x165864f412fc   476  791f           jns 509  (0x165864f4131d)
0x165864f412fe   478  50             push rax
0x165864f412ff   479  e83c56ffff     call InterruptCheck  (0x165864f36940)    ;; code: BUILTIN
0x165864f41304   484  58             pop rax
0x165864f41305   485  48bbf9079fcfdd1e0000 REX.W movq rbx,0x1eddcf9f07f9    ;; object: 0x1eddcf9f07f9 Cell for 6144
0x165864f4130f   495  49ba0000000000180000 REX.W movq r10,0x180000000000
0x165864f41319   505  4c895307       REX.W movq [rbx+0x7],r10
0x165864f4131d   509  c9             leave                   ;; debug: statement 2956
0x165864f4131e   510  c20800         ret 0x8
0x165864f41321   513  498b45a8       REX.W movq rax,[r13-0x58]
0x165864f41325   517  e9c4ffffff     jmp 462  (0x165864f412ee)
0x165864f4132a   522  660f1f440000   nop

Deoptimization Output Data (deopt points = 0)

Back edges (size = 0)
ast_id  pc_offset  loop_depth

0x1eddcf9f0861: [TypeFeedbackInfo]
 - ic_total_count: 10, ic_with_type_info_count: 0, ic_generic_count: 0

RelocInfo (size = 72)
0x165864f41120  position  (2790)
0x165864f41130  code target (BUILTIN)  (0x165864f36a80)
0x165864f41134  statement position  (2860)
0x165864f41134  position  (2871)
0x165864f41145  embedded object  (0x1eddcf991a81 <String[6]: String>)
0x165864f4115c  code target (LOAD_IC)  (0x165864f28560)
0x165864f41168  embedded object  (0x1eddcf991a81 <String[6]: String>)
0x165864f41182  code target (STUB)  (0x165864f08ae0)
0x165864f41187  position  (2878)
0x165864f41194  position  (2882)
0x165864f41196  embedded object  (0x1eddcf965009 <String[7]: getDate>)
0x165864f411a9  code target (LOAD_IC)  (0x165864f28560)
0x165864f411b5  position  (2883)
0x165864f411c5  code target (CALL_IC)  (0x165864f1e780)
0x165864f411d1  position  (2867)
0x165864f411f2  code target (js construct call) (STUB)  (0x165864f1a640)
0x165864f411fd  position  (2893)
0x165864f411ff  embedded object  (0x1eddcf990771 <String[6]: length>)
0x165864f41212  code target (LOAD_IC)  (0x165864f28560)
0x165864f41223  code target with id (COMPARE_IC)  (0x165864f2b380) (id=10)
0x165864f41242  position  (2918)
0x165864f41244  embedded object  (0x1eddcf9ed281 <String[1]: 0>)
0x165864f4124e  position  (2919)
0x165864f4125b  position  (2923)
0x165864f4125d  embedded object  (0x1eddcf965009 <String[7]: getDate>)
0x165864f41270  code target (LOAD_IC)  (0x165864f28560)
0x165864f4127c  position  (2924)
0x165864f4128c  code target (CALL_IC)  (0x165864f1e780)
0x165864f41298  position  (2918)
0x165864f4129a  code target with id (BINARY_OP_IC)  (0x165864f18580) (id=43)
0x165864f412a4  position  (2936)
0x165864f412b1  position  (2940)
0x165864f412b3  embedded object  (0x1eddcf965009 <String[7]: getDate>)
0x165864f412c6  code target (LOAD_IC)  (0x165864f28560)
0x165864f412d2  position  (2941)
0x165864f412e2  code target (CALL_IC)  (0x165864f1e780)
0x165864f412f0  embedded object  (0x1eddcf9f07f9 Cell for 6144)
0x165864f41300  code target (BUILTIN)  (0x165864f36940)
0x165864f41307  embedded object  (0x1eddcf9f07f9 Cell for 6144)
0x165864f4131d  statement position  (2956)

--- End code ---
--- Raw source ---
(){
if(!%_IsDate(this))%_ThrowNotDateError();
return(%_DateField(this,3));
}


--- Code ---
source_position = 6525
kind = FUNCTION
name = getDate
compiler = full-codegen
Instructions (size = 228)
0x165864f413a0     0  55             push rbp                ;; debug: position 6525
0x165864f413a1     1  4889e5         REX.W movq rbp,rsp
0x165864f413a4     4  56             push rsi
0x165864f413a5     5  57             push rdi
0x165864f413a6     6  493ba548090000 REX.W cmpq rsp,[r13+0x948]
0x165864f413ad    13  7305           jnc 20  (0x165864f413b4)
0x165864f413af    15  e8cc56ffff     call StackCheck  (0x165864f36a80)    ;; code: BUILTIN
0x165864f413b4    20  488b4510       REX.W movq rax,[rbp+0x10]    ;; debug: statement 6529
                                                             ;; debug: position 6542
0x165864f413b8    24  a801           test al,0x1
0x165864f413ba    26  0f841f000000   jz 63  (0x165864f413df)
0x165864f413c0    32  488b58ff       REX.W movq rbx,[rax-0x1]
0x165864f413c4    36  807b0bb6       cmpb [rbx+0xb],0xb6
0x165864f413c8    40  eb0f           jmp 57  (0x165864f413d9)
0x165864f413ca    42  493b45c0       REX.W cmpq rax,[r13-0x40]
0x165864f413ce    46  0f841c000000   jz 80  (0x165864f413f0)
0x165864f413d4    52  e906000000     jmp 63  (0x165864f413df)
0x165864f413d9    57  0f8411000000   jz 80  (0x165864f413f0)
0x165864f413df    63  33c0           xorl rax,rax            ;; debug: statement 6548
0x165864f413e1    65  48bb30bc270100000000 REX.W movq rbx,0x127bc30
0x165864f413eb    75  e8f076fcff     call 0x165864f08ae0     ;; code: STUB, CEntryStub, minor: 0
0x165864f413f0    80  488b4510       REX.W movq rax,[rbp+0x10]    ;; debug: statement 6571
                                                             ;; debug: position 6590
0x165864f413f4    84  49ba4835f30200000000 REX.W movq r10,0x2f33548
0x165864f413fe    94  498b0a         REX.W movq rcx,[r10]
0x165864f41401    97  483b4857       REX.W cmpq rcx,[rax+0x57]
0x165864f41405   101  7506           jnz 109  (0x165864f4140d)
0x165864f41407   103  488b402f       REX.W movq rax,[rax+0x2f]
0x165864f4140b   107  eb30           jmp 157  (0x165864f4143d)
0x165864f4140d   109  4989e2         REX.W movq r10,rsp
0x165864f41410   112  4883ec08       REX.W subq rsp,0x8
0x165864f41414   116  4883e4f0       REX.W andq rsp,0xf0
0x165864f41418   120  4c891424       REX.W movq [rsp],r10
0x165864f4141c   124  488bf8         REX.W movq rdi,rax
0x165864f4141f   127  48be0000000003000000 REX.W movq rsi,0x300000000
0x165864f41429   137  48b800e7ed0000000000 REX.W movq rax,0xede700
0x165864f41433   147  ffd0           call rax
0x165864f41435   149  488b2424       REX.W movq rsp,[rsp]
0x165864f41439   153  488b75f8       REX.W movq rsi,[rbp-0x8]
0x165864f4143d   157  48bbe1089fcfdd1e0000 REX.W movq rbx,0x1eddcf9f08e1    ;; object: 0x1eddcf9f08e1 Cell for 6144
0x165864f41447   167  83430bd1       addl [rbx+0xb],0xd1
0x165864f4144b   171  791f           jns 204  (0x165864f4146c)
0x165864f4144d   173  50             push rax
0x165864f4144e   174  e8ed54ffff     call InterruptCheck  (0x165864f36940)    ;; code: BUILTIN
0x165864f41453   179  58             pop rax
0x165864f41454   180  48bbe1089fcfdd1e0000 REX.W movq rbx,0x1eddcf9f08e1    ;; object: 0x1eddcf9f08e1 Cell for 6144
0x165864f4145e   190  49ba0000000000180000 REX.W movq r10,0x180000000000
0x165864f41468   200  4c895307       REX.W movq [rbx+0x7],r10
0x165864f4146c   204  c9             leave                   ;; debug: statement 6600
0x165864f4146d   205  c20800         ret 0x8
0x165864f41470   208  498b45a8       REX.W movq rax,[r13-0x58]
0x165864f41474   212  e9c4ffffff     jmp 157  (0x165864f4143d)
0x165864f41479   217  0f1f8000000000 nop

Deoptimization Output Data (deopt points = 0)

Back edges (size = 0)
ast_id  pc_offset  loop_depth

0x1eddcf9f0921: [TypeFeedbackInfo]
 - ic_total_count: 0, ic_with_type_info_count: 0, ic_generic_count: 0

RelocInfo (size = 25)
0x165864f413a0  position  (6525)
0x165864f413b0  code target (BUILTIN)  (0x165864f36a80)
0x165864f413b4  statement position  (6529)
0x165864f413b4  position  (6542)
0x165864f413df  statement position  (6548)
0x165864f413ec  code target (STUB)  (0x165864f08ae0)
0x165864f413f0  statement position  (6571)
0x165864f413f0  position  (6590)
0x165864f4143f  embedded object  (0x1eddcf9f08e1 Cell for 6144)
0x165864f4144f  code target (BUILTIN)  (0x165864f36940)
0x165864f41456  embedded object  (0x1eddcf9f08e1 Cell for 6144)
0x165864f4146c  statement position  (6600)

--- End code ---
--- Code ---
kind = TO_BOOLEAN_IC
major_key = <NoCache>Stub
ic_state = MONOMORPHIC
extra_ic_state = 33
type = NORMAL
name = ToBooleanStub
compiler = crankshaft
Instructions (size = 140)
0x165864f41580     0  493b45a8       REX.W cmpq rax,[r13-0x58]
0x165864f41584     4  0f8428000000   jz 50  (0x165864f415b2)
0x165864f4158a    10  a801           test al,0x1
0x165864f4158c    12  0f8436000000   jz 72  (0x165864f415c8)
0x165864f41592    18  4c8b50ff       REX.W movq r10,[rax-0x1]
0x165864f41596    22  41807a0b80     cmpb [r10+0xb],0x80
0x165864f4159b    27  7310           jnc 45  (0x165864f415ad)
0x165864f4159d    29  4883780f00     REX.W cmpq [rax+0xf],0x0
0x165864f415a2    34  0f8515000000   jnz 61  (0x165864f415bd)
0x165864f415a8    40  e905000000     jmp 50  (0x165864f415b2)
0x165864f415ad    45  e916000000     jmp 72  (0x165864f415c8)
0x165864f415b2    50  48b80000000000000000 REX.W movq rax,(nil)
0x165864f415bc    60  c3             ret
0x165864f415bd    61  48b80000000001000000 REX.W movq rax,0x100000000
0x165864f415c7    71  c3             ret
0x165864f415c8    72  49ba0060d06458160000 REX.W movq r10,0x165864d06000
0x165864f415d2    82  e800000000     call 87  (0x165864f415d7)
0x165864f415d7    87  4883ec10       REX.W subq rsp,0x10
0x165864f415db    91  ff742410       push [rsp+0x10]
0x165864f415df    95  4152           push r10
0x165864f415e1    97  4c8b55f8       REX.W movq r10,[rbp-0x8]
0x165864f415e5   101  4c89542418     REX.W movq [rsp+0x18],r10
0x165864f415ea   106  48896c2420     REX.W movq [rsp+0x20],rbp
0x165864f415ef   111  488d6c2420     REX.W leaq rbp,[rsp+0x20]
0x165864f415f4   116  49ba0000000006000000 REX.W movq r10,0x600000000
0x165864f415fe   126  4c89542410     REX.W movq [rsp+0x10],r10
0x165864f41603   131  c3             ret


Safepoints (size = 8)

RelocInfo (size = 0)

--- End code ---
--- Raw source ---
(D){
if((%IS_VAR(this)===null)||(this===(void 0)))throw MakeTypeError(15,"Array.prototype.join");
var q=(%_ToObject(this));
var w=(harmony_tolength?$toLength(q.length):(q.length>>>0));
return InnerArrayJoin(D,q,w);
}


--- Code ---
source_position = 5353
kind = FUNCTION
name = join
compiler = full-codegen
Instructions (size = 540)
0x165864f41680     0  55             push rbp                ;; debug: position 5353
0x165864f41681     1  4889e5         REX.W movq rbp,rsp
0x165864f41684     4  56             push rsi
0x165864f41685     5  57             push rdi
0x165864f41686     6  498b55a8       REX.W movq rdx,[r13-0x58]
0x165864f4168a    10  52             push rdx
0x165864f4168b    11  52             push rdx
0x165864f4168c    12  493ba548090000 REX.W cmpq rsp,[r13+0x948]
0x165864f41693    19  7305           jnc 26  (0x165864f4169a)
0x165864f41695    21  e8e653ffff     call StackCheck  (0x165864f36a80)    ;; code: BUILTIN
0x165864f4169a    26  488b4518       REX.W movq rax,[rbp+0x18]    ;; debug: statement 5358
                                                             ;; debug: position 5370
0x165864f4169e    30  eb0f           jmp 47  (0x165864f416af)
0x165864f416a0    32  493b45c0       REX.W cmpq rax,[r13-0x40]
0x165864f416a4    36  0f842e000000   jz 88  (0x165864f416d8)
0x165864f416aa    42  e90a000000     jmp 57  (0x165864f416b9)
0x165864f416af    47  493b45b8       REX.W cmpq rax,[r13-0x48]
0x165864f416b3    51  0f841f000000   jz 88  (0x165864f416d8)
0x165864f416b9    57  488b4518       REX.W movq rax,[rbp+0x18]    ;; debug: position 5386
0x165864f416bd    61  eb0f           jmp 78  (0x165864f416ce)
0x165864f416bf    63  493b45c0       REX.W cmpq rax,[r13-0x40]
0x165864f416c3    67  0f840f000000   jz 88  (0x165864f416d8)
0x165864f416c9    73  e97c000000     jmp 202  (0x165864f4174a)
0x165864f416ce    78  493b45a8       REX.W cmpq rax,[r13-0x58]
0x165864f416d2    82  0f8572000000   jnz 202  (0x165864f4174a)
0x165864f416d8    88  48b9b92e98cfdd1e0000 REX.W movq rcx,0x1eddcf982eb9    ;; debug: statement 5403
                                                             ;; debug: position 5409
                                                             ;; object: 0x1eddcf982eb9 <String[13]: MakeTypeError>
0x165864f416e2    98  488b5627       REX.W movq rdx,[rsi+0x27]
0x165864f416e6   102  48b80000000006000000 REX.W movq rax,0x600000000
0x165864f416f0   112  e86b6efeff     call 0x165864f28560     ;; code: contextual, LOAD_IC, DEFAULT
0x165864f416f5   117  50             push rax
0x165864f416f6   118  49ba894190cfdd1e0000 REX.W movq r10,0x1eddcf904189    ;; object: 0x1eddcf904189 <undefined>
0x165864f41700   128  4152           push r10
0x165864f41702   130  49ba000000000f000000 REX.W movq r10,0xf00000000
0x165864f4170c   140  4152           push r10
0x165864f4170e   142  49baa90a9fcfdd1e0000 REX.W movq r10,0x1eddcf9f0aa9    ;; object: 0x1eddcf9f0aa9 <String[20]: Array.prototype.join>
0x165864f41718   152  4152           push r10
0x165864f4171a   154  48ba0000000004000000 REX.W movq rdx,0x400000000
0x165864f41724   164  488b7c2418     REX.W movq rdi,[rsp+0x18]
0x165864f41729   169  e8d220fdff     call 0x165864f13800     ;; code: CALL_IC, DEFAULT
0x165864f4172e   174  488b75f8       REX.W movq rsi,[rbp-0x8]
0x165864f41732   178  48890424       REX.W movq [rsp],rax
0x165864f41736   182  b801000000     movl rax,0x1            ;; debug: position 5403
0x165864f4173b   187  48bb9038290100000000 REX.W movq rbx,0x1293890
0x165864f41745   197  e89673fcff     call 0x165864f08ae0     ;; code: STUB, CEntryStub, minor: 0
0x165864f4174a   202  488b4518       REX.W movq rax,[rbp+0x18]    ;; debug: statement 5451
                                                             ;; debug: position 5469
0x165864f4174e   206  e8ad80fcff     call 0x165864f09800     ;; code: STUB, ToObjectStub, minor: 0
0x165864f41753   211  488945e8       REX.W movq [rbp-0x18],rax    ;; debug: position 5451
0x165864f41757   215  48b9519394cfdd1e0000 REX.W movq rcx,0x1eddcf949351    ;; debug: statement 5477
                                                             ;; debug: position 5484
                                                             ;; object: 0x1eddcf949351 <String[16]: harmony_tolength>
0x165864f41761   225  488b5627       REX.W movq rdx,[rsi+0x27]
0x165864f41765   229  48b80000000008000000 REX.W movq rax,0x800000000
0x165864f4176f   239  e8ec6dfeff     call 0x165864f28560     ;; code: contextual, LOAD_IC, DEFAULT
0x165864f41774   244  e8673efeff     call 0x165864f255e0     ;; code: TO_BOOLEAN_IC, UNINITIALIZED (id = 86)
0x165864f41779   249  4885c0         REX.W testq rax,rax
0x165864f4177c   252  0f846c000000   jz 366  (0x165864f417ee)
0x165864f41782   258  48b9d19294cfdd1e0000 REX.W movq rcx,0x1eddcf9492d1    ;; debug: position 5501
                                                             ;; object: 0x1eddcf9492d1 <String[9]: $toLength>
0x165864f4178c   268  488b5627       REX.W movq rdx,[rsi+0x27]
0x165864f41790   272  48b8000000000c000000 REX.W movq rax,0xc00000000
0x165864f4179a   282  e8c16dfeff     call 0x165864f28560     ;; code: contextual, LOAD_IC, DEFAULT
0x165864f4179f   287  50             push rax
0x165864f417a0   288  49ba894190cfdd1e0000 REX.W movq r10,0x1eddcf904189    ;; object: 0x1eddcf904189 <undefined>
0x165864f417aa   298  4152           push r10
0x165864f417ac   300  488b45e8       REX.W movq rax,[rbp-0x18]    ;; debug: position 5511
0x165864f417b0   304  488bd0         REX.W movq rdx,rax
0x165864f417b3   307  48b9710799cfdd1e0000 REX.W movq rcx,0x1eddcf990771    ;; debug: position 5512
                                                             ;; object: 0x1eddcf990771 <String[6]: length>
0x165864f417bd   317  48b8000000000e000000 REX.W movq rax,0xe00000000
0x165864f417c7   327  e89408ffff     call 0x165864f32060     ;; code: contextual, LOAD_IC, DEFAULT
0x165864f417cc   332  50             push rax
0x165864f417cd   333  48ba000000000a000000 REX.W movq rdx,0xa00000000    ;; debug: position 5501
0x165864f417d7   343  488b7c2410     REX.W movq rdi,[rsp+0x10]
0x165864f417dc   348  e85f07ffff     call 0x165864f31f40     ;; code: CALL_IC, DEFAULT
0x165864f417e1   353  488b75f8       REX.W movq rsi,[rbp-0x8]
0x165864f417e5   357  4883c408       REX.W addq rsp,0x8
0x165864f417e9   361  e932000000     jmp 416  (0x165864f41820)
0x165864f417ee   366  488b45e8       REX.W movq rax,[rbp-0x18]    ;; debug: position 5522
0x165864f417f2   370  488bd0         REX.W movq rdx,rax
0x165864f417f5   373  48b9710799cfdd1e0000 REX.W movq rcx,0x1eddcf990771    ;; debug: position 5523
                                                             ;; object: 0x1eddcf990771 <String[6]: length>
0x165864f417ff   383  48b80000000010000000 REX.W movq rax,0x1000000000
0x165864f41809   393  e85208ffff     call 0x165864f32060     ;; code: contextual, LOAD_IC, DEFAULT
0x165864f4180e   398  50             push rax
0x165864f4180f   399  48b80000000000000000 REX.W movq rax,(nil)
0x165864f41819   409  5a             pop rdx                 ;; debug: position 5530
0x165864f4181a   410  e861b3fcff     call 0x165864f0cb80     ;; code: BINARY_OP_IC, UNINITIALIZED (id = 108)
0x165864f4181f   415  90             nop
0x165864f41820   416  488945e0       REX.W movq [rbp-0x20],rax    ;; debug: position 5477
0x165864f41824   420  488bc6         REX.W movq rax,rsi      ;; debug: statement 5538
                                                             ;; debug: position 5545
0x165864f41827   423  ffb0ef000000   push [rax+0xef]
0x165864f4182d   429  41ff75a8       push [r13-0x58]
0x165864f41831   433  ff7510         push [rbp+0x10]         ;; debug: position 5560
0x165864f41834   436  ff75e8         push [rbp-0x18]         ;; debug: position 5562
0x165864f41837   439  ff75e0         push [rbp-0x20]         ;; debug: position 5564
0x165864f4183a   442  48ba0000000012000000 REX.W movq rdx,0x1200000000    ;; debug: position 5545
0x165864f41844   452  488b7c2420     REX.W movq rdi,[rsp+0x20]
0x165864f41849   457  e85263fdff     call 0x165864f17ba0     ;; code: CALL_IC, DEFAULT
0x165864f4184e   462  488b75f8       REX.W movq rsi,[rbp-0x8]
0x165864f41852   466  4883c408       REX.W addq rsp,0x8
0x165864f41856   470  48bb890b9fcfdd1e0000 REX.W movq rbx,0x1eddcf9f0b89    ;; object: 0x1eddcf9f0b89 Cell for 6144
0x165864f41860   480  83430bd1       addl [rbx+0xb],0xd1
0x165864f41864   484  791f           jns 517  (0x165864f41885)
0x165864f41866   486  50             push rax
0x165864f41867   487  e8d450ffff     call InterruptCheck  (0x165864f36940)    ;; code: BUILTIN
0x165864f4186c   492  58             pop rax
0x165864f4186d   493  48bb890b9fcfdd1e0000 REX.W movq rbx,0x1eddcf9f0b89    ;; object: 0x1eddcf9f0b89 Cell for 6144
0x165864f41877   503  49ba0000000000180000 REX.W movq r10,0x180000000000
0x165864f41881   513  4c895307       REX.W movq [rbx+0x7],r10
0x165864f41885   517  c9             leave                   ;; debug: statement 5568
0x165864f41886   518  c21000         ret 0x10
0x165864f41889   521  498b45a8       REX.W movq rax,[r13-0x58]
0x165864f4188d   525  e9c4ffffff     jmp 470  (0x165864f41856)
0x165864f41892   530  660f1f440000   nop

Deoptimization Output Data (deopt points = 0)

Back edges (size = 0)
ast_id  pc_offset  loop_depth

0x1eddcf9f0c11: [TypeFeedbackInfo]
 - ic_total_count: 10, ic_with_type_info_count: 0, ic_generic_count: 0

RelocInfo (size = 100)
0x165864f41680  position  (5353)
0x165864f41696  code target (BUILTIN)  (0x165864f36a80)
0x165864f4169a  statement position  (5358)
0x165864f4169a  position  (5370)
0x165864f416b9  position  (5386)
0x165864f416d8  statement position  (5403)
0x165864f416d8  position  (5409)
0x165864f416da  embedded object  (0x1eddcf982eb9 <String[13]: MakeTypeError>)
0x165864f416f1  code target (LOAD_IC)  (0x165864f28560)
0x165864f416f8  embedded object  (0x1eddcf904189 <undefined>)
0x165864f41710  embedded object  (0x1eddcf9f0aa9 <String[20]: Array.prototype.join>)
0x165864f4172a  code target (CALL_IC)  (0x165864f13800)
0x165864f41736  position  (5403)
0x165864f41746  code target (STUB)  (0x165864f08ae0)
0x165864f4174a  statement position  (5451)
0x165864f4174a  position  (5469)
0x165864f4174f  code target (STUB)  (0x165864f09800)
0x165864f41753  position  (5451)
0x165864f41757  statement position  (5477)
0x165864f41757  position  (5484)
0x165864f41759  embedded object  (0x1eddcf949351 <String[16]: harmony_tolength>)
0x165864f41770  code target (LOAD_IC)  (0x165864f28560)
0x165864f41775  code target with id (TO_BOOLEAN_IC)  (0x165864f255e0) (id=86)
0x165864f41782  position  (5501)
0x165864f41784  embedded object  (0x1eddcf9492d1 <String[9]: $toLength>)
0x165864f4179b  code target (LOAD_IC)  (0x165864f28560)
0x165864f417a2  embedded object  (0x1eddcf904189 <undefined>)
0x165864f417ac  position  (5511)
0x165864f417b3  position  (5512)
0x165864f417b5  embedded object  (0x1eddcf990771 <String[6]: length>)
0x165864f417c8  code target (LOAD_IC)  (0x165864f32060)
0x165864f417cd  position  (5501)
0x165864f417dd  code target (CALL_IC)  (0x165864f31f40)
0x165864f417ee  position  (5522)
0x165864f417f5  position  (5523)
0x165864f417f7  embedded object  (0x1eddcf990771 <String[6]: length>)
0x165864f4180a  code target (LOAD_IC)  (0x165864f32060)
0x165864f41819  position  (5530)
0x165864f4181b  code target with id (BINARY_OP_IC)  (0x165864f0cb80) (id=108)
0x165864f41820  position  (5477)
0x165864f41824  statement position  (5538)
0x165864f41824  position  (5545)
0x165864f41831  position  (5560)
0x165864f41834  position  (5562)
0x165864f41837  position  (5564)
0x165864f4183a  position  (5545)
0x165864f4184a  code target (CALL_IC)  (0x165864f17ba0)
0x165864f41858  embedded object  (0x1eddcf9f0b89 Cell for 6144)
0x165864f41868  code target (BUILTIN)  (0x165864f36940)
0x165864f4186f  embedded object  (0x1eddcf9f0b89 Cell for 6144)
0x165864f41885  statement position  (5568)

--- End code ---
--- Raw source ---
(D,q,w){
if((D===(void 0))){
D=',';
}else{
D=(%_ToString(D));
}
var O=%_FastOneByteArrayJoin(q,D);
if(!(O===(void 0)))return O;
if(w===1){
var v=q[0];
if((v==null))return'';
return(%_ToString(v));
}
return Join(q,w,D,ConvertToString);
}


--- Code ---
source_position = 5098
kind = FUNCTION
name = InnerArrayJoin
compiler = full-codegen
Instructions (size = 1324)
0x165864f41900     0  55             push rbp                ;; debug: position 5098
0x165864f41901     1  4889e5         REX.W movq rbp,rsp
0x165864f41904     4  56             push rsi
0x165864f41905     5  57             push rdi
0x165864f41906     6  498b55a8       REX.W movq rdx,[r13-0x58]
0x165864f4190a    10  52             push rdx
0x165864f4190b    11  52             push rdx
0x165864f4190c    12  493ba548090000 REX.W cmpq rsp,[r13+0x948]
0x165864f41913    19  7305           jnc 26  (0x165864f4191a)
0x165864f41915    21  e86651ffff     call StackCheck  (0x165864f36a80)    ;; code: BUILTIN
0x165864f4191a    26  488b4520       REX.W movq rax,[rbp+0x20]    ;; debug: statement 5107
                                                             ;; debug: position 5111
0x165864f4191e    30  eb0f           jmp 47  (0x165864f4192f)
0x165864f41920    32  493b45c0       REX.W cmpq rax,[r13-0x40]
0x165864f41924    36  0f840f000000   jz 57  (0x165864f41939)
0x165864f4192a    42  e91d000000     jmp 76  (0x165864f4194c)
0x165864f4192f    47  493b45a8       REX.W cmpq rax,[r13-0x58]
0x165864f41933    51  0f8513000000   jnz 76  (0x165864f4194c)
0x165864f41939    57  48b8b10c9fcfdd1e0000 REX.W movq rax,0x1eddcf9f0cb1    ;; debug: statement 5127
                                                             ;; debug: position 5128
                                                             ;; object: 0x1eddcf9f0cb1 <String[1]: ,>
0x165864f41943    67  48894520       REX.W movq [rbp+0x20],rax
0x165864f41947    71  e90d000000     jmp 89  (0x165864f41959)
0x165864f4194c    76  488b4520       REX.W movq rax,[rbp+0x20]    ;; debug: statement 5141
                                                             ;; debug: position 5155
0x165864f41950    80  e88bbafeff     call 0x165864f2d3e0     ;; code: STUB, ToStringStub, minor: 0
0x165864f41955    85  48894520       REX.W movq [rbp+0x20],rax    ;; debug: position 5142
0x165864f41959    89  ff7520         push [rbp+0x20]         ;; debug: statement 5162
                                                             ;; debug: position 5193
0x165864f4195c    92  488b4518       REX.W movq rax,[rbp+0x18]    ;; debug: position 5191
0x165864f41960    96  4883ec10       REX.W subq rsp,0x10
0x165864f41964   100  fc             cld
0x165864f41965   101  a801           test al,0x1
0x165864f41967   103  0f84c4010000   jz 561  (0x165864f41b31)
0x165864f4196d   109  488b58ff       REX.W movq rbx,[rax-0x1]
0x165864f41971   113  807b0bbe       cmpb [rbx+0xb],0xbe
0x165864f41975   117  0f85b6010000   jnz 561  (0x165864f41b31)
0x165864f4197b   123  807b0d1f       cmpb [rbx+0xd],0x1f
0x165864f4197f   127  0f87ac010000   ja 561  (0x165864f41b31)
0x165864f41985   133  488b7817       REX.W movq rdi,[rax+0x17]
0x165864f41989   137  4885ff         REX.W testq rdi,rdi
0x165864f4198c   140  0f8509000000   jnz 155  (0x165864f4199b)
0x165864f41992   146  498b45d0       REX.W movq rax,[r13-0x30]
0x165864f41996   150  e94f030000     jmp 1002  (0x165864f41cea)
0x165864f4199b   155  48c1ef20       REX.W shrq rdi, 32
0x165864f4199f   159  893c24         movl [rsp],rdi
0x165864f419a2   162  488b400f       REX.W movq rax,[rax+0xf]
0x165864f419a6   166  33d2           xorl rdx,rdx
0x165864f419a8   168  33c9           xorl rcx,rcx
0x165864f419aa   170  488b74d00f     REX.W movq rsi,[rax+rdx*8+0xf]
0x165864f419af   175  40f6c601       testb rsi,0x1
0x165864f419b3   179  0f8478010000   jz 561  (0x165864f41b31)
0x165864f419b9   185  488b5eff       REX.W movq rbx,[rsi-0x1]
0x165864f419bd   189  0fb65b0b       movzxbl rbx,[rbx+0xb]
0x165864f419c1   193  80e387         cmpb bl,0x87
0x165864f419c4   196  80fb04         cmpb bl,0x4
0x165864f419c7   199  0f8564010000   jnz 561  (0x165864f41b31)
0x165864f419cd   205  034e13         addl rcx,[rsi+0x13]
0x165864f419d0   208  0f805b010000   jo 561  (0x165864f41b31)
0x165864f419d6   214  ffc2           incl rdx
0x165864f419d8   216  3bd7           cmpl rdx,rdi
0x165864f419da   218  0f8ccaffffff   jl 170  (0x165864f419aa)
0x165864f419e0   224  83ff01         cmpl rdi,0x1
0x165864f419e3   227  0f8509000000   jnz 242  (0x165864f419f2)
0x165864f419e9   233  488b400f       REX.W movq rax,[rax+0xf]
0x165864f419ed   237  e9f8020000     jmp 1002  (0x165864f41cea)
0x165864f419f2   242  488b742410     REX.W movq rsi,[rsp+0x10]
0x165864f419f7   247  40f6c601       testb rsi,0x1
0x165864f419fb   251  0f8430010000   jz 561  (0x165864f41b31)
0x165864f41a01   257  488b5eff       REX.W movq rbx,[rsi-0x1]
0x165864f41a05   261  0fb65b0b       movzxbl rbx,[rbx+0xb]
0x165864f41a09   265  80e387         cmpb bl,0x87
0x165864f41a0c   268  80fb04         cmpb bl,0x4
0x165864f41a0f   271  0f851c010000   jnz 561  (0x165864f41b31)
0x165864f41a15   277  8b5e13         movl rbx,[rsi+0x13]
0x165864f41a18   280  ffca           decl rdx
0x165864f41a1a   282  0fafda         imull rbx,rdx
0x165864f41a1d   285  0f800e010000   jo 561  (0x165864f41b31)
0x165864f41a23   291  03cb           addl rcx,rbx
0x165864f41a25   293  0f8006010000   jo 561  (0x165864f41b31)
0x165864f41a2b   299  8bd9           movl rbx,rcx
0x165864f41a2d   301  4883c307       REX.W addq rbx,0x7
0x165864f41a31   305  4883e3f8       REX.W andq rbx,0xf8
0x165864f41a35   309  488d141d18000000 REX.W leaq rdx,[rbx*1+0x18]
0x165864f41a3d   317  498db5900c0000 REX.W leaq rsi,[r13+0xc90]
0x165864f41a44   324  488b3e         REX.W movq rdi,[rsi]
0x165864f41a47   327  4803d7         REX.W addq rdx,rdi
0x165864f41a4a   330  0f82e1000000   jc 561  (0x165864f41b31)
0x165864f41a50   336  493b95980c0000 REX.W cmpq rdx,[r13+0xc98]
0x165864f41a57   343  0f87d4000000   ja 561  (0x165864f41b31)
0x165864f41a5d   349  488916         REX.W movq [rsi],rdx
0x165864f41a60   352  4883c701       REX.W addq rdi,0x1
0x165864f41a64   356  4d8b95a0000000 REX.W movq r10,[r13+0xa0]
0x165864f41a6b   363  4c8957ff       REX.W movq [rdi-0x1],r10
0x165864f41a6f   367  8bd9           movl rbx,rcx
0x165864f41a71   369  48c1e320       REX.W shlq rbx, 32
0x165864f41a75   373  48895f0f       REX.W movq [rdi+0xf],rbx
0x165864f41a79   377  48c7470703000000 REX.W movq [rdi+0x7],0x3
0x165864f41a81   385  48897c2408     REX.W movq [rsp+0x8],rdi
0x165864f41a86   390  488d7f17       REX.W leaq rdi,[rdi+0x17]
0x165864f41a8a   394  488b742410     REX.W movq rsi,[rsp+0x10]
0x165864f41a8f   399  837e1301       cmpl [rsi+0x13],0x1
0x165864f41a93   403  0f84a1000000   jz 570  (0x165864f41b3a)
0x165864f41a99   409  0f8f34010000   jg 723  (0x165864f41bd3)
0x165864f41a9f   415  33d2           xorl rdx,rdx
0x165864f41aa1   417  8b1c24         movl rbx,[rsp]
0x165864f41aa4   420  e97b000000     jmp 548  (0x165864f41b24)
0x165864f41aa9   425  488b74d00f     REX.W movq rsi,[rax+rdx*8+0xf]
0x165864f41aae   430  8b4e13         movl rcx,[rsi+0x13]
0x165864f41ab1   433  488d7617       REX.W leaq rsi,[rsi+0x17]
0x165864f41ab5   437  83f908         cmpl rcx,0x8
0x165864f41ab8   440  7250           jc 522  (0x165864f41b0a)
0x165864f41aba   442  83f910         cmpl rcx,0x10
0x165864f41abd   445  7636           jna 501  (0x165864f41af5)
0x165864f41abf   447  83f918         cmpl rcx,0x18
0x165864f41ac2   450  7629           jna 493  (0x165864f41aed)
0x165864f41ac4   452  83f920         cmpl rcx,0x20
0x165864f41ac7   455  761c           jna 485  (0x165864f41ae5)
0x165864f41ac9   457  4c8bd1         REX.W movq r10,rcx
0x165864f41acc   460  c1e903         shrl rcx, 3
0x165864f41acf   463  f348a5         REX.W rep REX.W movsq
0x165864f41ad2   466  4183e207       andl r10,0x7
0x165864f41ad6   470  4a8b4c16f8     REX.W movq rcx,[rsi+r10*1-0x8]
0x165864f41adb   475  4a894c17f8     REX.W movq [rdi+r10*1-0x8],rcx
0x165864f41ae0   480  4903fa         REX.W addq rdi,r10
0x165864f41ae3   483  eb3d           jmp 546  (0x165864f41b22)
0x165864f41ae5   485  4c8b5610       REX.W movq r10,[rsi+0x10]
0x165864f41ae9   489  4c895710       REX.W movq [rdi+0x10],r10
0x165864f41aed   493  4c8b5608       REX.W movq r10,[rsi+0x8]
0x165864f41af1   497  4c895708       REX.W movq [rdi+0x8],r10
0x165864f41af5   501  4c8b16         REX.W movq r10,[rsi]
0x165864f41af8   504  4c8917         REX.W movq [rdi],r10
0x165864f41afb   507  4c8b540ef8     REX.W movq r10,[rsi+rcx*1-0x8]
0x165864f41b00   512  4c89540ff8     REX.W movq [rdi+rcx*1-0x8],r10
0x165864f41b05   517  4803f9         REX.W addq rdi,rcx
0x165864f41b08   520  eb18           jmp 546  (0x165864f41b22)
0x165864f41b0a   522  85c9           testl rcx,rcx
0x165864f41b0c   524  7414           jz 546  (0x165864f41b22)
0x165864f41b0e   526  448a16         movb r10l,[rsi]
0x165864f41b11   529  448817         movb [rdi],r10l
0x165864f41b14   532  48ffc6         REX.W incq rsi
0x165864f41b17   535  48ffc7         REX.W incq rdi
0x165864f41b1a   538  ffc9           decl rcx
0x165864f41b1c   540  0f85ecffffff   jnz 526  (0x165864f41b0e)
0x165864f41b22   546  ffc2           incl rdx
0x165864f41b24   548  3bd3           cmpl rdx,rbx
0x165864f41b26   550  0f8c7dffffff   jl 425  (0x165864f41aa9)
0x165864f41b2c   556  e9b4010000     jmp 997  (0x165864f41ce5)
0x165864f41b31   561  498b45a8       REX.W movq rax,[r13-0x58]
0x165864f41b35   565  e9b0010000     jmp 1002  (0x165864f41cea)
0x165864f41b3a   570  0fb65e17       movzxbl rbx,[rsi+0x17]
0x165864f41b3e   574  33d2           xorl rdx,rdx
0x165864f41b40   576  e905000000     jmp 586  (0x165864f41b4a)
0x165864f41b45   581  881f           movb [rdi],bl
0x165864f41b47   583  48ffc7         REX.W incq rdi
0x165864f41b4a   586  488b74d00f     REX.W movq rsi,[rax+rdx*8+0xf]
0x165864f41b4f   591  8b4e13         movl rcx,[rsi+0x13]
0x165864f41b52   594  488d7617       REX.W leaq rsi,[rsi+0x17]
0x165864f41b56   598  83f908         cmpl rcx,0x8
0x165864f41b59   601  7250           jc 683  (0x165864f41bab)
0x165864f41b5b   603  83f910         cmpl rcx,0x10
0x165864f41b5e   606  7636           jna 662  (0x165864f41b96)
0x165864f41b60   608  83f918         cmpl rcx,0x18
0x165864f41b63   611  7629           jna 654  (0x165864f41b8e)
0x165864f41b65   613  83f920         cmpl rcx,0x20
0x165864f41b68   616  761c           jna 646  (0x165864f41b86)
0x165864f41b6a   618  4c8bd1         REX.W movq r10,rcx
0x165864f41b6d   621  c1e903         shrl rcx, 3
0x165864f41b70   624  f348a5         REX.W rep REX.W movsq
0x165864f41b73   627  4183e207       andl r10,0x7
0x165864f41b77   631  4a8b4c16f8     REX.W movq rcx,[rsi+r10*1-0x8]
0x165864f41b7c   636  4a894c17f8     REX.W movq [rdi+r10*1-0x8],rcx
0x165864f41b81   641  4903fa         REX.W addq rdi,r10
0x165864f41b84   644  eb3d           jmp 707  (0x165864f41bc3)
0x165864f41b86   646  4c8b5610       REX.W movq r10,[rsi+0x10]
0x165864f41b8a   650  4c895710       REX.W movq [rdi+0x10],r10
0x165864f41b8e   654  4c8b5608       REX.W movq r10,[rsi+0x8]
0x165864f41b92   658  4c895708       REX.W movq [rdi+0x8],r10
0x165864f41b96   662  4c8b16         REX.W movq r10,[rsi]
0x165864f41b99   665  4c8917         REX.W movq [rdi],r10
0x165864f41b9c   668  4c8b540ef8     REX.W movq r10,[rsi+rcx*1-0x8]
0x165864f41ba1   673  4c89540ff8     REX.W movq [rdi+rcx*1-0x8],r10
0x165864f41ba6   678  4803f9         REX.W addq rdi,rcx
0x165864f41ba9   681  eb18           jmp 707  (0x165864f41bc3)
0x165864f41bab   683  85c9           testl rcx,rcx
0x165864f41bad   685  7414           jz 707  (0x165864f41bc3)
0x165864f41baf   687  448a16         movb r10l,[rsi]
0x165864f41bb2   690  448817         movb [rdi],r10l
0x165864f41bb5   693  48ffc6         REX.W incq rsi
0x165864f41bb8   696  48ffc7         REX.W incq rdi
0x165864f41bbb   699  ffc9           decl rcx
0x165864f41bbd   701  0f85ecffffff   jnz 687  (0x165864f41baf)
0x165864f41bc3   707  ffc2           incl rdx
0x165864f41bc5   709  3b1424         cmpl rdx,[rsp]
0x165864f41bc8   712  0f8c77ffffff   jl 581  (0x165864f41b45)
0x165864f41bce   718  e912010000     jmp 997  (0x165864f41ce5)
0x165864f41bd3   723  8b1424         movl rdx,[rsp]
0x165864f41bd6   726  488d44d00f     REX.W leaq rax,[rax+rdx*8+0xf]
0x165864f41bdb   731  48f7da         REX.W negq rdx
0x165864f41bde   734  488b742410     REX.W movq rsi,[rsp+0x10]
0x165864f41be3   739  8b5e13         movl rbx,[rsi+0x13]
0x165864f41be6   742  488d7617       REX.W leaq rsi,[rsi+0x17]
0x165864f41bea   746  4889742410     REX.W movq [rsp+0x10],rsi
0x165864f41bef   751  e970000000     jmp 868  (0x165864f41c64)
0x165864f41bf4   756  488b742410     REX.W movq rsi,[rsp+0x10]
0x165864f41bf9   761  8bcb           movl rcx,rbx
0x165864f41bfb   763  83f908         cmpl rcx,0x8
0x165864f41bfe   766  7250           jc 848  (0x165864f41c50)
0x165864f41c00   768  83f910         cmpl rcx,0x10
0x165864f41c03   771  7636           jna 827  (0x165864f41c3b)
0x165864f41c05   773  83f918         cmpl rcx,0x18
0x165864f41c08   776  7629           jna 819  (0x165864f41c33)
0x165864f41c0a   778  83f920         cmpl rcx,0x20
0x165864f41c0d   781  761c           jna 811  (0x165864f41c2b)
0x165864f41c0f   783  4c8bd1         REX.W movq r10,rcx
0x165864f41c12   786  c1e903         shrl rcx, 3
0x165864f41c15   789  f348a5         REX.W rep REX.W movsq
0x165864f41c18   792  4183e207       andl r10,0x7
0x165864f41c1c   796  4a8b4c16f8     REX.W movq rcx,[rsi+r10*1-0x8]
0x165864f41c21   801  4a894c17f8     REX.W movq [rdi+r10*1-0x8],rcx
0x165864f41c26   806  4903fa         REX.W addq rdi,r10
0x165864f41c29   809  eb39           jmp 868  (0x165864f41c64)
0x165864f41c2b   811  4c8b5610       REX.W movq r10,[rsi+0x10]
0x165864f41c2f   815  4c895710       REX.W movq [rdi+0x10],r10
0x165864f41c33   819  4c8b5608       REX.W movq r10,[rsi+0x8]
0x165864f41c37   823  4c895708       REX.W movq [rdi+0x8],r10
0x165864f41c3b   827  4c8b16         REX.W movq r10,[rsi]
0x165864f41c3e   830  4c8917         REX.W movq [rdi],r10
0x165864f41c41   833  4c8b540ef8     REX.W movq r10,[rsi+rcx*1-0x8]
0x165864f41c46   838  4c89540ff8     REX.W movq [rdi+rcx*1-0x8],r10
0x165864f41c4b   843  4803f9         REX.W addq rdi,rcx
0x165864f41c4e   846  eb14           jmp 868  (0x165864f41c64)
0x165864f41c50   848  448a16         movb r10l,[rsi]
0x165864f41c53   851  448817         movb [rdi],r10l
0x165864f41c56   854  48ffc6         REX.W incq rsi
0x165864f41c59   857  48ffc7         REX.W incq rdi
0x165864f41c5c   860  ffc9           decl rcx
0x165864f41c5e   862  0f85ecffffff   jnz 848  (0x165864f41c50)
0x165864f41c64   868  488b34d0       REX.W movq rsi,[rax+rdx*8]
0x165864f41c68   872  8b4e13         movl rcx,[rsi+0x13]
0x165864f41c6b   875  488d7617       REX.W leaq rsi,[rsi+0x17]
0x165864f41c6f   879  83f908         cmpl rcx,0x8
0x165864f41c72   882  7250           jc 964  (0x165864f41cc4)
0x165864f41c74   884  83f910         cmpl rcx,0x10
0x165864f41c77   887  7636           jna 943  (0x165864f41caf)
0x165864f41c79   889  83f918         cmpl rcx,0x18
0x165864f41c7c   892  7629           jna 935  (0x165864f41ca7)
0x165864f41c7e   894  83f920         cmpl rcx,0x20
0x165864f41c81   897  761c           jna 927  (0x165864f41c9f)
0x165864f41c83   899  4c8bd1         REX.W movq r10,rcx
0x165864f41c86   902  c1e903         shrl rcx, 3
0x165864f41c89   905  f348a5         REX.W rep REX.W movsq
0x165864f41c8c   908  4183e207       andl r10,0x7
0x165864f41c90   912  4a8b4c16f8     REX.W movq rcx,[rsi+r10*1-0x8]
0x165864f41c95   917  4a894c17f8     REX.W movq [rdi+r10*1-0x8],rcx
0x165864f41c9a   922  4903fa         REX.W addq rdi,r10
0x165864f41c9d   925  eb3d           jmp 988  (0x165864f41cdc)
0x165864f41c9f   927  4c8b5610       REX.W movq r10,[rsi+0x10]
0x165864f41ca3   931  4c895710       REX.W movq [rdi+0x10],r10
0x165864f41ca7   935  4c8b5608       REX.W movq r10,[rsi+0x8]
0x165864f41cab   939  4c895708       REX.W movq [rdi+0x8],r10
0x165864f41caf   943  4c8b16         REX.W movq r10,[rsi]
0x165864f41cb2   946  4c8917         REX.W movq [rdi],r10
0x165864f41cb5   949  4c8b540ef8     REX.W movq r10,[rsi+rcx*1-0x8]
0x165864f41cba   954  4c89540ff8     REX.W movq [rdi+rcx*1-0x8],r10
0x165864f41cbf   959  4803f9         REX.W addq rdi,rcx
0x165864f41cc2   962  eb18           jmp 988  (0x165864f41cdc)
0x165864f41cc4   964  85c9           testl rcx,rcx
0x165864f41cc6   966  7414           jz 988  (0x165864f41cdc)
0x165864f41cc8   968  448a16         movb r10l,[rsi]
0x165864f41ccb   971  448817         movb [rdi],r10l
0x165864f41cce   974  48ffc6         REX.W incq rsi
0x165864f41cd1   977  48ffc7         REX.W incq rdi
0x165864f41cd4   980  ffc9           decl rcx
0x165864f41cd6   982  0f85ecffffff   jnz 968  (0x165864f41cc8)
0x165864f41cdc   988  48ffc2         REX.W incq rdx
0x165864f41cdf   991  0f850fffffff   jnz 756  (0x165864f41bf4)
0x165864f41ce5   997  488b442408     REX.W movq rax,[rsp+0x8]
0x165864f41cea  1002  4883c418       REX.W addq rsp,0x18
0x165864f41cee  1006  488b75f8       REX.W movq rsi,[rbp-0x8]
0x165864f41cf2  1010  488945e8       REX.W movq [rbp-0x18],rax    ;; debug: position 5162
0x165864f41cf6  1014  488b45e8       REX.W movq rax,[rbp-0x18]    ;; debug: statement 5197
                                                             ;; debug: position 5202
0x165864f41cfa  1018  eb0f           jmp 1035  (0x165864f41d0b)
0x165864f41cfc  1020  493b45c0       REX.W cmpq rax,[r13-0x40]
0x165864f41d00  1024  0f8446000000   jz 1100  (0x165864f41d4c)
0x165864f41d06  1030  e90a000000     jmp 1045  (0x165864f41d15)
0x165864f41d0b  1035  493b45a8       REX.W cmpq rax,[r13-0x58]
0x165864f41d0f  1039  0f8437000000   jz 1100  (0x165864f41d4c)
0x165864f41d15  1045  488b45e8       REX.W movq rax,[rbp-0x18]    ;; debug: statement 5216
                                                             ;; debug: position 5223
0x165864f41d19  1049  48bb210d9fcfdd1e0000 REX.W movq rbx,0x1eddcf9f0d21    ;; object: 0x1eddcf9f0d21 Cell for 6144
0x165864f41d23  1059  83430bd1       addl [rbx+0xb],0xd1
0x165864f41d27  1063  791f           jns 1096  (0x165864f41d48)
0x165864f41d29  1065  50             push rax
0x165864f41d2a  1066  e8114cffff     call InterruptCheck  (0x165864f36940)    ;; code: BUILTIN
0x165864f41d2f  1071  58             pop rax
0x165864f41d30  1072  48bb210d9fcfdd1e0000 REX.W movq rbx,0x1eddcf9f0d21    ;; object: 0x1eddcf9f0d21 Cell for 6144
0x165864f41d3a  1082  49ba0000000000180000 REX.W movq r10,0x180000000000
0x165864f41d44  1092  4c895307       REX.W movq [rbx+0x7],r10
0x165864f41d48  1096  c9             leave                   ;; debug: statement 5333
0x165864f41d49  1097  c22000         ret 0x20
0x165864f41d4c  1100  ff7510         push [rbp+0x10]         ;; debug: statement 5226
                                                             ;; debug: position 5229
0x165864f41d4f  1103  48b80000000001000000 REX.W movq rax,0x100000000
0x165864f41d59  1113  5a             pop rdx
0x165864f41d5a  1114  e8e195fdff     call 0x165864f1b340     ;; code: COMPARE_IC, UNINITIALIZED (id = 102)
0x165864f41d5f  1119  90             nop
0x165864f41d60  1120  eb0f           jmp 1137  (0x165864f41d71)
0x165864f41d62  1122  493b45c0       REX.W cmpq rax,[r13-0x40]
0x165864f41d66  1126  0f840e000000   jz 1146  (0x165864f41d7a)
0x165864f41d6c  1132  e96d000000     jmp 1246  (0x165864f41dde)
0x165864f41d71  1137  4885c0         REX.W testq rax,rax
0x165864f41d74  1140  0f8564000000   jnz 1246  (0x165864f41dde)
0x165864f41d7a  1146  ff7518         push [rbp+0x18]         ;; debug: statement 5237
                                                             ;; debug: position 5243
0x165864f41d7d  1149  48b80000000000000000 REX.W movq rax,(nil)
0x165864f41d87  1159  488bc8         REX.W movq rcx,rax
0x165864f41d8a  1162  5a             pop rdx
0x165864f41d8b  1163  48b80000000004000000 REX.W movq rax,0x400000000    ;; debug: position 5244
0x165864f41d95  1173  e826a3fdff     call 0x165864f1c0c0     ;; code: KEYED_LOAD_IC, DEFAULT
0x165864f41d9a  1178  488945e0       REX.W movq [rbp-0x20],rax    ;; debug: position 5237
0x165864f41d9e  1182  488b45e0       REX.W movq rax,[rbp-0x20]    ;; debug: statement 5249
                                                             ;; debug: position 5253
0x165864f41da2  1186  eb0f           jmp 1203  (0x165864f41db3)
0x165864f41da4  1188  493b45c0       REX.W cmpq rax,[r13-0x40]
0x165864f41da8  1192  0f8413000000   jz 1217  (0x165864f41dc1)
0x165864f41dae  1198  e91d000000     jmp 1232  (0x165864f41dd0)
0x165864f41db3  1203  e868aefcff     call 0x165864f0cc20     ;; code: COMPARE_NIL_IC, PREMONOMORPHIC (id = 136)
0x165864f41db8  1208  4885c0         REX.W testq rax,rax
0x165864f41dbb  1211  0f840f000000   jz 1232  (0x165864f41dd0)
0x165864f41dc1  1217  48b8e14290cfdd1e0000 REX.W movq rax,0x1eddcf9042e1    ;; debug: statement 5262
                                                             ;; object: 0x1eddcf9042e1 <String[0]: >
0x165864f41dcb  1227  e949ffffff     jmp 1049  (0x165864f41d19)
0x165864f41dd0  1232  488b45e0       REX.W movq rax,[rbp-0x20]    ;; debug: statement 5272
                                                             ;; debug: position 5290
0x165864f41dd4  1236  e807b6feff     call 0x165864f2d3e0     ;; code: STUB, ToStringStub, minor: 0
0x165864f41dd9  1241  e93bffffff     jmp 1049  (0x165864f41d19)
0x165864f41dde  1246  488bc6         REX.W movq rax,rsi      ;; debug: statement 5297
                                                             ;; debug: position 5304
0x165864f41de1  1249  ffb0a7000000   push [rax+0xa7]
0x165864f41de7  1255  41ff75a8       push [r13-0x58]
0x165864f41deb  1259  ff7518         push [rbp+0x18]         ;; debug: position 5309
0x165864f41dee  1262  ff7510         push [rbp+0x10]         ;; debug: position 5311
0x165864f41df1  1265  ff7520         push [rbp+0x20]         ;; debug: position 5313
0x165864f41df4  1268  488bc6         REX.W movq rax,rsi      ;; debug: position 5315
0x165864f41df7  1271  ffb0af000000   push [rax+0xaf]
0x165864f41dfd  1277  48ba0000000006000000 REX.W movq rdx,0x600000000    ;; debug: position 5304
0x165864f41e07  1287  488b7c2428     REX.W movq rdi,[rsp+0x28]
0x165864f41e0c  1292  e82f86feff     call 0x165864f2a440     ;; code: CALL_IC, DEFAULT
0x165864f41e11  1297  488b75f8       REX.W movq rsi,[rbp-0x8]
0x165864f41e15  1301  4883c408       REX.W addq rsp,0x8
0x165864f41e19  1305  e9fbfeffff     jmp 1049  (0x165864f41d19)
0x165864f41e1e  1310  498b45a8       REX.W movq rax,[r13-0x58]
0x165864f41e22  1314  e9f2feffff     jmp 1049  (0x165864f41d19)
0x165864f41e27  1319  90             nop

Deoptimization Output Data (deopt points = 0)

Back edges (size = 0)
ast_id  pc_offset  loop_depth

0x1eddcf9f0db1: [TypeFeedbackInfo]
 - ic_total_count: 4, ic_with_type_info_count: 0, ic_generic_count: 0

RelocInfo (size = 110)
0x165864f41900  position  (5098)
0x165864f41916  code target (BUILTIN)  (0x165864f36a80)
0x165864f4191a  statement position  (5107)
0x165864f4191a  position  (5111)
0x165864f41939  statement position  (5127)
0x165864f41939  position  (5128)
0x165864f4193b  embedded object  (0x1eddcf9f0cb1 <String[1]: ,>)
0x165864f4194c  statement position  (5141)
0x165864f4194c  position  (5155)
0x165864f41951  code target (STUB)  (0x165864f2d3e0)
0x165864f41955  position  (5142)
0x165864f41959  statement position  (5162)
0x165864f41959  position  (5193)
0x165864f4195c  position  (5191)
0x165864f41cf2  position  (5162)
0x165864f41cf6  statement position  (5197)
0x165864f41cf6  position  (5202)
0x165864f41d15  statement position  (5216)
0x165864f41d15  position  (5223)
0x165864f41d1b  embedded object  (0x1eddcf9f0d21 Cell for 6144)
0x165864f41d2b  code target (BUILTIN)  (0x165864f36940)
0x165864f41d32  embedded object  (0x1eddcf9f0d21 Cell for 6144)
0x165864f41d48  statement position  (5333)
0x165864f41d4c  statement position  (5226)
0x165864f41d4c  position  (5229)
0x165864f41d5b  code target with id (COMPARE_IC)  (0x165864f1b340) (id=102)
0x165864f41d7a  statement position  (5237)
0x165864f41d7a  position  (5243)
0x165864f41d8b  position  (5244)
0x165864f41d96  code target (KEYED_LOAD_IC)  (0x165864f1c0c0)
0x165864f41d9a  position  (5237)
0x165864f41d9e  statement position  (5249)
0x165864f41d9e  position  (5253)
0x165864f41db4  code target with id (COMPARE_NIL_IC)  (0x165864f0cc20) (id=136)
0x165864f41dc1  statement position  (5262)
0x165864f41dc3  embedded object  (0x1eddcf9042e1 <String[0]: >)
0x165864f41dd0  statement position  (5272)
0x165864f41dd0  position  (5290)
0x165864f41dd5  code target (STUB)  (0x165864f2d3e0)
0x165864f41dde  statement position  (5297)
0x165864f41dde  position  (5304)
0x165864f41deb  position  (5309)
0x165864f41dee  position  (5311)
0x165864f41df1  position  (5313)
0x165864f41df4  position  (5315)
0x165864f41dfd  position  (5304)
0x165864f41e0d  code target (CALL_IC)  (0x165864f2a440)

--- End code ---
--- Raw source ---
(q,w,D,C){
if(w==0)return'';
var K=(%_IsArray(q));
if(K){
if(!%PushIfAbsent(p,q))return'';
}
try{
if(UseSparseVariant(q,w,K,w)){
%NormalizeElements(q);
if(D.length==0){
return SparseJoin(q,w,C);
}else{
return SparseJoinWithSeparatorJS(q,w,C,D);
}
}
if(w==1){
var v=q[0];
if((typeof(v)==='string'))return v;
return C(v);
}
var F=new e(w);
if(D.length==0){
var J=0;
for(var u=0;u<w;u++){
var v=q[u];
if(!(typeof(v)==='string'))v=C(v);
F[J++]=v;
}
F.length=J;
var O=%_FastOneByteArrayJoin(F,'');
if(!(O===(void 0)))return O;
return %StringBuilderConcat(F,J,'');
}
if(!(typeof(q[0])==='number')){
for(var u=0;u<w;u++){
var v=q[u];
if(!(typeof(v)==='string'))v=C(v);
F[u]=v;
}
}else{
for(var u=0;u<w;u++){
var v=q[u];
if((typeof(v)==='number')){
v=%_NumberToString(v);
}else if(!(typeof(v)==='string')){
v=C(v);
}
F[u]=v;
}
}
var O=%_FastOneByteArrayJoin(F,D);
if(!(O===(void 0)))return O;
return %StringBuilderJoin(F,w,D);
}finally{
if(K)p.length=p.length-1;
}
}


--- Code ---
source_position = 1561
kind = FUNCTION
name = Join
compiler = full-codegen
Instructions (size = 4384)
0x165864f41ea0     0  55             push rbp                ;; debug: position 1561
0x165864f41ea1     1  4889e5         REX.W movq rbp,rsp
0x165864f41ea4     4  56             push rsi
0x165864f41ea5     5  57             push rdi
0x165864f41ea6     6  498b55a8       REX.W movq rdx,[r13-0x58]
0x165864f41eaa    10  52             push rdx
0x165864f41eab    11  52             push rdx
0x165864f41eac    12  52             push rdx
0x165864f41ead    13  52             push rdx
0x165864f41eae    14  52             push rdx
0x165864f41eaf    15  52             push rdx
0x165864f41eb0    16  493ba548090000 REX.W cmpq rsp,[r13+0x948]
0x165864f41eb7    23  7305           jnc 30  (0x165864f41ebe)
0x165864f41eb9    25  e8c24bffff     call StackCheck  (0x165864f36a80)    ;; code: BUILTIN
0x165864f41ebe    30  ff7520         push [rbp+0x20]         ;; debug: statement 1572
                                                             ;; debug: position 1575
0x165864f41ec1    33  48b80000000000000000 REX.W movq rax,(nil)
0x165864f41ecb    43  5a             pop rdx
0x165864f41ecc    44  e8af94feff     call 0x165864f2b380     ;; code: COMPARE_IC, UNINITIALIZED (id = 45)
0x165864f41ed1    49  90             nop
0x165864f41ed2    50  eb0f           jmp 67  (0x165864f41ee3)
0x165864f41ed4    52  493b45c0       REX.W cmpq rax,[r13-0x40]
0x165864f41ed8    56  0f840e000000   jz 76  (0x165864f41eec)
0x165864f41ede    62  e946000000     jmp 137  (0x165864f41f29)
0x165864f41ee3    67  4885c0         REX.W testq rax,rax
0x165864f41ee6    70  0f853d000000   jnz 137  (0x165864f41f29)
0x165864f41eec    76  48b8e14290cfdd1e0000 REX.W movq rax,0x1eddcf9042e1    ;; debug: statement 1580
                                                             ;; object: 0x1eddcf9042e1 <String[0]: >
0x165864f41ef6    86  48bb890f9fcfdd1e0000 REX.W movq rbx,0x1eddcf9f0f89    ;; object: 0x1eddcf9f0f89 Cell for 6144
0x165864f41f00    96  83430bff       addl [rbx+0xb],0xff
0x165864f41f04   100  791f           jns 133  (0x165864f41f25)
0x165864f41f06   102  50             push rax
0x165864f41f07   103  e8344affff     call InterruptCheck  (0x165864f36940)    ;; code: BUILTIN
0x165864f41f0c   108  58             pop rax
0x165864f41f0d   109  48bb890f9fcfdd1e0000 REX.W movq rbx,0x1eddcf9f0f89    ;; object: 0x1eddcf9f0f89 Cell for 6144
0x165864f41f17   119  49ba0000000000180000 REX.W movq r10,0x180000000000
0x165864f41f21   129  4c895307       REX.W movq [rbx+0x7],r10
0x165864f41f25   133  c9             leave                   ;; debug: statement 2518
0x165864f41f26   134  c22800         ret 0x28
0x165864f41f29   137  488b4528       REX.W movq rax,[rbp+0x28]    ;; debug: statement 1590
                                                             ;; debug: position 1607
0x165864f41f2d   141  a801           test al,0x1
0x165864f41f2f   143  0f841a000000   jz 175  (0x165864f41f4f)
0x165864f41f35   149  488b58ff       REX.W movq rbx,[rax-0x1]
0x165864f41f39   153  807b0bbe       cmpb [rbx+0xb],0xbe
0x165864f41f3d   157  0f850c000000   jnz 175  (0x165864f41f4f)
0x165864f41f43   163  48b8314290cfdd1e0000 REX.W movq rax,0x1eddcf904231    ;; object: 0x1eddcf904231 <true>
0x165864f41f4d   173  eb0a           jmp 185  (0x165864f41f59)
0x165864f41f4f   175  48b8994290cfdd1e0000 REX.W movq rax,0x1eddcf904299    ;; object: 0x1eddcf904299 <false>
0x165864f41f59   185  488945e8       REX.W movq [rbp-0x18],rax    ;; debug: position 1590
0x165864f41f5d   189  488b45e8       REX.W movq rax,[rbp-0x18]    ;; debug: statement 1612
                                                             ;; debug: position 1615
0x165864f41f61   193  e87a36feff     call 0x165864f255e0     ;; code: TO_BOOLEAN_IC, UNINITIALIZED (id = 75)
0x165864f41f66   198  4885c0         REX.W testq rax,rax
0x165864f41f69   201  0f843a000000   jz 265  (0x165864f41fa9)
0x165864f41f6f   207  488bc6         REX.W movq rax,rsi      ;; debug: statement 1619
                                                             ;; debug: position 1637
0x165864f41f72   210  ff707f         push [rax+0x7f]
0x165864f41f75   213  ff7528         push [rbp+0x28]         ;; debug: position 1639
0x165864f41f78   216  b802000000     movl rax,0x2
0x165864f41f7d   221  48bba05e260100000000 REX.W movq rbx,0x1265ea0
0x165864f41f87   231  e8546bfcff     call 0x165864f08ae0     ;; code: STUB, CEntryStub, minor: 0
0x165864f41f8c   236  e84f36feff     call 0x165864f255e0     ;; code: TO_BOOLEAN_IC, UNINITIALIZED (id = 88)
0x165864f41f91   241  4885c0         REX.W testq rax,rax
0x165864f41f94   244  0f850f000000   jnz 265  (0x165864f41fa9)
0x165864f41f9a   250  48b8e14290cfdd1e0000 REX.W movq rax,0x1eddcf9042e1    ;; debug: statement 1642
                                                             ;; object: 0x1eddcf9042e1 <String[0]: >
0x165864f41fa4   260  e94dffffff     jmp 86  (0x165864f41ef6)
0x165864f41fa9   265  e9bb000000     jmp 457  (0x165864f42069)    ;; debug: statement 1654
0x165864f41fae   270  e815000000     call 296  (0x165864f41fc8)
0x165864f41fb3   275  50             push rax
0x165864f41fb4   276  b801000000     movl rax,0x1
0x165864f41fb9   281  48bbd039290100000000 REX.W movq rbx,0x12939d0
0x165864f41fc3   291  e8186bfcff     call 0x165864f08ae0     ;; code: STUB, CEntryStub, minor: 0
0x165864f41fc8   296  5a             pop rdx
0x165864f41fc9   297  48b9411ef46458160000 REX.W movq rcx,0x165864f41e41    ;; object: 0x165864f41e41 <Code: FUNCTION>
0x165864f41fd3   307  482bd1         REX.W subq rdx,rcx
0x165864f41fd6   310  48c1e220       REX.W shlq rdx, 32
0x165864f41fda   314  52             push rdx
0x165864f41fdb   315  50             push rax
0x165864f41fdc   316  498b9538190000 REX.W movq rdx,[r13+0x1938]
0x165864f41fe3   323  52             push rdx
0x165864f41fe4   324  498b55b0       REX.W movq rdx,[r13-0x50]
0x165864f41fe8   328  49899538190000 REX.W movq [r13+0x1938],rdx
0x165864f41fef   335  488b45e8       REX.W movq rax,[rbp-0x18]    ;; debug: statement 2490
                                                             ;; debug: position 2493
0x165864f41ff3   339  e8e835feff     call 0x165864f255e0     ;; code: TO_BOOLEAN_IC, UNINITIALIZED (id = 853)
0x165864f41ff8   344  4885c0         REX.W testq rax,rax
0x165864f41ffb   347  0f844b000000   jz 428  (0x165864f4204c)
0x165864f42001   353  488bc6         REX.W movq rax,rsi      ;; debug: statement 2495
                                                             ;; debug: position 2495
0x165864f42004   356  ff707f         push [rax+0x7f]
0x165864f42007   359  488bc6         REX.W movq rax,rsi      ;; debug: position 2504
0x165864f4200a   362  488b407f       REX.W movq rax,[rax+0x7f]
0x165864f4200e   366  488bd0         REX.W movq rdx,rax
0x165864f42011   369  48b9710799cfdd1e0000 REX.W movq rcx,0x1eddcf990771    ;; debug: position 2505
                                                             ;; object: 0x1eddcf990771 <String[6]: length>
0x165864f4201b   379  48b80000000022000000 REX.W movq rax,0x2200000000
0x165864f42025   389  e83600ffff     call 0x165864f32060     ;; code: contextual, LOAD_IC, DEFAULT
0x165864f4202a   394  50             push rax
0x165864f4202b   395  48b80000000001000000 REX.W movq rax,0x100000000
0x165864f42035   405  5a             pop rdx                 ;; debug: position 2512
0x165864f42036   406  e8056afcff     call 0x165864f08a40     ;; code: BINARY_OP_IC, UNINITIALIZED (id = 871)
0x165864f4203b   411  90             nop
0x165864f4203c   412  48b9710799cfdd1e0000 REX.W movq rcx,0x1eddcf990771    ;; debug: position 2503
                                                             ;; object: 0x1eddcf990771 <String[6]: length>
0x165864f42046   422  5a             pop rdx
0x165864f42047   423  e83403ffff     call 0x165864f32380     ;; code: STORE_IC, UNINITIALIZED (id = 858)
0x165864f4204c   428  5a             pop rdx
0x165864f4204d   429  49899538190000 REX.W movq [r13+0x1938],rdx
0x165864f42054   436  58             pop rax
0x165864f42055   437  5a             pop rdx
0x165864f42056   438  48c1ea20       REX.W shrq rdx, 32
0x165864f4205a   442  48b9411ef46458160000 REX.W movq rcx,0x165864f41e41    ;; object: 0x165864f41e41 <Code: FUNCTION>
0x165864f42064   452  4803d1         REX.W addq rdx,rcx
0x165864f42067   455  ffe2           jmp rdx
0x165864f42069   457  56             push rsi
0x165864f4206a   458  488bc6         REX.W movq rax,rsi      ;; debug: statement 1659
                                                             ;; debug: position 1662
0x165864f4206d   461  ffb09f000000   push [rax+0x9f]
0x165864f42073   467  41ff75a8       push [r13-0x58]
0x165864f42077   471  ff7528         push [rbp+0x28]         ;; debug: position 1679
0x165864f4207a   474  ff7520         push [rbp+0x20]         ;; debug: position 1681
0x165864f4207d   477  ff75e8         push [rbp-0x18]         ;; debug: position 1683
0x165864f42080   480  ff7520         push [rbp+0x20]         ;; debug: position 1685
0x165864f42083   483  48ba0000000006000000 REX.W movq rdx,0x600000000    ;; debug: position 1662
0x165864f4208d   493  488b7c2428     REX.W movq rdi,[rsp+0x28]
0x165864f42092   498  e8a983feff     call 0x165864f2a440     ;; code: CALL_IC, DEFAULT
0x165864f42097   503  488b75f8       REX.W movq rsi,[rbp-0x8]
0x165864f4209b   507  4883c408       REX.W addq rsp,0x8
0x165864f4209f   511  e83c35feff     call 0x165864f255e0     ;; code: TO_BOOLEAN_IC, UNINITIALIZED (id = 107)
0x165864f420a4   516  4885c0         REX.W testq rax,rax
0x165864f420a7   519  0f84eb000000   jz 760  (0x165864f42198)
0x165864f420ad   525  ff7528         push [rbp+0x28]         ;; debug: statement 1690
                                                             ;; debug: position 1709
0x165864f420b0   528  b801000000     movl rax,0x1
0x165864f420b5   533  48bb607b260100000000 REX.W movq rbx,0x1267b60
0x165864f420bf   543  e81c6afcff     call 0x165864f08ae0     ;; code: STUB, CEntryStub, minor: 0
0x165864f420c4   548  488b4518       REX.W movq rax,[rbp+0x18]    ;; debug: statement 1713
                                                             ;; debug: position 1716
0x165864f420c8   552  488bd0         REX.W movq rdx,rax
0x165864f420cb   555  48b9710799cfdd1e0000 REX.W movq rcx,0x1eddcf990771    ;; debug: position 1717
                                                             ;; object: 0x1eddcf990771 <String[6]: length>
0x165864f420d5   565  48b80000000008000000 REX.W movq rax,0x800000000
0x165864f420df   575  e87cfffeff     call 0x165864f32060     ;; code: contextual, LOAD_IC, DEFAULT
0x165864f420e4   580  50             push rax
0x165864f420e5   581  48b80000000000000000 REX.W movq rax,(nil)
0x165864f420ef   591  5a             pop rdx
0x165864f420f0   592  e88b92feff     call 0x165864f2b380     ;; code: COMPARE_IC, UNINITIALIZED (id = 140)
0x165864f420f5   597  90             nop
0x165864f420f6   598  eb0f           jmp 615  (0x165864f42107)
0x165864f420f8   600  493b45c0       REX.W cmpq rax,[r13-0x40]
0x165864f420fc   604  0f840e000000   jz 624  (0x165864f42110)
0x165864f42102   610  e94e000000     jmp 693  (0x165864f42155)
0x165864f42107   615  4885c0         REX.W testq rax,rax
0x165864f4210a   618  0f8545000000   jnz 693  (0x165864f42155)
0x165864f42110   624  488bc6         REX.W movq rax,rsi      ;; debug: statement 1730
                                                             ;; debug: position 1737
0x165864f42113   627  ffb097000000   push [rax+0x97]
0x165864f42119   633  41ff75a8       push [r13-0x58]
0x165864f4211d   637  ff7528         push [rbp+0x28]         ;; debug: position 1748
0x165864f42120   640  ff7520         push [rbp+0x20]         ;; debug: position 1750
0x165864f42123   643  ff7510         push [rbp+0x10]         ;; debug: position 1752
0x165864f42126   646  48ba000000000a000000 REX.W movq rdx,0xa00000000    ;; debug: position 1737
0x165864f42130   656  488b7c2420     REX.W movq rdi,[rsp+0x20]
0x165864f42135   661  e8665afdff     call 0x165864f17ba0     ;; code: CALL_IC, DEFAULT
0x165864f4213a   666  488b75f8       REX.W movq rsi,[rbp-0x8]
0x165864f4213e   670  4883c408       REX.W addq rsp,0x8
0x165864f42142   674  4883c408       REX.W addq rsp,0x8
0x165864f42146   678  e87dfeffff     call 296  (0x165864f41fc8)
0x165864f4214b   683  e9a6fdffff     jmp 86  (0x165864f41ef6)
0x165864f42150   688  e943000000     jmp 760  (0x165864f42198)
0x165864f42155   693  488bc6         REX.W movq rax,rsi      ;; debug: statement 1763
                                                             ;; debug: position 1770
0x165864f42158   696  ffb08f000000   push [rax+0x8f]
0x165864f4215e   702  41ff75a8       push [r13-0x58]
0x165864f42162   706  ff7528         push [rbp+0x28]         ;; debug: position 1796
0x165864f42165   709  ff7520         push [rbp+0x20]         ;; debug: position 1798
0x165864f42168   712  ff7510         push [rbp+0x10]         ;; debug: position 1800
0x165864f4216b   715  ff7518         push [rbp+0x18]         ;; debug: position 1802
0x165864f4216e   718  48ba000000000c000000 REX.W movq rdx,0xc00000000    ;; debug: position 1770
0x165864f42178   728  488b7c2428     REX.W movq rdi,[rsp+0x28]
0x165864f4217d   733  e8be82feff     call 0x165864f2a440     ;; code: CALL_IC, DEFAULT
0x165864f42182   738  488b75f8       REX.W movq rsi,[rbp-0x8]
0x165864f42186   742  4883c408       REX.W addq rsp,0x8
0x165864f4218a   746  4883c408       REX.W addq rsp,0x8
0x165864f4218e   750  e835feffff     call 296  (0x165864f41fc8)
0x165864f42193   755  e95efdffff     jmp 86  (0x165864f41ef6)
0x165864f42198   760  ff7520         push [rbp+0x20]         ;; debug: statement 1810
                                                             ;; debug: position 1813
0x165864f4219b   763  48b80000000001000000 REX.W movq rax,0x100000000
0x165864f421a5   773  5a             pop rdx
0x165864f421a6   774  e8d591feff     call 0x165864f2b380     ;; code: COMPARE_IC, UNINITIALIZED (id = 201)
0x165864f421ab   779  90             nop
0x165864f421ac   780  eb0f           jmp 797  (0x165864f421bd)
0x165864f421ae   782  493b45c0       REX.W cmpq rax,[r13-0x40]
0x165864f421b2   786  0f840e000000   jz 806  (0x165864f421c6)
0x165864f421b8   792  e99e000000     jmp 955  (0x165864f4225b)
0x165864f421bd   797  4885c0         REX.W testq rax,rax
0x165864f421c0   800  0f8595000000   jnz 955  (0x165864f4225b)
0x165864f421c6   806  ff7528         push [rbp+0x28]         ;; debug: statement 1820
                                                             ;; debug: position 1826
0x165864f421c9   809  48b80000000000000000 REX.W movq rax,(nil)
0x165864f421d3   819  488bc8         REX.W movq rcx,rax
0x165864f421d6   822  5a             pop rdx
0x165864f421d7   823  48b8000000000e000000 REX.W movq rax,0xe00000000    ;; debug: position 1827
0x165864f421e1   833  e8da9efdff     call 0x165864f1c0c0     ;; code: KEYED_LOAD_IC, DEFAULT
0x165864f421e6   838  488945e0       REX.W movq [rbp-0x20],rax    ;; debug: position 1820
0x165864f421ea   842  488b45e0       REX.W movq rax,[rbp-0x20]    ;; debug: statement 1832
                                                             ;; debug: position 1843
0x165864f421ee   846  eb0f           jmp 863  (0x165864f421ff)
0x165864f421f0   848  493b45c0       REX.W cmpq rax,[r13-0x40]
0x165864f421f4   852  0f841b000000   jz 885  (0x165864f42215)
0x165864f421fa   858  e928000000     jmp 903  (0x165864f42227)
0x165864f421ff   863  a801           test al,0x1
0x165864f42201   865  0f8420000000   jz 903  (0x165864f42227)
0x165864f42207   871  488b50ff       REX.W movq rdx,[rax-0x1]
0x165864f4220b   875  807a0b80       cmpb [rdx+0xb],0x80
0x165864f4220f   879  0f8312000000   jnc 903  (0x165864f42227)
0x165864f42215   885  488b45e0       REX.W movq rax,[rbp-0x20]    ;; debug: statement 1858
                                                             ;; debug: position 1865
0x165864f42219   889  4883c408       REX.W addq rsp,0x8
0x165864f4221d   893  e8a6fdffff     call 296  (0x165864f41fc8)
0x165864f42222   898  e9cffcffff     jmp 86  (0x165864f41ef6)
0x165864f42227   903  ff7510         push [rbp+0x10]         ;; debug: statement 1868
                                                             ;; debug: position 1875
0x165864f4222a   906  41ff75a8       push [r13-0x58]
0x165864f4222e   910  ff75e0         push [rbp-0x20]         ;; debug: position 1877
0x165864f42231   913  48ba0000000010000000 REX.W movq rdx,0x1000000000    ;; debug: position 1875
0x165864f4223b   923  488b7c2410     REX.W movq rdi,[rsp+0x10]
0x165864f42240   928  e8fbfcfeff     call 0x165864f31f40     ;; code: CALL_IC, DEFAULT
0x165864f42245   933  488b75f8       REX.W movq rsi,[rbp-0x8]
0x165864f42249   937  4883c408       REX.W addq rsp,0x8
0x165864f4224d   941  4883c408       REX.W addq rsp,0x8
0x165864f42251   945  e872fdffff     call 296  (0x165864f41fc8)
0x165864f42256   950  e99bfcffff     jmp 86  (0x165864f41ef6)
0x165864f4225b   955  488bc6         REX.W movq rax,rsi      ;; debug: statement 1883
                                                             ;; debug: position 1893
0x165864f4225e   958  ff703f         push [rax+0x3f]
0x165864f42261   961  ff7520         push [rbp+0x20]         ;; debug: position 1895
0x165864f42264   964  b801000000     movl rax,0x1            ;; debug: position 1889
0x165864f42269   969  488b7c2408     REX.W movq rdi,[rsp+0x8]
0x165864f4226e   974  488b5df0       REX.W movq rbx,[rbp-0x10]
0x165864f42272   978  488b5b27       REX.W movq rbx,[rbx+0x27]
0x165864f42276   982  488b5b57       REX.W movq rbx,[rbx+0x57]
0x165864f4227a   986  48ba0000000005000000 REX.W movq rdx,0x500000000
0x165864f42284   996  e8b783fdff     call 0x165864f1a640     ;; code: constructor, STUB, CallConstructStub, minor: 1
0x165864f42289  1001  488b75f8       REX.W movq rsi,[rbp-0x8]
0x165864f4228d  1005  488945d8       REX.W movq [rbp-0x28],rax    ;; debug: position 1883
0x165864f42291  1009  488b4518       REX.W movq rax,[rbp+0x18]    ;; debug: statement 1899
                                                             ;; debug: position 1902
0x165864f42295  1013  488bd0         REX.W movq rdx,rax
0x165864f42298  1016  48b9710799cfdd1e0000 REX.W movq rcx,0x1eddcf990771    ;; debug: position 1903
                                                             ;; object: 0x1eddcf990771 <String[6]: length>
0x165864f422a2  1026  48b80000000012000000 REX.W movq rax,0x1200000000
0x165864f422ac  1036  e8affdfeff     call 0x165864f32060     ;; code: contextual, LOAD_IC, DEFAULT
0x165864f422b1  1041  50             push rax
0x165864f422b2  1042  48b80000000000000000 REX.W movq rax,(nil)
0x165864f422bc  1052  5a             pop rdx
0x165864f422bd  1053  e8be90feff     call 0x165864f2b380     ;; code: COMPARE_IC, UNINITIALIZED (id = 284)
0x165864f422c2  1058  90             nop
0x165864f422c3  1059  eb0f           jmp 1076  (0x165864f422d4)
0x165864f422c5  1061  493b45c0       REX.W cmpq rax,[r13-0x40]
0x165864f422c9  1065  0f840e000000   jz 1085  (0x165864f422dd)
0x165864f422cf  1071  e9b0050000     jmp 2532  (0x165864f42884)
0x165864f422d4  1076  4885c0         REX.W testq rax,rax
0x165864f422d7  1079  0f85a7050000   jnz 2532  (0x165864f42884)
0x165864f422dd  1085  48b80000000000000000 REX.W movq rax,(nil)    ;; debug: statement 1916
0x165864f422e7  1095  488945d0       REX.W movq [rbp-0x30],rax
0x165864f422eb  1099  48b80000000000000000 REX.W movq rax,(nil)    ;; debug: statement 1925
                                                             ;; debug: statement 1929
0x165864f422f5  1109  488945c8       REX.W movq [rbp-0x38],rax
0x165864f422f9  1113  e922010000     jmp 1408  (0x165864f42420)
0x165864f422fe  1118  ff7528         push [rbp+0x28]         ;; debug: statement 1947
                                                             ;; debug: position 1953
0x165864f42301  1121  488b45c8       REX.W movq rax,[rbp-0x38]    ;; debug: position 1955
0x165864f42305  1125  488bc8         REX.W movq rcx,rax
0x165864f42308  1128  5a             pop rdx
0x165864f42309  1129  48b80000000014000000 REX.W movq rax,0x1400000000    ;; debug: position 1954
0x165864f42313  1139  e8a89dfdff     call 0x165864f1c0c0     ;; code: KEYED_LOAD_IC, DEFAULT
0x165864f42318  1144  488945e0       REX.W movq [rbp-0x20],rax    ;; debug: position 1947
0x165864f4231c  1148  488b45e0       REX.W movq rax,[rbp-0x20]    ;; debug: statement 1959
                                                             ;; debug: position 1971
0x165864f42320  1152  eb0f           jmp 1169  (0x165864f42331)
0x165864f42322  1154  493b45c0       REX.W cmpq rax,[r13-0x40]
0x165864f42326  1158  0f8445000000   jz 1233  (0x165864f42371)
0x165864f4232c  1164  e916000000     jmp 1191  (0x165864f42347)
0x165864f42331  1169  a801           test al,0x1
0x165864f42333  1171  0f840e000000   jz 1191  (0x165864f42347)
0x165864f42339  1177  488b50ff       REX.W movq rdx,[rax-0x1]
0x165864f4233d  1181  807a0b80       cmpb [rdx+0xb],0x80
0x165864f42341  1185  0f822a000000   jc 1233  (0x165864f42371)
0x165864f42347  1191  ff7510         push [rbp+0x10]         ;; debug: statement 1986
                                                             ;; debug: position 1988
0x165864f4234a  1194  41ff75a8       push [r13-0x58]
0x165864f4234e  1198  ff75e0         push [rbp-0x20]         ;; debug: position 1990
0x165864f42351  1201  48ba0000000016000000 REX.W movq rdx,0x1600000000    ;; debug: position 1988
0x165864f4235b  1211  488b7c2410     REX.W movq rdi,[rsp+0x10]
0x165864f42360  1216  e8dbfbfeff     call 0x165864f31f40     ;; code: CALL_IC, DEFAULT
0x165864f42365  1221  488b75f8       REX.W movq rsi,[rbp-0x8]
0x165864f42369  1225  4883c408       REX.W addq rsp,0x8
0x165864f4236d  1229  488945e0       REX.W movq [rbp-0x20],rax    ;; debug: position 1987
0x165864f42371  1233  ff75d8         push [rbp-0x28]         ;; debug: statement 1994
                                                             ;; debug: position 1994
0x165864f42374  1236  488b45d0       REX.W movq rax,[rbp-0x30]    ;; debug: position 1996
0x165864f42378  1240  a801           test al,0x1
0x165864f4237a  1242  7315           jnc 1265  (0x165864f42391)
0x165864f4237c  1244  50             push rax
0x165864f4237d  1245  49ba0000000001000000 REX.W movq r10,0x100000000
0x165864f42387  1255  4903c2         REX.W addq rax,r10
0x165864f4238a  1258  711f           jno 1291  (0x165864f423ab)
0x165864f4238c  1260  492bc2         REX.W subq rax,r10
0x165864f4238f  1263  eb06           jmp 1271  (0x165864f42397)
0x165864f42391  1265  e86a0bfeff     call 0x165864f22f00     ;; code: STUB, ToNumberStub, minor: 0
0x165864f42396  1270  50             push rax
0x165864f42397  1271  488bd0         REX.W movq rdx,rax      ;; debug: position 1997
0x165864f4239a  1274  48b80000000001000000 REX.W movq rax,0x100000000
0x165864f423a4  1284  e8d761fdff     call 0x165864f18580     ;; code: BINARY_OP_IC, UNINITIALIZED (id = 420)
0x165864f423a9  1289  a82f           test al,0x2f
0x165864f423ab  1291  488945d0       REX.W movq [rbp-0x30],rax
0x165864f423af  1295  488b45e0       REX.W movq rax,[rbp-0x20]    ;; debug: position 2001
0x165864f423b3  1299  59             pop rcx                 ;; debug: position 2000
0x165864f423b4  1300  5a             pop rdx
0x165864f423b5  1301  e8e634ffff     call KeyedStoreIC_Initialize_Strict  (0x165864f358a0)    ;; code: KEYED_STORE_IC, UNINITIALIZED (id = 412)
0x165864f423ba  1306  488b45c8       REX.W movq rax,[rbp-0x38]    ;; debug: statement 1942
                                                             ;; debug: position 1941
0x165864f423be  1310  a801           test al,0x1
0x165864f423c0  1312  7314           jnc 1334  (0x165864f423d6)
0x165864f423c2  1314  49ba0000000001000000 REX.W movq r10,0x100000000
0x165864f423cc  1324  4903c2         REX.W addq rax,r10
0x165864f423cf  1327  711e           jno 1359  (0x165864f423ef)
0x165864f423d1  1329  492bc2         REX.W subq rax,r10
0x165864f423d4  1332  eb05           jmp 1339  (0x165864f423db)
0x165864f423d6  1334  e8250bfeff     call 0x165864f22f00     ;; code: STUB, ToNumberStub, minor: 0
0x165864f423db  1339  488bd0         REX.W movq rdx,rax      ;; debug: position 1942
0x165864f423de  1342  48b80000000001000000 REX.W movq rax,0x100000000
0x165864f423e8  1352  e89361fdff     call 0x165864f18580     ;; code: BINARY_OP_IC, UNINITIALIZED (id = 344)
0x165864f423ed  1357  a82d           test al,0x2d
0x165864f423ef  1359  488945c8       REX.W movq [rbp-0x38],rax
0x165864f423f3  1363  48bb890f9fcfdd1e0000 REX.W movq rbx,0x1eddcf9f0f89    ;; object: 0x1eddcf9f0f89 Cell for 6144
0x165864f423fd  1373  83430bff       addl [rbx+0xb],0xff
0x165864f42401  1377  791d           jns 1408  (0x165864f42420)
0x165864f42403  1379  e83845ffff     call InterruptCheck  (0x165864f36940)    ;; code: BUILTIN
0x165864f42408  1384  48bb890f9fcfdd1e0000 REX.W movq rbx,0x1eddcf9f0f89    ;; object: 0x1eddcf9f0f89 Cell for 6144
0x165864f42412  1394  49ba0000000000180000 REX.W movq r10,0x180000000000
0x165864f4241c  1404  4c895307       REX.W movq [rbx+0x7],r10
0x165864f42420  1408  ff75c8         push [rbp-0x38]         ;; debug: statement 1938
                                                             ;; debug: position 1937
0x165864f42423  1411  488b4520       REX.W movq rax,[rbp+0x20]    ;; debug: position 1939
0x165864f42427  1415  5a             pop rdx
0x165864f42428  1416  488bca         REX.W movq rcx,rdx
0x165864f4242b  1419  480bc8         REX.W orq rcx,rax
0x165864f4242e  1422  f6c101         testb rcx,0x1
0x165864f42431  1425  730e           jnc 1441  (0x165864f42441)
0x165864f42433  1427  483bd0         REX.W cmpq rdx,rax
0x165864f42436  1430  0f8cc2feffff   jl 1118  (0x165864f422fe)
0x165864f4243c  1436  e921000000     jmp 1474  (0x165864f42462)
0x165864f42441  1441  e87aa4fdff     call 0x165864f1c8c0     ;; code: COMPARE_IC, UNINITIALIZED (id = 333)
0x165864f42446  1446  a815           test al,0x15
0x165864f42448  1448  eb0f           jmp 1465  (0x165864f42459)
0x165864f4244a  1450  493b45c0       REX.W cmpq rax,[r13-0x40]
0x165864f4244e  1454  0f84aafeffff   jz 1118  (0x165864f422fe)
0x165864f42454  1460  e909000000     jmp 1474  (0x165864f42462)
0x165864f42459  1465  4885c0         REX.W testq rax,rax
0x165864f4245c  1468  0f8c9cfeffff   jl 1118  (0x165864f422fe)
0x165864f42462  1474  ff75d8         push [rbp-0x28]         ;; debug: statement 2006
                                                             ;; debug: position 2006
0x165864f42465  1477  488b45d0       REX.W movq rax,[rbp-0x30]    ;; debug: position 2015
0x165864f42469  1481  48b9710799cfdd1e0000 REX.W movq rcx,0x1eddcf990771    ;; debug: position 2014
                                                             ;; object: 0x1eddcf990771 <String[6]: length>
0x165864f42473  1491  5a             pop rdx
0x165864f42474  1492  e807fffeff     call 0x165864f32380     ;; code: STORE_IC, UNINITIALIZED (id = 434)
0x165864f42479  1497  49bae14290cfdd1e0000 REX.W movq r10,0x1eddcf9042e1    ;; debug: statement 2018
                                                             ;; object: 0x1eddcf9042e1 <String[0]: >
0x165864f42483  1507  4152           push r10
0x165864f42485  1509  488b45d8       REX.W movq rax,[rbp-0x28]    ;; debug: position 2047
0x165864f42489  1513  4883ec10       REX.W subq rsp,0x10
0x165864f4248d  1517  fc             cld
0x165864f4248e  1518  a801           test al,0x1
0x165864f42490  1520  0f84c4010000   jz 1978  (0x165864f4265a)
0x165864f42496  1526  488b58ff       REX.W movq rbx,[rax-0x1]
0x165864f4249a  1530  807b0bbe       cmpb [rbx+0xb],0xbe
0x165864f4249e  1534  0f85b6010000   jnz 1978  (0x165864f4265a)
0x165864f424a4  1540  807b0d1f       cmpb [rbx+0xd],0x1f
0x165864f424a8  1544  0f87ac010000   ja 1978  (0x165864f4265a)
0x165864f424ae  1550  488b7817       REX.W movq rdi,[rax+0x17]
0x165864f424b2  1554  4885ff         REX.W testq rdi,rdi
0x165864f424b5  1557  0f8509000000   jnz 1572  (0x165864f424c4)
0x165864f424bb  1563  498b45d0       REX.W movq rax,[r13-0x30]
0x165864f424bf  1567  e94f030000     jmp 2419  (0x165864f42813)
0x165864f424c4  1572  48c1ef20       REX.W shrq rdi, 32
0x165864f424c8  1576  893c24         movl [rsp],rdi
0x165864f424cb  1579  488b400f       REX.W movq rax,[rax+0xf]
0x165864f424cf  1583  33d2           xorl rdx,rdx
0x165864f424d1  1585  33c9           xorl rcx,rcx
0x165864f424d3  1587  488b74d00f     REX.W movq rsi,[rax+rdx*8+0xf]
0x165864f424d8  1592  40f6c601       testb rsi,0x1
0x165864f424dc  1596  0f8478010000   jz 1978  (0x165864f4265a)
0x165864f424e2  1602  488b5eff       REX.W movq rbx,[rsi-0x1]
0x165864f424e6  1606  0fb65b0b       movzxbl rbx,[rbx+0xb]
0x165864f424ea  1610  80e387         cmpb bl,0x87
0x165864f424ed  1613  80fb04         cmpb bl,0x4
0x165864f424f0  1616  0f8564010000   jnz 1978  (0x165864f4265a)
0x165864f424f6  1622  034e13         addl rcx,[rsi+0x13]
0x165864f424f9  1625  0f805b010000   jo 1978  (0x165864f4265a)
0x165864f424ff  1631  ffc2           incl rdx
0x165864f42501  1633  3bd7           cmpl rdx,rdi
0x165864f42503  1635  0f8ccaffffff   jl 1587  (0x165864f424d3)
0x165864f42509  1641  83ff01         cmpl rdi,0x1
0x165864f4250c  1644  0f8509000000   jnz 1659  (0x165864f4251b)
0x165864f42512  1650  488b400f       REX.W movq rax,[rax+0xf]
0x165864f42516  1654  e9f8020000     jmp 2419  (0x165864f42813)
0x165864f4251b  1659  488b742410     REX.W movq rsi,[rsp+0x10]
0x165864f42520  1664  40f6c601       testb rsi,0x1
0x165864f42524  1668  0f8430010000   jz 1978  (0x165864f4265a)
0x165864f4252a  1674  488b5eff       REX.W movq rbx,[rsi-0x1]
0x165864f4252e  1678  0fb65b0b       movzxbl rbx,[rbx+0xb]
0x165864f42532  1682  80e387         cmpb bl,0x87
0x165864f42535  1685  80fb04         cmpb bl,0x4
0x165864f42538  1688  0f851c010000   jnz 1978  (0x165864f4265a)
0x165864f4253e  1694  8b5e13         movl rbx,[rsi+0x13]
0x165864f42541  1697  ffca           decl rdx
0x165864f42543  1699  0fafda         imull rbx,rdx
0x165864f42546  1702  0f800e010000   jo 1978  (0x165864f4265a)
0x165864f4254c  1708  03cb           addl rcx,rbx
0x165864f4254e  1710  0f8006010000   jo 1978  (0x165864f4265a)
0x165864f42554  1716  8bd9           movl rbx,rcx
0x165864f42556  1718  4883c307       REX.W addq rbx,0x7
0x165864f4255a  1722  4883e3f8       REX.W andq rbx,0xf8
0x165864f4255e  1726  488d141d18000000 REX.W leaq rdx,[rbx*1+0x18]
0x165864f42566  1734  498db5900c0000 REX.W leaq rsi,[r13+0xc90]
0x165864f4256d  1741  488b3e         REX.W movq rdi,[rsi]
0x165864f42570  1744  4803d7         REX.W addq rdx,rdi
0x165864f42573  1747  0f82e1000000   jc 1978  (0x165864f4265a)
0x165864f42579  1753  493b95980c0000 REX.W cmpq rdx,[r13+0xc98]
0x165864f42580  1760  0f87d4000000   ja 1978  (0x165864f4265a)
0x165864f42586  1766  488916         REX.W movq [rsi],rdx
0x165864f42589  1769  4883c701       REX.W addq rdi,0x1
0x165864f4258d  1773  4d8b95a0000000 REX.W movq r10,[r13+0xa0]
0x165864f42594  1780  4c8957ff       REX.W movq [rdi-0x1],r10
0x165864f42598  1784  8bd9           movl rbx,rcx
0x165864f4259a  1786  48c1e320       REX.W shlq rbx, 32
0x165864f4259e  1790  48895f0f       REX.W movq [rdi+0xf],rbx
0x165864f425a2  1794  48c7470703000000 REX.W movq [rdi+0x7],0x3
0x165864f425aa  1802  48897c2408     REX.W movq [rsp+0x8],rdi
0x165864f425af  1807  488d7f17       REX.W leaq rdi,[rdi+0x17]
0x165864f425b3  1811  488b742410     REX.W movq rsi,[rsp+0x10]
0x165864f425b8  1816  837e1301       cmpl [rsi+0x13],0x1
0x165864f425bc  1820  0f84a1000000   jz 1987  (0x165864f42663)
0x165864f425c2  1826  0f8f34010000   jg 2140  (0x165864f426fc)
0x165864f425c8  1832  33d2           xorl rdx,rdx
0x165864f425ca  1834  8b1c24         movl rbx,[rsp]
0x165864f425cd  1837  e97b000000     jmp 1965  (0x165864f4264d)
0x165864f425d2  1842  488b74d00f     REX.W movq rsi,[rax+rdx*8+0xf]
0x165864f425d7  1847  8b4e13         movl rcx,[rsi+0x13]
0x165864f425da  1850  488d7617       REX.W leaq rsi,[rsi+0x17]
0x165864f425de  1854  83f908         cmpl rcx,0x8
0x165864f425e1  1857  7250           jc 1939  (0x165864f42633)
0x165864f425e3  1859  83f910         cmpl rcx,0x10
0x165864f425e6  1862  7636           jna 1918  (0x165864f4261e)
0x165864f425e8  1864  83f918         cmpl rcx,0x18
0x165864f425eb  1867  7629           jna 1910  (0x165864f42616)
0x165864f425ed  1869  83f920         cmpl rcx,0x20
0x165864f425f0  1872  761c           jna 1902  (0x165864f4260e)
0x165864f425f2  1874  4c8bd1         REX.W movq r10,rcx
0x165864f425f5  1877  c1e903         shrl rcx, 3
0x165864f425f8  1880  f348a5         REX.W rep REX.W movsq
0x165864f425fb  1883  4183e207       andl r10,0x7
0x165864f425ff  1887  4a8b4c16f8     REX.W movq rcx,[rsi+r10*1-0x8]
0x165864f42604  1892  4a894c17f8     REX.W movq [rdi+r10*1-0x8],rcx
0x165864f42609  1897  4903fa         REX.W addq rdi,r10
0x165864f4260c  1900  eb3d           jmp 1963  (0x165864f4264b)
0x165864f4260e  1902  4c8b5610       REX.W movq r10,[rsi+0x10]
0x165864f42612  1906  4c895710       REX.W movq [rdi+0x10],r10
0x165864f42616  1910  4c8b5608       REX.W movq r10,[rsi+0x8]
0x165864f4261a  1914  4c895708       REX.W movq [rdi+0x8],r10
0x165864f4261e  1918  4c8b16         REX.W movq r10,[rsi]
0x165864f42621  1921  4c8917         REX.W movq [rdi],r10
0x165864f42624  1924  4c8b540ef8     REX.W movq r10,[rsi+rcx*1-0x8]
0x165864f42629  1929  4c89540ff8     REX.W movq [rdi+rcx*1-0x8],r10
0x165864f4262e  1934  4803f9         REX.W addq rdi,rcx
0x165864f42631  1937  eb18           jmp 1963  (0x165864f4264b)
0x165864f42633  1939  85c9           testl rcx,rcx
0x165864f42635  1941  7414           jz 1963  (0x165864f4264b)
0x165864f42637  1943  448a16         movb r10l,[rsi]
0x165864f4263a  1946  448817         movb [rdi],r10l
0x165864f4263d  1949  48ffc6         REX.W incq rsi
0x165864f42640  1952  48ffc7         REX.W incq rdi
0x165864f42643  1955  ffc9           decl rcx
0x165864f42645  1957  0f85ecffffff   jnz 1943  (0x165864f42637)
0x165864f4264b  1963  ffc2           incl rdx
0x165864f4264d  1965  3bd3           cmpl rdx,rbx
0x165864f4264f  1967  0f8c7dffffff   jl 1842  (0x165864f425d2)
0x165864f42655  1973  e9b4010000     jmp 2414  (0x165864f4280e)
0x165864f4265a  1978  498b45a8       REX.W movq rax,[r13-0x58]
0x165864f4265e  1982  e9b0010000     jmp 2419  (0x165864f42813)
0x165864f42663  1987  0fb65e17       movzxbl rbx,[rsi+0x17]
0x165864f42667  1991  33d2           xorl rdx,rdx
0x165864f42669  1993  e905000000     jmp 2003  (0x165864f42673)
0x165864f4266e  1998  881f           movb [rdi],bl
0x165864f42670  2000  48ffc7         REX.W incq rdi
0x165864f42673  2003  488b74d00f     REX.W movq rsi,[rax+rdx*8+0xf]
0x165864f42678  2008  8b4e13         movl rcx,[rsi+0x13]
0x165864f4267b  2011  488d7617       REX.W leaq rsi,[rsi+0x17]
0x165864f4267f  2015  83f908         cmpl rcx,0x8
0x165864f42682  2018  7250           jc 2100  (0x165864f426d4)
0x165864f42684  2020  83f910         cmpl rcx,0x10
0x165864f42687  2023  7636           jna 2079  (0x165864f426bf)
0x165864f42689  2025  83f918         cmpl rcx,0x18
0x165864f4268c  2028  7629           jna 2071  (0x165864f426b7)
0x165864f4268e  2030  83f920         cmpl rcx,0x20
0x165864f42691  2033  761c           jna 2063  (0x165864f426af)
0x165864f42693  2035  4c8bd1         REX.W movq r10,rcx
0x165864f42696  2038  c1e903         shrl rcx, 3
0x165864f42699  2041  f348a5         REX.W rep REX.W movsq
0x165864f4269c  2044  4183e207       andl r10,0x7
0x165864f426a0  2048  4a8b4c16f8     REX.W movq rcx,[rsi+r10*1-0x8]
0x165864f426a5  2053  4a894c17f8     REX.W movq [rdi+r10*1-0x8],rcx
0x165864f426aa  2058  4903fa         REX.W addq rdi,r10
0x165864f426ad  2061  eb3d           jmp 2124  (0x165864f426ec)
0x165864f426af  2063  4c8b5610       REX.W movq r10,[rsi+0x10]
0x165864f426b3  2067  4c895710       REX.W movq [rdi+0x10],r10
0x165864f426b7  2071  4c8b5608       REX.W movq r10,[rsi+0x8]
0x165864f426bb  2075  4c895708       REX.W movq [rdi+0x8],r10
0x165864f426bf  2079  4c8b16         REX.W movq r10,[rsi]
0x165864f426c2  2082  4c8917         REX.W movq [rdi],r10
0x165864f426c5  2085  4c8b540ef8     REX.W movq r10,[rsi+rcx*1-0x8]
0x165864f426ca  2090  4c89540ff8     REX.W movq [rdi+rcx*1-0x8],r10
0x165864f426cf  2095  4803f9         REX.W addq rdi,rcx
0x165864f426d2  2098  eb18           jmp 2124  (0x165864f426ec)
0x165864f426d4  2100  85c9           testl rcx,rcx
0x165864f426d6  2102  7414           jz 2124  (0x165864f426ec)
0x165864f426d8  2104  448a16         movb r10l,[rsi]
0x165864f426db  2107  448817         movb [rdi],r10l
0x165864f426de  2110  48ffc6         REX.W incq rsi
0x165864f426e1  2113  48ffc7         REX.W incq rdi
0x165864f426e4  2116  ffc9           decl rcx
0x165864f426e6  2118  0f85ecffffff   jnz 2104  (0x165864f426d8)
0x165864f426ec  2124  ffc2           incl rdx
0x165864f426ee  2126  3b1424         cmpl rdx,[rsp]
0x165864f426f1  2129  0f8c77ffffff   jl 1998  (0x165864f4266e)
0x165864f426f7  2135  e912010000     jmp 2414  (0x165864f4280e)
0x165864f426fc  2140  8b1424         movl rdx,[rsp]
0x165864f426ff  2143  488d44d00f     REX.W leaq rax,[rax+rdx*8+0xf]
0x165864f42704  2148  48f7da         REX.W negq rdx
0x165864f42707  2151  488b742410     REX.W movq rsi,[rsp+0x10]
0x165864f4270c  2156  8b5e13         movl rbx,[rsi+0x13]
0x165864f4270f  2159  488d7617       REX.W leaq rsi,[rsi+0x17]
0x165864f42713  2163  4889742410     REX.W movq [rsp+0x10],rsi
0x165864f42718  2168  e970000000     jmp 2285  (0x165864f4278d)
0x165864f4271d  2173  488b742410     REX.W movq rsi,[rsp+0x10]
0x165864f42722  2178  8bcb           movl rcx,rbx
0x165864f42724  2180  83f908         cmpl rcx,0x8
0x165864f42727  2183  7250           jc 2265  (0x165864f42779)
0x165864f42729  2185  83f910         cmpl rcx,0x10
0x165864f4272c  2188  7636           jna 2244  (0x165864f42764)
0x165864f4272e  2190  83f918         cmpl rcx,0x18
0x165864f42731  2193  7629           jna 2236  (0x165864f4275c)
0x165864f42733  2195  83f920         cmpl rcx,0x20
0x165864f42736  2198  761c           jna 2228  (0x165864f42754)
0x165864f42738  2200  4c8bd1         REX.W movq r10,rcx
0x165864f4273b  2203  c1e903         shrl rcx, 3
0x165864f4273e  2206  f348a5         REX.W rep REX.W movsq
0x165864f42741  2209  4183e207       andl r10,0x7
0x165864f42745  2213  4a8b4c16f8     REX.W movq rcx,[rsi+r10*1-0x8]
0x165864f4274a  2218  4a894c17f8     REX.W movq [rdi+r10*1-0x8],rcx
0x165864f4274f  2223  4903fa         REX.W addq rdi,r10
0x165864f42752  2226  eb39           jmp 2285  (0x165864f4278d)
0x165864f42754  2228  4c8b5610       REX.W movq r10,[rsi+0x10]
0x165864f42758  2232  4c895710       REX.W movq [rdi+0x10],r10
0x165864f4275c  2236  4c8b5608       REX.W movq r10,[rsi+0x8]
0x165864f42760  2240  4c895708       REX.W movq [rdi+0x8],r10
0x165864f42764  2244  4c8b16         REX.W movq r10,[rsi]
0x165864f42767  2247  4c8917         REX.W movq [rdi],r10
0x165864f4276a  2250  4c8b540ef8     REX.W movq r10,[rsi+rcx*1-0x8]
0x165864f4276f  2255  4c89540ff8     REX.W movq [rdi+rcx*1-0x8],r10
0x165864f42774  2260  4803f9         REX.W addq rdi,rcx
0x165864f42777  2263  eb14           jmp 2285  (0x165864f4278d)
0x165864f42779  2265  448a16         movb r10l,[rsi]
0x165864f4277c  2268  448817         movb [rdi],r10l
0x165864f4277f  2271  48ffc6         REX.W incq rsi
0x165864f42782  2274  48ffc7         REX.W incq rdi
0x165864f42785  2277  ffc9           decl rcx
0x165864f42787  2279  0f85ecffffff   jnz 2265  (0x165864f42779)
0x165864f4278d  2285  488b34d0       REX.W movq rsi,[rax+rdx*8]
0x165864f42791  2289  8b4e13         movl rcx,[rsi+0x13]
0x165864f42794  2292  488d7617       REX.W leaq rsi,[rsi+0x17]
0x165864f42798  2296  83f908         cmpl rcx,0x8
0x165864f4279b  2299  7250           jc 2381  (0x165864f427ed)
0x165864f4279d  2301  83f910         cmpl rcx,0x10
0x165864f427a0  2304  7636           jna 2360  (0x165864f427d8)
0x165864f427a2  2306  83f918         cmpl rcx,0x18
0x165864f427a5  2309  7629           jna 2352  (0x165864f427d0)
0x165864f427a7  2311  83f920         cmpl rcx,0x20
0x165864f427aa  2314  761c           jna 2344  (0x165864f427c8)
0x165864f427ac  2316  4c8bd1         REX.W movq r10,rcx
0x165864f427af  2319  c1e903         shrl rcx, 3
0x165864f427b2  2322  f348a5         REX.W rep REX.W movsq
0x165864f427b5  2325  4183e207       andl r10,0x7
0x165864f427b9  2329  4a8b4c16f8     REX.W movq rcx,[rsi+r10*1-0x8]
0x165864f427be  2334  4a894c17f8     REX.W movq [rdi+r10*1-0x8],rcx
0x165864f427c3  2339  4903fa         REX.W addq rdi,r10
0x165864f427c6  2342  eb3d           jmp 2405  (0x165864f42805)
0x165864f427c8  2344  4c8b5610       REX.W movq r10,[rsi+0x10]
0x165864f427cc  2348  4c895710       REX.W movq [rdi+0x10],r10
0x165864f427d0  2352  4c8b5608       REX.W movq r10,[rsi+0x8]
0x165864f427d4  2356  4c895708       REX.W movq [rdi+0x8],r10
0x165864f427d8  2360  4c8b16         REX.W movq r10,[rsi]
0x165864f427db  2363  4c8917         REX.W movq [rdi],r10
0x165864f427de  2366  4c8b540ef8     REX.W movq r10,[rsi+rcx*1-0x8]
0x165864f427e3  2371  4c89540ff8     REX.W movq [rdi+rcx*1-0x8],r10
0x165864f427e8  2376  4803f9         REX.W addq rdi,rcx
0x165864f427eb  2379  eb18           jmp 2405  (0x165864f42805)
0x165864f427ed  2381  85c9           testl rcx,rcx
0x165864f427ef  2383  7414           jz 2405  (0x165864f42805)
0x165864f427f1  2385  448a16         movb r10l,[rsi]
0x165864f427f4  2388  448817         movb [rdi],r10l
0x165864f427f7  2391  48ffc6         REX.W incq rsi
0x165864f427fa  2394  48ffc7         REX.W incq rdi
0x165864f427fd  2397  ffc9           decl rcx
0x165864f427ff  2399  0f85ecffffff   jnz 2385  (0x165864f427f1)
0x165864f42805  2405  48ffc2         REX.W incq rdx
0x165864f42808  2408  0f850fffffff   jnz 2173  (0x165864f4271d)
0x165864f4280e  2414  488b442408     REX.W movq rax,[rsp+0x8]
0x165864f42813  2419  4883c418       REX.W addq rsp,0x18
0x165864f42817  2423  488b75f8       REX.W movq rsi,[rbp-0x8]
0x165864f4281b  2427  488945c0       REX.W movq [rbp-0x40],rax    ;; debug: position 2018
0x165864f4281f  2431  488b45c0       REX.W movq rax,[rbp-0x40]    ;; debug: statement 2054
                                                             ;; debug: position 2059
0x165864f42823  2435  eb0f           jmp 2452  (0x165864f42834)
0x165864f42825  2437  493b45c0       REX.W cmpq rax,[r13-0x40]
0x165864f42829  2441  0f8421000000   jz 2480  (0x165864f42850)
0x165864f4282f  2447  e90a000000     jmp 2462  (0x165864f4283e)
0x165864f42834  2452  493b45a8       REX.W cmpq rax,[r13-0x58]
0x165864f42838  2456  0f8412000000   jz 2480  (0x165864f42850)
0x165864f4283e  2462  488b45c0       REX.W movq rax,[rbp-0x40]    ;; debug: statement 2073
                                                             ;; debug: position 2080
0x165864f42842  2466  4883c408       REX.W addq rsp,0x8
0x165864f42846  2470  e87df7ffff     call 296  (0x165864f41fc8)
0x165864f4284b  2475  e9a6f6ffff     jmp 86  (0x165864f41ef6)
0x165864f42850  2480  ff75d8         push [rbp-0x28]         ;; debug: statement 2083
                                                             ;; debug: position 2111
0x165864f42853  2483  ff75d0         push [rbp-0x30]         ;; debug: position 2113
0x165864f42856  2486  49bae14290cfdd1e0000 REX.W movq r10,0x1eddcf9042e1    ;; object: 0x1eddcf9042e1 <String[0]: >
0x165864f42860  2496  4152           push r10
0x165864f42862  2498  b803000000     movl rax,0x3
0x165864f42867  2503  48bbd0e62e0100000000 REX.W movq rbx,0x12ee6d0
0x165864f42871  2513  e86a62fcff     call 0x165864f08ae0     ;; code: STUB, CEntryStub, minor: 0
0x165864f42876  2518  4883c408       REX.W addq rsp,0x8
0x165864f4287a  2522  e849f7ffff     call 296  (0x165864f41fc8)
0x165864f4287f  2527  e972f6ffff     jmp 86  (0x165864f41ef6)
0x165864f42884  2532  ff7528         push [rbp+0x28]         ;; debug: statement 2122
                                                             ;; debug: position 2134
0x165864f42887  2535  48b80000000000000000 REX.W movq rax,(nil)
0x165864f42891  2545  488bc8         REX.W movq rcx,rax
0x165864f42894  2548  5a             pop rdx
0x165864f42895  2549  48b80000000018000000 REX.W movq rax,0x1800000000    ;; debug: position 2135
0x165864f4289f  2559  e81c98fdff     call 0x165864f1c0c0     ;; code: KEYED_LOAD_IC, DEFAULT
0x165864f428a4  2564  eb0f           jmp 2581  (0x165864f428b5)
0x165864f428a6  2566  493b45c0       REX.W cmpq rax,[r13-0x40]
0x165864f428aa  2570  0f845f010000   jz 2927  (0x165864f42a0f)
0x165864f428b0  2576  e916000000     jmp 2603  (0x165864f428cb)
0x165864f428b5  2581  a801           test al,0x1
0x165864f428b7  2583  0f8452010000   jz 2927  (0x165864f42a0f)
0x165864f428bd  2589  488b40ff       REX.W movq rax,[rax-0x1]
0x165864f428c1  2593  493b4508       REX.W cmpq rax,[r13+0x8]
0x165864f428c5  2597  0f8444010000   jz 2927  (0x165864f42a0f)
0x165864f428cb  2603  48b80000000000000000 REX.W movq rax,(nil)    ;; debug: statement 2154
                                                             ;; debug: statement 2158
0x165864f428d5  2613  488945c8       REX.W movq [rbp-0x38],rax
0x165864f428d9  2617  e9ea000000     jmp 2856  (0x165864f429c8)
0x165864f428de  2622  ff7528         push [rbp+0x28]         ;; debug: statement 2176
                                                             ;; debug: position 2182
0x165864f428e1  2625  488b45c8       REX.W movq rax,[rbp-0x38]    ;; debug: position 2184
0x165864f428e5  2629  488bc8         REX.W movq rcx,rax
0x165864f428e8  2632  5a             pop rdx
0x165864f428e9  2633  48b8000000001a000000 REX.W movq rax,0x1a00000000    ;; debug: position 2183
0x165864f428f3  2643  e8c897fdff     call 0x165864f1c0c0     ;; code: KEYED_LOAD_IC, DEFAULT
0x165864f428f8  2648  488945e0       REX.W movq [rbp-0x20],rax    ;; debug: position 2176
0x165864f428fc  2652  488b45e0       REX.W movq rax,[rbp-0x20]    ;; debug: statement 2188
                                                             ;; debug: position 2200
0x165864f42900  2656  eb0f           jmp 2673  (0x165864f42911)
0x165864f42902  2658  493b45c0       REX.W cmpq rax,[r13-0x40]
0x165864f42906  2662  0f8445000000   jz 2737  (0x165864f42951)
0x165864f4290c  2668  e916000000     jmp 2695  (0x165864f42927)
0x165864f42911  2673  a801           test al,0x1
0x165864f42913  2675  0f840e000000   jz 2695  (0x165864f42927)
0x165864f42919  2681  488b50ff       REX.W movq rdx,[rax-0x1]
0x165864f4291d  2685  807a0b80       cmpb [rdx+0xb],0x80
0x165864f42921  2689  0f822a000000   jc 2737  (0x165864f42951)
0x165864f42927  2695  ff7510         push [rbp+0x10]         ;; debug: statement 2215
                                                             ;; debug: position 2217
0x165864f4292a  2698  41ff75a8       push [r13-0x58]
0x165864f4292e  2702  ff75e0         push [rbp-0x20]         ;; debug: position 2219
0x165864f42931  2705  48ba000000001c000000 REX.W movq rdx,0x1c00000000    ;; debug: position 2217
0x165864f4293b  2715  488b7c2410     REX.W movq rdi,[rsp+0x10]
0x165864f42940  2720  e8fbf5feff     call 0x165864f31f40     ;; code: CALL_IC, DEFAULT
0x165864f42945  2725  488b75f8       REX.W movq rsi,[rbp-0x8]
0x165864f42949  2729  4883c408       REX.W addq rsp,0x8
0x165864f4294d  2733  488945e0       REX.W movq [rbp-0x20],rax    ;; debug: position 2216
0x165864f42951  2737  ff75d8         push [rbp-0x28]         ;; debug: statement 2223
                                                             ;; debug: position 2223
0x165864f42954  2740  ff75c8         push [rbp-0x38]         ;; debug: position 2225
0x165864f42957  2743  488b45e0       REX.W movq rax,[rbp-0x20]    ;; debug: position 2228
0x165864f4295b  2747  59             pop rcx                 ;; debug: position 2227
0x165864f4295c  2748  5a             pop rdx
0x165864f4295d  2749  e83e2fffff     call KeyedStoreIC_Initialize_Strict  (0x165864f358a0)    ;; code: KEYED_STORE_IC, UNINITIALIZED (id = 629)
0x165864f42962  2754  488b45c8       REX.W movq rax,[rbp-0x38]    ;; debug: statement 2171
                                                             ;; debug: position 2170
0x165864f42966  2758  a801           test al,0x1
0x165864f42968  2760  7314           jnc 2782  (0x165864f4297e)
0x165864f4296a  2762  49ba0000000001000000 REX.W movq r10,0x100000000
0x165864f42974  2772  4903c2         REX.W addq rax,r10
0x165864f42977  2775  711e           jno 2807  (0x165864f42997)
0x165864f42979  2777  492bc2         REX.W subq rax,r10
0x165864f4297c  2780  eb05           jmp 2787  (0x165864f42983)
0x165864f4297e  2782  e87d05feff     call 0x165864f22f00     ;; code: STUB, ToNumberStub, minor: 0
0x165864f42983  2787  488bd0         REX.W movq rdx,rax      ;; debug: position 2171
0x165864f42986  2790  48b80000000001000000 REX.W movq rax,0x100000000
0x165864f42990  2800  e8eb5bfdff     call 0x165864f18580     ;; code: BINARY_OP_IC, UNINITIALIZED (id = 561)
0x165864f42995  2805  a82d           test al,0x2d
0x165864f42997  2807  488945c8       REX.W movq [rbp-0x38],rax
0x165864f4299b  2811  48bb890f9fcfdd1e0000 REX.W movq rbx,0x1eddcf9f0f89    ;; object: 0x1eddcf9f0f89 Cell for 6144
0x165864f429a5  2821  83430bff       addl [rbx+0xb],0xff
0x165864f429a9  2825  791d           jns 2856  (0x165864f429c8)
0x165864f429ab  2827  e8903fffff     call InterruptCheck  (0x165864f36940)    ;; code: BUILTIN
0x165864f429b0  2832  48bb890f9fcfdd1e0000 REX.W movq rbx,0x1eddcf9f0f89    ;; object: 0x1eddcf9f0f89 Cell for 6144
0x165864f429ba  2842  49ba0000000000180000 REX.W movq r10,0x180000000000
0x165864f429c4  2852  4c895307       REX.W movq [rbx+0x7],r10
0x165864f429c8  2856  ff75c8         push [rbp-0x38]         ;; debug: statement 2167
                                                             ;; debug: position 2166
0x165864f429cb  2859  488b4520       REX.W movq rax,[rbp+0x20]    ;; debug: position 2168
0x165864f429cf  2863  5a             pop rdx
0x165864f429d0  2864  488bca         REX.W movq rcx,rdx
0x165864f429d3  2867  480bc8         REX.W orq rcx,rax
0x165864f429d6  2870  f6c101         testb rcx,0x1
0x165864f429d9  2873  730e           jnc 2889  (0x165864f429e9)
0x165864f429db  2875  483bd0         REX.W cmpq rdx,rax
0x165864f429de  2878  0f8cfafeffff   jl 2622  (0x165864f428de)
0x165864f429e4  2884  e921000000     jmp 2922  (0x165864f42a0a)
0x165864f429e9  2889  e8d29efdff     call 0x165864f1c8c0     ;; code: COMPARE_IC, UNINITIALIZED (id = 550)
0x165864f429ee  2894  a815           test al,0x15
0x165864f429f0  2896  eb0f           jmp 2913  (0x165864f42a01)
0x165864f429f2  2898  493b45c0       REX.W cmpq rax,[r13-0x40]
0x165864f429f6  2902  0f84e2feffff   jz 2622  (0x165864f428de)
0x165864f429fc  2908  e909000000     jmp 2922  (0x165864f42a0a)
0x165864f42a01  2913  4885c0         REX.W testq rax,rax
0x165864f42a04  2916  0f8cd4feffff   jl 2622  (0x165864f428de)
0x165864f42a0a  2922  e97c010000     jmp 3307  (0x165864f42b8b)
0x165864f42a0f  2927  48b80000000000000000 REX.W movq rax,(nil)    ;; debug: statement 2240
                                                             ;; debug: statement 2244
0x165864f42a19  2937  488945c8       REX.W movq [rbp-0x38],rax
0x165864f42a1d  2941  e927010000     jmp 3241  (0x165864f42b49)
0x165864f42a22  2946  ff7528         push [rbp+0x28]         ;; debug: statement 2262
                                                             ;; debug: position 2268
0x165864f42a25  2949  488b45c8       REX.W movq rax,[rbp-0x38]    ;; debug: position 2270
0x165864f42a29  2953  488bc8         REX.W movq rcx,rax
0x165864f42a2c  2956  5a             pop rdx
0x165864f42a2d  2957  48b8000000001e000000 REX.W movq rax,0x1e00000000    ;; debug: position 2269
0x165864f42a37  2967  e88496fdff     call 0x165864f1c0c0     ;; code: KEYED_LOAD_IC, DEFAULT
0x165864f42a3c  2972  488945e0       REX.W movq [rbp-0x20],rax    ;; debug: position 2262
0x165864f42a40  2976  488b45e0       REX.W movq rax,[rbp-0x20]    ;; debug: statement 2274
                                                             ;; debug: position 2285
0x165864f42a44  2980  eb0f           jmp 2997  (0x165864f42a55)
0x165864f42a46  2982  493b45c0       REX.W cmpq rax,[r13-0x40]
0x165864f42a4a  2986  0f841b000000   jz 3019  (0x165864f42a6b)
0x165864f42a50  2992  e928000000     jmp 3037  (0x165864f42a7d)
0x165864f42a55  2997  a801           test al,0x1
0x165864f42a57  2999  0f840e000000   jz 3019  (0x165864f42a6b)
0x165864f42a5d  3005  488b40ff       REX.W movq rax,[rax-0x1]
0x165864f42a61  3009  493b4508       REX.W cmpq rax,[r13+0x8]
0x165864f42a65  3013  0f8512000000   jnz 3037  (0x165864f42a7d)
0x165864f42a6b  3019  488b45e0       REX.W movq rax,[rbp-0x20]    ;; debug: statement 2302
                                                             ;; debug: position 2321
0x165864f42a6f  3023  e88c06feff     call 0x165864f23100     ;; code: STUB, NumberToStringStub, minor: 0
0x165864f42a74  3028  488945e0       REX.W movq [rbp-0x20],rax    ;; debug: position 2303
0x165864f42a78  3032  e955000000     jmp 3122  (0x165864f42ad2)
0x165864f42a7d  3037  488b45e0       REX.W movq rax,[rbp-0x20]    ;; debug: statement 2331
                                                             ;; debug: position 2343
0x165864f42a81  3041  eb0f           jmp 3058  (0x165864f42a92)
0x165864f42a83  3043  493b45c0       REX.W cmpq rax,[r13-0x40]
0x165864f42a87  3047  0f8445000000   jz 3122  (0x165864f42ad2)
0x165864f42a8d  3053  e916000000     jmp 3080  (0x165864f42aa8)
0x165864f42a92  3058  a801           test al,0x1
0x165864f42a94  3060  0f840e000000   jz 3080  (0x165864f42aa8)
0x165864f42a9a  3066  488b50ff       REX.W movq rdx,[rax-0x1]
0x165864f42a9e  3070  807a0b80       cmpb [rdx+0xb],0x80
0x165864f42aa2  3074  0f822a000000   jc 3122  (0x165864f42ad2)
0x165864f42aa8  3080  ff7510         push [rbp+0x10]         ;; debug: statement 2360
                                                             ;; debug: position 2362
0x165864f42aab  3083  41ff75a8       push [r13-0x58]
0x165864f42aaf  3087  ff75e0         push [rbp-0x20]         ;; debug: position 2364
0x165864f42ab2  3090  48ba0000000020000000 REX.W movq rdx,0x2000000000    ;; debug: position 2362
0x165864f42abc  3100  488b7c2410     REX.W movq rdi,[rsp+0x10]
0x165864f42ac1  3105  e87af4feff     call 0x165864f31f40     ;; code: CALL_IC, DEFAULT
0x165864f42ac6  3110  488b75f8       REX.W movq rsi,[rbp-0x8]
0x165864f42aca  3114  4883c408       REX.W addq rsp,0x8
0x165864f42ace  3118  488945e0       REX.W movq [rbp-0x20],rax    ;; debug: position 2361
0x165864f42ad2  3122  ff75d8         push [rbp-0x28]         ;; debug: statement 2370
                                                             ;; debug: position 2370
0x165864f42ad5  3125  ff75c8         push [rbp-0x38]         ;; debug: position 2372
0x165864f42ad8  3128  488b45e0       REX.W movq rax,[rbp-0x20]    ;; debug: position 2375
0x165864f42adc  3132  59             pop rcx                 ;; debug: position 2374
0x165864f42add  3133  5a             pop rdx
0x165864f42ade  3134  e8bd2dffff     call KeyedStoreIC_Initialize_Strict  (0x165864f358a0)    ;; code: KEYED_STORE_IC, UNINITIALIZED (id = 779)
0x165864f42ae3  3139  488b45c8       REX.W movq rax,[rbp-0x38]    ;; debug: statement 2257
                                                             ;; debug: position 2256
0x165864f42ae7  3143  a801           test al,0x1
0x165864f42ae9  3145  7314           jnc 3167  (0x165864f42aff)
0x165864f42aeb  3147  49ba0000000001000000 REX.W movq r10,0x100000000
0x165864f42af5  3157  4903c2         REX.W addq rax,r10
0x165864f42af8  3160  711e           jno 3192  (0x165864f42b18)
0x165864f42afa  3162  492bc2         REX.W subq rax,r10
0x165864f42afd  3165  eb05           jmp 3172  (0x165864f42b04)
0x165864f42aff  3167  e8fc03feff     call 0x165864f22f00     ;; code: STUB, ToNumberStub, minor: 0
0x165864f42b04  3172  488bd0         REX.W movq rdx,rax      ;; debug: position 2257
0x165864f42b07  3175  48b80000000001000000 REX.W movq rax,0x100000000
0x165864f42b11  3185  e86a5afdff     call 0x165864f18580     ;; code: BINARY_OP_IC, UNINITIALIZED (id = 676)
0x165864f42b16  3190  a82d           test al,0x2d
0x165864f42b18  3192  488945c8       REX.W movq [rbp-0x38],rax
0x165864f42b1c  3196  48bb890f9fcfdd1e0000 REX.W movq rbx,0x1eddcf9f0f89    ;; object: 0x1eddcf9f0f89 Cell for 6144
0x165864f42b26  3206  83430bff       addl [rbx+0xb],0xff
0x165864f42b2a  3210  791d           jns 3241  (0x165864f42b49)
0x165864f42b2c  3212  e80f3effff     call InterruptCheck  (0x165864f36940)    ;; code: BUILTIN
0x165864f42b31  3217  48bb890f9fcfdd1e0000 REX.W movq rbx,0x1eddcf9f0f89    ;; object: 0x1eddcf9f0f89 Cell for 6144
0x165864f42b3b  3227  49ba0000000000180000 REX.W movq r10,0x180000000000
0x165864f42b45  3237  4c895307       REX.W movq [rbx+0x7],r10
0x165864f42b49  3241  ff75c8         push [rbp-0x38]         ;; debug: statement 2253
                                                             ;; debug: position 2252
0x165864f42b4c  3244  488b4520       REX.W movq rax,[rbp+0x20]    ;; debug: position 2254
0x165864f42b50  3248  5a             pop rdx
0x165864f42b51  3249  488bca         REX.W movq rcx,rdx
0x165864f42b54  3252  480bc8         REX.W orq rcx,rax
0x165864f42b57  3255  f6c101         testb rcx,0x1
0x165864f42b5a  3258  730e           jnc 3274  (0x165864f42b6a)
0x165864f42b5c  3260  483bd0         REX.W cmpq rdx,rax
0x165864f42b5f  3263  0f8cbdfeffff   jl 2946  (0x165864f42a22)
0x165864f42b65  3269  e921000000     jmp 3307  (0x165864f42b8b)
0x165864f42b6a  3274  e8519dfdff     call 0x165864f1c8c0     ;; code: COMPARE_IC, UNINITIALIZED (id = 665)
0x165864f42b6f  3279  a815           test al,0x15
0x165864f42b71  3281  eb0f           jmp 3298  (0x165864f42b82)
0x165864f42b73  3283  493b45c0       REX.W cmpq rax,[r13-0x40]
0x165864f42b77  3287  0f84a5feffff   jz 2946  (0x165864f42a22)
0x165864f42b7d  3293  e909000000     jmp 3307  (0x165864f42b8b)
0x165864f42b82  3298  4885c0         REX.W testq rax,rax
0x165864f42b85  3301  0f8c97feffff   jl 2946  (0x165864f42a22)
0x165864f42b8b  3307  ff7518         push [rbp+0x18]         ;; debug: statement 2382
                                                             ;; debug: position 2413
0x165864f42b8e  3310  488b45d8       REX.W movq rax,[rbp-0x28]    ;; debug: position 2411
0x165864f42b92  3314  4883ec10       REX.W subq rsp,0x10
0x165864f42b96  3318  fc             cld
0x165864f42b97  3319  a801           test al,0x1
0x165864f42b99  3321  0f84c4010000   jz 3779  (0x165864f42d63)
0x165864f42b9f  3327  488b58ff       REX.W movq rbx,[rax-0x1]
0x165864f42ba3  3331  807b0bbe       cmpb [rbx+0xb],0xbe
0x165864f42ba7  3335  0f85b6010000   jnz 3779  (0x165864f42d63)
0x165864f42bad  3341  807b0d1f       cmpb [rbx+0xd],0x1f
0x165864f42bb1  3345  0f87ac010000   ja 3779  (0x165864f42d63)
0x165864f42bb7  3351  488b7817       REX.W movq rdi,[rax+0x17]
0x165864f42bbb  3355  4885ff         REX.W testq rdi,rdi
0x165864f42bbe  3358  0f8509000000   jnz 3373  (0x165864f42bcd)
0x165864f42bc4  3364  498b45d0       REX.W movq rax,[r13-0x30]
0x165864f42bc8  3368  e94f030000     jmp 4220  (0x165864f42f1c)
0x165864f42bcd  3373  48c1ef20       REX.W shrq rdi, 32
0x165864f42bd1  3377  893c24         movl [rsp],rdi
0x165864f42bd4  3380  488b400f       REX.W movq rax,[rax+0xf]
0x165864f42bd8  3384  33d2           xorl rdx,rdx
0x165864f42bda  3386  33c9           xorl rcx,rcx
0x165864f42bdc  3388  488b74d00f     REX.W movq rsi,[rax+rdx*8+0xf]
0x165864f42be1  3393  40f6c601       testb rsi,0x1
0x165864f42be5  3397  0f8478010000   jz 3779  (0x165864f42d63)
0x165864f42beb  3403  488b5eff       REX.W movq rbx,[rsi-0x1]
0x165864f42bef  3407  0fb65b0b       movzxbl rbx,[rbx+0xb]
0x165864f42bf3  3411  80e387         cmpb bl,0x87
0x165864f42bf6  3414  80fb04         cmpb bl,0x4
0x165864f42bf9  3417  0f8564010000   jnz 3779  (0x165864f42d63)
0x165864f42bff  3423  034e13         addl rcx,[rsi+0x13]
0x165864f42c02  3426  0f805b010000   jo 3779  (0x165864f42d63)
0x165864f42c08  3432  ffc2           incl rdx
0x165864f42c0a  3434  3bd7           cmpl rdx,rdi
0x165864f42c0c  3436  0f8ccaffffff   jl 3388  (0x165864f42bdc)
0x165864f42c12  3442  83ff01         cmpl rdi,0x1
0x165864f42c15  3445  0f8509000000   jnz 3460  (0x165864f42c24)
0x165864f42c1b  3451  488b400f       REX.W movq rax,[rax+0xf]
0x165864f42c1f  3455  e9f8020000     jmp 4220  (0x165864f42f1c)
0x165864f42c24  3460  488b742410     REX.W movq rsi,[rsp+0x10]
0x165864f42c29  3465  40f6c601       testb rsi,0x1
0x165864f42c2d  3469  0f8430010000   jz 3779  (0x165864f42d63)
0x165864f42c33  3475  488b5eff       REX.W movq rbx,[rsi-0x1]
0x165864f42c37  3479  0fb65b0b       movzxbl rbx,[rbx+0xb]
0x165864f42c3b  3483  80e387         cmpb bl,0x87
0x165864f42c3e  3486  80fb04         cmpb bl,0x4
0x165864f42c41  3489  0f851c010000   jnz 3779  (0x165864f42d63)
0x165864f42c47  3495  8b5e13         movl rbx,[rsi+0x13]
0x165864f42c4a  3498  ffca           decl rdx
0x165864f42c4c  3500  0fafda         imull rbx,rdx
0x165864f42c4f  3503  0f800e010000   jo 3779  (0x165864f42d63)
0x165864f42c55  3509  03cb           addl rcx,rbx
0x165864f42c57  3511  0f8006010000   jo 3779  (0x165864f42d63)
0x165864f42c5d  3517  8bd9           movl rbx,rcx
0x165864f42c5f  3519  4883c307       REX.W addq rbx,0x7
0x165864f42c63  3523  4883e3f8       REX.W andq rbx,0xf8
0x165864f42c67  3527  488d141d18000000 REX.W leaq rdx,[rbx*1+0x18]
0x165864f42c6f  3535  498db5900c0000 REX.W leaq rsi,[r13+0xc90]
0x165864f42c76  3542  488b3e         REX.W movq rdi,[rsi]
0x165864f42c79  3545  4803d7         REX.W addq rdx,rdi
0x165864f42c7c  3548  0f82e1000000   jc 3779  (0x165864f42d63)
0x165864f42c82  3554  493b95980c0000 REX.W cmpq rdx,[r13+0xc98]
0x165864f42c89  3561  0f87d4000000   ja 3779  (0x165864f42d63)
0x165864f42c8f  3567  488916         REX.W movq [rsi],rdx
0x165864f42c92  3570  4883c701       REX.W addq rdi,0x1
0x165864f42c96  3574  4d8b95a0000000 REX.W movq r10,[r13+0xa0]
0x165864f42c9d  3581  4c8957ff       REX.W movq [rdi-0x1],r10
0x165864f42ca1  3585  8bd9           movl rbx,rcx
0x165864f42ca3  3587  48c1e320       REX.W shlq rbx, 32
0x165864f42ca7  3591  48895f0f       REX.W movq [rdi+0xf],rbx
0x165864f42cab  3595  48c7470703000000 REX.W movq [rdi+0x7],0x3
0x165864f42cb3  3603  48897c2408     REX.W movq [rsp+0x8],rdi
0x165864f42cb8  3608  488d7f17       REX.W leaq rdi,[rdi+0x17]
0x165864f42cbc  3612  488b742410     REX.W movq rsi,[rsp+0x10]
0x165864f42cc1  3617  837e1301       cmpl [rsi+0x13],0x1
0x165864f42cc5  3621  0f84a1000000   jz 3788  (0x165864f42d6c)
0x165864f42ccb  3627  0f8f34010000   jg 3941  (0x165864f42e05)
0x165864f42cd1  3633  33d2           xorl rdx,rdx
0x165864f42cd3  3635  8b1c24         movl rbx,[rsp]
0x165864f42cd6  3638  e97b000000     jmp 3766  (0x165864f42d56)
0x165864f42cdb  3643  488b74d00f     REX.W movq rsi,[rax+rdx*8+0xf]
0x165864f42ce0  3648  8b4e13         movl rcx,[rsi+0x13]
0x165864f42ce3  3651  488d7617       REX.W leaq rsi,[rsi+0x17]
0x165864f42ce7  3655  83f908         cmpl rcx,0x8
0x165864f42cea  3658  7250           jc 3740  (0x165864f42d3c)
0x165864f42cec  3660  83f910         cmpl rcx,0x10
0x165864f42cef  3663  7636           jna 3719  (0x165864f42d27)
0x165864f42cf1  3665  83f918         cmpl rcx,0x18
0x165864f42cf4  3668  7629           jna 3711  (0x165864f42d1f)
0x165864f42cf6  3670  83f920         cmpl rcx,0x20
0x165864f42cf9  3673  761c           jna 3703  (0x165864f42d17)
0x165864f42cfb  3675  4c8bd1         REX.W movq r10,rcx
0x165864f42cfe  3678  c1e903         shrl rcx, 3
0x165864f42d01  3681  f348a5         REX.W rep REX.W movsq
0x165864f42d04  3684  4183e207       andl r10,0x7
0x165864f42d08  3688  4a8b4c16f8     REX.W movq rcx,[rsi+r10*1-0x8]
0x165864f42d0d  3693  4a894c17f8     REX.W movq [rdi+r10*1-0x8],rcx
0x165864f42d12  3698  4903fa         REX.W addq rdi,r10
0x165864f42d15  3701  eb3d           jmp 3764  (0x165864f42d54)
0x165864f42d17  3703  4c8b5610       REX.W movq r10,[rsi+0x10]
0x165864f42d1b  3707  4c895710       REX.W movq [rdi+0x10],r10
0x165864f42d1f  3711  4c8b5608       REX.W movq r10,[rsi+0x8]
0x165864f42d23  3715  4c895708       REX.W movq [rdi+0x8],r10
0x165864f42d27  3719  4c8b16         REX.W movq r10,[rsi]
0x165864f42d2a  3722  4c8917         REX.W movq [rdi],r10
0x165864f42d2d  3725  4c8b540ef8     REX.W movq r10,[rsi+rcx*1-0x8]
0x165864f42d32  3730  4c89540ff8     REX.W movq [rdi+rcx*1-0x8],r10
0x165864f42d37  3735  4803f9         REX.W addq rdi,rcx
0x165864f42d3a  3738  eb18           jmp 3764  (0x165864f42d54)
0x165864f42d3c  3740  85c9           testl rcx,rcx
0x165864f42d3e  3742  7414           jz 3764  (0x165864f42d54)
0x165864f42d40  3744  448a16         movb r10l,[rsi]
0x165864f42d43  3747  448817         movb [rdi],r10l
0x165864f42d46  3750  48ffc6         REX.W incq rsi
0x165864f42d49  3753  48ffc7         REX.W incq rdi
0x165864f42d4c  3756  ffc9           decl rcx
0x165864f42d4e  3758  0f85ecffffff   jnz 3744  (0x165864f42d40)
0x165864f42d54  3764  ffc2           incl rdx
0x165864f42d56  3766  3bd3           cmpl rdx,rbx
0x165864f42d58  3768  0f8c7dffffff   jl 3643  (0x165864f42cdb)
0x165864f42d5e  3774  e9b4010000     jmp 4215  (0x165864f42f17)
0x165864f42d63  3779  498b45a8       REX.W movq rax,[r13-0x58]
0x165864f42d67  3783  e9b0010000     jmp 4220  (0x165864f42f1c)
0x165864f42d6c  3788  0fb65e17       movzxbl rbx,[rsi+0x17]
0x165864f42d70  3792  33d2           xorl rdx,rdx
0x165864f42d72  3794  e905000000     jmp 3804  (0x165864f42d7c)
0x165864f42d77  3799  881f           movb [rdi],bl
0x165864f42d79  3801  48ffc7         REX.W incq rdi
0x165864f42d7c  3804  488b74d00f     REX.W movq rsi,[rax+rdx*8+0xf]
0x165864f42d81  3809  8b4e13         movl rcx,[rsi+0x13]
0x165864f42d84  3812  488d7617       REX.W leaq rsi,[rsi+0x17]
0x165864f42d88  3816  83f908         cmpl rcx,0x8
0x165864f42d8b  3819  7250           jc 3901  (0x165864f42ddd)
0x165864f42d8d  3821  83f910         cmpl rcx,0x10
0x165864f42d90  3824  7636           jna 3880  (0x165864f42dc8)
0x165864f42d92  3826  83f918         cmpl rcx,0x18
0x165864f42d95  3829  7629           jna 3872  (0x165864f42dc0)
0x165864f42d97  3831  83f920         cmpl rcx,0x20
0x165864f42d9a  3834  761c           jna 3864  (0x165864f42db8)
0x165864f42d9c  3836  4c8bd1         REX.W movq r10,rcx
0x165864f42d9f  3839  c1e903         shrl rcx, 3
0x165864f42da2  3842  f348a5         REX.W rep REX.W movsq
0x165864f42da5  3845  4183e207       andl r10,0x7
0x165864f42da9  3849  4a8b4c16f8     REX.W movq rcx,[rsi+r10*1-0x8]
0x165864f42dae  3854  4a894c17f8     REX.W movq [rdi+r10*1-0x8],rcx
0x165864f42db3  3859  4903fa         REX.W addq rdi,r10
0x165864f42db6  3862  eb3d           jmp 3925  (0x165864f42df5)
0x165864f42db8  3864  4c8b5610       REX.W movq r10,[rsi+0x10]
0x165864f42dbc  3868  4c895710       REX.W movq [rdi+0x10],r10
0x165864f42dc0  3872  4c8b5608       REX.W movq r10,[rsi+0x8]
0x165864f42dc4  3876  4c895708       REX.W movq [rdi+0x8],r10
0x165864f42dc8  3880  4c8b16         REX.W movq r10,[rsi]
0x165864f42dcb  3883  4c8917         REX.W movq [rdi],r10
0x165864f42dce  3886  4c8b540ef8     REX.W movq r10,[rsi+rcx*1-0x8]
0x165864f42dd3  3891  4c89540ff8     REX.W movq [rdi+rcx*1-0x8],r10
0x165864f42dd8  3896  4803f9         REX.W addq rdi,rcx
0x165864f42ddb  3899  eb18           jmp 3925  (0x165864f42df5)
0x165864f42ddd  3901  85c9           testl rcx,rcx
0x165864f42ddf  3903  7414           jz 3925  (0x165864f42df5)
0x165864f42de1  3905  448a16         movb r10l,[rsi]
0x165864f42de4  3908  448817         movb [rdi],r10l
0x165864f42de7  3911  48ffc6         REX.W incq rsi
0x165864f42dea  3914  48ffc7         REX.W incq rdi
0x165864f42ded  3917  ffc9           decl rcx
0x165864f42def  3919  0f85ecffffff   jnz 3905  (0x165864f42de1)
0x165864f42df5  3925  ffc2           incl rdx
0x165864f42df7  3927  3b1424         cmpl rdx,[rsp]
0x165864f42dfa  3930  0f8c77ffffff   jl 3799  (0x165864f42d77)
0x165864f42e00  3936  e912010000     jmp 4215  (0x165864f42f17)
0x165864f42e05  3941  8b1424         movl rdx,[rsp]
0x165864f42e08  3944  488d44d00f     REX.W leaq rax,[rax+rdx*8+0xf]
0x165864f42e0d  3949  48f7da         REX.W negq rdx
0x165864f42e10  3952  488b742410     REX.W movq rsi,[rsp+0x10]
0x165864f42e15  3957  8b5e13         movl rbx,[rsi+0x13]
0x165864f42e18  3960  488d7617       REX.W leaq rsi,[rsi+0x17]
0x165864f42e1c  3964  4889742410     REX.W movq [rsp+0x10],rsi
0x165864f42e21  3969  e970000000     jmp 4086  (0x165864f42e96)
0x165864f42e26  3974  488b742410     REX.W movq rsi,[rsp+0x10]
0x165864f42e2b  3979  8bcb           movl rcx,rbx
0x165864f42e2d  3981  83f908         cmpl rcx,0x8
0x165864f42e30  3984  7250           jc 4066  (0x165864f42e82)
0x165864f42e32  3986  83f910         cmpl rcx,0x10
0x165864f42e35  3989  7636           jna 4045  (0x165864f42e6d)
0x165864f42e37  3991  83f918         cmpl rcx,0x18
0x165864f42e3a  3994  7629           jna 4037  (0x165864f42e65)
0x165864f42e3c  3996  83f920         cmpl rcx,0x20
0x165864f42e3f  3999  761c           jna 4029  (0x165864f42e5d)
0x165864f42e41  4001  4c8bd1         REX.W movq r10,rcx
0x165864f42e44  4004  c1e903         shrl rcx, 3
0x165864f42e47  4007  f348a5         REX.W rep REX.W movsq
0x165864f42e4a  4010  4183e207       andl r10,0x7
0x165864f42e4e  4014  4a8b4c16f8     REX.W movq rcx,[rsi+r10*1-0x8]
0x165864f42e53  4019  4a894c17f8     REX.W movq [rdi+r10*1-0x8],rcx
0x165864f42e58  4024  4903fa         REX.W addq rdi,r10
0x165864f42e5b  4027  eb39           jmp 4086  (0x165864f42e96)
0x165864f42e5d  4029  4c8b5610       REX.W movq r10,[rsi+0x10]
0x165864f42e61  4033  4c895710       REX.W movq [rdi+0x10],r10
0x165864f42e65  4037  4c8b5608       REX.W movq r10,[rsi+0x8]
0x165864f42e69  4041  4c895708       REX.W movq [rdi+0x8],r10
0x165864f42e6d  4045  4c8b16         REX.W movq r10,[rsi]
0x165864f42e70  4048  4c8917         REX.W movq [rdi],r10
0x165864f42e73  4051  4c8b540ef8     REX.W movq r10,[rsi+rcx*1-0x8]
0x165864f42e78  4056  4c89540ff8     REX.W movq [rdi+rcx*1-0x8],r10
0x165864f42e7d  4061  4803f9         REX.W addq rdi,rcx
0x165864f42e80  4064  eb14           jmp 4086  (0x165864f42e96)
0x165864f42e82  4066  448a16         movb r10l,[rsi]
0x165864f42e85  4069  448817         movb [rdi],r10l
0x165864f42e88  4072  48ffc6         REX.W incq rsi
0x165864f42e8b  4075  48ffc7         REX.W incq rdi
0x165864f42e8e  4078  ffc9           decl rcx
0x165864f42e90  4080  0f85ecffffff   jnz 4066  (0x165864f42e82)
0x165864f42e96  4086  488b34d0       REX.W movq rsi,[rax+rdx*8]
0x165864f42e9a  4090  8b4e13         movl rcx,[rsi+0x13]
0x165864f42e9d  4093  488d7617       REX.W leaq rsi,[rsi+0x17]
0x165864f42ea1  4097  83f908         cmpl rcx,0x8
0x165864f42ea4  4100  7250           jc 4182  (0x165864f42ef6)
0x165864f42ea6  4102  83f910         cmpl rcx,0x10
0x165864f42ea9  4105  7636           jna 4161  (0x165864f42ee1)
0x165864f42eab  4107  83f918         cmpl rcx,0x18
0x165864f42eae  4110  7629           jna 4153  (0x165864f42ed9)
0x165864f42eb0  4112  83f920         cmpl rcx,0x20
0x165864f42eb3  4115  761c           jna 4145  (0x165864f42ed1)
0x165864f42eb5  4117  4c8bd1         REX.W movq r10,rcx
0x165864f42eb8  4120  c1e903         shrl rcx, 3
0x165864f42ebb  4123  f348a5         REX.W rep REX.W movsq
0x165864f42ebe  4126  4183e207       andl r10,0x7
0x165864f42ec2  4130  4a8b4c16f8     REX.W movq rcx,[rsi+r10*1-0x8]
0x165864f42ec7  4135  4a894c17f8     REX.W movq [rdi+r10*1-0x8],rcx
0x165864f42ecc  4140  4903fa         REX.W addq rdi,r10
0x165864f42ecf  4143  eb3d           jmp 4206  (0x165864f42f0e)
0x165864f42ed1  4145  4c8b5610       REX.W movq r10,[rsi+0x10]
0x165864f42ed5  4149  4c895710       REX.W movq [rdi+0x10],r10
0x165864f42ed9  4153  4c8b5608       REX.W movq r10,[rsi+0x8]
0x165864f42edd  4157  4c895708       REX.W movq [rdi+0x8],r10
0x165864f42ee1  4161  4c8b16         REX.W movq r10,[rsi]
0x165864f42ee4  4164  4c8917         REX.W movq [rdi],r10
0x165864f42ee7  4167  4c8b540ef8     REX.W movq r10,[rsi+rcx*1-0x8]
0x165864f42eec  4172  4c89540ff8     REX.W movq [rdi+rcx*1-0x8],r10
0x165864f42ef1  4177  4803f9         REX.W addq rdi,rcx
0x165864f42ef4  4180  eb18           jmp 4206  (0x165864f42f0e)
0x165864f42ef6  4182  85c9           testl rcx,rcx
0x165864f42ef8  4184  7414           jz 4206  (0x165864f42f0e)
0x165864f42efa  4186  448a16         movb r10l,[rsi]
0x165864f42efd  4189  448817         movb [rdi],r10l
0x165864f42f00  4192  48ffc6         REX.W incq rsi
0x165864f42f03  4195  48ffc7         REX.W incq rdi
0x165864f42f06  4198  ffc9           decl rcx
0x165864f42f08  4200  0f85ecffffff   jnz 4186  (0x165864f42efa)
0x165864f42f0e  4206  48ffc2         REX.W incq rdx
0x165864f42f11  4209  0f850fffffff   jnz 3974  (0x165864f42e26)
0x165864f42f17  4215  488b442408     REX.W movq rax,[rsp+0x8]
0x165864f42f1c  4220  4883c418       REX.W addq rsp,0x18
0x165864f42f20  4224  488b75f8       REX.W movq rsi,[rbp-0x8]
0x165864f42f24  4228  488945c0       REX.W movq [rbp-0x40],rax    ;; debug: position 2382
0x165864f42f28  4232  488b45c0       REX.W movq rax,[rbp-0x40]    ;; debug: statement 2417
                                                             ;; debug: position 2422
0x165864f42f2c  4236  eb0f           jmp 4253  (0x165864f42f3d)
0x165864f42f2e  4238  493b45c0       REX.W cmpq rax,[r13-0x40]
0x165864f42f32  4242  0f8421000000   jz 4281  (0x165864f42f59)
0x165864f42f38  4248  e90a000000     jmp 4263  (0x165864f42f47)
0x165864f42f3d  4253  493b45a8       REX.W cmpq rax,[r13-0x58]
0x165864f42f41  4257  0f8412000000   jz 4281  (0x165864f42f59)
0x165864f42f47  4263  488b45c0       REX.W movq rax,[rbp-0x40]    ;; debug: statement 2436
                                                             ;; debug: position 2443
0x165864f42f4b  4267  4883c408       REX.W addq rsp,0x8
0x165864f42f4f  4271  e874f0ffff     call 296  (0x165864f41fc8)
0x165864f42f54  4276  e99defffff     jmp 86  (0x165864f41ef6)
0x165864f42f59  4281  ff75d8         push [rbp-0x28]         ;; debug: statement 2446
                                                             ;; debug: position 2472
0x165864f42f5c  4284  ff7520         push [rbp+0x20]         ;; debug: position 2474
0x165864f42f5f  4287  ff7518         push [rbp+0x18]         ;; debug: position 2476
0x165864f42f62  4290  b803000000     movl rax,0x3
0x165864f42f67  4295  48bba0ee2e0100000000 REX.W movq rbx,0x12eeea0
0x165864f42f71  4305  e86a5bfcff     call 0x165864f08ae0     ;; code: STUB, CEntryStub, minor: 0
0x165864f42f76  4310  4883c408       REX.W addq rsp,0x8
0x165864f42f7a  4314  e849f0ffff     call 296  (0x165864f41fc8)
0x165864f42f7f  4319  e972efffff     jmp 86  (0x165864f41ef6)
0x165864f42f84  4324  4883c408       REX.W addq rsp,0x8
0x165864f42f88  4328  33c0           xorl rax,rax
0x165864f42f8a  4330  e839f0ffff     call 296  (0x165864f41fc8)
0x165864f42f8f  4335  498b45a8       REX.W movq rax,[r13-0x58]
0x165864f42f93  4339  e95eefffff     jmp 86  (0x165864f41ef6)

Deoptimization Output Data (deopt points = 0)

Back edges (size = 3)
ast_id  pc_offset  loop_depth
   315       1384           1
   532       2832           1
   647       3217           1

0x1eddcf9f11e9: [TypeFeedbackInfo]
 - ic_total_count: 36, ic_with_type_info_count: 0, ic_generic_count: 0

Handler Table (size = 48)
   from   to       hdlr
  ( 457,4324)  ->   270 (prediction=0, depth=6)

RelocInfo (size = 569)
0x165864f41ea0  position  (1561)
0x165864f41eba  code target (BUILTIN)  (0x165864f36a80)
0x165864f41ebe  statement position  (1572)
0x165864f41ebe  position  (1575)
0x165864f41ecd  code target with id (COMPARE_IC)  (0x165864f2b380) (id=45)
0x165864f41eec  statement position  (1580)
0x165864f41eee  embedded object  (0x1eddcf9042e1 <String[0]: >)
0x165864f41ef8  embedded object  (0x1eddcf9f0f89 Cell for 6144)
0x165864f41f08  code target (BUILTIN)  (0x165864f36940)
0x165864f41f0f  embedded object  (0x1eddcf9f0f89 Cell for 6144)
0x165864f41f25  statement position  (2518)
0x165864f41f29  statement position  (1590)
0x165864f41f29  position  (1607)
0x165864f41f45  embedded object  (0x1eddcf904231 <true>)
0x165864f41f51  embedded object  (0x1eddcf904299 <false>)
0x165864f41f59  position  (1590)
0x165864f41f5d  statement position  (1612)
0x165864f41f5d  position  (1615)
0x165864f41f62  code target with id (TO_BOOLEAN_IC)  (0x165864f255e0) (id=75)
0x165864f41f6f  statement position  (1619)
0x165864f41f6f  position  (1637)
0x165864f41f75  position  (1639)
0x165864f41f88  code target (STUB)  (0x165864f08ae0)
0x165864f41f8d  code target with id (TO_BOOLEAN_IC)  (0x165864f255e0) (id=88)
0x165864f41f9a  statement position  (1642)
0x165864f41f9c  embedded object  (0x1eddcf9042e1 <String[0]: >)
0x165864f41fa9  statement position  (1654)
0x165864f41fc4  code target (STUB)  (0x165864f08ae0)
0x165864f41fcb  embedded object  (0x165864f41e41 <Code: FUNCTION>)
0x165864f41fef  statement position  (2490)
0x165864f41fef  position  (2493)
0x165864f41ff4  code target with id (TO_BOOLEAN_IC)  (0x165864f255e0) (id=853)
0x165864f42001  statement position  (2495)
0x165864f42001  position  (2495)
0x165864f42007  position  (2504)
0x165864f42011  position  (2505)
0x165864f42013  embedded object  (0x1eddcf990771 <String[6]: length>)
0x165864f42026  code target (LOAD_IC)  (0x165864f32060)
0x165864f42035  position  (2512)
0x165864f42037  code target with id (BINARY_OP_IC)  (0x165864f08a40) (id=871)
0x165864f4203c  position  (2503)
0x165864f4203e  embedded object  (0x1eddcf990771 <String[6]: length>)
0x165864f42048  code target with id (STORE_IC)  (0x165864f32380) (id=858)
0x165864f4205c  embedded object  (0x165864f41e41 <Code: FUNCTION>)
0x165864f4206a  statement position  (1659)
0x165864f4206a  position  (1662)
0x165864f42077  position  (1679)
0x165864f4207a  position  (1681)
0x165864f4207d  position  (1683)
0x165864f42080  position  (1685)
0x165864f42083  position  (1662)
0x165864f42093  code target (CALL_IC)  (0x165864f2a440)
0x165864f420a0  code target with id (TO_BOOLEAN_IC)  (0x165864f255e0) (id=107)
0x165864f420ad  statement position  (1690)
0x165864f420ad  position  (1709)
0x165864f420c0  code target (STUB)  (0x165864f08ae0)
0x165864f420c4  statement position  (1713)
0x165864f420c4  position  (1716)
0x165864f420cb  position  (1717)
0x165864f420cd  embedded object  (0x1eddcf990771 <String[6]: length>)
0x165864f420e0  code target (LOAD_IC)  (0x165864f32060)
0x165864f420f1  code target with id (COMPARE_IC)  (0x165864f2b380) (id=140)
0x165864f42110  statement position  (1730)
0x165864f42110  position  (1737)
0x165864f4211d  position  (1748)
0x165864f42120  position  (1750)
0x165864f42123  position  (1752)
0x165864f42126  position  (1737)
0x165864f42136  code target (CALL_IC)  (0x165864f17ba0)
0x165864f42155  statement position  (1763)
0x165864f42155  position  (1770)
0x165864f42162  position  (1796)
0x165864f42165  position  (1798)
0x165864f42168  position  (1800)
0x165864f4216b  position  (1802)
0x165864f4216e  position  (1770)
0x165864f4217e  code target (CALL_IC)  (0x165864f2a440)
0x165864f42198  statement position  (1810)
0x165864f42198  position  (1813)
0x165864f421a7  code target with id (COMPARE_IC)  (0x165864f2b380) (id=201)
0x165864f421c6  statement position  (1820)
0x165864f421c6  position  (1826)
0x165864f421d7  position  (1827)
0x165864f421e2  code target (KEYED_LOAD_IC)  (0x165864f1c0c0)
0x165864f421e6  position  (1820)
0x165864f421ea  statement position  (1832)
0x165864f421ea  position  (1843)
0x165864f42215  statement position  (1858)
0x165864f42215  position  (1865)
0x165864f42227  statement position  (1868)
0x165864f42227  position  (1875)
0x165864f4222e  position  (1877)
0x165864f42231  position  (1875)
0x165864f42241  code target (CALL_IC)  (0x165864f31f40)
0x165864f4225b  statement position  (1883)
0x165864f4225b  position  (1893)
0x165864f42261  position  (1895)
0x165864f42264  position  (1889)
0x165864f42285  code target (js construct call) (STUB)  (0x165864f1a640)
0x165864f4228d  position  (1883)
0x165864f42291  statement position  (1899)
0x165864f42291  position  (1902)
0x165864f42298  position  (1903)
0x165864f4229a  embedded object  (0x1eddcf990771 <String[6]: length>)
0x165864f422ad  code target (LOAD_IC)  (0x165864f32060)
0x165864f422be  code target with id (COMPARE_IC)  (0x165864f2b380) (id=284)
0x165864f422dd  statement position  (1916)
0x165864f422eb  statement position  (1925)
0x165864f422eb  statement position  (1929)
0x165864f422fe  statement position  (1947)
0x165864f422fe  position  (1953)
0x165864f42301  position  (1955)
0x165864f42309  position  (1954)
0x165864f42314  code target (KEYED_LOAD_IC)  (0x165864f1c0c0)
0x165864f42318  position  (1947)
0x165864f4231c  statement position  (1959)
0x165864f4231c  position  (1971)
0x165864f42347  statement position  (1986)
0x165864f42347  position  (1988)
0x165864f4234e  position  (1990)
0x165864f42351  position  (1988)
0x165864f42361  code target (CALL_IC)  (0x165864f31f40)
0x165864f4236d  position  (1987)
0x165864f42371  statement position  (1994)
0x165864f42371  position  (1994)
0x165864f42374  position  (1996)
0x165864f42392  code target (STUB)  (0x165864f22f00)
0x165864f42397  position  (1997)
0x165864f423a5  code target with id (BINARY_OP_IC)  (0x165864f18580) (id=420)
0x165864f423af  position  (2001)
0x165864f423b3  position  (2000)
0x165864f423b6  code target with id (KEYED_STORE_IC)  (0x165864f358a0) (id=412)
0x165864f423ba  statement position  (1942)
0x165864f423ba  position  (1941)
0x165864f423d7  code target (STUB)  (0x165864f22f00)
0x165864f423db  position  (1942)
0x165864f423e9  code target with id (BINARY_OP_IC)  (0x165864f18580) (id=344)
0x165864f423f5  embedded object  (0x1eddcf9f0f89 Cell for 6144)
0x165864f42404  code target (BUILTIN)  (0x165864f36940)
0x165864f4240a  embedded object  (0x1eddcf9f0f89 Cell for 6144)
0x165864f42420  statement position  (1938)
0x165864f42420  position  (1937)
0x165864f42423  position  (1939)
0x165864f42442  code target with id (COMPARE_IC)  (0x165864f1c8c0) (id=333)
0x165864f42462  statement position  (2006)
0x165864f42462  position  (2006)
0x165864f42465  position  (2015)
0x165864f42469  position  (2014)
0x165864f4246b  embedded object  (0x1eddcf990771 <String[6]: length>)
0x165864f42475  code target with id (STORE_IC)  (0x165864f32380) (id=434)
0x165864f42479  statement position  (2018)
0x165864f4247b  embedded object  (0x1eddcf9042e1 <String[0]: >)
0x165864f42485  position  (2047)
0x165864f4281b  position  (2018)
0x165864f4281f  statement position  (2054)
0x165864f4281f  position  (2059)
0x165864f4283e  statement position  (2073)
0x165864f4283e  position  (2080)
0x165864f42850  statement position  (2083)
0x165864f42850  position  (2111)
0x165864f42853  position  (2113)
0x165864f42858  embedded object  (0x1eddcf9042e1 <String[0]: >)
0x165864f42872  code target (STUB)  (0x165864f08ae0)
0x165864f42884  statement position  (2122)
0x165864f42884  position  (2134)
0x165864f42895  position  (2135)
0x165864f428a0  code target (KEYED_LOAD_IC)  (0x165864f1c0c0)
0x165864f428cb  statement position  (2154)
0x165864f428cb  statement position  (2158)
0x165864f428de  statement position  (2176)
0x165864f428de  position  (2182)
0x165864f428e1  position  (2184)
0x165864f428e9  position  (2183)
0x165864f428f4  code target (KEYED_LOAD_IC)  (0x165864f1c0c0)
0x165864f428f8  position  (2176)
0x165864f428fc  statement position  (2188)
0x165864f428fc  position  (2200)
0x165864f42927  statement position  (2215)
0x165864f42927  position  (2217)
0x165864f4292e  position  (2219)
0x165864f42931  position  (2217)
0x165864f42941  code target (CALL_IC)  (0x165864f31f40)
0x165864f4294d  position  (2216)
0x165864f42951  statement position  (2223)
0x165864f42951  position  (2223)
0x165864f42954  position  (2225)
0x165864f42957  position  (2228)
0x165864f4295b  position  (2227)
0x165864f4295e  code target with id (KEYED_STORE_IC)  (0x165864f358a0) (id=629)
0x165864f42962  statement position  (2171)
0x165864f42962  position  (2170)
0x165864f4297f  code target (STUB)  (0x165864f22f00)
0x165864f42983  position  (2171)
0x165864f42991  code target with id (BINARY_OP_IC)  (0x165864f18580) (id=561)
0x165864f4299d  embedded object  (0x1eddcf9f0f89 Cell for 6144)
0x165864f429ac  code target (BUILTIN)  (0x165864f36940)
0x165864f429b2  embedded object  (0x1eddcf9f0f89 Cell for 6144)
0x165864f429c8  statement position  (2167)
0x165864f429c8  position  (2166)
0x165864f429cb  position  (2168)
0x165864f429ea  code target with id (COMPARE_IC)  (0x165864f1c8c0) (id=550)
0x165864f42a0f  statement position  (2240)
0x165864f42a0f  statement position  (2244)
0x165864f42a22  statement position  (2262)
0x165864f42a22  position  (2268)
0x165864f42a25  position  (2270)
0x165864f42a2d  position  (2269)
0x165864f42a38  code target (KEYED_LOAD_IC)  (0x165864f1c0c0)
0x165864f42a3c  position  (2262)
0x165864f42a40  statement position  (2274)
0x165864f42a40  position  (2285)
0x165864f42a6b  statement position  (2302)
0x165864f42a6b  position  (2321)
0x165864f42a70  code target (STUB)  (0x165864f23100)
0x165864f42a74  position  (2303)
0x165864f42a7d  statement position  (2331)
0x165864f42a7d  position  (2343)
0x165864f42aa8  statement position  (2360)
0x165864f42aa8  position  (2362)
0x165864f42aaf  position  (2364)
0x165864f42ab2  position  (2362)
0x165864f42ac2  code target (CALL_IC)  (0x165864f31f40)
0x165864f42ace  position  (2361)
0x165864f42ad2  statement position  (2370)
0x165864f42ad2  position  (2370)
0x165864f42ad5  position  (2372)
0x165864f42ad8  position  (2375)
0x165864f42adc  position  (2374)
0x165864f42adf  code target with id (KEYED_STORE_IC)  (0x165864f358a0) (id=779)
0x165864f42ae3  statement position  (2257)
0x165864f42ae3  position  (2256)
0x165864f42b00  code target (STUB)  (0x165864f22f00)
0x165864f42b04  position  (2257)
0x165864f42b12  code target with id (BINARY_OP_IC)  (0x165864f18580) (id=676)
0x165864f42b1e  embedded object  (0x1eddcf9f0f89 Cell for 6144)
0x165864f42b2d  code target (BUILTIN)  (0x165864f36940)
0x165864f42b33  embedded object  (0x1eddcf9f0f89 Cell for 6144)
0x165864f42b49  statement position  (2253)
0x165864f42b49  position  (2252)
0x165864f42b4c  position  (2254)
0x165864f42b6b  code target with id (COMPARE_IC)  (0x165864f1c8c0) (id=665)
0x165864f42b8b  statement position  (2382)
0x165864f42b8b  position  (2413)
0x165864f42b8e  position  (2411)
0x165864f42f24  position  (2382)
0x165864f42f28  statement position  (2417)
0x165864f42f28  position  (2422)
0x165864f42f47  statement position  (2436)
0x165864f42f47  position  (2443)
0x165864f42f59  statement position  (2446)
0x165864f42f59  position  (2472)
0x165864f42f5c  position  (2474)
0x165864f42f5f  position  (2476)
0x165864f42f72  code target (STUB)  (0x165864f08ae0)

--- End code ---
--- Raw source ---
(q,w,K,L){
if(!K||w<1000||%IsObserved(q)||
%HasComplexElements(q)){
return false;
}
if(!%_IsSmi(w)){
return true;
}
var M=w>>2;
var N=%EstimateNumberOfElements(q);
return(N<M)&&
(L>N*4);
}


--- Code ---
source_position = 1359
kind = FUNCTION
name = UseSparseVariant
compiler = full-codegen
Instructions (size = 476)
0x165864f43020     0  55             push rbp                ;; debug: position 1359
0x165864f43021     1  4889e5         REX.W movq rbp,rsp
0x165864f43024     4  56             push rsi
0x165864f43025     5  57             push rdi
0x165864f43026     6  498b55a8       REX.W movq rdx,[r13-0x58]
0x165864f4302a    10  52             push rdx
0x165864f4302b    11  52             push rdx
0x165864f4302c    12  493ba548090000 REX.W cmpq rsp,[r13+0x948]
0x165864f43033    19  7305           jnc 26  (0x165864f4303a)
0x165864f43035    21  e8463affff     call StackCheck  (0x165864f36a80)    ;; code: BUILTIN
0x165864f4303a    26  488b4518       REX.W movq rax,[rbp+0x18]    ;; debug: statement 1370
                                                             ;; debug: position 1374
0x165864f4303e    30  e89d25feff     call 0x165864f255e0     ;; code: TO_BOOLEAN_IC, UNINITIALIZED (id = 30)
0x165864f43043    35  4885c0         REX.W testq rax,rax
0x165864f43046    38  0f8478000000   jz 164  (0x165864f430c4)
0x165864f4304c    44  ff7520         push [rbp+0x20]         ;; debug: position 1377
0x165864f4304f    47  48b800000000e8030000 REX.W movq rax,0x3e800000000
0x165864f43059    57  5a             pop rdx
0x165864f4305a    58  e86198fdff     call 0x165864f1c8c0     ;; code: COMPARE_IC, UNINITIALIZED (id = 34)
0x165864f4305f    63  90             nop
0x165864f43060    64  eb0f           jmp 81  (0x165864f43071)
0x165864f43062    66  493b45c0       REX.W cmpq rax,[r13-0x40]
0x165864f43066    70  0f8458000000   jz 164  (0x165864f430c4)
0x165864f4306c    76  e909000000     jmp 90  (0x165864f4307a)
0x165864f43071    81  4885c0         REX.W testq rax,rax
0x165864f43074    84  0f8c4a000000   jl 164  (0x165864f430c4)
0x165864f4307a    90  ff7528         push [rbp+0x28]         ;; debug: position 1397
0x165864f4307d    93  b801000000     movl rax,0x1
0x165864f43082    98  48bb304e2a0100000000 REX.W movq rbx,0x12a4e30
0x165864f4308c   108  e84f5afcff     call 0x165864f08ae0     ;; code: STUB, CEntryStub, minor: 0
0x165864f43091   113  e84a25feff     call 0x165864f255e0     ;; code: TO_BOOLEAN_IC, UNINITIALIZED (id = 42)
0x165864f43096   118  4885c0         REX.W testq rax,rax
0x165864f43099   121  0f8525000000   jnz 164  (0x165864f430c4)
0x165864f4309f   127  ff7528         push [rbp+0x28]         ;; debug: position 1422
0x165864f430a2   130  b801000000     movl rax,0x1
0x165864f430a7   135  48bbd07f260100000000 REX.W movq rbx,0x1267fd0
0x165864f430b1   145  e82a5afcff     call 0x165864f08ae0     ;; code: STUB, CEntryStub, minor: 0
0x165864f430b6   150  e82525feff     call 0x165864f255e0     ;; code: TO_BOOLEAN_IC, UNINITIALIZED (id = 48)
0x165864f430bb   155  4885c0         REX.W testq rax,rax
0x165864f430be   158  0f843d000000   jz 225  (0x165864f43101)
0x165864f430c4   164  48b8994290cfdd1e0000 REX.W movq rax,0x1eddcf904299    ;; debug: statement 1427
                                                             ;; object: 0x1eddcf904299 <false>
0x165864f430ce   174  48bbe9129fcfdd1e0000 REX.W movq rbx,0x1eddcf9f12e9    ;; object: 0x1eddcf9f12e9 Cell for 6144
0x165864f430d8   184  83430bd1       addl [rbx+0xb],0xd1
0x165864f430dc   188  791f           jns 221  (0x165864f430fd)
0x165864f430de   190  50             push rax
0x165864f430df   191  e85c38ffff     call InterruptCheck  (0x165864f36940)    ;; code: BUILTIN
0x165864f430e4   196  58             pop rax
0x165864f430e5   197  48bbe9129fcfdd1e0000 REX.W movq rbx,0x1eddcf9f12e9    ;; object: 0x1eddcf9f12e9 Cell for 6144
0x165864f430ef   207  49ba0000000000180000 REX.W movq r10,0x180000000000
0x165864f430f9   217  4c895307       REX.W movq [rbx+0x7],r10
0x165864f430fd   221  c9             leave                   ;; debug: statement 1546
0x165864f430fe   222  c22800         ret 0x28
0x165864f43101   225  488b4520       REX.W movq rax,[rbp+0x20]    ;; debug: statement 1443
                                                             ;; debug: position 1455
0x165864f43105   229  eb0f           jmp 246  (0x165864f43116)
0x165864f43107   231  493b45c0       REX.W cmpq rax,[r13-0x40]
0x165864f4310b   235  0f8421000000   jz 274  (0x165864f43132)
0x165864f43111   241  e90d000000     jmp 259  (0x165864f43123)
0x165864f43116   246  a801           test al,0x1
0x165864f43118   248  0f8414000000   jz 274  (0x165864f43132)
0x165864f4311e   254  e900000000     jmp 259  (0x165864f43123)
0x165864f43123   259  48b8314290cfdd1e0000 REX.W movq rax,0x1eddcf904231    ;; debug: statement 1460
                                                             ;; object: 0x1eddcf904231 <true>
0x165864f4312d   269  e99cffffff     jmp 174  (0x165864f430ce)
0x165864f43132   274  ff7520         push [rbp+0x20]         ;; debug: statement 1475
                                                             ;; debug: position 1481
0x165864f43135   277  48b80000000002000000 REX.W movq rax,0x200000000
0x165864f4313f   287  5a             pop rdx                 ;; debug: position 1482
0x165864f43140   288  e8dbadfeff     call 0x165864f2df20     ;; code: BINARY_OP_IC, UNINITIALIZED (id = 91)
0x165864f43145   293  90             nop
0x165864f43146   294  488945e8       REX.W movq [rbp-0x18],rax    ;; debug: position 1475
0x165864f4314a   298  ff7528         push [rbp+0x28]         ;; debug: statement 1487
                                                             ;; debug: position 1519
0x165864f4314d   301  b801000000     movl rax,0x1
0x165864f43152   306  48bbb067260100000000 REX.W movq rbx,0x12667b0
0x165864f4315c   316  e87f59fcff     call 0x165864f08ae0     ;; code: STUB, CEntryStub, minor: 0
0x165864f43161   321  488945e0       REX.W movq [rbp-0x20],rax    ;; debug: position 1487
0x165864f43165   325  ff75e0         push [rbp-0x20]         ;; debug: statement 1523
                                                             ;; debug: position 1530
0x165864f43168   328  488b45e8       REX.W movq rax,[rbp-0x18]    ;; debug: position 1532
0x165864f4316c   332  5a             pop rdx
0x165864f4316d   333  e84e97fdff     call 0x165864f1c8c0     ;; code: COMPARE_IC, UNINITIALIZED (id = 120)
0x165864f43172   338  90             nop
0x165864f43173   339  4885c0         REX.W testq rax,rax
0x165864f43176   342  0f8d0c000000   jge 360  (0x165864f43188)
0x165864f4317c   348  48b8314290cfdd1e0000 REX.W movq rax,0x1eddcf904231    ;; object: 0x1eddcf904231 <true>
0x165864f43186   358  eb0a           jmp 370  (0x165864f43192)
0x165864f43188   360  48b8994290cfdd1e0000 REX.W movq rax,0x1eddcf904299    ;; object: 0x1eddcf904299 <false>
0x165864f43192   370  50             push rax
0x165864f43193   371  e84824feff     call 0x165864f255e0     ;; code: TO_BOOLEAN_IC, UNINITIALIZED (id = 119)
0x165864f43198   376  4885c0         REX.W testq rax,rax
0x165864f4319b   379  0f8506000000   jnz 391  (0x165864f431a7)
0x165864f431a1   385  58             pop rax
0x165864f431a2   386  e941000000     jmp 456  (0x165864f431e8)
0x165864f431a7   391  4883c408       REX.W addq rsp,0x8
0x165864f431ab   395  ff7510         push [rbp+0x10]         ;; debug: position 1538
0x165864f431ae   398  ff75e0         push [rbp-0x20]         ;; debug: position 1540
0x165864f431b1   401  48b80000000004000000 REX.W movq rax,0x400000000
0x165864f431bb   411  5a             pop rdx                 ;; debug: position 1541
0x165864f431bc   412  e87fe7feff     call 0x165864f31940     ;; code: BINARY_OP_IC, UNINITIALIZED (id = 136)
0x165864f431c1   417  90             nop
0x165864f431c2   418  5a             pop rdx
0x165864f431c3   419  e8f88ffeff     call 0x165864f2c1c0     ;; code: COMPARE_IC, UNINITIALIZED (id = 129)
0x165864f431c8   424  90             nop
0x165864f431c9   425  4885c0         REX.W testq rax,rax
0x165864f431cc   428  0f8e0c000000   jle 446  (0x165864f431de)
0x165864f431d2   434  48b8314290cfdd1e0000 REX.W movq rax,0x1eddcf904231    ;; object: 0x1eddcf904231 <true>
0x165864f431dc   444  eb0a           jmp 456  (0x165864f431e8)
0x165864f431de   446  48b8994290cfdd1e0000 REX.W movq rax,0x1eddcf904299    ;; object: 0x1eddcf904299 <false>
0x165864f431e8   456  e9e1feffff     jmp 174  (0x165864f430ce)
0x165864f431ed   461  498b45a8       REX.W movq rax,[r13-0x58]
0x165864f431f1   465  e9d8feffff     jmp 174  (0x165864f430ce)
0x165864f431f6   470  6690           nop

Deoptimization Output Data (deopt points = 0)

Back edges (size = 0)
ast_id  pc_offset  loop_depth

0x1eddcf9f1371: [TypeFeedbackInfo]
 - ic_total_count: 9, ic_with_type_info_count: 0, ic_generic_count: 0

RelocInfo (size = 103)
0x165864f43020  position  (1359)
0x165864f43036  code target (BUILTIN)  (0x165864f36a80)
0x165864f4303a  statement position  (1370)
0x165864f4303a  position  (1374)
0x165864f4303f  code target with id (TO_BOOLEAN_IC)  (0x165864f255e0) (id=30)
0x165864f4304c  position  (1377)
0x165864f4305b  code target with id (COMPARE_IC)  (0x165864f1c8c0) (id=34)
0x165864f4307a  position  (1397)
0x165864f4308d  code target (STUB)  (0x165864f08ae0)
0x165864f43092  code target with id (TO_BOOLEAN_IC)  (0x165864f255e0) (id=42)
0x165864f4309f  position  (1422)
0x165864f430b2  code target (STUB)  (0x165864f08ae0)
0x165864f430b7  code target with id (TO_BOOLEAN_IC)  (0x165864f255e0) (id=48)
0x165864f430c4  statement position  (1427)
0x165864f430c6  embedded object  (0x1eddcf904299 <false>)
0x165864f430d0  embedded object  (0x1eddcf9f12e9 Cell for 6144)
0x165864f430e0  code target (BUILTIN)  (0x165864f36940)
0x165864f430e7  embedded object  (0x1eddcf9f12e9 Cell for 6144)
0x165864f430fd  statement position  (1546)
0x165864f43101  statement position  (1443)
0x165864f43101  position  (1455)
0x165864f43123  statement position  (1460)
0x165864f43125  embedded object  (0x1eddcf904231 <true>)
0x165864f43132  statement position  (1475)
0x165864f43132  position  (1481)
0x165864f4313f  position  (1482)
0x165864f43141  code target with id (BINARY_OP_IC)  (0x165864f2df20) (id=91)
0x165864f43146  position  (1475)
0x165864f4314a  statement position  (1487)
0x165864f4314a  position  (1519)
0x165864f4315d  code target (STUB)  (0x165864f08ae0)
0x165864f43161  position  (1487)
0x165864f43165  statement position  (1523)
0x165864f43165  position  (1530)
0x165864f43168  position  (1532)
0x165864f4316e  code target with id (COMPARE_IC)  (0x165864f1c8c0) (id=120)
0x165864f4317e  embedded object  (0x1eddcf904231 <true>)
0x165864f4318a  embedded object  (0x1eddcf904299 <false>)
0x165864f43194  code target with id (TO_BOOLEAN_IC)  (0x165864f255e0) (id=119)
0x165864f431ab  position  (1538)
0x165864f431ae  position  (1540)
0x165864f431bb  position  (1541)
0x165864f431bd  code target with id (BINARY_OP_IC)  (0x165864f31940) (id=136)
0x165864f431c4  code target with id (COMPARE_IC)  (0x165864f2c1c0) (id=129)
0x165864f431d4  embedded object  (0x1eddcf904231 <true>)
0x165864f431e0  embedded object  (0x1eddcf904299 <false>)

--- End code ---
--- Raw source ---
(P){
if((typeof(P)==='number'))return %_NumberToString(P);
if((typeof(P)==='boolean'))return P?'true':'false';
return((P==null))?'':m($defaultString(P));
}


--- Code ---
source_position = 2544
kind = FUNCTION
name = ConvertToString
compiler = full-codegen
Instructions (size = 396)
0x165864f43260     0  55             push rbp                ;; debug: position 2544
0x165864f43261     1  4889e5         REX.W movq rbp,rsp
0x165864f43264     4  56             push rsi
0x165864f43265     5  57             push rdi
0x165864f43266     6  493ba548090000 REX.W cmpq rsp,[r13+0x948]
0x165864f4326d    13  7305           jnc 20  (0x165864f43274)
0x165864f4326f    15  e80c38ffff     call StackCheck  (0x165864f36a80)    ;; code: BUILTIN
0x165864f43274    20  488b4510       REX.W movq rax,[rbp+0x10]    ;; debug: statement 2549
                                                             ;; debug: position 2560
0x165864f43278    24  eb0f           jmp 41  (0x165864f43289)
0x165864f4327a    26  493b45c0       REX.W cmpq rax,[r13-0x40]
0x165864f4327e    30  0f841b000000   jz 63  (0x165864f4329f)
0x165864f43284    36  e952000000     jmp 123  (0x165864f432db)
0x165864f43289    41  a801           test al,0x1
0x165864f4328b    43  0f840e000000   jz 63  (0x165864f4329f)
0x165864f43291    49  488b40ff       REX.W movq rax,[rax-0x1]
0x165864f43295    53  493b4508       REX.W cmpq rax,[r13+0x8]
0x165864f43299    57  0f853c000000   jnz 123  (0x165864f432db)
0x165864f4329f    63  488b4510       REX.W movq rax,[rbp+0x10]    ;; debug: statement 2575
                                                             ;; debug: position 2599
0x165864f432a3    67  e858fefdff     call 0x165864f23100     ;; code: STUB, NumberToStringStub, minor: 0
0x165864f432a8    72  48bb99149fcfdd1e0000 REX.W movq rbx,0x1eddcf9f1499    ;; object: 0x1eddcf9f1499 Cell for 6144
0x165864f432b2    82  83430bd1       addl [rbx+0xb],0xd1
0x165864f432b6    86  791f           jns 119  (0x165864f432d7)
0x165864f432b8    88  50             push rax
0x165864f432b9    89  e88236ffff     call InterruptCheck  (0x165864f36940)    ;; code: BUILTIN
0x165864f432be    94  58             pop rax
0x165864f432bf    95  48bb99149fcfdd1e0000 REX.W movq rbx,0x1eddcf9f1499    ;; object: 0x1eddcf9f1499 Cell for 6144
0x165864f432c9   105  49ba0000000000180000 REX.W movq r10,0x180000000000
0x165864f432d3   115  4c895307       REX.W movq [rbx+0x7],r10
0x165864f432d7   119  c9             leave                   ;; debug: statement 2698
0x165864f432d8   120  c21000         ret 0x10
0x165864f432db   123  488b4510       REX.W movq rax,[rbp+0x10]    ;; debug: statement 2603
                                                             ;; debug: position 2614
0x165864f432df   127  eb0f           jmp 144  (0x165864f432f0)
0x165864f432e1   129  493b45c0       REX.W cmpq rax,[r13-0x40]
0x165864f432e5   133  0f8419000000   jz 164  (0x165864f43304)
0x165864f432eb   139  e944000000     jmp 212  (0x165864f43334)
0x165864f432f0   144  493b45c0       REX.W cmpq rax,[r13-0x40]
0x165864f432f4   148  0f840a000000   jz 164  (0x165864f43304)
0x165864f432fa   154  493b45c8       REX.W cmpq rax,[r13-0x38]
0x165864f432fe   158  0f8530000000   jnz 212  (0x165864f43334)
0x165864f43304   164  488b4510       REX.W movq rax,[rbp+0x10]    ;; debug: statement 2630
                                                             ;; debug: position 2637
0x165864f43308   168  e8d322feff     call 0x165864f255e0     ;; code: TO_BOOLEAN_IC, UNINITIALIZED (id = 47)
0x165864f4330d   173  4885c0         REX.W testq rax,rax
0x165864f43310   176  0f840f000000   jz 197  (0x165864f43325)
0x165864f43316   182  48b8594290cfdd1e0000 REX.W movq rax,0x1eddcf904259    ;; debug: position 2639
                                                             ;; object: 0x1eddcf904259 <String[4]: true>
0x165864f43320   192  e90a000000     jmp 207  (0x165864f4332f)
0x165864f43325   197  48b8c14290cfdd1e0000 REX.W movq rax,0x1eddcf9042c1    ;; debug: position 2646
                                                             ;; object: 0x1eddcf9042c1 <String[5]: false>
0x165864f4332f   207  e974ffffff     jmp 72  (0x165864f432a8)
0x165864f43334   212  488b4510       REX.W movq rax,[rbp+0x10]    ;; debug: statement 2655
                                                             ;; debug: position 2663
0x165864f43338   216  eb0f           jmp 233  (0x165864f43349)
0x165864f4333a   218  493b45c0       REX.W cmpq rax,[r13-0x40]
0x165864f4333e   222  0f8413000000   jz 247  (0x165864f43357)
0x165864f43344   228  e91d000000     jmp 262  (0x165864f43366)
0x165864f43349   233  e8d298fcff     call 0x165864f0cc20     ;; code: COMPARE_NIL_IC, PREMONOMORPHIC (id = 61)
0x165864f4334e   238  4885c0         REX.W testq rax,rax
0x165864f43351   241  0f840f000000   jz 262  (0x165864f43366)
0x165864f43357   247  48b8e14290cfdd1e0000 REX.W movq rax,0x1eddcf9042e1    ;; debug: position 2673
                                                             ;; object: 0x1eddcf9042e1 <String[0]: >
0x165864f43361   257  e96f000000     jmp 373  (0x165864f433d5)
0x165864f43366   262  488bc6         REX.W movq rax,rsi      ;; debug: position 2676
0x165864f43369   265  ff7077         push [rax+0x77]
0x165864f4336c   268  41ff75a8       push [r13-0x58]
0x165864f43370   272  48b9e19194cfdd1e0000 REX.W movq rcx,0x1eddcf9491e1    ;; debug: position 2678
                                                             ;; object: 0x1eddcf9491e1 <String[14]: $defaultString>
0x165864f4337a   282  488b5627       REX.W movq rdx,[rsi+0x27]
0x165864f4337e   286  48b80000000008000000 REX.W movq rax,0x800000000
0x165864f43388   296  e8d351feff     call 0x165864f28560     ;; code: contextual, LOAD_IC, DEFAULT
0x165864f4338d   301  50             push rax
0x165864f4338e   302  49ba894190cfdd1e0000 REX.W movq r10,0x1eddcf904189    ;; object: 0x1eddcf904189 <undefined>
0x165864f43398   312  4152           push r10
0x165864f4339a   314  ff7510         push [rbp+0x10]         ;; debug: position 2693
0x165864f4339d   317  48ba0000000006000000 REX.W movq rdx,0x600000000    ;; debug: position 2678
0x165864f433a7   327  488b7c2410     REX.W movq rdi,[rsp+0x10]
0x165864f433ac   332  e88febfeff     call 0x165864f31f40     ;; code: CALL_IC, DEFAULT
0x165864f433b1   337  488b75f8       REX.W movq rsi,[rbp-0x8]
0x165864f433b5   341  48890424       REX.W movq [rsp],rax
0x165864f433b9   345  48ba0000000004000000 REX.W movq rdx,0x400000000    ;; debug: position 2676
0x165864f433c3   355  488b7c2410     REX.W movq rdi,[rsp+0x10]
0x165864f433c8   360  e873ebfeff     call 0x165864f31f40     ;; code: CALL_IC, DEFAULT
0x165864f433cd   365  488b75f8       REX.W movq rsi,[rbp-0x8]
0x165864f433d1   369  4883c408       REX.W addq rsp,0x8
0x165864f433d5   373  e9cefeffff     jmp 72  (0x165864f432a8)
0x165864f433da   378  498b45a8       REX.W movq rax,[r13-0x58]
0x165864f433de   382  e9c5feffff     jmp 72  (0x165864f432a8)
0x165864f433e3   387  0f1f440000     nop

Deoptimization Output Data (deopt points = 0)

Back edges (size = 0)
ast_id  pc_offset  loop_depth

0x1eddcf9f1509: [TypeFeedbackInfo]
 - ic_total_count: 5, ic_with_type_info_count: 0, ic_generic_count: 0

RelocInfo (size = 73)
0x165864f43260  position  (2544)
0x165864f43270  code target (BUILTIN)  (0x165864f36a80)
0x165864f43274  statement position  (2549)
0x165864f43274  position  (2560)
0x165864f4329f  statement position  (2575)
0x165864f4329f  position  (2599)
0x165864f432a4  code target (STUB)  (0x165864f23100)
0x165864f432aa  embedded object  (0x1eddcf9f1499 Cell for 6144)
0x165864f432ba  code target (BUILTIN)  (0x165864f36940)
0x165864f432c1  embedded object  (0x1eddcf9f1499 Cell for 6144)
0x165864f432d7  statement position  (2698)
0x165864f432db  statement position  (2603)
0x165864f432db  position  (2614)
0x165864f43304  statement position  (2630)
0x165864f43304  position  (2637)
0x165864f43309  code target with id (TO_BOOLEAN_IC)  (0x165864f255e0) (id=47)
0x165864f43316  position  (2639)
0x165864f43318  embedded object  (0x1eddcf904259 <String[4]: true>)
0x165864f43325  position  (2646)
0x165864f43327  embedded object  (0x1eddcf9042c1 <String[5]: false>)
0x165864f43334  statement position  (2655)
0x165864f43334  position  (2663)
0x165864f4334a  code target with id (COMPARE_NIL_IC)  (0x165864f0cc20) (id=61)
0x165864f43357  position  (2673)
0x165864f43359  embedded object  (0x1eddcf9042e1 <String[0]: >)
0x165864f43366  position  (2676)
0x165864f43370  position  (2678)
0x165864f43372  embedded object  (0x1eddcf9491e1 <String[14]: $defaultString>)
0x165864f43389  code target (LOAD_IC)  (0x165864f28560)
0x165864f43390  embedded object  (0x1eddcf904189 <undefined>)
0x165864f4339a  position  (2693)
0x165864f4339d  position  (2678)
0x165864f433ad  code target (CALL_IC)  (0x165864f31f40)
0x165864f433b9  position  (2676)
0x165864f433c9  code target (CALL_IC)  (0x165864f31f40)

--- End code ---
--- Code ---
kind = HANDLER
major_key = <NoCache>Stub
name = LoadFieldStub
compiler = crankshaft
Instructions (size = 16)
0x165864f435c0     0  488b420f       REX.W movq rax,[rdx+0xf]
0x165864f435c4     4  c3             ret
0x165864f435c5     5  0f1f00         nop


Safepoints (size = 8)

RelocInfo (size = 0)

--- End code ---
--- Raw source ---
l()

--- Code ---
source_position = 0
kind = FUNCTION
compiler = full-codegen
Instructions (size = 140)
0x165864f43640     0  55             push rbp                ;; debug: position 0
0x165864f43641     1  4889e5         REX.W movq rbp,rsp
0x165864f43644     4  56             push rsi
0x165864f43645     5  57             push rdi
0x165864f43646     6  41ff75a8       push [r13-0x58]
0x165864f4364a    10  493ba548090000 REX.W cmpq rsp,[r13+0x948]
0x165864f43651    17  7305           jnc 24  (0x165864f43658)
0x165864f43653    19  e82834ffff     call StackCheck  (0x165864f36a80)    ;; code: BUILTIN
0x165864f43658    24  488bc6         REX.W movq rax,rsi      ;; debug: statement 0
0x165864f4365b    27  ffb0e7000000   push [rax+0xe7]
0x165864f43661    33  41ff75a8       push [r13-0x58]
0x165864f43665    37  48ba0000000004000000 REX.W movq rdx,0x400000000
0x165864f4366f    47  488b7c2408     REX.W movq rdi,[rsp+0x8]
0x165864f43674    52  e8c79afeff     call 0x165864f2d140     ;; code: CALL_IC, DEFAULT
0x165864f43679    57  488b75f8       REX.W movq rsi,[rbp-0x8]
0x165864f4367d    61  4883c408       REX.W addq rsp,0x8
0x165864f43681    65  488945e8       REX.W movq [rbp-0x18],rax
0x165864f43685    69  488b45e8       REX.W movq rax,[rbp-0x18]    ;; debug: statement 3
0x165864f43689    73  48bb29179fcfdd1e0000 REX.W movq rbx,0x1eddcf9f1729    ;; object: 0x1eddcf9f1729 Cell for 6144
0x165864f43693    83  83430bd1       addl [rbx+0xb],0xd1
0x165864f43697    87  791f           jns 120  (0x165864f436b8)
0x165864f43699    89  50             push rax
0x165864f4369a    90  e8a132ffff     call InterruptCheck  (0x165864f36940)    ;; code: BUILTIN
0x165864f4369f    95  58             pop rax
0x165864f436a0    96  48bb29179fcfdd1e0000 REX.W movq rbx,0x1eddcf9f1729    ;; object: 0x1eddcf9f1729 Cell for 6144
0x165864f436aa   106  49ba0000000000180000 REX.W movq r10,0x180000000000
0x165864f436b4   116  4c895307       REX.W movq [rbx+0x7],r10
0x165864f436b8   120  c9             leave                   ;; debug: statement 2
0x165864f436b9   121  c20800         ret 0x8
0x165864f436bc   124  498b45a8       REX.W movq rax,[r13-0x58]
0x165864f436c0   128  e9c4ffffff     jmp 73  (0x165864f43689)
0x165864f436c5   133  0f1f00         nop

Deoptimization Output Data (deopt points = 0)

Back edges (size = 0)
ast_id  pc_offset  loop_depth

0x1eddcf9f1759: [TypeFeedbackInfo]
 - ic_total_count: 1, ic_with_type_info_count: 0, ic_generic_count: 0

RelocInfo (size = 13)
0x165864f43640  position  (0)
0x165864f43654  code target (BUILTIN)  (0x165864f36a80)
0x165864f43658  statement position  (0)
0x165864f43675  code target (CALL_IC)  (0x165864f2d140)
0x165864f43685  statement position  (3)
0x165864f4368b  embedded object  (0x1eddcf9f1729 Cell for 6144)
0x165864f4369b  code target (BUILTIN)  (0x165864f36940)
0x165864f436a2  embedded object  (0x1eddcf9f1729 Cell for 6144)
0x165864f436b8  statement position  (2)

--- End code ---
--- Raw source ---
() {
        // A full textual representation of the day of the week
        return daysLong[self.getDay()];
    }


--- Code ---
source_position = 4377
kind = FUNCTION
name = l
compiler = full-codegen
Instructions (size = 188)
0x165864f43740     0  55             push rbp                ;; debug: position 4377
0x165864f43741     1  4889e5         REX.W movq rbp,rsp
0x165864f43744     4  56             push rsi
0x165864f43745     5  57             push rdi
0x165864f43746     6  493ba548090000 REX.W cmpq rsp,[r13+0x948]
0x165864f4374d    13  7305           jnc 20  (0x165864f43754)
0x165864f4374f    15  e82c33ffff     call StackCheck  (0x165864f36a80)    ;; code: BUILTIN
0x165864f43754    20  488bc6         REX.W movq rax,rsi      ;; debug: statement 4454
                                                             ;; debug: position 4461
0x165864f43757    23  ff705f         push [rax+0x5f]
0x165864f4375a    26  488bc6         REX.W movq rax,rsi      ;; debug: position 4470
0x165864f4375d    29  ffb067010000   push [rax+0x167]
0x165864f43763    35  488b1424       REX.W movq rdx,[rsp]
0x165864f43767    39  48b9b15196cfdd1e0000 REX.W movq rcx,0x1eddcf9651b1    ;; debug: position 4474
                                                             ;; object: 0x1eddcf9651b1 <String[6]: getDay>
0x165864f43771    49  48b80000000006000000 REX.W movq rax,0x600000000
0x165864f4377b    59  e8e04dfeff     call 0x165864f28560     ;; code: contextual, LOAD_IC, DEFAULT
0x165864f43780    64  ff3424         push [rsp]
0x165864f43783    67  4889442408     REX.W movq [rsp+0x8],rax
0x165864f43788    72  48ba0000000004000000 REX.W movq rdx,0x400000000    ;; debug: position 4475
0x165864f43792    82  488b7c2408     REX.W movq rdi,[rsp+0x8]
0x165864f43797    87  e8e4affdff     call 0x165864f1e780     ;; code: CALL_IC, DEFAULT
0x165864f4379c    92  488b75f8       REX.W movq rsi,[rbp-0x8]
0x165864f437a0    96  4883c408       REX.W addq rsp,0x8
0x165864f437a4   100  488bc8         REX.W movq rcx,rax
0x165864f437a7   103  5a             pop rdx
0x165864f437a8   104  48b80000000008000000 REX.W movq rax,0x800000000    ;; debug: position 4469
0x165864f437b2   114  e80989fdff     call 0x165864f1c0c0     ;; code: KEYED_LOAD_IC, DEFAULT
0x165864f437b7   119  48bb31199fcfdd1e0000 REX.W movq rbx,0x1eddcf9f1931    ;; object: 0x1eddcf9f1931 Cell for 6144
0x165864f437c1   129  83430bd1       addl [rbx+0xb],0xd1
0x165864f437c5   133  791f           jns 166  (0x165864f437e6)
0x165864f437c7   135  50             push rax
0x165864f437c8   136  e87331ffff     call InterruptCheck  (0x165864f36940)    ;; code: BUILTIN
0x165864f437cd   141  58             pop rax
0x165864f437ce   142  48bb31199fcfdd1e0000 REX.W movq rbx,0x1eddcf9f1931    ;; object: 0x1eddcf9f1931 Cell for 6144
0x165864f437d8   152  49ba0000000000180000 REX.W movq r10,0x180000000000
0x165864f437e2   162  4c895307       REX.W movq [rbx+0x7],r10
0x165864f437e6   166  c9             leave                   ;; debug: statement 4490
0x165864f437e7   167  c20800         ret 0x8
0x165864f437ea   170  498b45a8       REX.W movq rax,[r13-0x58]
0x165864f437ee   174  e9c4ffffff     jmp 119  (0x165864f437b7)
0x165864f437f3   179  0f1f440000     nop

Deoptimization Output Data (deopt points = 0)

Back edges (size = 0)
ast_id  pc_offset  loop_depth

0x1eddcf9f1971: [TypeFeedbackInfo]
 - ic_total_count: 3, ic_with_type_info_count: 0, ic_generic_count: 0

RelocInfo (size = 32)
0x165864f43740  position  (4377)
0x165864f43750  code target (BUILTIN)  (0x165864f36a80)
0x165864f43754  statement position  (4454)
0x165864f43754  position  (4461)
0x165864f4375a  position  (4470)
0x165864f43767  position  (4474)
0x165864f43769  embedded object  (0x1eddcf9651b1 <String[6]: getDay>)
0x165864f4377c  code target (LOAD_IC)  (0x165864f28560)
0x165864f43788  position  (4475)
0x165864f43798  code target (CALL_IC)  (0x165864f1e780)
0x165864f437a8  position  (4469)
0x165864f437b3  code target (KEYED_LOAD_IC)  (0x165864f1c0c0)
0x165864f437b9  embedded object  (0x1eddcf9f1931 Cell for 6144)
0x165864f437c9  code target (BUILTIN)  (0x165864f36940)
0x165864f437d0  embedded object  (0x1eddcf9f1931 Cell for 6144)
0x165864f437e6  statement position  (4490)

--- End code ---
--- Raw source ---
(){
if(!%_IsDate(this))%_ThrowNotDateError();
return(%_DateField(this,4));
}


--- Code ---
source_position = 6722
kind = FUNCTION
name = getDay
compiler = full-codegen
Instructions (size = 228)
0x165864f43860     0  55             push rbp                ;; debug: position 6722
0x165864f43861     1  4889e5         REX.W movq rbp,rsp
0x165864f43864     4  56             push rsi
0x165864f43865     5  57             push rdi
0x165864f43866     6  493ba548090000 REX.W cmpq rsp,[r13+0x948]
0x165864f4386d    13  7305           jnc 20  (0x165864f43874)
0x165864f4386f    15  e80c32ffff     call StackCheck  (0x165864f36a80)    ;; code: BUILTIN
0x165864f43874    20  488b4510       REX.W movq rax,[rbp+0x10]    ;; debug: statement 6726
                                                             ;; debug: position 6739
0x165864f43878    24  a801           test al,0x1
0x165864f4387a    26  0f841f000000   jz 63  (0x165864f4389f)
0x165864f43880    32  488b58ff       REX.W movq rbx,[rax-0x1]
0x165864f43884    36  807b0bb6       cmpb [rbx+0xb],0xb6
0x165864f43888    40  eb0f           jmp 57  (0x165864f43899)
0x165864f4388a    42  493b45c0       REX.W cmpq rax,[r13-0x40]
0x165864f4388e    46  0f841c000000   jz 80  (0x165864f438b0)
0x165864f43894    52  e906000000     jmp 63  (0x165864f4389f)
0x165864f43899    57  0f8411000000   jz 80  (0x165864f438b0)
0x165864f4389f    63  33c0           xorl rax,rax            ;; debug: statement 6745
0x165864f438a1    65  48bb30bc270100000000 REX.W movq rbx,0x127bc30
0x165864f438ab    75  e83052fcff     call 0x165864f08ae0     ;; code: STUB, CEntryStub, minor: 0
0x165864f438b0    80  488b4510       REX.W movq rax,[rbp+0x10]    ;; debug: statement 6768
                                                             ;; debug: position 6787
0x165864f438b4    84  49ba4835f30200000000 REX.W movq r10,0x2f33548
0x165864f438be    94  498b0a         REX.W movq rcx,[r10]
0x165864f438c1    97  483b4857       REX.W cmpq rcx,[rax+0x57]
0x165864f438c5   101  7506           jnz 109  (0x165864f438cd)
0x165864f438c7   103  488b4037       REX.W movq rax,[rax+0x37]
0x165864f438cb   107  eb30           jmp 157  (0x165864f438fd)
0x165864f438cd   109  4989e2         REX.W movq r10,rsp
0x165864f438d0   112  4883ec08       REX.W subq rsp,0x8
0x165864f438d4   116  4883e4f0       REX.W andq rsp,0xf0
0x165864f438d8   120  4c891424       REX.W movq [rsp],r10
0x165864f438dc   124  488bf8         REX.W movq rdi,rax
0x165864f438df   127  48be0000000004000000 REX.W movq rsi,0x400000000
0x165864f438e9   137  48b800e7ed0000000000 REX.W movq rax,0xede700
0x165864f438f3   147  ffd0           call rax
0x165864f438f5   149  488b2424       REX.W movq rsp,[rsp]
0x165864f438f9   153  488b75f8       REX.W movq rsi,[rbp-0x8]
0x165864f438fd   157  48bbf1199fcfdd1e0000 REX.W movq rbx,0x1eddcf9f19f1    ;; object: 0x1eddcf9f19f1 Cell for 6144
0x165864f43907   167  83430bd1       addl [rbx+0xb],0xd1
0x165864f4390b   171  791f           jns 204  (0x165864f4392c)
0x165864f4390d   173  50             push rax
0x165864f4390e   174  e82d30ffff     call InterruptCheck  (0x165864f36940)    ;; code: BUILTIN
0x165864f43913   179  58             pop rax
0x165864f43914   180  48bbf1199fcfdd1e0000 REX.W movq rbx,0x1eddcf9f19f1    ;; object: 0x1eddcf9f19f1 Cell for 6144
0x165864f4391e   190  49ba0000000000180000 REX.W movq r10,0x180000000000
0x165864f43928   200  4c895307       REX.W movq [rbx+0x7],r10
0x165864f4392c   204  c9             leave                   ;; debug: statement 6797
0x165864f4392d   205  c20800         ret 0x8
0x165864f43930   208  498b45a8       REX.W movq rax,[r13-0x58]
0x165864f43934   212  e9c4ffffff     jmp 157  (0x165864f438fd)
0x165864f43939   217  0f1f8000000000 nop

Deoptimization Output Data (deopt points = 0)

Back edges (size = 0)
ast_id  pc_offset  loop_depth

0x1eddcf9f1a31: [TypeFeedbackInfo]
 - ic_total_count: 0, ic_with_type_info_count: 0, ic_generic_count: 0

RelocInfo (size = 25)
0x165864f43860  position  (6722)
0x165864f43870  code target (BUILTIN)  (0x165864f36a80)
0x165864f43874  statement position  (6726)
0x165864f43874  position  (6739)
0x165864f4389f  statement position  (6745)
0x165864f438ac  code target (STUB)  (0x165864f08ae0)
0x165864f438b0  statement position  (6768)
0x165864f438b0  position  (6787)
0x165864f438ff  embedded object  (0x1eddcf9f19f1 Cell for 6144)
0x165864f4390f  code target (BUILTIN)  (0x165864f36940)
0x165864f43916  embedded object  (0x1eddcf9f19f1 Cell for 6144)
0x165864f4392c  statement position  (6797)

--- End code ---
--- Raw source ---
F()

--- Code ---
source_position = 0
kind = FUNCTION
compiler = full-codegen
Instructions (size = 140)
0x165864f439c0     0  55             push rbp                ;; debug: position 0
0x165864f439c1     1  4889e5         REX.W movq rbp,rsp
0x165864f439c4     4  56             push rsi
0x165864f439c5     5  57             push rdi
0x165864f439c6     6  41ff75a8       push [r13-0x58]
0x165864f439ca    10  493ba548090000 REX.W cmpq rsp,[r13+0x948]
0x165864f439d1    17  7305           jnc 24  (0x165864f439d8)
0x165864f439d3    19  e8a830ffff     call StackCheck  (0x165864f36a80)    ;; code: BUILTIN
0x165864f439d8    24  488bc6         REX.W movq rax,rsi      ;; debug: statement 0
0x165864f439db    27  ffb0af000000   push [rax+0xaf]
0x165864f439e1    33  41ff75a8       push [r13-0x58]
0x165864f439e5    37  48ba0000000004000000 REX.W movq rdx,0x400000000
0x165864f439ef    47  488b7c2408     REX.W movq rdi,[rsp+0x8]
0x165864f439f4    52  e84797feff     call 0x165864f2d140     ;; code: CALL_IC, DEFAULT
0x165864f439f9    57  488b75f8       REX.W movq rsi,[rbp-0x8]
0x165864f439fd    61  4883c408       REX.W addq rsp,0x8
0x165864f43a01    65  488945e8       REX.W movq [rbp-0x18],rax
0x165864f43a05    69  488b45e8       REX.W movq rax,[rbp-0x18]    ;; debug: statement 3
0x165864f43a09    73  48bb791b9fcfdd1e0000 REX.W movq rbx,0x1eddcf9f1b79    ;; object: 0x1eddcf9f1b79 Cell for 6144
0x165864f43a13    83  83430bd1       addl [rbx+0xb],0xd1
0x165864f43a17    87  791f           jns 120  (0x165864f43a38)
0x165864f43a19    89  50             push rax
0x165864f43a1a    90  e8212fffff     call InterruptCheck  (0x165864f36940)    ;; code: BUILTIN
0x165864f43a1f    95  58             pop rax
0x165864f43a20    96  48bb791b9fcfdd1e0000 REX.W movq rbx,0x1eddcf9f1b79    ;; object: 0x1eddcf9f1b79 Cell for 6144
0x165864f43a2a   106  49ba0000000000180000 REX.W movq r10,0x180000000000
0x165864f43a34   116  4c895307       REX.W movq [rbx+0x7],r10
0x165864f43a38   120  c9             leave                   ;; debug: statement 2
0x165864f43a39   121  c20800         ret 0x8
0x165864f43a3c   124  498b45a8       REX.W movq rax,[r13-0x58]
0x165864f43a40   128  e9c4ffffff     jmp 73  (0x165864f43a09)
0x165864f43a45   133  0f1f00         nop

Deoptimization Output Data (deopt points = 0)

Back edges (size = 0)
ast_id  pc_offset  loop_depth

0x1eddcf9f1ba9: [TypeFeedbackInfo]
 - ic_total_count: 1, ic_with_type_info_count: 0, ic_generic_count: 0

RelocInfo (size = 13)
0x165864f439c0  position  (0)
0x165864f439d4  code target (BUILTIN)  (0x165864f36a80)
0x165864f439d8  statement position  (0)
0x165864f439f5  code target (CALL_IC)  (0x165864f2d140)
0x165864f43a05  statement position  (3)
0x165864f43a0b  embedded object  (0x1eddcf9f1b79 Cell for 6144)
0x165864f43a1b  code target (BUILTIN)  (0x165864f36940)
0x165864f43a22  embedded object  (0x1eddcf9f1b79 Cell for 6144)
0x165864f43a38  statement position  (2)

--- End code ---
--- Raw source ---
() {
        // A full textual representation of a month
        return monthsLong[self.getMonth()];
    }


--- Code ---
source_position = 3098
kind = FUNCTION
name = F
compiler = full-codegen
Instructions (size = 188)
0x165864f43ac0     0  55             push rbp                ;; debug: position 3098
0x165864f43ac1     1  4889e5         REX.W movq rbp,rsp
0x165864f43ac4     4  56             push rsi
0x165864f43ac5     5  57             push rdi
0x165864f43ac6     6  493ba548090000 REX.W cmpq rsp,[r13+0x948]
0x165864f43acd    13  7305           jnc 20  (0x165864f43ad4)
0x165864f43acf    15  e8ac2fffff     call StackCheck  (0x165864f36a80)    ;; code: BUILTIN
0x165864f43ad4    20  488bc6         REX.W movq rax,rsi      ;; debug: statement 3163
                                                             ;; debug: position 3170
0x165864f43ad7    23  ff7077         push [rax+0x77]
0x165864f43ada    26  488bc6         REX.W movq rax,rsi      ;; debug: position 3181
0x165864f43add    29  ffb067010000   push [rax+0x167]
0x165864f43ae3    35  488b1424       REX.W movq rdx,[rsp]
0x165864f43ae7    39  48b9614e96cfdd1e0000 REX.W movq rcx,0x1eddcf964e61    ;; debug: position 3185
                                                             ;; object: 0x1eddcf964e61 <String[8]: getMonth>
0x165864f43af1    49  48b80000000006000000 REX.W movq rax,0x600000000
0x165864f43afb    59  e8604afeff     call 0x165864f28560     ;; code: contextual, LOAD_IC, DEFAULT
0x165864f43b00    64  ff3424         push [rsp]
0x165864f43b03    67  4889442408     REX.W movq [rsp+0x8],rax
0x165864f43b08    72  48ba0000000004000000 REX.W movq rdx,0x400000000    ;; debug: position 3186
0x165864f43b12    82  488b7c2408     REX.W movq rdi,[rsp+0x8]
0x165864f43b17    87  e864acfdff     call 0x165864f1e780     ;; code: CALL_IC, DEFAULT
0x165864f43b1c    92  488b75f8       REX.W movq rsi,[rbp-0x8]
0x165864f43b20    96  4883c408       REX.W addq rsp,0x8
0x165864f43b24   100  488bc8         REX.W movq rcx,rax
0x165864f43b27   103  5a             pop rdx
0x165864f43b28   104  48b80000000008000000 REX.W movq rax,0x800000000    ;; debug: position 3180
0x165864f43b32   114  e88985fdff     call 0x165864f1c0c0     ;; code: KEYED_LOAD_IC, DEFAULT
0x165864f43b37   119  48bb811d9fcfdd1e0000 REX.W movq rbx,0x1eddcf9f1d81    ;; object: 0x1eddcf9f1d81 Cell for 6144
0x165864f43b41   129  83430bd1       addl [rbx+0xb],0xd1
0x165864f43b45   133  791f           jns 166  (0x165864f43b66)
0x165864f43b47   135  50             push rax
0x165864f43b48   136  e8f32dffff     call InterruptCheck  (0x165864f36940)    ;; code: BUILTIN
0x165864f43b4d   141  58             pop rax
0x165864f43b4e   142  48bb811d9fcfdd1e0000 REX.W movq rbx,0x1eddcf9f1d81    ;; object: 0x1eddcf9f1d81 Cell for 6144
0x165864f43b58   152  49ba0000000000180000 REX.W movq r10,0x180000000000
0x165864f43b62   162  4c895307       REX.W movq [rbx+0x7],r10
0x165864f43b66   166  c9             leave                   ;; debug: statement 3203
0x165864f43b67   167  c20800         ret 0x8
0x165864f43b6a   170  498b45a8       REX.W movq rax,[r13-0x58]
0x165864f43b6e   174  e9c4ffffff     jmp 119  (0x165864f43b37)
0x165864f43b73   179  0f1f440000     nop

Deoptimization Output Data (deopt points = 0)

Back edges (size = 0)
ast_id  pc_offset  loop_depth

0x1eddcf9f1dc1: [TypeFeedbackInfo]
 - ic_total_count: 3, ic_with_type_info_count: 0, ic_generic_count: 0

RelocInfo (size = 32)
0x165864f43ac0  position  (3098)
0x165864f43ad0  code target (BUILTIN)  (0x165864f36a80)
0x165864f43ad4  statement position  (3163)
0x165864f43ad4  position  (3170)
0x165864f43ada  position  (3181)
0x165864f43ae7  position  (3185)
0x165864f43ae9  embedded object  (0x1eddcf964e61 <String[8]: getMonth>)
0x165864f43afc  code target (LOAD_IC)  (0x165864f28560)
0x165864f43b08  position  (3186)
0x165864f43b18  code target (CALL_IC)  (0x165864f1e780)
0x165864f43b28  position  (3180)
0x165864f43b33  code target (KEYED_LOAD_IC)  (0x165864f1c0c0)
0x165864f43b39  embedded object  (0x1eddcf9f1d81 Cell for 6144)
0x165864f43b49  code target (BUILTIN)  (0x165864f36940)
0x165864f43b50  embedded object  (0x1eddcf9f1d81 Cell for 6144)
0x165864f43b66  statement position  (3203)

--- End code ---
--- Raw source ---
d()

--- Code ---
source_position = 0
kind = FUNCTION
compiler = full-codegen
Instructions (size = 140)
0x165864f43be0     0  55             push rbp                ;; debug: position 0
0x165864f43be1     1  4889e5         REX.W movq rbp,rsp
0x165864f43be4     4  56             push rsi
0x165864f43be5     5  57             push rdi
0x165864f43be6     6  41ff75a8       push [r13-0x58]
0x165864f43bea    10  493ba548090000 REX.W cmpq rsp,[r13+0x948]
0x165864f43bf1    17  7305           jnc 24  (0x165864f43bf8)
0x165864f43bf3    19  e8882effff     call StackCheck  (0x165864f36a80)    ;; code: BUILTIN
0x165864f43bf8    24  488bc6         REX.W movq rax,rsi      ;; debug: statement 0
0x165864f43bfb    27  ffb09f000000   push [rax+0x9f]
0x165864f43c01    33  41ff75a8       push [r13-0x58]
0x165864f43c05    37  48ba0000000004000000 REX.W movq rdx,0x400000000
0x165864f43c0f    47  488b7c2408     REX.W movq rdi,[rsp+0x8]
0x165864f43c14    52  e82795feff     call 0x165864f2d140     ;; code: CALL_IC, DEFAULT
0x165864f43c19    57  488b75f8       REX.W movq rsi,[rbp-0x8]
0x165864f43c1d    61  4883c408       REX.W addq rsp,0x8
0x165864f43c21    65  488945e8       REX.W movq [rbp-0x18],rax
0x165864f43c25    69  488b45e8       REX.W movq rax,[rbp-0x18]    ;; debug: statement 3
0x165864f43c29    73  48bb191f9fcfdd1e0000 REX.W movq rbx,0x1eddcf9f1f19    ;; object: 0x1eddcf9f1f19 Cell for 6144
0x165864f43c33    83  83430bd1       addl [rbx+0xb],0xd1
0x165864f43c37    87  791f           jns 120  (0x165864f43c58)
0x165864f43c39    89  50             push rax
0x165864f43c3a    90  e8012dffff     call InterruptCheck  (0x165864f36940)    ;; code: BUILTIN
0x165864f43c3f    95  58             pop rax
0x165864f43c40    96  48bb191f9fcfdd1e0000 REX.W movq rbx,0x1eddcf9f1f19    ;; object: 0x1eddcf9f1f19 Cell for 6144
0x165864f43c4a   106  49ba0000000000180000 REX.W movq r10,0x180000000000
0x165864f43c54   116  4c895307       REX.W movq [rbx+0x7],r10
0x165864f43c58   120  c9             leave                   ;; debug: statement 2
0x165864f43c59   121  c20800         ret 0x8
0x165864f43c5c   124  498b45a8       REX.W movq rax,[r13-0x58]
0x165864f43c60   128  e9c4ffffff     jmp 73  (0x165864f43c29)
0x165864f43c65   133  0f1f00         nop

Deoptimization Output Data (deopt points = 0)

Back edges (size = 0)
ast_id  pc_offset  loop_depth

0x1eddcf9f1f49: [TypeFeedbackInfo]
 - ic_total_count: 1, ic_with_type_info_count: 0, ic_generic_count: 0

RelocInfo (size = 13)
0x165864f43be0  position  (0)
0x165864f43bf4  code target (BUILTIN)  (0x165864f36a80)
0x165864f43bf8  statement position  (0)
0x165864f43c15  code target (CALL_IC)  (0x165864f2d140)
0x165864f43c25  statement position  (3)
0x165864f43c2b  embedded object  (0x1eddcf9f1f19 Cell for 6144)
0x165864f43c3b  code target (BUILTIN)  (0x165864f36940)
0x165864f43c42  embedded object  (0x1eddcf9f1f19 Cell for 6144)
0x165864f43c58  statement position  (2)

--- End code ---
--- Code ---
kind = HANDLER
major_key = <NoCache>Stub
name = LoadConstantStub
compiler = crankshaft
Instructions (size = 24)
0x165864f43da0     0  488b42ff       REX.W movq rax,[rdx-0x1]
0x165864f43da4     4  488b402f       REX.W movq rax,[rax+0x2f]
0x165864f43da8     8  488b8067010000 REX.W movq rax,[rax+0x167]
0x165864f43daf    15  c3             ret


Safepoints (size = 8)

RelocInfo (size = 0)

--- End code ---
--- Code ---
kind = HANDLER
major_key = <NoCache>Stub
name = StringLengthStub
compiler = crankshaft
Instructions (size = 20)
0x165864f43ee0     0  488b4217       REX.W movq rax,[rdx+0x17]
0x165864f43ee4     4  488b400f       REX.W movq rax,[rax+0xf]
0x165864f43ee8     8  c3             ret
0x165864f43ee9     9  0f1f00         nop


Safepoints (size = 8)

RelocInfo (size = 0)

--- End code ---
--- Raw source ---
Y()

--- Code ---
source_position = 0
kind = FUNCTION
compiler = full-codegen
Instructions (size = 140)
0x165864f43f60     0  55             push rbp                ;; debug: position 0
0x165864f43f61     1  4889e5         REX.W movq rbp,rsp
0x165864f43f64     4  56             push rsi
0x165864f43f65     5  57             push rdi
0x165864f43f66     6  41ff75a8       push [r13-0x58]
0x165864f43f6a    10  493ba548090000 REX.W cmpq rsp,[r13+0x948]
0x165864f43f71    17  7305           jnc 24  (0x165864f43f78)
0x165864f43f73    19  e8082bffff     call StackCheck  (0x165864f36a80)    ;; code: BUILTIN
0x165864f43f78    24  488bc6         REX.W movq rax,rsi      ;; debug: statement 0
0x165864f43f7b    27  ffb04f010000   push [rax+0x14f]
0x165864f43f81    33  41ff75a8       push [r13-0x58]
0x165864f43f85    37  48ba0000000004000000 REX.W movq rdx,0x400000000
0x165864f43f8f    47  488b7c2408     REX.W movq rdi,[rsp+0x8]
0x165864f43f94    52  e8a791feff     call 0x165864f2d140     ;; code: CALL_IC, DEFAULT
0x165864f43f99    57  488b75f8       REX.W movq rsi,[rbp-0x8]
0x165864f43f9d    61  4883c408       REX.W addq rsp,0x8
0x165864f43fa1    65  488945e8       REX.W movq [rbp-0x18],rax
0x165864f43fa5    69  488b45e8       REX.W movq rax,[rbp-0x18]    ;; debug: statement 3
0x165864f43fa9    73  48bba1229fcfdd1e0000 REX.W movq rbx,0x1eddcf9f22a1    ;; object: 0x1eddcf9f22a1 Cell for 6144
0x165864f43fb3    83  83430bd1       addl [rbx+0xb],0xd1
0x165864f43fb7    87  791f           jns 120  (0x165864f43fd8)
0x165864f43fb9    89  50             push rax
0x165864f43fba    90  e88129ffff     call InterruptCheck  (0x165864f36940)    ;; code: BUILTIN
0x165864f43fbf    95  58             pop rax
0x165864f43fc0    96  48bba1229fcfdd1e0000 REX.W movq rbx,0x1eddcf9f22a1    ;; object: 0x1eddcf9f22a1 Cell for 6144
0x165864f43fca   106  49ba0000000000180000 REX.W movq r10,0x180000000000
0x165864f43fd4   116  4c895307       REX.W movq [rbx+0x7],r10
0x165864f43fd8   120  c9             leave                   ;; debug: statement 2
0x165864f43fd9   121  c20800         ret 0x8
0x165864f43fdc   124  498b45a8       REX.W movq rax,[r13-0x58]
0x165864f43fe0   128  e9c4ffffff     jmp 73  (0x165864f43fa9)
0x165864f43fe5   133  0f1f00         nop

Deoptimization Output Data (deopt points = 0)

Back edges (size = 0)
ast_id  pc_offset  loop_depth

0x1eddcf9f22d1: [TypeFeedbackInfo]
 - ic_total_count: 1, ic_with_type_info_count: 0, ic_generic_count: 0

RelocInfo (size = 13)
0x165864f43f60  position  (0)
0x165864f43f74  code target (BUILTIN)  (0x165864f36a80)
0x165864f43f78  statement position  (0)
0x165864f43f95  code target (CALL_IC)  (0x165864f2d140)
0x165864f43fa5  statement position  (3)
0x165864f43fab  embedded object  (0x1eddcf9f22a1 Cell for 6144)
0x165864f43fbb  code target (BUILTIN)  (0x165864f36940)
0x165864f43fc2  embedded object  (0x1eddcf9f22a1 Cell for 6144)
0x165864f43fd8  statement position  (2)

--- End code ---
--- Code ---
kind = HANDLER
major_key = <NoCache>Stub
name = LoadConstantStub
compiler = crankshaft
Instructions (size = 24)
0x165864f44060     0  488b42ff       REX.W movq rax,[rdx-0x1]
0x165864f44064     4  488b402f       REX.W movq rax,[rax+0x2f]
0x165864f44068     8  488b8007010000 REX.W movq rax,[rax+0x107]
0x165864f4406f    15  c3             ret


Safepoints (size = 8)

RelocInfo (size = 0)

--- End code ---
--- Raw source ---
g()

--- Code ---
source_position = 0
kind = FUNCTION
compiler = full-codegen
Instructions (size = 140)
0x165865006120     0  55             push rbp                ;; debug: position 0
0x165865006121     1  4889e5         REX.W movq rbp,rsp
0x165865006124     4  56             push rsi
0x165865006125     5  57             push rdi
0x165865006126     6  41ff75a8       push [r13-0x58]
0x16586500612a    10  493ba548090000 REX.W cmpq rsp,[r13+0x948]
0x165865006131    17  7305           jnc 24  (0x165865006138)
0x165865006133    19  e84809f3ff     call StackCheck  (0x165864f36a80)    ;; code: BUILTIN
0x165865006138    24  488bc6         REX.W movq rax,rsi      ;; debug: statement 0
0x16586500613b    27  ffb0b7000000   push [rax+0xb7]
0x165865006141    33  41ff75a8       push [r13-0x58]
0x165865006145    37  48ba0000000004000000 REX.W movq rdx,0x400000000
0x16586500614f    47  488b7c2408     REX.W movq rdi,[rsp+0x8]
0x165865006154    52  e8e76ff2ff     call 0x165864f2d140     ;; code: CALL_IC, DEFAULT
0x165865006159    57  488b75f8       REX.W movq rsi,[rbp-0x8]
0x16586500615d    61  4883c408       REX.W addq rsp,0x8
0x165865006161    65  488945e8       REX.W movq [rbp-0x18],rax
0x165865006165    69  488b45e8       REX.W movq rax,[rbp-0x18]    ;; debug: statement 3
0x165865006169    73  48bb61259fcfdd1e0000 REX.W movq rbx,0x1eddcf9f2561    ;; object: 0x1eddcf9f2561 Cell for 6144
0x165865006173    83  83430bd1       addl [rbx+0xb],0xd1
0x165865006177    87  791f           jns 120  (0x165865006198)
0x165865006179    89  50             push rax
0x16586500617a    90  e8c107f3ff     call InterruptCheck  (0x165864f36940)    ;; code: BUILTIN
0x16586500617f    95  58             pop rax
0x165865006180    96  48bb61259fcfdd1e0000 REX.W movq rbx,0x1eddcf9f2561    ;; object: 0x1eddcf9f2561 Cell for 6144
0x16586500618a   106  49ba0000000000180000 REX.W movq r10,0x180000000000
0x165865006194   116  4c895307       REX.W movq [rbx+0x7],r10
0x165865006198   120  c9             leave                   ;; debug: statement 2
0x165865006199   121  c20800         ret 0x8
0x16586500619c   124  498b45a8       REX.W movq rax,[r13-0x58]
0x1658650061a0   128  e9c4ffffff     jmp 73  (0x165865006169)
0x1658650061a5   133  0f1f00         nop

Deoptimization Output Data (deopt points = 0)

Back edges (size = 0)
ast_id  pc_offset  loop_depth

0x1eddcf9f2591: [TypeFeedbackInfo]
 - ic_total_count: 1, ic_with_type_info_count: 0, ic_generic_count: 0

RelocInfo (size = 13)
0x165865006120  position  (0)
0x165865006134  code target (BUILTIN)  (0x165864f36a80)
0x165865006138  statement position  (0)
0x165865006155  code target (CALL_IC)  (0x165864f2d140)
0x165865006165  statement position  (3)
0x16586500616b  embedded object  (0x1eddcf9f2561 Cell for 6144)
0x16586500617b  code target (BUILTIN)  (0x165864f36940)
0x165865006182  embedded object  (0x1eddcf9f2561 Cell for 6144)
0x165865006198  statement position  (2)

--- End code ---
--- Raw source ---
() {
        // 12-hour format of an hour without leading zeros
        return self.getHours() > 12? self.getHours()-12 : self.getHours();
    }


--- Code ---
source_position = 3219
kind = FUNCTION
name = g
compiler = full-codegen
Instructions (size = 372)
0x165865006220     0  55             push rbp                ;; debug: position 3219
0x165865006221     1  4889e5         REX.W movq rbp,rsp
0x165865006224     4  56             push rsi
0x165865006225     5  57             push rdi
0x165865006226     6  493ba548090000 REX.W cmpq rsp,[r13+0x948]
0x16586500622d    13  7305           jnc 20  (0x165865006234)
0x16586500622f    15  e84c08f3ff     call StackCheck  (0x165864f36a80)    ;; code: BUILTIN
0x165865006234    20  488bc6         REX.W movq rax,rsi      ;; debug: statement 3291
                                                             ;; debug: position 3298
0x165865006237    23  ffb067010000   push [rax+0x167]
0x16586500623d    29  488b1424       REX.W movq rdx,[rsp]
0x165865006241    33  48b9595396cfdd1e0000 REX.W movq rcx,0x1eddcf965359    ;; debug: position 3302
                                                             ;; object: 0x1eddcf965359 <String[8]: getHours>
0x16586500624b    43  48b80000000006000000 REX.W movq rax,0x600000000
0x165865006255    53  e80623f2ff     call 0x165864f28560     ;; code: contextual, LOAD_IC, DEFAULT
0x16586500625a    58  ff3424         push [rsp]
0x16586500625d    61  4889442408     REX.W movq [rsp+0x8],rax
0x165865006262    66  48ba0000000004000000 REX.W movq rdx,0x400000000    ;; debug: position 3303
0x16586500626c    76  488b7c2408     REX.W movq rdi,[rsp+0x8]
0x165865006271    81  e80a85f1ff     call 0x165864f1e780     ;; code: CALL_IC, DEFAULT
0x165865006276    86  488b75f8       REX.W movq rsi,[rbp-0x8]
0x16586500627a    90  48890424       REX.W movq [rsp],rax
0x16586500627e    94  48b8000000000c000000 REX.W movq rax,0xc00000000
0x165865006288   104  5a             pop rdx
0x165865006289   105  e8325ff2ff     call 0x165864f2c1c0     ;; code: COMPARE_IC, UNINITIALIZED (id = 10)
0x16586500628e   110  90             nop
0x16586500628f   111  eb0f           jmp 128  (0x1658650062a0)
0x165865006291   113  493b45c0       REX.W cmpq rax,[r13-0x40]
0x165865006295   117  0f840e000000   jz 137  (0x1658650062a9)
0x16586500629b   123  e969000000     jmp 233  (0x165865006309)
0x1658650062a0   128  4885c0         REX.W testq rax,rax
0x1658650062a3   131  0f8e60000000   jle 233  (0x165865006309)
0x1658650062a9   137  488bc6         REX.W movq rax,rsi      ;; debug: position 3320
0x1658650062ac   140  ffb067010000   push [rax+0x167]
0x1658650062b2   146  488b1424       REX.W movq rdx,[rsp]
0x1658650062b6   150  48b9595396cfdd1e0000 REX.W movq rcx,0x1eddcf965359    ;; debug: position 3324
                                                             ;; object: 0x1eddcf965359 <String[8]: getHours>
0x1658650062c0   160  48b8000000000a000000 REX.W movq rax,0xa00000000
0x1658650062ca   170  e89122f2ff     call 0x165864f28560     ;; code: contextual, LOAD_IC, DEFAULT
0x1658650062cf   175  ff3424         push [rsp]
0x1658650062d2   178  4889442408     REX.W movq [rsp+0x8],rax
0x1658650062d7   183  48ba0000000008000000 REX.W movq rdx,0x800000000    ;; debug: position 3325
0x1658650062e1   193  488b7c2408     REX.W movq rdi,[rsp+0x8]
0x1658650062e6   198  e89584f1ff     call 0x165864f1e780     ;; code: CALL_IC, DEFAULT
0x1658650062eb   203  488b75f8       REX.W movq rsi,[rbp-0x8]
0x1658650062ef   207  48890424       REX.W movq [rsp],rax
0x1658650062f3   211  48b8000000000c000000 REX.W movq rax,0xc00000000
0x1658650062fd   221  5a             pop rdx                 ;; debug: position 3335
0x1658650062fe   222  e83d27f0ff     call 0x165864f08a40     ;; code: BINARY_OP_IC, UNINITIALIZED (id = 31)
0x165865006303   227  90             nop
0x165865006304   228  e94a000000     jmp 307  (0x165865006353)
0x165865006309   233  488bc6         REX.W movq rax,rsi      ;; debug: position 3341
0x16586500630c   236  ffb067010000   push [rax+0x167]
0x165865006312   242  488b1424       REX.W movq rdx,[rsp]
0x165865006316   246  48b9595396cfdd1e0000 REX.W movq rcx,0x1eddcf965359    ;; debug: position 3345
                                                             ;; object: 0x1eddcf965359 <String[8]: getHours>
0x165865006320   256  48b8000000000e000000 REX.W movq rax,0xe00000000
0x16586500632a   266  e83122f2ff     call 0x165864f28560     ;; code: contextual, LOAD_IC, DEFAULT
0x16586500632f   271  ff3424         push [rsp]
0x165865006332   274  4889442408     REX.W movq [rsp+0x8],rax
0x165865006337   279  48ba000000000c000000 REX.W movq rdx,0xc00000000    ;; debug: position 3346
0x165865006341   289  488b7c2408     REX.W movq rdi,[rsp+0x8]
0x165865006346   294  e83584f1ff     call 0x165864f1e780     ;; code: CALL_IC, DEFAULT
0x16586500634b   299  488b75f8       REX.W movq rsi,[rbp-0x8]
0x16586500634f   303  4883c408       REX.W addq rsp,0x8
0x165865006353   307  48bb99279fcfdd1e0000 REX.W movq rbx,0x1eddcf9f2799    ;; object: 0x1eddcf9f2799 Cell for 6144
0x16586500635d   317  83430bd1       addl [rbx+0xb],0xd1
0x165865006361   321  791f           jns 354  (0x165865006382)
0x165865006363   323  50             push rax
0x165865006364   324  e8d705f3ff     call InterruptCheck  (0x165864f36940)    ;; code: BUILTIN
0x165865006369   329  58             pop rax
0x16586500636a   330  48bb99279fcfdd1e0000 REX.W movq rbx,0x1eddcf9f2799    ;; object: 0x1eddcf9f2799 Cell for 6144
0x165865006374   340  49ba0000000000180000 REX.W movq r10,0x180000000000
0x16586500637e   350  4c895307       REX.W movq [rbx+0x7],r10
0x165865006382   354  c9             leave                   ;; debug: statement 3362
0x165865006383   355  c20800         ret 0x8
0x165865006386   358  498b45a8       REX.W movq rax,[r13-0x58]
0x16586500638a   362  e9c4ffffff     jmp 307  (0x165865006353)
0x16586500638f   367  90             nop

Deoptimization Output Data (deopt points = 0)

Back edges (size = 0)
ast_id  pc_offset  loop_depth

0x1eddcf9f27f1: [TypeFeedbackInfo]
 - ic_total_count: 8, ic_with_type_info_count: 0, ic_generic_count: 0

RelocInfo (size = 51)
0x165865006220  position  (3219)
0x165865006230  code target (BUILTIN)  (0x165864f36a80)
0x165865006234  statement position  (3291)
0x165865006234  position  (3298)
0x165865006241  position  (3302)
0x165865006243  embedded object  (0x1eddcf965359 <String[8]: getHours>)
0x165865006256  code target (LOAD_IC)  (0x165864f28560)
0x165865006262  position  (3303)
0x165865006272  code target (CALL_IC)  (0x165864f1e780)
0x16586500628a  code target with id (COMPARE_IC)  (0x165864f2c1c0) (id=10)
0x1658650062a9  position  (3320)
0x1658650062b6  position  (3324)
0x1658650062b8  embedded object  (0x1eddcf965359 <String[8]: getHours>)
0x1658650062cb  code target (LOAD_IC)  (0x165864f28560)
0x1658650062d7  position  (3325)
0x1658650062e7  code target (CALL_IC)  (0x165864f1e780)
0x1658650062fd  position  (3335)
0x1658650062ff  code target with id (BINARY_OP_IC)  (0x165864f08a40) (id=31)
0x165865006309  position  (3341)
0x165865006316  position  (3345)
0x165865006318  embedded object  (0x1eddcf965359 <String[8]: getHours>)
0x16586500632b  code target (LOAD_IC)  (0x165864f28560)
0x165865006337  position  (3346)
0x165865006347  code target (CALL_IC)  (0x165864f1e780)
0x165865006355  embedded object  (0x1eddcf9f2799 Cell for 6144)
0x165865006365  code target (BUILTIN)  (0x165864f36940)
0x16586500636c  embedded object  (0x1eddcf9f2799 Cell for 6144)
0x165865006382  statement position  (3362)

--- End code ---
--- Raw source ---
(){
if(!%_IsDate(this))%_ThrowNotDateError();
return(%_DateField(this,5));
}


--- Code ---
source_position = 6920
kind = FUNCTION
name = getHours
compiler = full-codegen
Instructions (size = 228)
0x165865006400     0  55             push rbp                ;; debug: position 6920
0x165865006401     1  4889e5         REX.W movq rbp,rsp
0x165865006404     4  56             push rsi
0x165865006405     5  57             push rdi
0x165865006406     6  493ba548090000 REX.W cmpq rsp,[r13+0x948]
0x16586500640d    13  7305           jnc 20  (0x165865006414)
0x16586500640f    15  e86c06f3ff     call StackCheck  (0x165864f36a80)    ;; code: BUILTIN
0x165865006414    20  488b4510       REX.W movq rax,[rbp+0x10]    ;; debug: statement 6924
                                                             ;; debug: position 6937
0x165865006418    24  a801           test al,0x1
0x16586500641a    26  0f841f000000   jz 63  (0x16586500643f)
0x165865006420    32  488b58ff       REX.W movq rbx,[rax-0x1]
0x165865006424    36  807b0bb6       cmpb [rbx+0xb],0xb6
0x165865006428    40  eb0f           jmp 57  (0x165865006439)
0x16586500642a    42  493b45c0       REX.W cmpq rax,[r13-0x40]
0x16586500642e    46  0f841c000000   jz 80  (0x165865006450)
0x165865006434    52  e906000000     jmp 63  (0x16586500643f)
0x165865006439    57  0f8411000000   jz 80  (0x165865006450)
0x16586500643f    63  33c0           xorl rax,rax            ;; debug: statement 6943
0x165865006441    65  48bb30bc270100000000 REX.W movq rbx,0x127bc30
0x16586500644b    75  e89026f0ff     call 0x165864f08ae0     ;; code: STUB, CEntryStub, minor: 0
0x165865006450    80  488b4510       REX.W movq rax,[rbp+0x10]    ;; debug: statement 6966
                                                             ;; debug: position 6985
0x165865006454    84  49ba4835f30200000000 REX.W movq r10,0x2f33548
0x16586500645e    94  498b0a         REX.W movq rcx,[r10]
0x165865006461    97  483b4857       REX.W cmpq rcx,[rax+0x57]
0x165865006465   101  7506           jnz 109  (0x16586500646d)
0x165865006467   103  488b403f       REX.W movq rax,[rax+0x3f]
0x16586500646b   107  eb30           jmp 157  (0x16586500649d)
0x16586500646d   109  4989e2         REX.W movq r10,rsp
0x165865006470   112  4883ec08       REX.W subq rsp,0x8
0x165865006474   116  4883e4f0       REX.W andq rsp,0xf0
0x165865006478   120  4c891424       REX.W movq [rsp],r10
0x16586500647c   124  488bf8         REX.W movq rdi,rax
0x16586500647f   127  48be0000000005000000 REX.W movq rsi,0x500000000
0x165865006489   137  48b800e7ed0000000000 REX.W movq rax,0xede700
0x165865006493   147  ffd0           call rax
0x165865006495   149  488b2424       REX.W movq rsp,[rsp]
0x165865006499   153  488b75f8       REX.W movq rsi,[rbp-0x8]
0x16586500649d   157  48bb71289fcfdd1e0000 REX.W movq rbx,0x1eddcf9f2871    ;; object: 0x1eddcf9f2871 Cell for 6144
0x1658650064a7   167  83430bd1       addl [rbx+0xb],0xd1
0x1658650064ab   171  791f           jns 204  (0x1658650064cc)
0x1658650064ad   173  50             push rax
0x1658650064ae   174  e88d04f3ff     call InterruptCheck  (0x165864f36940)    ;; code: BUILTIN
0x1658650064b3   179  58             pop rax
0x1658650064b4   180  48bb71289fcfdd1e0000 REX.W movq rbx,0x1eddcf9f2871    ;; object: 0x1eddcf9f2871 Cell for 6144
0x1658650064be   190  49ba0000000000180000 REX.W movq r10,0x180000000000
0x1658650064c8   200  4c895307       REX.W movq [rbx+0x7],r10
0x1658650064cc   204  c9             leave                   ;; debug: statement 6995
0x1658650064cd   205  c20800         ret 0x8
0x1658650064d0   208  498b45a8       REX.W movq rax,[r13-0x58]
0x1658650064d4   212  e9c4ffffff     jmp 157  (0x16586500649d)
0x1658650064d9   217  0f1f8000000000 nop

Deoptimization Output Data (deopt points = 0)

Back edges (size = 0)
ast_id  pc_offset  loop_depth

0x1eddcf9f28b1: [TypeFeedbackInfo]
 - ic_total_count: 0, ic_with_type_info_count: 0, ic_generic_count: 0

RelocInfo (size = 25)
0x165865006400  position  (6920)
0x165865006410  code target (BUILTIN)  (0x165864f36a80)
0x165865006414  statement position  (6924)
0x165865006414  position  (6937)
0x16586500643f  statement position  (6943)
0x16586500644c  code target (STUB)  (0x165864f08ae0)
0x165865006450  statement position  (6966)
0x165865006450  position  (6985)
0x16586500649f  embedded object  (0x1eddcf9f2871 Cell for 6144)
0x1658650064af  code target (BUILTIN)  (0x165864f36940)
0x1658650064b6  embedded object  (0x1eddcf9f2871 Cell for 6144)
0x1658650064cc  statement position  (6995)

--- End code ---
--- Raw source ---
i()

--- Code ---
source_position = 0
kind = FUNCTION
compiler = full-codegen
Instructions (size = 140)
0x165865006560     0  55             push rbp                ;; debug: position 0
0x165865006561     1  4889e5         REX.W movq rbp,rsp
0x165865006564     4  56             push rsi
0x165865006565     5  57             push rdi
0x165865006566     6  41ff75a8       push [r13-0x58]
0x16586500656a    10  493ba548090000 REX.W cmpq rsp,[r13+0x948]
0x165865006571    17  7305           jnc 24  (0x165865006578)
0x165865006573    19  e80805f3ff     call StackCheck  (0x165864f36a80)    ;; code: BUILTIN
0x165865006578    24  488bc6         REX.W movq rax,rsi      ;; debug: statement 0
0x16586500657b    27  ffb0d7000000   push [rax+0xd7]
0x165865006581    33  41ff75a8       push [r13-0x58]
0x165865006585    37  48ba0000000004000000 REX.W movq rdx,0x400000000
0x16586500658f    47  488b7c2408     REX.W movq rdi,[rsp+0x8]
0x165865006594    52  e8a76bf2ff     call 0x165864f2d140     ;; code: CALL_IC, DEFAULT
0x165865006599    57  488b75f8       REX.W movq rsi,[rbp-0x8]
0x16586500659d    61  4883c408       REX.W addq rsp,0x8
0x1658650065a1    65  488945e8       REX.W movq [rbp-0x18],rax
0x1658650065a5    69  488b45e8       REX.W movq rax,[rbp-0x18]    ;; debug: statement 3
0x1658650065a9    73  48bb112a9fcfdd1e0000 REX.W movq rbx,0x1eddcf9f2a11    ;; object: 0x1eddcf9f2a11 Cell for 6144
0x1658650065b3    83  83430bd1       addl [rbx+0xb],0xd1
0x1658650065b7    87  791f           jns 120  (0x1658650065d8)
0x1658650065b9    89  50             push rax
0x1658650065ba    90  e88103f3ff     call InterruptCheck  (0x165864f36940)    ;; code: BUILTIN
0x1658650065bf    95  58             pop rax
0x1658650065c0    96  48bb112a9fcfdd1e0000 REX.W movq rbx,0x1eddcf9f2a11    ;; object: 0x1eddcf9f2a11 Cell for 6144
0x1658650065ca   106  49ba0000000000180000 REX.W movq r10,0x180000000000
0x1658650065d4   116  4c895307       REX.W movq [rbx+0x7],r10
0x1658650065d8   120  c9             leave                   ;; debug: statement 2
0x1658650065d9   121  c20800         ret 0x8
0x1658650065dc   124  498b45a8       REX.W movq rax,[r13-0x58]
0x1658650065e0   128  e9c4ffffff     jmp 73  (0x1658650065a9)
0x1658650065e5   133  0f1f00         nop

Deoptimization Output Data (deopt points = 0)

Back edges (size = 0)
ast_id  pc_offset  loop_depth

0x1eddcf9f2a41: [TypeFeedbackInfo]
 - ic_total_count: 1, ic_with_type_info_count: 0, ic_generic_count: 0

RelocInfo (size = 13)
0x165865006560  position  (0)
0x165865006574  code target (BUILTIN)  (0x165864f36a80)
0x165865006578  statement position  (0)
0x165865006595  code target (CALL_IC)  (0x165864f2d140)
0x1658650065a5  statement position  (3)
0x1658650065ab  embedded object  (0x1eddcf9f2a11 Cell for 6144)
0x1658650065bb  code target (BUILTIN)  (0x165864f36940)
0x1658650065c2  embedded object  (0x1eddcf9f2a11 Cell for 6144)
0x1658650065d8  statement position  (2)

--- End code ---
--- Raw source ---
() {
        // Minutes with leading zeros
        return new String(self.getMinutes()).length == 1? 
        "0"+self.getMinutes() : self.getMinutes(); 
    }


--- Code ---
source_position = 4093
kind = FUNCTION
name = i
compiler = full-codegen
Instructions (size = 532)
0x165865006660     0  55             push rbp                ;; debug: position 4093
0x165865006661     1  4889e5         REX.W movq rbp,rsp
0x165865006664     4  56             push rsi
0x165865006665     5  57             push rdi
0x165865006666     6  493ba548090000 REX.W cmpq rsp,[r13+0x948]
0x16586500666d    13  7305           jnc 20  (0x165865006674)
0x16586500666f    15  e80c04f3ff     call StackCheck  (0x165864f36a80)    ;; code: BUILTIN
0x165865006674    20  48837e1f00     REX.W cmpq [rsi+0x1f],0x0    ;; debug: statement 4144
                                                             ;; debug: position 4155
0x165865006679    25  0f8526000000   jnz 69  (0x1658650066a5)
0x16586500667f    31  488b5617       REX.W movq rdx,[rsi+0x17]
0x165865006683    35  48b9811a99cfdd1e0000 REX.W movq rcx,0x1eddcf991a81    ;; object: 0x1eddcf991a81 <String[6]: String>
0x16586500668d    45  488b5627       REX.W movq rdx,[rsi+0x27]
0x165865006691    49  48b80000000005000000 REX.W movq rax,0x500000000
0x16586500669b    59  e8c01ef2ff     call 0x165864f28560     ;; code: contextual, LOAD_IC, DEFAULT
0x1658650066a0    64  e921000000     jmp 102  (0x1658650066c6)
0x1658650066a5    69  56             push rsi
0x1658650066a6    70  49ba811a99cfdd1e0000 REX.W movq r10,0x1eddcf991a81    ;; object: 0x1eddcf991a81 <String[6]: String>
0x1658650066b0    80  4152           push r10
0x1658650066b2    82  b802000000     movl rax,0x2
0x1658650066b7    87  48bb20a42b0100000000 REX.W movq rbx,0x12ba420
0x1658650066c1    97  e81a24f0ff     call 0x165864f08ae0     ;; code: STUB, CEntryStub, minor: 0
0x1658650066c6   102  50             push rax
0x1658650066c7   103  488bc6         REX.W movq rax,rsi      ;; debug: position 4162
0x1658650066ca   106  ffb067010000   push [rax+0x167]
0x1658650066d0   112  488b1424       REX.W movq rdx,[rsp]
0x1658650066d4   116  48b9015596cfdd1e0000 REX.W movq rcx,0x1eddcf965501    ;; debug: position 4166
                                                             ;; object: 0x1eddcf965501 <String[10]: getMinutes>
0x1658650066de   126  48b80000000009000000 REX.W movq rax,0x900000000
0x1658650066e8   136  e8731ef2ff     call 0x165864f28560     ;; code: contextual, LOAD_IC, DEFAULT
0x1658650066ed   141  ff3424         push [rsp]
0x1658650066f0   144  4889442408     REX.W movq [rsp+0x8],rax
0x1658650066f5   149  48ba0000000007000000 REX.W movq rdx,0x700000000    ;; debug: position 4167
0x1658650066ff   159  488b7c2408     REX.W movq rdi,[rsp+0x8]
0x165865006704   164  e87780f1ff     call 0x165864f1e780     ;; code: CALL_IC, DEFAULT
0x165865006709   169  488b75f8       REX.W movq rsi,[rbp-0x8]
0x16586500670d   173  48890424       REX.W movq [rsp],rax
0x165865006711   177  b801000000     movl rax,0x1            ;; debug: position 4151
0x165865006716   182  488b7c2408     REX.W movq rdi,[rsp+0x8]
0x16586500671b   187  488b5df0       REX.W movq rbx,[rbp-0x10]
0x16586500671f   191  488b5b27       REX.W movq rbx,[rbx+0x27]
0x165865006723   195  488b5b57       REX.W movq rbx,[rbx+0x57]
0x165865006727   199  48ba0000000004000000 REX.W movq rdx,0x400000000
0x165865006731   209  e80a3ff1ff     call 0x165864f1a640     ;; code: constructor, STUB, CallConstructStub, minor: 1
0x165865006736   214  488b75f8       REX.W movq rsi,[rbp-0x8]
0x16586500673a   218  488bd0         REX.W movq rdx,rax
0x16586500673d   221  48b9710799cfdd1e0000 REX.W movq rcx,0x1eddcf990771    ;; debug: position 4180
                                                             ;; object: 0x1eddcf990771 <String[6]: length>
0x165865006747   231  48b8000000000b000000 REX.W movq rax,0xb00000000
0x165865006751   241  e80a1ef2ff     call 0x165864f28560     ;; code: contextual, LOAD_IC, DEFAULT
0x165865006756   246  50             push rax
0x165865006757   247  48b80000000001000000 REX.W movq rax,0x100000000
0x165865006761   257  5a             pop rdx
0x165865006762   258  e8194cf2ff     call 0x165864f2b380     ;; code: COMPARE_IC, UNINITIALIZED (id = 10)
0x165865006767   263  90             nop
0x165865006768   264  eb0f           jmp 281  (0x165865006779)
0x16586500676a   266  493b45c0       REX.W cmpq rax,[r13-0x40]
0x16586500676e   270  0f840e000000   jz 290  (0x165865006782)
0x165865006774   276  e96b000000     jmp 388  (0x1658650067e4)
0x165865006779   281  4885c0         REX.W testq rax,rax
0x16586500677c   284  0f8562000000   jnz 388  (0x1658650067e4)
0x165865006782   290  49ba81d29ecfdd1e0000 REX.W movq r10,0x1eddcf9ed281    ;; debug: position 4206
                                                             ;; object: 0x1eddcf9ed281 <String[1]: 0>
0x16586500678c   300  4152           push r10
0x16586500678e   302  488bc6         REX.W movq rax,rsi      ;; debug: position 4207
0x165865006791   305  ffb067010000   push [rax+0x167]
0x165865006797   311  488b1424       REX.W movq rdx,[rsp]
0x16586500679b   315  48b9015596cfdd1e0000 REX.W movq rcx,0x1eddcf965501    ;; debug: position 4211
                                                             ;; object: 0x1eddcf965501 <String[10]: getMinutes>
0x1658650067a5   325  48b8000000000f000000 REX.W movq rax,0xf00000000
0x1658650067af   335  e8ac1df2ff     call 0x165864f28560     ;; code: contextual, LOAD_IC, DEFAULT
0x1658650067b4   340  ff3424         push [rsp]
0x1658650067b7   343  4889442408     REX.W movq [rsp+0x8],rax
0x1658650067bc   348  48ba000000000d000000 REX.W movq rdx,0xd00000000    ;; debug: position 4212
0x1658650067c6   358  488b7c2408     REX.W movq rdi,[rsp+0x8]
0x1658650067cb   363  e8b07ff1ff     call 0x165864f1e780     ;; code: CALL_IC, DEFAULT
0x1658650067d0   368  488b75f8       REX.W movq rsi,[rbp-0x8]
0x1658650067d4   372  4883c408       REX.W addq rsp,0x8
0x1658650067d8   376  5a             pop rdx                 ;; debug: position 4206
0x1658650067d9   377  e8a21df1ff     call 0x165864f18580     ;; code: BINARY_OP_IC, UNINITIALIZED (id = 43)
0x1658650067de   382  90             nop
0x1658650067df   383  e94a000000     jmp 462  (0x16586500682e)
0x1658650067e4   388  488bc6         REX.W movq rax,rsi      ;; debug: position 4227
0x1658650067e7   391  ffb067010000   push [rax+0x167]
0x1658650067ed   397  488b1424       REX.W movq rdx,[rsp]
0x1658650067f1   401  48b9015596cfdd1e0000 REX.W movq rcx,0x1eddcf965501    ;; debug: position 4231
                                                             ;; object: 0x1eddcf965501 <String[10]: getMinutes>
0x1658650067fb   411  48b80000000013000000 REX.W movq rax,0x1300000000
0x165865006805   421  e8561df2ff     call 0x165864f28560     ;; code: contextual, LOAD_IC, DEFAULT
0x16586500680a   426  ff3424         push [rsp]
0x16586500680d   429  4889442408     REX.W movq [rsp+0x8],rax
0x165865006812   434  48ba0000000011000000 REX.W movq rdx,0x1100000000    ;; debug: position 4232
0x16586500681c   444  488b7c2408     REX.W movq rdi,[rsp+0x8]
0x165865006821   449  e85a7ff1ff     call 0x165864f1e780     ;; code: CALL_IC, DEFAULT
0x165865006826   454  488b75f8       REX.W movq rsi,[rbp-0x8]
0x16586500682a   458  4883c408       REX.W addq rsp,0x8
0x16586500682e   462  48bb712c9fcfdd1e0000 REX.W movq rbx,0x1eddcf9f2c71    ;; object: 0x1eddcf9f2c71 Cell for 6144
0x165865006838   472  83430bd1       addl [rbx+0xb],0xd1
0x16586500683c   476  791f           jns 509  (0x16586500685d)
0x16586500683e   478  50             push rax
0x16586500683f   479  e8fc00f3ff     call InterruptCheck  (0x165864f36940)    ;; code: BUILTIN
0x165865006844   484  58             pop rax
0x165865006845   485  48bb712c9fcfdd1e0000 REX.W movq rbx,0x1eddcf9f2c71    ;; object: 0x1eddcf9f2c71 Cell for 6144
0x16586500684f   495  49ba0000000000180000 REX.W movq r10,0x180000000000
0x165865006859   505  4c895307       REX.W movq [rbx+0x7],r10
0x16586500685d   509  c9             leave                   ;; debug: statement 4251
0x16586500685e   510  c20800         ret 0x8
0x165865006861   513  498b45a8       REX.W movq rax,[r13-0x58]
0x165865006865   517  e9c4ffffff     jmp 462  (0x16586500682e)
0x16586500686a   522  660f1f440000   nop

Deoptimization Output Data (deopt points = 0)

Back edges (size = 0)
ast_id  pc_offset  loop_depth

0x1eddcf9f2cd9: [TypeFeedbackInfo]
 - ic_total_count: 10, ic_with_type_info_count: 0, ic_generic_count: 0

RelocInfo (size = 72)
0x165865006660  position  (4093)
0x165865006670  code target (BUILTIN)  (0x165864f36a80)
0x165865006674  statement position  (4144)
0x165865006674  position  (4155)
0x165865006685  embedded object  (0x1eddcf991a81 <String[6]: String>)
0x16586500669c  code target (LOAD_IC)  (0x165864f28560)
0x1658650066a8  embedded object  (0x1eddcf991a81 <String[6]: String>)
0x1658650066c2  code target (STUB)  (0x165864f08ae0)
0x1658650066c7  position  (4162)
0x1658650066d4  position  (4166)
0x1658650066d6  embedded object  (0x1eddcf965501 <String[10]: getMinutes>)
0x1658650066e9  code target (LOAD_IC)  (0x165864f28560)
0x1658650066f5  position  (4167)
0x165865006705  code target (CALL_IC)  (0x165864f1e780)
0x165865006711  position  (4151)
0x165865006732  code target (js construct call) (STUB)  (0x165864f1a640)
0x16586500673d  position  (4180)
0x16586500673f  embedded object  (0x1eddcf990771 <String[6]: length>)
0x165865006752  code target (LOAD_IC)  (0x165864f28560)
0x165865006763  code target with id (COMPARE_IC)  (0x165864f2b380) (id=10)
0x165865006782  position  (4206)
0x165865006784  embedded object  (0x1eddcf9ed281 <String[1]: 0>)
0x16586500678e  position  (4207)
0x16586500679b  position  (4211)
0x16586500679d  embedded object  (0x1eddcf965501 <String[10]: getMinutes>)
0x1658650067b0  code target (LOAD_IC)  (0x165864f28560)
0x1658650067bc  position  (4212)
0x1658650067cc  code target (CALL_IC)  (0x165864f1e780)
0x1658650067d8  position  (4206)
0x1658650067da  code target with id (BINARY_OP_IC)  (0x165864f18580) (id=43)
0x1658650067e4  position  (4227)
0x1658650067f1  position  (4231)
0x1658650067f3  embedded object  (0x1eddcf965501 <String[10]: getMinutes>)
0x165865006806  code target (LOAD_IC)  (0x165864f28560)
0x165865006812  position  (4232)
0x165865006822  code target (CALL_IC)  (0x165864f1e780)
0x165865006830  embedded object  (0x1eddcf9f2c71 Cell for 6144)
0x165865006840  code target (BUILTIN)  (0x165864f36940)
0x165865006847  embedded object  (0x1eddcf9f2c71 Cell for 6144)
0x16586500685d  statement position  (4251)

--- End code ---
--- Raw source ---
(){
if(!%_IsDate(this))%_ThrowNotDateError();
return(%_DateField(this,6));
}


--- Code ---
source_position = 7122
kind = FUNCTION
name = getMinutes
compiler = full-codegen
Instructions (size = 228)
0x1658650068e0     0  55             push rbp                ;; debug: position 7122
0x1658650068e1     1  4889e5         REX.W movq rbp,rsp
0x1658650068e4     4  56             push rsi
0x1658650068e5     5  57             push rdi
0x1658650068e6     6  493ba548090000 REX.W cmpq rsp,[r13+0x948]
0x1658650068ed    13  7305           jnc 20  (0x1658650068f4)
0x1658650068ef    15  e88c01f3ff     call StackCheck  (0x165864f36a80)    ;; code: BUILTIN
0x1658650068f4    20  488b4510       REX.W movq rax,[rbp+0x10]    ;; debug: statement 7126
                                                             ;; debug: position 7139
0x1658650068f8    24  a801           test al,0x1
0x1658650068fa    26  0f841f000000   jz 63  (0x16586500691f)
0x165865006900    32  488b58ff       REX.W movq rbx,[rax-0x1]
0x165865006904    36  807b0bb6       cmpb [rbx+0xb],0xb6
0x165865006908    40  eb0f           jmp 57  (0x165865006919)
0x16586500690a    42  493b45c0       REX.W cmpq rax,[r13-0x40]
0x16586500690e    46  0f841c000000   jz 80  (0x165865006930)
0x165865006914    52  e906000000     jmp 63  (0x16586500691f)
0x165865006919    57  0f8411000000   jz 80  (0x165865006930)
0x16586500691f    63  33c0           xorl rax,rax            ;; debug: statement 7145
0x165865006921    65  48bb30bc270100000000 REX.W movq rbx,0x127bc30
0x16586500692b    75  e8b021f0ff     call 0x165864f08ae0     ;; code: STUB, CEntryStub, minor: 0
0x165865006930    80  488b4510       REX.W movq rax,[rbp+0x10]    ;; debug: statement 7168
                                                             ;; debug: position 7187
0x165865006934    84  49ba4835f30200000000 REX.W movq r10,0x2f33548
0x16586500693e    94  498b0a         REX.W movq rcx,[r10]
0x165865006941    97  483b4857       REX.W cmpq rcx,[rax+0x57]
0x165865006945   101  7506           jnz 109  (0x16586500694d)
0x165865006947   103  488b4047       REX.W movq rax,[rax+0x47]
0x16586500694b   107  eb30           jmp 157  (0x16586500697d)
0x16586500694d   109  4989e2         REX.W movq r10,rsp
0x165865006950   112  4883ec08       REX.W subq rsp,0x8
0x165865006954   116  4883e4f0       REX.W andq rsp,0xf0
0x165865006958   120  4c891424       REX.W movq [rsp],r10
0x16586500695c   124  488bf8         REX.W movq rdi,rax
0x16586500695f   127  48be0000000006000000 REX.W movq rsi,0x600000000
0x165865006969   137  48b800e7ed0000000000 REX.W movq rax,0xede700
0x165865006973   147  ffd0           call rax
0x165865006975   149  488b2424       REX.W movq rsp,[rsp]
0x165865006979   153  488b75f8       REX.W movq rsi,[rbp-0x8]
0x16586500697d   157  48bb592d9fcfdd1e0000 REX.W movq rbx,0x1eddcf9f2d59    ;; object: 0x1eddcf9f2d59 Cell for 6144
0x165865006987   167  83430bd1       addl [rbx+0xb],0xd1
0x16586500698b   171  791f           jns 204  (0x1658650069ac)
0x16586500698d   173  50             push rax
0x16586500698e   174  e8adfff2ff     call InterruptCheck  (0x165864f36940)    ;; code: BUILTIN
0x165865006993   179  58             pop rax
0x165865006994   180  48bb592d9fcfdd1e0000 REX.W movq rbx,0x1eddcf9f2d59    ;; object: 0x1eddcf9f2d59 Cell for 6144
0x16586500699e   190  49ba0000000000180000 REX.W movq r10,0x180000000000
0x1658650069a8   200  4c895307       REX.W movq [rbx+0x7],r10
0x1658650069ac   204  c9             leave                   ;; debug: statement 7197
0x1658650069ad   205  c20800         ret 0x8
0x1658650069b0   208  498b45a8       REX.W movq rax,[r13-0x58]
0x1658650069b4   212  e9c4ffffff     jmp 157  (0x16586500697d)
0x1658650069b9   217  0f1f8000000000 nop

Deoptimization Output Data (deopt points = 0)

Back edges (size = 0)
ast_id  pc_offset  loop_depth

0x1eddcf9f2d99: [TypeFeedbackInfo]
 - ic_total_count: 0, ic_with_type_info_count: 0, ic_generic_count: 0

RelocInfo (size = 25)
0x1658650068e0  position  (7122)
0x1658650068f0  code target (BUILTIN)  (0x165864f36a80)
0x1658650068f4  statement position  (7126)
0x1658650068f4  position  (7139)
0x16586500691f  statement position  (7145)
0x16586500692c  code target (STUB)  (0x165864f08ae0)
0x165865006930  statement position  (7168)
0x165865006930  position  (7187)
0x16586500697f  embedded object  (0x1eddcf9f2d59 Cell for 6144)
0x16586500698f  code target (BUILTIN)  (0x165864f36940)
0x165865006996  embedded object  (0x1eddcf9f2d59 Cell for 6144)
0x1658650069ac  statement position  (7197)

--- End code ---
--- Raw source ---
s()

--- Code ---
source_position = 0
kind = FUNCTION
compiler = full-codegen
Instructions (size = 140)
0x165865006a40     0  55             push rbp                ;; debug: position 0
0x165865006a41     1  4889e5         REX.W movq rbp,rsp
0x165865006a44     4  56             push rsi
0x165865006a45     5  57             push rdi
0x165865006a46     6  41ff75a8       push [r13-0x58]
0x165865006a4a    10  493ba548090000 REX.W cmpq rsp,[r13+0x948]
0x165865006a51    17  7305           jnc 24  (0x165865006a58)
0x165865006a53    19  e82800f3ff     call StackCheck  (0x165864f36a80)    ;; code: BUILTIN
0x165865006a58    24  488bc6         REX.W movq rax,rsi      ;; debug: statement 0
0x165865006a5b    27  ffb027010000   push [rax+0x127]
0x165865006a61    33  41ff75a8       push [r13-0x58]
0x165865006a65    37  48ba0000000004000000 REX.W movq rdx,0x400000000
0x165865006a6f    47  488b7c2408     REX.W movq rdi,[rsp+0x8]
0x165865006a74    52  e8c766f2ff     call 0x165864f2d140     ;; code: CALL_IC, DEFAULT
0x165865006a79    57  488b75f8       REX.W movq rsi,[rbp-0x8]
0x165865006a7d    61  4883c408       REX.W addq rsp,0x8
0x165865006a81    65  488945e8       REX.W movq [rbp-0x18],rax
0x165865006a85    69  488b45e8       REX.W movq rax,[rbp-0x18]    ;; debug: statement 3
0x165865006a89    73  48bb312f9fcfdd1e0000 REX.W movq rbx,0x1eddcf9f2f31    ;; object: 0x1eddcf9f2f31 Cell for 6144
0x165865006a93    83  83430bd1       addl [rbx+0xb],0xd1
0x165865006a97    87  791f           jns 120  (0x165865006ab8)
0x165865006a99    89  50             push rax
0x165865006a9a    90  e8a1fef2ff     call InterruptCheck  (0x165864f36940)    ;; code: BUILTIN
0x165865006a9f    95  58             pop rax
0x165865006aa0    96  48bb312f9fcfdd1e0000 REX.W movq rbx,0x1eddcf9f2f31    ;; object: 0x1eddcf9f2f31 Cell for 6144
0x165865006aaa   106  49ba0000000000180000 REX.W movq r10,0x180000000000
0x165865006ab4   116  4c895307       REX.W movq [rbx+0x7],r10
0x165865006ab8   120  c9             leave                   ;; debug: statement 2
0x165865006ab9   121  c20800         ret 0x8
0x165865006abc   124  498b45a8       REX.W movq rax,[r13-0x58]
0x165865006ac0   128  e9c4ffffff     jmp 73  (0x165865006a89)
0x165865006ac5   133  0f1f00         nop

Deoptimization Output Data (deopt points = 0)

Back edges (size = 0)
ast_id  pc_offset  loop_depth

0x1eddcf9f2f61: [TypeFeedbackInfo]
 - ic_total_count: 1, ic_with_type_info_count: 0, ic_generic_count: 0

RelocInfo (size = 13)
0x165865006a40  position  (0)
0x165865006a54  code target (BUILTIN)  (0x165864f36a80)
0x165865006a58  statement position  (0)
0x165865006a75  code target (CALL_IC)  (0x165864f2d140)
0x165865006a85  statement position  (3)
0x165865006a8b  embedded object  (0x1eddcf9f2f31 Cell for 6144)
0x165865006a9b  code target (BUILTIN)  (0x165864f36940)
0x165865006aa2  embedded object  (0x1eddcf9f2f31 Cell for 6144)
0x165865006ab8  statement position  (2)

--- End code ---
--- Raw source ---
() {
        // Seconds, with leading zeros
        return new String(self.getSeconds()).length == 1?
        "0"+self.getSeconds() : self.getSeconds();
    }


--- Code ---
source_position = 6140
kind = FUNCTION
name = s
compiler = full-codegen
Instructions (size = 532)
0x165865006b40     0  55             push rbp                ;; debug: position 6140
0x165865006b41     1  4889e5         REX.W movq rbp,rsp
0x165865006b44     4  56             push rsi
0x165865006b45     5  57             push rdi
0x165865006b46     6  493ba548090000 REX.W cmpq rsp,[r13+0x948]
0x165865006b4d    13  7305           jnc 20  (0x165865006b54)
0x165865006b4f    15  e82cfff2ff     call StackCheck  (0x165864f36a80)    ;; code: BUILTIN
0x165865006b54    20  48837e1f00     REX.W cmpq [rsi+0x1f],0x0    ;; debug: statement 6192
                                                             ;; debug: position 6203
0x165865006b59    25  0f8526000000   jnz 69  (0x165865006b85)
0x165865006b5f    31  488b5617       REX.W movq rdx,[rsi+0x17]
0x165865006b63    35  48b9811a99cfdd1e0000 REX.W movq rcx,0x1eddcf991a81    ;; object: 0x1eddcf991a81 <String[6]: String>
0x165865006b6d    45  488b5627       REX.W movq rdx,[rsi+0x27]
0x165865006b71    49  48b80000000005000000 REX.W movq rax,0x500000000
0x165865006b7b    59  e8e019f2ff     call 0x165864f28560     ;; code: contextual, LOAD_IC, DEFAULT
0x165865006b80    64  e921000000     jmp 102  (0x165865006ba6)
0x165865006b85    69  56             push rsi
0x165865006b86    70  49ba811a99cfdd1e0000 REX.W movq r10,0x1eddcf991a81    ;; object: 0x1eddcf991a81 <String[6]: String>
0x165865006b90    80  4152           push r10
0x165865006b92    82  b802000000     movl rax,0x2
0x165865006b97    87  48bb20a42b0100000000 REX.W movq rbx,0x12ba420
0x165865006ba1    97  e83a1ff0ff     call 0x165864f08ae0     ;; code: STUB, CEntryStub, minor: 0
0x165865006ba6   102  50             push rax
0x165865006ba7   103  488bc6         REX.W movq rax,rsi      ;; debug: position 6210
0x165865006baa   106  ffb067010000   push [rax+0x167]
0x165865006bb0   112  488b1424       REX.W movq rdx,[rsp]
0x165865006bb4   116  48b9b15696cfdd1e0000 REX.W movq rcx,0x1eddcf9656b1    ;; debug: position 6214
                                                             ;; object: 0x1eddcf9656b1 <String[10]: getSeconds>
0x165865006bbe   126  48b80000000009000000 REX.W movq rax,0x900000000
0x165865006bc8   136  e89319f2ff     call 0x165864f28560     ;; code: contextual, LOAD_IC, DEFAULT
0x165865006bcd   141  ff3424         push [rsp]
0x165865006bd0   144  4889442408     REX.W movq [rsp+0x8],rax
0x165865006bd5   149  48ba0000000007000000 REX.W movq rdx,0x700000000    ;; debug: position 6215
0x165865006bdf   159  488b7c2408     REX.W movq rdi,[rsp+0x8]
0x165865006be4   164  e8977bf1ff     call 0x165864f1e780     ;; code: CALL_IC, DEFAULT
0x165865006be9   169  488b75f8       REX.W movq rsi,[rbp-0x8]
0x165865006bed   173  48890424       REX.W movq [rsp],rax
0x165865006bf1   177  b801000000     movl rax,0x1            ;; debug: position 6199
0x165865006bf6   182  488b7c2408     REX.W movq rdi,[rsp+0x8]
0x165865006bfb   187  488b5df0       REX.W movq rbx,[rbp-0x10]
0x165865006bff   191  488b5b27       REX.W movq rbx,[rbx+0x27]
0x165865006c03   195  488b5b57       REX.W movq rbx,[rbx+0x57]
0x165865006c07   199  48ba0000000004000000 REX.W movq rdx,0x400000000
0x165865006c11   209  e82a3af1ff     call 0x165864f1a640     ;; code: constructor, STUB, CallConstructStub, minor: 1
0x165865006c16   214  488b75f8       REX.W movq rsi,[rbp-0x8]
0x165865006c1a   218  488bd0         REX.W movq rdx,rax
0x165865006c1d   221  48b9710799cfdd1e0000 REX.W movq rcx,0x1eddcf990771    ;; debug: position 6228
                                                             ;; object: 0x1eddcf990771 <String[6]: length>
0x165865006c27   231  48b8000000000b000000 REX.W movq rax,0xb00000000
0x165865006c31   241  e82a19f2ff     call 0x165864f28560     ;; code: contextual, LOAD_IC, DEFAULT
0x165865006c36   246  50             push rax
0x165865006c37   247  48b80000000001000000 REX.W movq rax,0x100000000
0x165865006c41   257  5a             pop rdx
0x165865006c42   258  e83947f2ff     call 0x165864f2b380     ;; code: COMPARE_IC, UNINITIALIZED (id = 10)
0x165865006c47   263  90             nop
0x165865006c48   264  eb0f           jmp 281  (0x165865006c59)
0x165865006c4a   266  493b45c0       REX.W cmpq rax,[r13-0x40]
0x165865006c4e   270  0f840e000000   jz 290  (0x165865006c62)
0x165865006c54   276  e96b000000     jmp 388  (0x165865006cc4)
0x165865006c59   281  4885c0         REX.W testq rax,rax
0x165865006c5c   284  0f8562000000   jnz 388  (0x165865006cc4)
0x165865006c62   290  49ba81d29ecfdd1e0000 REX.W movq r10,0x1eddcf9ed281    ;; debug: position 6253
                                                             ;; object: 0x1eddcf9ed281 <String[1]: 0>
0x165865006c6c   300  4152           push r10
0x165865006c6e   302  488bc6         REX.W movq rax,rsi      ;; debug: position 6254
0x165865006c71   305  ffb067010000   push [rax+0x167]
0x165865006c77   311  488b1424       REX.W movq rdx,[rsp]
0x165865006c7b   315  48b9b15696cfdd1e0000 REX.W movq rcx,0x1eddcf9656b1    ;; debug: position 6258
                                                             ;; object: 0x1eddcf9656b1 <String[10]: getSeconds>
0x165865006c85   325  48b8000000000f000000 REX.W movq rax,0xf00000000
0x165865006c8f   335  e8cc18f2ff     call 0x165864f28560     ;; code: contextual, LOAD_IC, DEFAULT
0x165865006c94   340  ff3424         push [rsp]
0x165865006c97   343  4889442408     REX.W movq [rsp+0x8],rax
0x165865006c9c   348  48ba000000000d000000 REX.W movq rdx,0xd00000000    ;; debug: position 6259
0x165865006ca6   358  488b7c2408     REX.W movq rdi,[rsp+0x8]
0x165865006cab   363  e8d07af1ff     call 0x165864f1e780     ;; code: CALL_IC, DEFAULT
0x165865006cb0   368  488b75f8       REX.W movq rsi,[rbp-0x8]
0x165865006cb4   372  4883c408       REX.W addq rsp,0x8
0x165865006cb8   376  5a             pop rdx                 ;; debug: position 6253
0x165865006cb9   377  e8c218f1ff     call 0x165864f18580     ;; code: BINARY_OP_IC, UNINITIALIZED (id = 43)
0x165865006cbe   382  90             nop
0x165865006cbf   383  e94a000000     jmp 462  (0x165865006d0e)
0x165865006cc4   388  488bc6         REX.W movq rax,rsi      ;; debug: position 6274
0x165865006cc7   391  ffb067010000   push [rax+0x167]
0x165865006ccd   397  488b1424       REX.W movq rdx,[rsp]
0x165865006cd1   401  48b9b15696cfdd1e0000 REX.W movq rcx,0x1eddcf9656b1    ;; debug: position 6278
                                                             ;; object: 0x1eddcf9656b1 <String[10]: getSeconds>
0x165865006cdb   411  48b80000000013000000 REX.W movq rax,0x1300000000
0x165865006ce5   421  e87618f2ff     call 0x165864f28560     ;; code: contextual, LOAD_IC, DEFAULT
0x165865006cea   426  ff3424         push [rsp]
0x165865006ced   429  4889442408     REX.W movq [rsp+0x8],rax
0x165865006cf2   434  48ba0000000011000000 REX.W movq rdx,0x1100000000    ;; debug: position 6279
0x165865006cfc   444  488b7c2408     REX.W movq rdi,[rsp+0x8]
0x165865006d01   449  e87a7af1ff     call 0x165864f1e780     ;; code: CALL_IC, DEFAULT
0x165865006d06   454  488b75f8       REX.W movq rsi,[rbp-0x8]
0x165865006d0a   458  4883c408       REX.W addq rsp,0x8
0x165865006d0e   462  48bb91319fcfdd1e0000 REX.W movq rbx,0x1eddcf9f3191    ;; object: 0x1eddcf9f3191 Cell for 6144
0x165865006d18   472  83430bd1       addl [rbx+0xb],0xd1
0x165865006d1c   476  791f           jns 509  (0x165865006d3d)
0x165865006d1e   478  50             push rax
0x165865006d1f   479  e81cfcf2ff     call InterruptCheck  (0x165864f36940)    ;; code: BUILTIN
0x165865006d24   484  58             pop rax
0x165865006d25   485  48bb91319fcfdd1e0000 REX.W movq rbx,0x1eddcf9f3191    ;; object: 0x1eddcf9f3191 Cell for 6144
0x165865006d2f   495  49ba0000000000180000 REX.W movq r10,0x180000000000
0x165865006d39   505  4c895307       REX.W movq [rbx+0x7],r10
0x165865006d3d   509  c9             leave                   ;; debug: statement 6297
0x165865006d3e   510  c20800         ret 0x8
0x165865006d41   513  498b45a8       REX.W movq rax,[r13-0x58]
0x165865006d45   517  e9c4ffffff     jmp 462  (0x165865006d0e)
0x165865006d4a   522  660f1f440000   nop

Deoptimization Output Data (deopt points = 0)

Back edges (size = 0)
ast_id  pc_offset  loop_depth

0x1eddcf9f31f9: [TypeFeedbackInfo]
 - ic_total_count: 10, ic_with_type_info_count: 0, ic_generic_count: 0

RelocInfo (size = 72)
0x165865006b40  position  (6140)
0x165865006b50  code target (BUILTIN)  (0x165864f36a80)
0x165865006b54  statement position  (6192)
0x165865006b54  position  (6203)
0x165865006b65  embedded object  (0x1eddcf991a81 <String[6]: String>)
0x165865006b7c  code target (LOAD_IC)  (0x165864f28560)
0x165865006b88  embedded object  (0x1eddcf991a81 <String[6]: String>)
0x165865006ba2  code target (STUB)  (0x165864f08ae0)
0x165865006ba7  position  (6210)
0x165865006bb4  position  (6214)
0x165865006bb6  embedded object  (0x1eddcf9656b1 <String[10]: getSeconds>)
0x165865006bc9  code target (LOAD_IC)  (0x165864f28560)
0x165865006bd5  position  (6215)
0x165865006be5  code target (CALL_IC)  (0x165864f1e780)
0x165865006bf1  position  (6199)
0x165865006c12  code target (js construct call) (STUB)  (0x165864f1a640)
0x165865006c1d  position  (6228)
0x165865006c1f  embedded object  (0x1eddcf990771 <String[6]: length>)
0x165865006c32  code target (LOAD_IC)  (0x165864f28560)
0x165865006c43  code target with id (COMPARE_IC)  (0x165864f2b380) (id=10)
0x165865006c62  position  (6253)
0x165865006c64  embedded object  (0x1eddcf9ed281 <String[1]: 0>)
0x165865006c6e  position  (6254)
0x165865006c7b  position  (6258)
0x165865006c7d  embedded object  (0x1eddcf9656b1 <String[10]: getSeconds>)
0x165865006c90  code target (LOAD_IC)  (0x165864f28560)
0x165865006c9c  position  (6259)
0x165865006cac  code target (CALL_IC)  (0x165864f1e780)
0x165865006cb8  position  (6253)
0x165865006cba  code target with id (BINARY_OP_IC)  (0x165864f18580) (id=43)
0x165865006cc4  position  (6274)
0x165865006cd1  position  (6278)
0x165865006cd3  embedded object  (0x1eddcf9656b1 <String[10]: getSeconds>)
0x165865006ce6  code target (LOAD_IC)  (0x165864f28560)
0x165865006cf2  position  (6279)
0x165865006d02  code target (CALL_IC)  (0x165864f1e780)
0x165865006d10  embedded object  (0x1eddcf9f3191 Cell for 6144)
0x165865006d20  code target (BUILTIN)  (0x165864f36940)
0x165865006d27  embedded object  (0x1eddcf9f3191 Cell for 6144)
0x165865006d3d  statement position  (6297)

--- End code ---
--- Raw source ---
(){
if(!%_IsDate(this))%_ThrowNotDateError();
return(%_DateField(this,7));
}


--- Code ---
source_position = 7326
kind = FUNCTION
name = getSeconds
compiler = full-codegen
Instructions (size = 228)
0x165865006dc0     0  55             push rbp                ;; debug: position 7326
0x165865006dc1     1  4889e5         REX.W movq rbp,rsp
0x165865006dc4     4  56             push rsi
0x165865006dc5     5  57             push rdi
0x165865006dc6     6  493ba548090000 REX.W cmpq rsp,[r13+0x948]
0x165865006dcd    13  7305           jnc 20  (0x165865006dd4)
0x165865006dcf    15  e8acfcf2ff     call StackCheck  (0x165864f36a80)    ;; code: BUILTIN
0x165865006dd4    20  488b4510       REX.W movq rax,[rbp+0x10]    ;; debug: statement 7330
                                                             ;; debug: position 7343
0x165865006dd8    24  a801           test al,0x1
0x165865006dda    26  0f841f000000   jz 63  (0x165865006dff)
0x165865006de0    32  488b58ff       REX.W movq rbx,[rax-0x1]
0x165865006de4    36  807b0bb6       cmpb [rbx+0xb],0xb6
0x165865006de8    40  eb0f           jmp 57  (0x165865006df9)
0x165865006dea    42  493b45c0       REX.W cmpq rax,[r13-0x40]
0x165865006dee    46  0f841c000000   jz 80  (0x165865006e10)
0x165865006df4    52  e906000000     jmp 63  (0x165865006dff)
0x165865006df9    57  0f8411000000   jz 80  (0x165865006e10)
0x165865006dff    63  33c0           xorl rax,rax            ;; debug: statement 7349
0x165865006e01    65  48bb30bc270100000000 REX.W movq rbx,0x127bc30
0x165865006e0b    75  e8d01cf0ff     call 0x165864f08ae0     ;; code: STUB, CEntryStub, minor: 0
0x165865006e10    80  488b4510       REX.W movq rax,[rbp+0x10]    ;; debug: statement 7372
                                                             ;; debug: position 7391
0x165865006e14    84  49ba4835f30200000000 REX.W movq r10,0x2f33548
0x165865006e1e    94  498b0a         REX.W movq rcx,[r10]
0x165865006e21    97  483b4857       REX.W cmpq rcx,[rax+0x57]
0x165865006e25   101  7506           jnz 109  (0x165865006e2d)
0x165865006e27   103  488b404f       REX.W movq rax,[rax+0x4f]
0x165865006e2b   107  eb30           jmp 157  (0x165865006e5d)
0x165865006e2d   109  4989e2         REX.W movq r10,rsp
0x165865006e30   112  4883ec08       REX.W subq rsp,0x8
0x165865006e34   116  4883e4f0       REX.W andq rsp,0xf0
0x165865006e38   120  4c891424       REX.W movq [rsp],r10
0x165865006e3c   124  488bf8         REX.W movq rdi,rax
0x165865006e3f   127  48be0000000007000000 REX.W movq rsi,0x700000000
0x165865006e49   137  48b800e7ed0000000000 REX.W movq rax,0xede700
0x165865006e53   147  ffd0           call rax
0x165865006e55   149  488b2424       REX.W movq rsp,[rsp]
0x165865006e59   153  488b75f8       REX.W movq rsi,[rbp-0x8]
0x165865006e5d   157  48bb79329fcfdd1e0000 REX.W movq rbx,0x1eddcf9f3279    ;; object: 0x1eddcf9f3279 Cell for 6144
0x165865006e67   167  83430bd1       addl [rbx+0xb],0xd1
0x165865006e6b   171  791f           jns 204  (0x165865006e8c)
0x165865006e6d   173  50             push rax
0x165865006e6e   174  e8cdfaf2ff     call InterruptCheck  (0x165864f36940)    ;; code: BUILTIN
0x165865006e73   179  58             pop rax
0x165865006e74   180  48bb79329fcfdd1e0000 REX.W movq rbx,0x1eddcf9f3279    ;; object: 0x1eddcf9f3279 Cell for 6144
0x165865006e7e   190  49ba0000000000180000 REX.W movq r10,0x180000000000
0x165865006e88   200  4c895307       REX.W movq [rbx+0x7],r10
0x165865006e8c   204  c9             leave                   ;; debug: statement 7401
0x165865006e8d   205  c20800         ret 0x8
0x165865006e90   208  498b45a8       REX.W movq rax,[r13-0x58]
0x165865006e94   212  e9c4ffffff     jmp 157  (0x165865006e5d)
0x165865006e99   217  0f1f8000000000 nop

Deoptimization Output Data (deopt points = 0)

Back edges (size = 0)
ast_id  pc_offset  loop_depth

0x1eddcf9f32b9: [TypeFeedbackInfo]
 - ic_total_count: 0, ic_with_type_info_count: 0, ic_generic_count: 0

RelocInfo (size = 25)
0x165865006dc0  position  (7326)
0x165865006dd0  code target (BUILTIN)  (0x165864f36a80)
0x165865006dd4  statement position  (7330)
0x165865006dd4  position  (7343)
0x165865006dff  statement position  (7349)
0x165865006e0c  code target (STUB)  (0x165864f08ae0)
0x165865006e10  statement position  (7372)
0x165865006e10  position  (7391)
0x165865006e5f  embedded object  (0x1eddcf9f3279 Cell for 6144)
0x165865006e6f  code target (BUILTIN)  (0x165864f36940)
0x165865006e76  embedded object  (0x1eddcf9f3279 Cell for 6144)
0x165865006e8c  statement position  (7401)

--- End code ---
--- Raw source ---
A()

--- Code ---
source_position = 0
kind = FUNCTION
compiler = full-codegen
Instructions (size = 140)
0x165865006f20     0  55             push rbp                ;; debug: position 0
0x165865006f21     1  4889e5         REX.W movq rbp,rsp
0x165865006f24     4  56             push rsi
0x165865006f25     5  57             push rdi
0x165865006f26     6  41ff75a8       push [r13-0x58]
0x165865006f2a    10  493ba548090000 REX.W cmpq rsp,[r13+0x948]
0x165865006f31    17  7305           jnc 24  (0x165865006f38)
0x165865006f33    19  e848fbf2ff     call StackCheck  (0x165864f36a80)    ;; code: BUILTIN
0x165865006f38    24  488bc6         REX.W movq rax,rsi      ;; debug: statement 0
0x165865006f3b    27  ffb08f000000   push [rax+0x8f]
0x165865006f41    33  41ff75a8       push [r13-0x58]
0x165865006f45    37  48ba0000000004000000 REX.W movq rdx,0x400000000
0x165865006f4f    47  488b7c2408     REX.W movq rdi,[rsp+0x8]
0x165865006f54    52  e8e761f2ff     call 0x165864f2d140     ;; code: CALL_IC, DEFAULT
0x165865006f59    57  488b75f8       REX.W movq rsi,[rbp-0x8]
0x165865006f5d    61  4883c408       REX.W addq rsp,0x8
0x165865006f61    65  488945e8       REX.W movq [rbp-0x18],rax
0x165865006f65    69  488b45e8       REX.W movq rax,[rbp-0x18]    ;; debug: statement 3
0x165865006f69    73  48bb31349fcfdd1e0000 REX.W movq rbx,0x1eddcf9f3431    ;; object: 0x1eddcf9f3431 Cell for 6144
0x165865006f73    83  83430bd1       addl [rbx+0xb],0xd1
0x165865006f77    87  791f           jns 120  (0x165865006f98)
0x165865006f79    89  50             push rax
0x165865006f7a    90  e8c1f9f2ff     call InterruptCheck  (0x165864f36940)    ;; code: BUILTIN
0x165865006f7f    95  58             pop rax
0x165865006f80    96  48bb31349fcfdd1e0000 REX.W movq rbx,0x1eddcf9f3431    ;; object: 0x1eddcf9f3431 Cell for 6144
0x165865006f8a   106  49ba0000000000180000 REX.W movq r10,0x180000000000
0x165865006f94   116  4c895307       REX.W movq [rbx+0x7],r10
0x165865006f98   120  c9             leave                   ;; debug: statement 2
0x165865006f99   121  c20800         ret 0x8
0x165865006f9c   124  498b45a8       REX.W movq rax,[r13-0x58]
0x165865006fa0   128  e9c4ffffff     jmp 73  (0x165865006f69)
0x165865006fa5   133  0f1f00         nop

Deoptimization Output Data (deopt points = 0)

Back edges (size = 0)
ast_id  pc_offset  loop_depth

0x1eddcf9f3461: [TypeFeedbackInfo]
 - ic_total_count: 1, ic_with_type_info_count: 0, ic_generic_count: 0

RelocInfo (size = 13)
0x165865006f20  position  (0)
0x165865006f34  code target (BUILTIN)  (0x165864f36a80)
0x165865006f38  statement position  (0)
0x165865006f55  code target (CALL_IC)  (0x165864f2d140)
0x165865006f65  statement position  (3)
0x165865006f6b  embedded object  (0x1eddcf9f3431 Cell for 6144)
0x165865006f7b  code target (BUILTIN)  (0x165864f36940)
0x165865006f82  embedded object  (0x1eddcf9f3431 Cell for 6144)
0x165865006f98  statement position  (2)

--- End code ---
--- Raw source ---
() {
        // Uppercase Ante meridiem and Post meridiem
        return self.getHours() > 11? "PM" : "AM";
    }


--- Code ---
source_position = 2022
kind = FUNCTION
name = A
compiler = full-codegen
Instructions (size = 228)
0x165865007020     0  55             push rbp                ;; debug: position 2022
0x165865007021     1  4889e5         REX.W movq rbp,rsp
0x165865007024     4  56             push rsi
0x165865007025     5  57             push rdi
0x165865007026     6  493ba548090000 REX.W cmpq rsp,[r13+0x948]
0x16586500702d    13  7305           jnc 20  (0x165865007034)
0x16586500702f    15  e84cfaf2ff     call StackCheck  (0x165864f36a80)    ;; code: BUILTIN
0x165865007034    20  488bc6         REX.W movq rax,rsi      ;; debug: statement 2088
                                                             ;; debug: position 2095
0x165865007037    23  ffb067010000   push [rax+0x167]
0x16586500703d    29  488b1424       REX.W movq rdx,[rsp]
0x165865007041    33  48b9595396cfdd1e0000 REX.W movq rcx,0x1eddcf965359    ;; debug: position 2099
                                                             ;; object: 0x1eddcf965359 <String[8]: getHours>
0x16586500704b    43  48b80000000006000000 REX.W movq rax,0x600000000
0x165865007055    53  e80615f2ff     call 0x165864f28560     ;; code: contextual, LOAD_IC, DEFAULT
0x16586500705a    58  ff3424         push [rsp]
0x16586500705d    61  4889442408     REX.W movq [rsp+0x8],rax
0x165865007062    66  48ba0000000004000000 REX.W movq rdx,0x400000000    ;; debug: position 2100
0x16586500706c    76  488b7c2408     REX.W movq rdi,[rsp+0x8]
0x165865007071    81  e80a77f1ff     call 0x165864f1e780     ;; code: CALL_IC, DEFAULT
0x165865007076    86  488b75f8       REX.W movq rsi,[rbp-0x8]
0x16586500707a    90  48890424       REX.W movq [rsp],rax
0x16586500707e    94  48b8000000000b000000 REX.W movq rax,0xb00000000
0x165865007088   104  5a             pop rdx
0x165865007089   105  e83251f2ff     call 0x165864f2c1c0     ;; code: COMPARE_IC, UNINITIALIZED (id = 10)
0x16586500708e   110  90             nop
0x16586500708f   111  eb0f           jmp 128  (0x1658650070a0)
0x165865007091   113  493b45c0       REX.W cmpq rax,[r13-0x40]
0x165865007095   117  0f840e000000   jz 137  (0x1658650070a9)
0x16586500709b   123  e918000000     jmp 152  (0x1658650070b8)
0x1658650070a0   128  4885c0         REX.W testq rax,rax
0x1658650070a3   131  0f8e0f000000   jle 152  (0x1658650070b8)
0x1658650070a9   137  48b8b9d19ecfdd1e0000 REX.W movq rax,0x1eddcf9ed1b9    ;; debug: position 2117
                                                             ;; object: 0x1eddcf9ed1b9 <String[2]: PM>
0x1658650070b3   147  e90a000000     jmp 162  (0x1658650070c2)
0x1658650070b8   152  48b8d9d19ecfdd1e0000 REX.W movq rax,0x1eddcf9ed1d9    ;; debug: position 2124
                                                             ;; object: 0x1eddcf9ed1d9 <String[2]: AM>
0x1658650070c2   162  48bb29369fcfdd1e0000 REX.W movq rbx,0x1eddcf9f3629    ;; object: 0x1eddcf9f3629 Cell for 6144
0x1658650070cc   172  83430bd1       addl [rbx+0xb],0xd1
0x1658650070d0   176  791f           jns 209  (0x1658650070f1)
0x1658650070d2   178  50             push rax
0x1658650070d3   179  e868f8f2ff     call InterruptCheck  (0x165864f36940)    ;; code: BUILTIN
0x1658650070d8   184  58             pop rax
0x1658650070d9   185  48bb29369fcfdd1e0000 REX.W movq rbx,0x1eddcf9f3629    ;; object: 0x1eddcf9f3629 Cell for 6144
0x1658650070e3   195  49ba0000000000180000 REX.W movq r10,0x180000000000
0x1658650070ed   205  4c895307       REX.W movq [rbx+0x7],r10
0x1658650070f1   209  c9             leave                   ;; debug: statement 2134
0x1658650070f2   210  c20800         ret 0x8
0x1658650070f5   213  498b45a8       REX.W movq rax,[r13-0x58]
0x1658650070f9   217  e9c4ffffff     jmp 162  (0x1658650070c2)
0x1658650070fe   222  6690           nop

Deoptimization Output Data (deopt points = 0)

Back edges (size = 0)
ast_id  pc_offset  loop_depth

0x1eddcf9f3671: [TypeFeedbackInfo]
 - ic_total_count: 3, ic_with_type_info_count: 0, ic_generic_count: 0

RelocInfo (size = 35)
0x165865007020  position  (2022)
0x165865007030  code target (BUILTIN)  (0x165864f36a80)
0x165865007034  statement position  (2088)
0x165865007034  position  (2095)
0x165865007041  position  (2099)
0x165865007043  embedded object  (0x1eddcf965359 <String[8]: getHours>)
0x165865007056  code target (LOAD_IC)  (0x165864f28560)
0x165865007062  position  (2100)
0x165865007072  code target (CALL_IC)  (0x165864f1e780)
0x16586500708a  code target with id (COMPARE_IC)  (0x165864f2c1c0) (id=10)
0x1658650070a9  position  (2117)
0x1658650070ab  embedded object  (0x1eddcf9ed1b9 <String[2]: PM>)
0x1658650070b8  position  (2124)
0x1658650070ba  embedded object  (0x1eddcf9ed1d9 <String[2]: AM>)
0x1658650070c4  embedded object  (0x1eddcf9f3629 Cell for 6144)
0x1658650070d4  code target (BUILTIN)  (0x165864f36940)
0x1658650070db  embedded object  (0x1eddcf9f3629 Cell for 6144)
0x1658650070f1  statement position  (2134)

--- End code ---
--- Raw source ---
(){
if(!%_IsDate(this))%_ThrowNotDateError();
return(%_DateField(this,0));
}


--- Code ---
source_position = 6022
kind = FUNCTION
name = getTime
compiler = full-codegen
Instructions (size = 156)
0x1658650074e0     0  55             push rbp                ;; debug: position 6022
0x1658650074e1     1  4889e5         REX.W movq rbp,rsp
0x1658650074e4     4  56             push rsi
0x1658650074e5     5  57             push rdi
0x1658650074e6     6  493ba548090000 REX.W cmpq rsp,[r13+0x948]
0x1658650074ed    13  7305           jnc 20  (0x1658650074f4)
0x1658650074ef    15  e88cf5f2ff     call StackCheck  (0x165864f36a80)    ;; code: BUILTIN
0x1658650074f4    20  488b4510       REX.W movq rax,[rbp+0x10]    ;; debug: statement 6026
                                                             ;; debug: position 6039
0x1658650074f8    24  a801           test al,0x1
0x1658650074fa    26  0f841f000000   jz 63  (0x16586500751f)
0x165865007500    32  488b58ff       REX.W movq rbx,[rax-0x1]
0x165865007504    36  807b0bb6       cmpb [rbx+0xb],0xb6
0x165865007508    40  eb0f           jmp 57  (0x165865007519)
0x16586500750a    42  493b45c0       REX.W cmpq rax,[r13-0x40]
0x16586500750e    46  0f841c000000   jz 80  (0x165865007530)
0x165865007514    52  e906000000     jmp 63  (0x16586500751f)
0x165865007519    57  0f8411000000   jz 80  (0x165865007530)
0x16586500751f    63  33c0           xorl rax,rax            ;; debug: statement 6045
0x165865007521    65  48bb30bc270100000000 REX.W movq rbx,0x127bc30
0x16586500752b    75  e8b015f0ff     call 0x165864f08ae0     ;; code: STUB, CEntryStub, minor: 0
0x165865007530    80  488b4510       REX.W movq rax,[rbp+0x10]    ;; debug: statement 6068
                                                             ;; debug: position 6087
0x165865007534    84  488b4017       REX.W movq rax,[rax+0x17]
0x165865007538    88  48bb31389fcfdd1e0000 REX.W movq rbx,0x1eddcf9f3831    ;; object: 0x1eddcf9f3831 Cell for 6144
0x165865007542    98  83430bd1       addl [rbx+0xb],0xd1
0x165865007546   102  791f           jns 135  (0x165865007567)
0x165865007548   104  50             push rax
0x165865007549   105  e8f2f3f2ff     call InterruptCheck  (0x165864f36940)    ;; code: BUILTIN
0x16586500754e   110  58             pop rax
0x16586500754f   111  48bb31389fcfdd1e0000 REX.W movq rbx,0x1eddcf9f3831    ;; object: 0x1eddcf9f3831 Cell for 6144
0x165865007559   121  49ba0000000000180000 REX.W movq r10,0x180000000000
0x165865007563   131  4c895307       REX.W movq [rbx+0x7],r10
0x165865007567   135  c9             leave                   ;; debug: statement 6097
0x165865007568   136  c20800         ret 0x8
0x16586500756b   139  498b45a8       REX.W movq rax,[r13-0x58]
0x16586500756f   143  e9c4ffffff     jmp 88  (0x165865007538)
0x165865007574   148  0f1f4000       nop

Deoptimization Output Data (deopt points = 0)

Back edges (size = 0)
ast_id  pc_offset  loop_depth

0x1eddcf9f3869: [TypeFeedbackInfo]
 - ic_total_count: 0, ic_with_type_info_count: 0, ic_generic_count: 0

RelocInfo (size = 23)
0x1658650074e0  position  (6022)
0x1658650074f0  code target (BUILTIN)  (0x165864f36a80)
0x1658650074f4  statement position  (6026)
0x1658650074f4  position  (6039)
0x16586500751f  statement position  (6045)
0x16586500752c  code target (STUB)  (0x165864f08ae0)
0x165865007530  statement position  (6068)
0x165865007530  position  (6087)
0x16586500753a  embedded object  (0x1eddcf9f3831 Cell for 6144)
0x16586500754a  code target (BUILTIN)  (0x165864f36940)
0x165865007551  embedded object  (0x1eddcf9f3831 Cell for 6144)
0x165865007567  statement position  (6097)

--- End code ---
--- Raw source ---
(s){
if(!%_IsDate(this))%_ThrowNotDateError();
(%DateSetValue(this,i(s),1));
return(%_DateField(this,0));
}


--- Code ---
source_position = 7848
kind = FUNCTION
name = setTime
compiler = full-codegen
Instructions (size = 228)
0x1658650075e0     0  55             push rbp                ;; debug: position 7848
0x1658650075e1     1  4889e5         REX.W movq rbp,rsp
0x1658650075e4     4  56             push rsi
0x1658650075e5     5  57             push rdi
0x1658650075e6     6  493ba548090000 REX.W cmpq rsp,[r13+0x948]
0x1658650075ed    13  7305           jnc 20  (0x1658650075f4)
0x1658650075ef    15  e88cf4f2ff     call StackCheck  (0x165864f36a80)    ;; code: BUILTIN
0x1658650075f4    20  488b4518       REX.W movq rax,[rbp+0x18]    ;; debug: statement 7853
                                                             ;; debug: position 7866
0x1658650075f8    24  a801           test al,0x1
0x1658650075fa    26  0f841f000000   jz 63  (0x16586500761f)
0x165865007600    32  488b58ff       REX.W movq rbx,[rax-0x1]
0x165865007604    36  807b0bb6       cmpb [rbx+0xb],0xb6
0x165865007608    40  eb0f           jmp 57  (0x165865007619)
0x16586500760a    42  493b45c0       REX.W cmpq rax,[r13-0x40]
0x16586500760e    46  0f841c000000   jz 80  (0x165865007630)
0x165865007614    52  e906000000     jmp 63  (0x16586500761f)
0x165865007619    57  0f8411000000   jz 80  (0x165865007630)
0x16586500761f    63  33c0           xorl rax,rax            ;; debug: statement 7872
0x165865007621    65  48bb30bc270100000000 REX.W movq rbx,0x127bc30
0x16586500762b    75  e8b014f0ff     call 0x165864f08ae0     ;; code: STUB, CEntryStub, minor: 0
0x165865007630    80  ff7518         push [rbp+0x18]         ;; debug: statement 7895
                                                             ;; debug: position 7910
0x165865007633    83  488bc6         REX.W movq rax,rsi      ;; debug: position 7915
0x165865007636    86  ff704f         push [rax+0x4f]
0x165865007639    89  41ff75a8       push [r13-0x58]
0x16586500763d    93  ff7510         push [rbp+0x10]         ;; debug: position 7917
0x165865007640    96  48ba0000000004000000 REX.W movq rdx,0x400000000    ;; debug: position 7915
0x16586500764a   106  488b7c2410     REX.W movq rdi,[rsp+0x10]
0x16586500764f   111  e8eca8f2ff     call 0x165864f31f40     ;; code: CALL_IC, DEFAULT
0x165865007654   116  488b75f8       REX.W movq rsi,[rbp-0x8]
0x165865007658   120  48890424       REX.W movq [rsp],rax
0x16586500765c   124  49ba0000000001000000 REX.W movq r10,0x100000000
0x165865007666   134  4152           push r10
0x165865007668   136  b803000000     movl rax,0x3
0x16586500766d   141  48bb70b6270100000000 REX.W movq rbx,0x127b670
0x165865007677   151  e86414f0ff     call 0x165864f08ae0     ;; code: STUB, CEntryStub, minor: 0
0x16586500767c   156  488b4518       REX.W movq rax,[rbp+0x18]    ;; debug: statement 7925
                                                             ;; debug: position 7944
0x165865007680   160  488b4017       REX.W movq rax,[rax+0x17]
0x165865007684   164  48bb31399fcfdd1e0000 REX.W movq rbx,0x1eddcf9f3931    ;; object: 0x1eddcf9f3931 Cell for 6144
0x16586500768e   174  83430bd1       addl [rbx+0xb],0xd1
0x165865007692   178  791f           jns 211  (0x1658650076b3)
0x165865007694   180  50             push rax
0x165865007695   181  e8a6f2f2ff     call InterruptCheck  (0x165864f36940)    ;; code: BUILTIN
0x16586500769a   186  58             pop rax
0x16586500769b   187  48bb31399fcfdd1e0000 REX.W movq rbx,0x1eddcf9f3931    ;; object: 0x1eddcf9f3931 Cell for 6144
0x1658650076a5   197  49ba0000000000180000 REX.W movq r10,0x180000000000
0x1658650076af   207  4c895307       REX.W movq [rbx+0x7],r10
0x1658650076b3   211  c9             leave                   ;; debug: statement 7954
0x1658650076b4   212  c21000         ret 0x10
0x1658650076b7   215  498b45a8       REX.W movq rax,[r13-0x58]
0x1658650076bb   219  e9c4ffffff     jmp 164  (0x165865007684)

Deoptimization Output Data (deopt points = 0)

Back edges (size = 0)
ast_id  pc_offset  loop_depth

0x1eddcf9f3979: [TypeFeedbackInfo]
 - ic_total_count: 1, ic_with_type_info_count: 0, ic_generic_count: 0

RelocInfo (size = 35)
0x1658650075e0  position  (7848)
0x1658650075f0  code target (BUILTIN)  (0x165864f36a80)
0x1658650075f4  statement position  (7853)
0x1658650075f4  position  (7866)
0x16586500761f  statement position  (7872)
0x16586500762c  code target (STUB)  (0x165864f08ae0)
0x165865007630  statement position  (7895)
0x165865007630  position  (7910)
0x165865007633  position  (7915)
0x16586500763d  position  (7917)
0x165865007640  position  (7915)
0x165865007650  code target (CALL_IC)  (0x165864f31f40)
0x165865007678  code target (STUB)  (0x165864f08ae0)
0x16586500767c  statement position  (7925)
0x16586500767c  position  (7944)
0x165865007686  embedded object  (0x1eddcf9f3931 Cell for 6144)
0x165865007696  code target (BUILTIN)  (0x165864f36940)
0x16586500769d  embedded object  (0x1eddcf9f3931 Cell for 6144)
0x1658650076b3  statement position  (7954)

--- End code ---
--- Raw source ---
m()

--- Code ---
source_position = 0
kind = FUNCTION
compiler = full-codegen
Instructions (size = 140)
0x1658650078c0     0  55             push rbp                ;; debug: position 0
0x1658650078c1     1  4889e5         REX.W movq rbp,rsp
0x1658650078c4     4  56             push rsi
0x1658650078c5     5  57             push rdi
0x1658650078c6     6  41ff75a8       push [r13-0x58]
0x1658650078ca    10  493ba548090000 REX.W cmpq rsp,[r13+0x948]
0x1658650078d1    17  7305           jnc 24  (0x1658650078d8)
0x1658650078d3    19  e8a8f1f2ff     call StackCheck  (0x165864f36a80)    ;; code: BUILTIN
0x1658650078d8    24  488bc6         REX.W movq rax,rsi      ;; debug: statement 0
0x1658650078db    27  ffb0f7000000   push [rax+0xf7]
0x1658650078e1    33  41ff75a8       push [r13-0x58]
0x1658650078e5    37  48ba0000000004000000 REX.W movq rdx,0x400000000
0x1658650078ef    47  488b7c2408     REX.W movq rdi,[rsp+0x8]
0x1658650078f4    52  e84758f2ff     call 0x165864f2d140     ;; code: CALL_IC, DEFAULT
0x1658650078f9    57  488b75f8       REX.W movq rsi,[rbp-0x8]
0x1658650078fd    61  4883c408       REX.W addq rsp,0x8
0x165865007901    65  488945e8       REX.W movq [rbp-0x18],rax
0x165865007905    69  488b45e8       REX.W movq rax,[rbp-0x18]    ;; debug: statement 3
0x165865007909    73  48bb413b9fcfdd1e0000 REX.W movq rbx,0x1eddcf9f3b41    ;; object: 0x1eddcf9f3b41 Cell for 6144
0x165865007913    83  83430bd1       addl [rbx+0xb],0xd1
0x165865007917    87  791f           jns 120  (0x165865007938)
0x165865007919    89  50             push rax
0x16586500791a    90  e821f0f2ff     call InterruptCheck  (0x165864f36940)    ;; code: BUILTIN
0x16586500791f    95  58             pop rax
0x165865007920    96  48bb413b9fcfdd1e0000 REX.W movq rbx,0x1eddcf9f3b41    ;; object: 0x1eddcf9f3b41 Cell for 6144
0x16586500792a   106  49ba0000000000180000 REX.W movq r10,0x180000000000
0x165865007934   116  4c895307       REX.W movq [rbx+0x7],r10
0x165865007938   120  c9             leave                   ;; debug: statement 2
0x165865007939   121  c20800         ret 0x8
0x16586500793c   124  498b45a8       REX.W movq rax,[r13-0x58]
0x165865007940   128  e9c4ffffff     jmp 73  (0x165865007909)
0x165865007945   133  0f1f00         nop

Deoptimization Output Data (deopt points = 0)

Back edges (size = 0)
ast_id  pc_offset  loop_depth

0x1eddcf9f3b71: [TypeFeedbackInfo]
 - ic_total_count: 1, ic_with_type_info_count: 0, ic_generic_count: 0

RelocInfo (size = 13)
0x1658650078c0  position  (0)
0x1658650078d4  code target (BUILTIN)  (0x165864f36a80)
0x1658650078d8  statement position  (0)
0x1658650078f5  code target (CALL_IC)  (0x165864f2d140)
0x165865007905  statement position  (3)
0x16586500790b  embedded object  (0x1eddcf9f3b41 Cell for 6144)
0x16586500791b  code target (BUILTIN)  (0x165864f36940)
0x165865007922  embedded object  (0x1eddcf9f3b41 Cell for 6144)
0x165865007938  statement position  (2)

--- End code ---
--- Code ---
kind = HANDLER
major_key = <NoCache>Stub
name = LoadConstantStub
compiler = crankshaft
Instructions (size = 24)
0x1658650079c0     0  488b42ff       REX.W movq rax,[rdx-0x1]
0x1658650079c4     4  488b402f       REX.W movq rax,[rax+0x2f]
0x1658650079c8     8  488b8037010000 REX.W movq rax,[rax+0x137]
0x1658650079cf    15  c3             ret


Safepoints (size = 8)

RelocInfo (size = 0)

--- End code ---
--- Raw source ---
l()

--- Code ---
source_position = 0
kind = FUNCTION
compiler = full-codegen
Instructions (size = 140)
0x165865007b00     0  55             push rbp                ;; debug: position 0
0x165865007b01     1  4889e5         REX.W movq rbp,rsp
0x165865007b04     4  56             push rsi
0x165865007b05     5  57             push rdi
0x165865007b06     6  41ff75a8       push [r13-0x58]
0x165865007b0a    10  493ba548090000 REX.W cmpq rsp,[r13+0x948]
0x165865007b11    17  7305           jnc 24  (0x165865007b18)
0x165865007b13    19  e868eff2ff     call StackCheck  (0x165864f36a80)    ;; code: BUILTIN
0x165865007b18    24  488bc6         REX.W movq rax,rsi      ;; debug: statement 0
0x165865007b1b    27  ffb0e7000000   push [rax+0xe7]
0x165865007b21    33  41ff75a8       push [r13-0x58]
0x165865007b25    37  48ba0000000004000000 REX.W movq rdx,0x400000000
0x165865007b2f    47  488b7c2408     REX.W movq rdi,[rsp+0x8]
0x165865007b34    52  e80756f2ff     call 0x165864f2d140     ;; code: CALL_IC, DEFAULT
0x165865007b39    57  488b75f8       REX.W movq rsi,[rbp-0x8]
0x165865007b3d    61  4883c408       REX.W addq rsp,0x8
0x165865007b41    65  488945e8       REX.W movq [rbp-0x18],rax
0x165865007b45    69  488b45e8       REX.W movq rax,[rbp-0x18]    ;; debug: statement 3
0x165865007b49    73  48bb013e9fcfdd1e0000 REX.W movq rbx,0x1eddcf9f3e01    ;; object: 0x1eddcf9f3e01 Cell for 6144
0x165865007b53    83  83430bd1       addl [rbx+0xb],0xd1
0x165865007b57    87  791f           jns 120  (0x165865007b78)
0x165865007b59    89  50             push rax
0x165865007b5a    90  e8e1edf2ff     call InterruptCheck  (0x165864f36940)    ;; code: BUILTIN
0x165865007b5f    95  58             pop rax
0x165865007b60    96  48bb013e9fcfdd1e0000 REX.W movq rbx,0x1eddcf9f3e01    ;; object: 0x1eddcf9f3e01 Cell for 6144
0x165865007b6a   106  49ba0000000000180000 REX.W movq r10,0x180000000000
0x165865007b74   116  4c895307       REX.W movq [rbx+0x7],r10
0x165865007b78   120  c9             leave                   ;; debug: statement 2
0x165865007b79   121  c20800         ret 0x8
0x165865007b7c   124  498b45a8       REX.W movq rax,[r13-0x58]
0x165865007b80   128  e9c4ffffff     jmp 73  (0x165865007b49)
0x165865007b85   133  0f1f00         nop

Deoptimization Output Data (deopt points = 0)

Back edges (size = 0)
ast_id  pc_offset  loop_depth

0x1eddcf9f3e31: [TypeFeedbackInfo]
 - ic_total_count: 1, ic_with_type_info_count: 0, ic_generic_count: 0

RelocInfo (size = 13)
0x165865007b00  position  (0)
0x165865007b14  code target (BUILTIN)  (0x165864f36a80)
0x165865007b18  statement position  (0)
0x165865007b35  code target (CALL_IC)  (0x165864f2d140)
0x165865007b45  statement position  (3)
0x165865007b4b  embedded object  (0x1eddcf9f3e01 Cell for 6144)
0x165865007b5b  code target (BUILTIN)  (0x165864f36940)
0x165865007b62  embedded object  (0x1eddcf9f3e01 Cell for 6144)
0x165865007b78  statement position  (2)

--- End code ---
--- Raw source ---
F()

--- Code ---
source_position = 0
kind = FUNCTION
compiler = full-codegen
Instructions (size = 140)
0x165865007cc0     0  55             push rbp                ;; debug: position 0
0x165865007cc1     1  4889e5         REX.W movq rbp,rsp
0x165865007cc4     4  56             push rsi
0x165865007cc5     5  57             push rdi
0x165865007cc6     6  41ff75a8       push [r13-0x58]
0x165865007cca    10  493ba548090000 REX.W cmpq rsp,[r13+0x948]
0x165865007cd1    17  7305           jnc 24  (0x165865007cd8)
0x165865007cd3    19  e8a8edf2ff     call StackCheck  (0x165864f36a80)    ;; code: BUILTIN
0x165865007cd8    24  488bc6         REX.W movq rax,rsi      ;; debug: statement 0
0x165865007cdb    27  ffb0af000000   push [rax+0xaf]
0x165865007ce1    33  41ff75a8       push [r13-0x58]
0x165865007ce5    37  48ba0000000004000000 REX.W movq rdx,0x400000000
0x165865007cef    47  488b7c2408     REX.W movq rdi,[rsp+0x8]
0x165865007cf4    52  e84754f2ff     call 0x165864f2d140     ;; code: CALL_IC, DEFAULT
0x165865007cf9    57  488b75f8       REX.W movq rsi,[rbp-0x8]
0x165865007cfd    61  4883c408       REX.W addq rsp,0x8
0x165865007d01    65  488945e8       REX.W movq [rbp-0x18],rax
0x165865007d05    69  488b45e8       REX.W movq rax,[rbp-0x18]    ;; debug: statement 3
0x165865007d09    73  48bbb1409fcfdd1e0000 REX.W movq rbx,0x1eddcf9f40b1    ;; object: 0x1eddcf9f40b1 Cell for 6144
0x165865007d13    83  83430bd1       addl [rbx+0xb],0xd1
0x165865007d17    87  791f           jns 120  (0x165865007d38)
0x165865007d19    89  50             push rax
0x165865007d1a    90  e821ecf2ff     call InterruptCheck  (0x165864f36940)    ;; code: BUILTIN
0x165865007d1f    95  58             pop rax
0x165865007d20    96  48bbb1409fcfdd1e0000 REX.W movq rbx,0x1eddcf9f40b1    ;; object: 0x1eddcf9f40b1 Cell for 6144
0x165865007d2a   106  49ba0000000000180000 REX.W movq r10,0x180000000000
0x165865007d34   116  4c895307       REX.W movq [rbx+0x7],r10
0x165865007d38   120  c9             leave                   ;; debug: statement 2
0x165865007d39   121  c20800         ret 0x8
0x165865007d3c   124  498b45a8       REX.W movq rax,[r13-0x58]
0x165865007d40   128  e9c4ffffff     jmp 73  (0x165865007d09)
0x165865007d45   133  0f1f00         nop

Deoptimization Output Data (deopt points = 0)

Back edges (size = 0)
ast_id  pc_offset  loop_depth

0x1eddcf9f40e1: [TypeFeedbackInfo]
 - ic_total_count: 1, ic_with_type_info_count: 0, ic_generic_count: 0

RelocInfo (size = 13)
0x165865007cc0  position  (0)
0x165865007cd4  code target (BUILTIN)  (0x165864f36a80)
0x165865007cd8  statement position  (0)
0x165865007cf5  code target (CALL_IC)  (0x165864f2d140)
0x165865007d05  statement position  (3)
0x165865007d0b  embedded object  (0x1eddcf9f40b1 Cell for 6144)
0x165865007d1b  code target (BUILTIN)  (0x165864f36940)
0x165865007d22  embedded object  (0x1eddcf9f40b1 Cell for 6144)
0x165865007d38  statement position  (2)

--- End code ---
--- Raw source ---
g()

--- Code ---
source_position = 0
kind = FUNCTION
compiler = full-codegen
Instructions (size = 140)
0x165865007dc0     0  55             push rbp                ;; debug: position 0
0x165865007dc1     1  4889e5         REX.W movq rbp,rsp
0x165865007dc4     4  56             push rsi
0x165865007dc5     5  57             push rdi
0x165865007dc6     6  41ff75a8       push [r13-0x58]
0x165865007dca    10  493ba548090000 REX.W cmpq rsp,[r13+0x948]
0x165865007dd1    17  7305           jnc 24  (0x165865007dd8)
0x165865007dd3    19  e8a8ecf2ff     call StackCheck  (0x165864f36a80)    ;; code: BUILTIN
0x165865007dd8    24  488bc6         REX.W movq rax,rsi      ;; debug: statement 0
0x165865007ddb    27  ffb0b7000000   push [rax+0xb7]
0x165865007de1    33  41ff75a8       push [r13-0x58]
0x165865007de5    37  48ba0000000004000000 REX.W movq rdx,0x400000000
0x165865007def    47  488b7c2408     REX.W movq rdi,[rsp+0x8]
0x165865007df4    52  e84753f2ff     call 0x165864f2d140     ;; code: CALL_IC, DEFAULT
0x165865007df9    57  488b75f8       REX.W movq rsi,[rbp-0x8]
0x165865007dfd    61  4883c408       REX.W addq rsp,0x8
0x165865007e01    65  488945e8       REX.W movq [rbp-0x18],rax
0x165865007e05    69  488b45e8       REX.W movq rax,[rbp-0x18]    ;; debug: statement 3
0x165865007e09    73  48bb31439fcfdd1e0000 REX.W movq rbx,0x1eddcf9f4331    ;; object: 0x1eddcf9f4331 Cell for 6144
0x165865007e13    83  83430bd1       addl [rbx+0xb],0xd1
0x165865007e17    87  791f           jns 120  (0x165865007e38)
0x165865007e19    89  50             push rax
0x165865007e1a    90  e821ebf2ff     call InterruptCheck  (0x165864f36940)    ;; code: BUILTIN
0x165865007e1f    95  58             pop rax
0x165865007e20    96  48bb31439fcfdd1e0000 REX.W movq rbx,0x1eddcf9f4331    ;; object: 0x1eddcf9f4331 Cell for 6144
0x165865007e2a   106  49ba0000000000180000 REX.W movq r10,0x180000000000
0x165865007e34   116  4c895307       REX.W movq [rbx+0x7],r10
0x165865007e38   120  c9             leave                   ;; debug: statement 2
0x165865007e39   121  c20800         ret 0x8
0x165865007e3c   124  498b45a8       REX.W movq rax,[r13-0x58]
0x165865007e40   128  e9c4ffffff     jmp 73  (0x165865007e09)
0x165865007e45   133  0f1f00         nop

Deoptimization Output Data (deopt points = 0)

Back edges (size = 0)
ast_id  pc_offset  loop_depth

0x1eddcf9f4361: [TypeFeedbackInfo]
 - ic_total_count: 1, ic_with_type_info_count: 0, ic_generic_count: 0

RelocInfo (size = 13)
0x165865007dc0  position  (0)
0x165865007dd4  code target (BUILTIN)  (0x165864f36a80)
0x165865007dd8  statement position  (0)
0x165865007df5  code target (CALL_IC)  (0x165864f2d140)
0x165865007e05  statement position  (3)
0x165865007e0b  embedded object  (0x1eddcf9f4331 Cell for 6144)
0x165865007e1b  code target (BUILTIN)  (0x165864f36940)
0x165865007e22  embedded object  (0x1eddcf9f4331 Cell for 6144)
0x165865007e38  statement position  (2)

--- End code ---
--- Raw source ---
i()

--- Code ---
source_position = 0
kind = FUNCTION
compiler = full-codegen
Instructions (size = 140)
0x165865007f80     0  55             push rbp                ;; debug: position 0
0x165865007f81     1  4889e5         REX.W movq rbp,rsp
0x165865007f84     4  56             push rsi
0x165865007f85     5  57             push rdi
0x165865007f86     6  41ff75a8       push [r13-0x58]
0x165865007f8a    10  493ba548090000 REX.W cmpq rsp,[r13+0x948]
0x165865007f91    17  7305           jnc 24  (0x165865007f98)
0x165865007f93    19  e8e8eaf2ff     call StackCheck  (0x165864f36a80)    ;; code: BUILTIN
0x165865007f98    24  488bc6         REX.W movq rax,rsi      ;; debug: statement 0
0x165865007f9b    27  ffb0d7000000   push [rax+0xd7]
0x165865007fa1    33  41ff75a8       push [r13-0x58]
0x165865007fa5    37  48ba0000000004000000 REX.W movq rdx,0x400000000
0x165865007faf    47  488b7c2408     REX.W movq rdi,[rsp+0x8]
0x165865007fb4    52  e88751f2ff     call 0x165864f2d140     ;; code: CALL_IC, DEFAULT
0x165865007fb9    57  488b75f8       REX.W movq rsi,[rbp-0x8]
0x165865007fbd    61  4883c408       REX.W addq rsp,0x8
0x165865007fc1    65  488945e8       REX.W movq [rbp-0x18],rax
0x165865007fc5    69  488b45e8       REX.W movq rax,[rbp-0x18]    ;; debug: statement 3
0x165865007fc9    73  48bbe1459fcfdd1e0000 REX.W movq rbx,0x1eddcf9f45e1    ;; object: 0x1eddcf9f45e1 Cell for 6144
0x165865007fd3    83  83430bd1       addl [rbx+0xb],0xd1
0x165865007fd7    87  791f           jns 120  (0x165865007ff8)
0x165865007fd9    89  50             push rax
0x165865007fda    90  e861e9f2ff     call InterruptCheck  (0x165864f36940)    ;; code: BUILTIN
0x165865007fdf    95  58             pop rax
0x165865007fe0    96  48bbe1459fcfdd1e0000 REX.W movq rbx,0x1eddcf9f45e1    ;; object: 0x1eddcf9f45e1 Cell for 6144
0x165865007fea   106  49ba0000000000180000 REX.W movq r10,0x180000000000
0x165865007ff4   116  4c895307       REX.W movq [rbx+0x7],r10
0x165865007ff8   120  c9             leave                   ;; debug: statement 2
0x165865007ff9   121  c20800         ret 0x8
0x165865007ffc   124  498b45a8       REX.W movq rax,[r13-0x58]
0x165865008000   128  e9c4ffffff     jmp 73  (0x165865007fc9)
0x165865008005   133  0f1f00         nop

Deoptimization Output Data (deopt points = 0)

Back edges (size = 0)
ast_id  pc_offset  loop_depth

0x1eddcf9f4611: [TypeFeedbackInfo]
 - ic_total_count: 1, ic_with_type_info_count: 0, ic_generic_count: 0

RelocInfo (size = 13)
0x165865007f80  position  (0)
0x165865007f94  code target (BUILTIN)  (0x165864f36a80)
0x165865007f98  statement position  (0)
0x165865007fb5  code target (CALL_IC)  (0x165864f2d140)
0x165865007fc5  statement position  (3)
0x165865007fcb  embedded object  (0x1eddcf9f45e1 Cell for 6144)
0x165865007fdb  code target (BUILTIN)  (0x165864f36940)
0x165865007fe2  embedded object  (0x1eddcf9f45e1 Cell for 6144)
0x165865007ff8  statement position  (2)

--- End code ---
--- Raw source ---
s()

--- Code ---
source_position = 0
kind = FUNCTION
compiler = full-codegen
Instructions (size = 140)
0x165865008140     0  55             push rbp                ;; debug: position 0
0x165865008141     1  4889e5         REX.W movq rbp,rsp
0x165865008144     4  56             push rsi
0x165865008145     5  57             push rdi
0x165865008146     6  41ff75a8       push [r13-0x58]
0x16586500814a    10  493ba548090000 REX.W cmpq rsp,[r13+0x948]
0x165865008151    17  7305           jnc 24  (0x165865008158)
0x165865008153    19  e828e9f2ff     call StackCheck  (0x165864f36a80)    ;; code: BUILTIN
0x165865008158    24  488bc6         REX.W movq rax,rsi      ;; debug: statement 0
0x16586500815b    27  ffb027010000   push [rax+0x127]
0x165865008161    33  41ff75a8       push [r13-0x58]
0x165865008165    37  48ba0000000004000000 REX.W movq rdx,0x400000000
0x16586500816f    47  488b7c2408     REX.W movq rdi,[rsp+0x8]
0x165865008174    52  e8c74ff2ff     call 0x165864f2d140     ;; code: CALL_IC, DEFAULT
0x165865008179    57  488b75f8       REX.W movq rsi,[rbp-0x8]
0x16586500817d    61  4883c408       REX.W addq rsp,0x8
0x165865008181    65  488945e8       REX.W movq [rbp-0x18],rax
0x165865008185    69  488b45e8       REX.W movq rax,[rbp-0x18]    ;; debug: statement 3
0x165865008189    73  48bbb1489fcfdd1e0000 REX.W movq rbx,0x1eddcf9f48b1    ;; object: 0x1eddcf9f48b1 Cell for 6144
0x165865008193    83  83430bd1       addl [rbx+0xb],0xd1
0x165865008197    87  791f           jns 120  (0x1658650081b8)
0x165865008199    89  50             push rax
0x16586500819a    90  e8a1e7f2ff     call InterruptCheck  (0x165864f36940)    ;; code: BUILTIN
0x16586500819f    95  58             pop rax
0x1658650081a0    96  48bbb1489fcfdd1e0000 REX.W movq rbx,0x1eddcf9f48b1    ;; object: 0x1eddcf9f48b1 Cell for 6144
0x1658650081aa   106  49ba0000000000180000 REX.W movq r10,0x180000000000
0x1658650081b4   116  4c895307       REX.W movq [rbx+0x7],r10
0x1658650081b8   120  c9             leave                   ;; debug: statement 2
0x1658650081b9   121  c20800         ret 0x8
0x1658650081bc   124  498b45a8       REX.W movq rax,[r13-0x58]
0x1658650081c0   128  e9c4ffffff     jmp 73  (0x165865008189)
0x1658650081c5   133  0f1f00         nop

Deoptimization Output Data (deopt points = 0)

Back edges (size = 0)
ast_id  pc_offset  loop_depth

0x1eddcf9f48e1: [TypeFeedbackInfo]
 - ic_total_count: 1, ic_with_type_info_count: 0, ic_generic_count: 0

RelocInfo (size = 13)
0x165865008140  position  (0)
0x165865008154  code target (BUILTIN)  (0x165864f36a80)
0x165865008158  statement position  (0)
0x165865008175  code target (CALL_IC)  (0x165864f2d140)
0x165865008185  statement position  (3)
0x16586500818b  embedded object  (0x1eddcf9f48b1 Cell for 6144)
0x16586500819b  code target (BUILTIN)  (0x165864f36940)
0x1658650081a2  embedded object  (0x1eddcf9f48b1 Cell for 6144)
0x1658650081b8  statement position  (2)

--- End code ---
--- Raw source ---
A()

--- Code ---
source_position = 0
kind = FUNCTION
compiler = full-codegen
Instructions (size = 140)
0x165865008300     0  55             push rbp                ;; debug: position 0
0x165865008301     1  4889e5         REX.W movq rbp,rsp
0x165865008304     4  56             push rsi
0x165865008305     5  57             push rdi
0x165865008306     6  41ff75a8       push [r13-0x58]
0x16586500830a    10  493ba548090000 REX.W cmpq rsp,[r13+0x948]
0x165865008311    17  7305           jnc 24  (0x165865008318)
0x165865008313    19  e868e7f2ff     call StackCheck  (0x165864f36a80)    ;; code: BUILTIN
0x165865008318    24  488bc6         REX.W movq rax,rsi      ;; debug: statement 0
0x16586500831b    27  ffb08f000000   push [rax+0x8f]
0x165865008321    33  41ff75a8       push [r13-0x58]
0x165865008325    37  48ba0000000004000000 REX.W movq rdx,0x400000000
0x16586500832f    47  488b7c2408     REX.W movq rdi,[rsp+0x8]
0x165865008334    52  e8074ef2ff     call 0x165864f2d140     ;; code: CALL_IC, DEFAULT
0x165865008339    57  488b75f8       REX.W movq rsi,[rbp-0x8]
0x16586500833d    61  4883c408       REX.W addq rsp,0x8
0x165865008341    65  488945e8       REX.W movq [rbp-0x18],rax
0x165865008345    69  488b45e8       REX.W movq rax,[rbp-0x18]    ;; debug: statement 3
0x165865008349    73  48bb814b9fcfdd1e0000 REX.W movq rbx,0x1eddcf9f4b81    ;; object: 0x1eddcf9f4b81 Cell for 6144
0x165865008353    83  83430bd1       addl [rbx+0xb],0xd1
0x165865008357    87  791f           jns 120  (0x165865008378)
0x165865008359    89  50             push rax
0x16586500835a    90  e8e1e5f2ff     call InterruptCheck  (0x165864f36940)    ;; code: BUILTIN
0x16586500835f    95  58             pop rax
0x165865008360    96  48bb814b9fcfdd1e0000 REX.W movq rbx,0x1eddcf9f4b81    ;; object: 0x1eddcf9f4b81 Cell for 6144
0x16586500836a   106  49ba0000000000180000 REX.W movq r10,0x180000000000
0x165865008374   116  4c895307       REX.W movq [rbx+0x7],r10
0x165865008378   120  c9             leave                   ;; debug: statement 2
0x165865008379   121  c20800         ret 0x8
0x16586500837c   124  498b45a8       REX.W movq rax,[r13-0x58]
0x165865008380   128  e9c4ffffff     jmp 73  (0x165865008349)
0x165865008385   133  0f1f00         nop

Deoptimization Output Data (deopt points = 0)

Back edges (size = 0)
ast_id  pc_offset  loop_depth

0x1eddcf9f4bb1: [TypeFeedbackInfo]
 - ic_total_count: 1, ic_with_type_info_count: 0, ic_generic_count: 0

RelocInfo (size = 13)
0x165865008300  position  (0)
0x165865008314  code target (BUILTIN)  (0x165864f36a80)
0x165865008318  statement position  (0)
0x165865008335  code target (CALL_IC)  (0x165864f2d140)
0x165865008345  statement position  (3)
0x16586500834b  embedded object  (0x1eddcf9f4b81 Cell for 6144)
0x16586500835b  code target (BUILTIN)  (0x165864f36940)
0x165865008362  embedded object  (0x1eddcf9f4b81 Cell for 6144)
0x165865008378  statement position  (2)

--- End code ---
--- Code ---
kind = HANDLER
major_key = <NoCache>Stub
name = LoadConstantStub
compiler = crankshaft
Instructions (size = 24)
0x1658650084c0     0  488b42ff       REX.W movq rax,[rdx-0x1]
0x1658650084c4     4  488b402f       REX.W movq rax,[rax+0x2f]
0x1658650084c8     8  488b80ef000000 REX.W movq rax,[rax+0xef]
0x1658650084cf    15  c3             ret


Safepoints (size = 8)

RelocInfo (size = 0)

--- End code ---
--- Code ---
kind = HANDLER
major_key = <NoCache>Stub
name = StoreGlobalStub
compiler = crankshaft
Instructions (size = 168)
0x165865008600     0  48bbb14d9fcfdd1e0000 REX.W movq rbx,0x1eddcf9f4db1    ;; object: 0x1eddcf9f4db1 WeakCell for 0x1eddcf904311 <Odd Oddball>
0x16586500860a    10  488b5b07       REX.W movq rbx,[rbx+0x7]
0x16586500860e    14  f6c301         testb rbx,0x1
0x165865008611    17  0f842e000000   jz 69  (0x165865008645)
0x165865008617    23  488b7b0f       REX.W movq rdi,[rbx+0xf]
0x16586500861b    27  49bae94190cfdd1e0000 REX.W movq r10,0x1eddcf9041e9    ;; object: 0x1eddcf9041e9 <the hole>
0x165865008625    37  493bfa         REX.W cmpq rdi,r10
0x165865008628    40  0f8412000000   jz 64  (0x165865008640)
0x16586500862e    46  488bf8         REX.W movq rdi,rax
0x165865008631    49  40f6c701       testb rdi,0x1
0x165865008635    53  0f8519000000   jnz 84  (0x165865008654)
0x16586500863b    59  48897b0f       REX.W movq [rbx+0xf],rdi
0x16586500863f    63  c3             ret
0x165865008640    64  e91e000000     jmp 99  (0x165865008663)
0x165865008645    69  49ba0060d06458160000 REX.W movq r10,0x165864d06000
0x16586500864f    79  e81e000000     call 114  (0x165865008672)
0x165865008654    84  49ba0a60d06458160000 REX.W movq r10,0x165864d0600a
0x16586500865e    94  e80f000000     call 114  (0x165865008672)
0x165865008663    99  49ba1460d06458160000 REX.W movq r10,0x165864d06014
0x16586500866d   109  e800000000     call 114  (0x165865008672)
0x165865008672   114  4883ec10       REX.W subq rsp,0x10
0x165865008676   118  ff742410       push [rsp+0x10]
0x16586500867a   122  4152           push r10
0x16586500867c   124  4c8b55f8       REX.W movq r10,[rbp-0x8]
0x165865008680   128  4c89542418     REX.W movq [rsp+0x18],r10
0x165865008685   133  48896c2420     REX.W movq [rsp+0x20],rbp
0x16586500868a   138  488d6c2420     REX.W leaq rbp,[rsp+0x20]
0x16586500868f   143  49ba0000000006000000 REX.W movq r10,0x600000000
0x165865008699   153  4c89542410     REX.W movq [rsp+0x10],r10
0x16586500869e   158  c3             ret
0x16586500869f   159  90             nop


Safepoints (size = 8)

RelocInfo (size = 2)
0x165865008602  embedded object  (0x1eddcf9f4db1 WeakCell for 0x1eddcf904311 <Odd Oddball>)
0x16586500861d  embedded object  (0x1eddcf9041e9 <the hole>)

--- End code ---
--- Raw source ---
(array, x) {
    for (var i = 0; i < array.length; i++) {
        if (array[i] == x) return true;
    }
    return false;
}


--- Code ---
source_position = 20
kind = FUNCTION
name = arrayExists
compiler = full-codegen
Instructions (size = 432)
0x1658650089e0     0  55             push rbp                ;; debug: position 20
0x1658650089e1     1  4889e5         REX.W movq rbp,rsp
0x1658650089e4     4  56             push rsi
0x1658650089e5     5  57             push rdi
0x1658650089e6     6  41ff75a8       push [r13-0x58]
0x1658650089ea    10  493ba548090000 REX.W cmpq rsp,[r13+0x948]
0x1658650089f1    17  7305           jnc 24  (0x1658650089f8)
0x1658650089f3    19  e888e0f2ff     call StackCheck  (0x165864f36a80)    ;; code: BUILTIN
0x1658650089f8    24  48b80000000000000000 REX.W movq rax,(nil)    ;; debug: statement 37
                                                             ;; debug: statement 42
0x165865008a02    34  488945e8       REX.W movq [rbp-0x18],rax
0x165865008a06    38  e9fd000000     jmp 296  (0x165865008b08)
0x165865008a0b    43  ff7518         push [rbp+0x18]         ;; debug: statement 86
                                                             ;; debug: position 90
0x165865008a0e    46  488b45e8       REX.W movq rax,[rbp-0x18]    ;; debug: position 96
0x165865008a12    50  488bc8         REX.W movq rcx,rax
0x165865008a15    53  5a             pop rdx
0x165865008a16    54  48b80000000006000000 REX.W movq rax,0x600000000    ;; debug: position 95
0x165865008a20    64  e89b36f1ff     call 0x165864f1c0c0     ;; code: KEYED_LOAD_IC, DEFAULT
0x165865008a25    69  50             push rax
0x165865008a26    70  488b4510       REX.W movq rax,[rbp+0x10]    ;; debug: position 102
0x165865008a2a    74  5a             pop rdx
0x165865008a2b    75  488bca         REX.W movq rcx,rdx
0x165865008a2e    78  480bc8         REX.W orq rcx,rax
0x165865008a31    81  f6c101         testb rcx,0x1
0x165865008a34    84  730e           jnc 100  (0x165865008a44)
0x165865008a36    86  483bd0         REX.W cmpq rdx,rax
0x165865008a39    89  0f8426000000   jz 133  (0x165865008a65)
0x165865008a3f    95  e95e000000     jmp 194  (0x165865008aa2)
0x165865008a44   100  e83729f2ff     call 0x165864f2b380     ;; code: COMPARE_IC, UNINITIALIZED (id = 57)
0x165865008a49   105  a815           test al,0x15
0x165865008a4b   107  eb0f           jmp 124  (0x165865008a5c)
0x165865008a4d   109  493b45c0       REX.W cmpq rax,[r13-0x40]
0x165865008a51   113  0f840e000000   jz 133  (0x165865008a65)
0x165865008a57   119  e946000000     jmp 194  (0x165865008aa2)
0x165865008a5c   124  4885c0         REX.W testq rax,rax
0x165865008a5f   127  0f853d000000   jnz 194  (0x165865008aa2)
0x165865008a65   133  48b8314290cfdd1e0000 REX.W movq rax,0x1eddcf904231    ;; debug: statement 105
                                                             ;; object: 0x1eddcf904231 <true>
0x165865008a6f   143  48bb11549fcfdd1e0000 REX.W movq rbx,0x1eddcf9f5411    ;; object: 0x1eddcf9f5411 Cell for 6144
0x165865008a79   153  83430bff       addl [rbx+0xb],0xff
0x165865008a7d   157  791f           jns 190  (0x165865008a9e)
0x165865008a7f   159  50             push rax
0x165865008a80   160  e8bbdef2ff     call InterruptCheck  (0x165864f36940)    ;; code: BUILTIN
0x165865008a85   165  58             pop rax
0x165865008a86   166  48bb11549fcfdd1e0000 REX.W movq rbx,0x1eddcf9f5411    ;; object: 0x1eddcf9f5411 Cell for 6144
0x165865008a90   176  49ba0000000000180000 REX.W movq r10,0x180000000000
0x165865008a9a   186  4c895307       REX.W movq [rbx+0x7],r10
0x165865008a9e   190  c9             leave                   ;; debug: statement 142
0x165865008a9f   191  c21800         ret 0x18
0x165865008aa2   194  488b45e8       REX.W movq rax,[rbp-0x18]    ;; debug: statement 72
                                                             ;; debug: position 71
0x165865008aa6   198  a801           test al,0x1
0x165865008aa8   200  7314           jnc 222  (0x165865008abe)
0x165865008aaa   202  49ba0000000001000000 REX.W movq r10,0x100000000
0x165865008ab4   212  4903c2         REX.W addq rax,r10
0x165865008ab7   215  711e           jno 247  (0x165865008ad7)
0x165865008ab9   217  492bc2         REX.W subq rax,r10
0x165865008abc   220  eb05           jmp 227  (0x165865008ac3)
0x165865008abe   222  e83da4f1ff     call 0x165864f22f00     ;; code: STUB, ToNumberStub, minor: 0
0x165865008ac3   227  488bd0         REX.W movq rdx,rax      ;; debug: position 72
0x165865008ac6   230  48b80000000001000000 REX.W movq rax,0x100000000
0x165865008ad0   240  e8abfaf0ff     call 0x165864f18580     ;; code: BINARY_OP_IC, UNINITIALIZED (id = 44)
0x165865008ad5   245  a82d           test al,0x2d
0x165865008ad7   247  488945e8       REX.W movq [rbp-0x18],rax
0x165865008adb   251  48bb11549fcfdd1e0000 REX.W movq rbx,0x1eddcf9f5411    ;; object: 0x1eddcf9f5411 Cell for 6144
0x165865008ae5   261  83430bff       addl [rbx+0xb],0xff
0x165865008ae9   265  791d           jns 296  (0x165865008b08)
0x165865008aeb   267  e850def2ff     call InterruptCheck  (0x165864f36940)    ;; code: BUILTIN
0x165865008af0   272  48bb11549fcfdd1e0000 REX.W movq rbx,0x1eddcf9f5411    ;; object: 0x1eddcf9f5411 Cell for 6144
0x165865008afa   282  49ba0000000000180000 REX.W movq r10,0x180000000000
0x165865008b04   292  4c895307       REX.W movq [rbx+0x7],r10
0x165865008b08   296  ff75e8         push [rbp-0x18]         ;; debug: statement 55
                                                             ;; debug: position 53
0x165865008b0b   299  488b4518       REX.W movq rax,[rbp+0x18]    ;; debug: position 57
0x165865008b0f   303  488bd0         REX.W movq rdx,rax
0x165865008b12   306  48b9710799cfdd1e0000 REX.W movq rcx,0x1eddcf990771    ;; debug: position 62
                                                             ;; object: 0x1eddcf990771 <String[6]: length>
0x165865008b1c   316  48b80000000004000000 REX.W movq rax,0x400000000
0x165865008b26   326  e835faf1ff     call 0x165864f28560     ;; code: contextual, LOAD_IC, DEFAULT
0x165865008b2b   331  5a             pop rdx
0x165865008b2c   332  488bca         REX.W movq rcx,rdx
0x165865008b2f   335  480bc8         REX.W orq rcx,rax
0x165865008b32   338  f6c101         testb rcx,0x1
0x165865008b35   341  730e           jnc 357  (0x165865008b45)
0x165865008b37   343  483bd0         REX.W cmpq rdx,rax
0x165865008b3a   346  0f8ccbfeffff   jl 43  (0x165865008a0b)
0x165865008b40   352  e921000000     jmp 390  (0x165865008b66)
0x165865008b45   357  e8763df1ff     call 0x165864f1c8c0     ;; code: COMPARE_IC, UNINITIALIZED (id = 27)
0x165865008b4a   362  a815           test al,0x15
0x165865008b4c   364  eb0f           jmp 381  (0x165865008b5d)
0x165865008b4e   366  493b45c0       REX.W cmpq rax,[r13-0x40]
0x165865008b52   370  0f84b3feffff   jz 43  (0x165865008a0b)
0x165865008b58   376  e909000000     jmp 390  (0x165865008b66)
0x165865008b5d   381  4885c0         REX.W testq rax,rax
0x165865008b60   384  0f8ca5feffff   jl 43  (0x165865008a0b)
0x165865008b66   390  48b8994290cfdd1e0000 REX.W movq rax,0x1eddcf904299    ;; debug: statement 128
                                                             ;; object: 0x1eddcf904299 <false>
0x165865008b70   400  e9fafeffff     jmp 143  (0x165865008a6f)
0x165865008b75   405  498b45a8       REX.W movq rax,[r13-0x58]
0x165865008b79   409  e9f1feffff     jmp 143  (0x165865008a6f)
0x165865008b7e   414  6690           nop

Deoptimization Output Data (deopt points = 41)
ast id        pc  state
     1        10  NO_REGISTERS
     2        10  NO_REGISTERS
     3        10  NO_REGISTERS
    12        24  NO_REGISTERS
    22        34  TOS_REG
    17        38  TOS_REG
    15        38  NO_REGISTERS
    13        38  NO_REGISTERS
    11        43  NO_REGISTERS
    49        43  NO_REGISTERS
    66        43  NO_REGISTERS
    64        46  NO_REGISTERS
    63        46  NO_REGISTERS
    61        50  TOS_REG
    60        69  TOS_REG
    58        70  NO_REGISTERS
    69        70  NO_REGISTERS
    67        74  TOS_REG
    55       109  TOS_REG
    53       133  NO_REGISTERS
    70       143  TOS_REG
    54       194  NO_REGISTERS
    52       194  NO_REGISTERS
    50       194  NO_REGISTERS
    10       194  NO_REGISTERS
    48       194  NO_REGISTERS
    46       198  TOS_REG
    43       227  TOS_REG
    42       251  TOS_REG
    40       251  NO_REGISTERS
     7       296  NO_REGISTERS
     9       296  NO_REGISTERS
    30       296  NO_REGISTERS
    28       299  NO_REGISTERS
    39       299  NO_REGISTERS
    37       303  TOS_REG
    33       331  TOS_REG
    31       331  TOS_REG
    25       366  TOS_REG
     8       390  NO_REGISTERS
    73       400  TOS_REG

Back edges (size = 1)
ast_id  pc_offset  loop_depth
     9        272           1

0x1eddcf9f5721: [TypeFeedbackInfo]
 - ic_total_count: 5, ic_with_type_info_count: 0, ic_generic_count: 0

RelocInfo (size = 75)
0x1658650089e0  position  (20)
0x1658650089f4  code target (BUILTIN)  (0x165864f36a80)
0x1658650089f8  statement position  (37)
0x1658650089f8  statement position  (42)
0x165865008a0b  statement position  (86)
0x165865008a0b  position  (90)
0x165865008a0e  position  (96)
0x165865008a16  position  (95)
0x165865008a21  code target (KEYED_LOAD_IC)  (0x165864f1c0c0)
0x165865008a26  position  (102)
0x165865008a45  code target with id (COMPARE_IC)  (0x165864f2b380) (id=57)
0x165865008a65  statement position  (105)
0x165865008a67  embedded object  (0x1eddcf904231 <true>)
0x165865008a71  embedded object  (0x1eddcf9f5411 Cell for 6144)
0x165865008a81  code target (BUILTIN)  (0x165864f36940)
0x165865008a88  embedded object  (0x1eddcf9f5411 Cell for 6144)
0x165865008a9e  statement position  (142)
0x165865008aa2  statement position  (72)
0x165865008aa2  position  (71)
0x165865008abf  code target (STUB)  (0x165864f22f00)
0x165865008ac3  position  (72)
0x165865008ad1  code target with id (BINARY_OP_IC)  (0x165864f18580) (id=44)
0x165865008add  embedded object  (0x1eddcf9f5411 Cell for 6144)
0x165865008aec  code target (BUILTIN)  (0x165864f36940)
0x165865008af2  embedded object  (0x1eddcf9f5411 Cell for 6144)
0x165865008b08  statement position  (55)
0x165865008b08  position  (53)
0x165865008b0b  position  (57)
0x165865008b12  position  (62)
0x165865008b14  embedded object  (0x1eddcf990771 <String[6]: length>)
0x165865008b27  code target (LOAD_IC)  (0x165864f28560)
0x165865008b46  code target with id (COMPARE_IC)  (0x165864f1c8c0) (id=27)
0x165865008b66  statement position  (128)
0x165865008b68  embedded object  (0x1eddcf904299 <false>)

--- End code ---
--- Raw source ---
(array, x) {
    for (var i = 0; i < array.length; i++) {
        if (array[i] == x) return true;
    }
    return false;
}


--- Optimized code ---
optimization_id = 0
source_position = 20
kind = OPTIMIZED_FUNCTION
name = arrayExists
stack_slots = 1
compiler = crankshaft
Instructions (size = 366)
0x165865008c00     0  55             push rbp
0x165865008c01     1  4889e5         REX.W movq rbp,rsp
0x165865008c04     4  56             push rsi
0x165865008c05     5  57             push rdi
0x165865008c06     6  4883ec08       REX.W subq rsp,0x8
0x165865008c0a    10  488b45f8       REX.W movq rax,[rbp-0x8]
0x165865008c0e    14  488945e8       REX.W movq [rbp-0x18],rax
0x165865008c12    18  488bf0         REX.W movq rsi,rax
0x165865008c15    21  6690           nop
0x165865008c17    23  493ba548090000 REX.W cmpq rsp,[r13+0x948]
0x165865008c1e    30  7305           jnc 37  (0x165865008c25)
0x165865008c20    32  e85bdef2ff     call StackCheck  (0x165864f36a80)    ;; code: BUILTIN
0x165865008c25    37  488b4518       REX.W movq rax,[rbp+0x18]
0x165865008c29    41  a801           test al,0x1             ;; debug: position 55
0x165865008c2b    43  0f84f9000000   jz 298  (0x165865008d2a)
0x165865008c31    49  49baf981d047962b0000 REX.W movq r10,0x2b9647d081f9    ;; object: 0x2b9647d081f9 <Map(FAST_ELEMENTS)>
0x165865008c3b    59  4c3950ff       REX.W cmpq [rax-0x1],r10
0x165865008c3f    63  0f85ea000000   jnz 303  (0x165865008d2f)
0x165865008c45    69  8b581b         movl rbx,[rax+0x1b]
0x165865008c48    72  488b500f       REX.W movq rdx,[rax+0xf]    ;; debug: position 99
0x165865008c4c    76  488b4d10       REX.W movq rcx,[rbp+0x10]
0x165865008c50    80  f6c101         testb rcx,0x1
0x165865008c53    83  0f84db000000   jz 308  (0x165865008d34)
0x165865008c59    89  4c8b51ff       REX.W movq r10,[rcx-0x1]
0x165865008c5d    93  450fb6520b     movzxbl r10,[r10+0xb]
0x165865008c62    98  4180e2c0       cmpb r10l,0xc0
0x165865008c66   102  4180fa00       cmpb r10l,0x0
0x165865008c6a   106  0f85c9000000   jnz 313  (0x165865008d39)
0x165865008c70   112  33f6           xorl rsi,rsi
0x165865008c72   114  3bf3           cmpl rsi,rbx            ;; debug: position 55
0x165865008c74   116  0f8d5a000000   jge 212  (0x165865008cd4)
0x165865008c7a   122  493ba548090000 REX.W cmpq rsp,[r13+0x948]
0x165865008c81   129  0f825e000000   jc 229  (0x165865008ce5)
0x165865008c87   135  3bde           cmpl rbx,rsi            ;; debug: position 99
0x165865008c89   137  0f86af000000   jna 318  (0x165865008d3e)
0x165865008c8f   143  488b7cf20f     REX.W movq rdi,[rdx+rsi*8+0xf]
0x165865008c94   148  40f6c701       testb rdi,0x1
0x165865008c98   152  0f84a5000000   jz 323  (0x165865008d43)
0x165865008c9e   158  4c8b57ff       REX.W movq r10,[rdi-0x1]
0x165865008ca2   162  450fb6520b     movzxbl r10,[r10+0xb]
0x165865008ca7   167  4180e2c0       cmpb r10l,0xc0
0x165865008cab   171  4180fa00       cmpb r10l,0x0
0x165865008caf   175  0f8593000000   jnz 328  (0x165865008d48)
0x165865008cb5   181  483bf9         REX.W cmpq rdi,rcx
0x165865008cb8   184  0f8405000000   jz 195  (0x165865008cc3)
0x165865008cbe   190  83c601         addl rsi,0x1            ;; debug: position 72
0x165865008cc1   193  ebaf           jmp 114  (0x165865008c72)
0x165865008cc3   195  48b8314290cfdd1e0000 REX.W movq rax,0x1eddcf904231    ;; debug: position 99
                                                             ;; object: 0x1eddcf904231 <true>
0x165865008ccd   205  488be5         REX.W movq rsp,rbp
0x165865008cd0   208  5d             pop rbp
0x165865008cd1   209  c21800         ret 0x18
0x165865008cd4   212  48b8994290cfdd1e0000 REX.W movq rax,0x1eddcf904299    ;; debug: position 72
                                                             ;; object: 0x1eddcf904299 <false>
0x165865008cde   222  488be5         REX.W movq rsp,rbp
0x165865008ce1   225  5d             pop rbp
0x165865008ce2   226  c21800         ret 0x18
0x165865008ce5   229  50             push rax                ;; debug: position 55
0x165865008ce6   230  51             push rcx
0x165865008ce7   231  52             push rdx
0x165865008ce8   232  53             push rbx
0x165865008ce9   233  56             push rsi
0x165865008cea   234  57             push rdi
0x165865008ceb   235  4150           push r8
0x165865008ced   237  4151           push r9
0x165865008cef   239  4153           push r11
0x165865008cf1   241  4154           push r12
0x165865008cf3   243  4156           push r14
0x165865008cf5   245  4157           push r15
0x165865008cf7   247  488d6424e0     REX.W leaq rsp,[rsp-0x20]
0x165865008cfc   252  488b75f8       REX.W movq rsi,[rbp-0x8]
0x165865008d00   256  33c0           xorl rax,rax
0x165865008d02   258  498d9d887538fe REX.W leaq rbx,[r13-0x1c78a78]
0x165865008d09   265  e892d5efff     call 0x165864f062a0     ;; code: STUB, CEntryStub, minor: 1
0x165865008d0e   270  488d642420     REX.W leaq rsp,[rsp+0x20]
0x165865008d13   275  415f           pop r15
0x165865008d15   277  415e           pop r14
0x165865008d17   279  415c           pop r12
0x165865008d19   281  415b           pop r11
0x165865008d1b   283  4159           pop r9
0x165865008d1d   285  4158           pop r8
0x165865008d1f   287  5f             pop rdi
0x165865008d20   288  5e             pop rsi
0x165865008d21   289  5b             pop rbx
0x165865008d22   290  5a             pop rdx
0x165865008d23   291  59             pop rcx
0x165865008d24   292  58             pop rax
0x165865008d25   293  e95dffffff     jmp 135  (0x165865008c87)
0x165865008d2a   298  e8e5d2bfff     call 0x165864c06014     ;; deoptimization bailout 2
0x165865008d2f   303  e8ead2bfff     call 0x165864c0601e     ;; deoptimization bailout 3
0x165865008d34   308  e8efd2bfff     call 0x165864c06028     ;; deoptimization bailout 4
0x165865008d39   313  e8f4d2bfff     call 0x165864c06032     ;; deoptimization bailout 5
0x165865008d3e   318  e803d3bfff     call 0x165864c06046     ;; deoptimization bailout 7
0x165865008d43   323  e808d3bfff     call 0x165864c06050     ;; deoptimization bailout 8
0x165865008d48   328  e80dd3bfff     call 0x165864c0605a     ;; deoptimization bailout 9
0x165865008d4d   333  0f1f00         nop

Inlined functions (count = 0)

Deoptimization Input Data (deopt points = 10)
 index  ast id    argc     pc
     0       1       0     10
     1       3       0     37
     2       7       0     -1
     3       7       0     -1
     4       7       0     -1
     5       7       0     -1
     6      11       0    135
     7      11       0     -1
     8      11       0     -1
     9      11       0     -1

Safepoints (size = 30)
0x165865008c25    37  1 (sp -> fp)       1
0x165865008d0e   270  1 | rax | rcx | rdx (sp -> fp)       6

RelocInfo (size = 51)
0x165865008c21  code target (BUILTIN)  (0x165864f36a80)
0x165865008c29  position  (55)
0x165865008c33  embedded object  (0x2b9647d081f9 <Map(FAST_ELEMENTS)>)
0x165865008c48  position  (99)
0x165865008c72  position  (55)
0x165865008c87  position  (99)
0x165865008cbe  position  (72)
0x165865008cc3  position  (99)
0x165865008cc5  embedded object  (0x1eddcf904231 <true>)
0x165865008cd4  position  (72)
0x165865008cd6  embedded object  (0x1eddcf904299 <false>)
0x165865008ce5  position  (55)
0x165865008d0a  code target (STUB)  (0x165864f062a0)
0x165865008d2b  runtime entry  (deoptimization bailout 2)
0x165865008d30  runtime entry  (deoptimization bailout 3)
0x165865008d35  runtime entry  (deoptimization bailout 4)
0x165865008d3a  runtime entry  (deoptimization bailout 5)
0x165865008d3f  runtime entry  (deoptimization bailout 7)
0x165865008d44  runtime entry  (deoptimization bailout 8)
0x165865008d49  runtime entry  (deoptimization bailout 9)

--- End code ---
--- Raw source ---
(){
if(!%_IsDate(this))%_ThrowNotDateError();
return(%_DateField(this,3));
}


--- Code ---
source_position = 6525
kind = FUNCTION
name = getDate
compiler = full-codegen
Instructions (size = 228)
0x165865008de0     0  55             push rbp                ;; debug: position 6525
0x165865008de1     1  4889e5         REX.W movq rbp,rsp
0x165865008de4     4  56             push rsi
0x165865008de5     5  57             push rdi
0x165865008de6     6  493ba548090000 REX.W cmpq rsp,[r13+0x948]
0x165865008ded    13  7305           jnc 20  (0x165865008df4)
0x165865008def    15  e88cdcf2ff     call StackCheck  (0x165864f36a80)    ;; code: BUILTIN
0x165865008df4    20  488b4510       REX.W movq rax,[rbp+0x10]    ;; debug: statement 6529
                                                             ;; debug: position 6542
0x165865008df8    24  a801           test al,0x1
0x165865008dfa    26  0f841f000000   jz 63  (0x165865008e1f)
0x165865008e00    32  488b58ff       REX.W movq rbx,[rax-0x1]
0x165865008e04    36  807b0bb6       cmpb [rbx+0xb],0xb6
0x165865008e08    40  eb0f           jmp 57  (0x165865008e19)
0x165865008e0a    42  493b45c0       REX.W cmpq rax,[r13-0x40]
0x165865008e0e    46  0f841c000000   jz 80  (0x165865008e30)
0x165865008e14    52  e906000000     jmp 63  (0x165865008e1f)
0x165865008e19    57  0f8411000000   jz 80  (0x165865008e30)
0x165865008e1f    63  33c0           xorl rax,rax            ;; debug: statement 6548
0x165865008e21    65  48bb30bc270100000000 REX.W movq rbx,0x127bc30
0x165865008e2b    75  e8b0fcefff     call 0x165864f08ae0     ;; code: STUB, CEntryStub, minor: 0
0x165865008e30    80  488b4510       REX.W movq rax,[rbp+0x10]    ;; debug: statement 6571
                                                             ;; debug: position 6590
0x165865008e34    84  49ba4835f30200000000 REX.W movq r10,0x2f33548
0x165865008e3e    94  498b0a         REX.W movq rcx,[r10]
0x165865008e41    97  483b4857       REX.W cmpq rcx,[rax+0x57]
0x165865008e45   101  7506           jnz 109  (0x165865008e4d)
0x165865008e47   103  488b402f       REX.W movq rax,[rax+0x2f]
0x165865008e4b   107  eb30           jmp 157  (0x165865008e7d)
0x165865008e4d   109  4989e2         REX.W movq r10,rsp
0x165865008e50   112  4883ec08       REX.W subq rsp,0x8
0x165865008e54   116  4883e4f0       REX.W andq rsp,0xf0
0x165865008e58   120  4c891424       REX.W movq [rsp],r10
0x165865008e5c   124  488bf8         REX.W movq rdi,rax
0x165865008e5f   127  48be0000000003000000 REX.W movq rsi,0x300000000
0x165865008e69   137  48b800e7ed0000000000 REX.W movq rax,0xede700
0x165865008e73   147  ffd0           call rax
0x165865008e75   149  488b2424       REX.W movq rsp,[rsp]
0x165865008e79   153  488b75f8       REX.W movq rsi,[rbp-0x8]
0x165865008e7d   157  48bbd95a9fcfdd1e0000 REX.W movq rbx,0x1eddcf9f5ad9    ;; object: 0x1eddcf9f5ad9 Cell for 6144
0x165865008e87   167  83430bd1       addl [rbx+0xb],0xd1
0x165865008e8b   171  791f           jns 204  (0x165865008eac)
0x165865008e8d   173  50             push rax
0x165865008e8e   174  e8addaf2ff     call InterruptCheck  (0x165864f36940)    ;; code: BUILTIN
0x165865008e93   179  58             pop rax
0x165865008e94   180  48bbd95a9fcfdd1e0000 REX.W movq rbx,0x1eddcf9f5ad9    ;; object: 0x1eddcf9f5ad9 Cell for 6144
0x165865008e9e   190  49ba0000000000180000 REX.W movq r10,0x180000000000
0x165865008ea8   200  4c895307       REX.W movq [rbx+0x7],r10
0x165865008eac   204  c9             leave                   ;; debug: statement 6600
0x165865008ead   205  c20800         ret 0x8
0x165865008eb0   208  498b45a8       REX.W movq rax,[r13-0x58]
0x165865008eb4   212  e9c4ffffff     jmp 157  (0x165865008e7d)
0x165865008eb9   217  0f1f8000000000 nop

Deoptimization Output Data (deopt points = 14)
ast id        pc  state
     1         6  NO_REGISTERS
     2         6  NO_REGISTERS
     3         6  NO_REGISTERS
    16        20  NO_REGISTERS
    14        24  TOS_REG
    11        42  TOS_REG
     5        63  NO_REGISTERS
    19        63  NO_REGISTERS
    17        80  NO_REGISTERS
     6        80  NO_REGISTERS
     4        80  NO_REGISTERS
    25        80  NO_REGISTERS
    23        84  TOS_REG
    20       157  TOS_REG

Back edges (size = 0)
ast_id  pc_offset  loop_depth

0x1eddcf9f5c09: [TypeFeedbackInfo]
 - ic_total_count: 0, ic_with_type_info_count: 0, ic_generic_count: 0

RelocInfo (size = 25)
0x165865008de0  position  (6525)
0x165865008df0  code target (BUILTIN)  (0x165864f36a80)
0x165865008df4  statement position  (6529)
0x165865008df4  position  (6542)
0x165865008e1f  statement position  (6548)
0x165865008e2c  code target (STUB)  (0x165864f08ae0)
0x165865008e30  statement position  (6571)
0x165865008e30  position  (6590)
0x165865008e7f  embedded object  (0x1eddcf9f5ad9 Cell for 6144)
0x165865008e8f  code target (BUILTIN)  (0x165864f36940)
0x165865008e96  embedded object  (0x1eddcf9f5ad9 Cell for 6144)
0x165865008eac  statement position  (6600)

--- End code ---
--- Raw source ---
(){
if(!%_IsDate(this))%_ThrowNotDateError();
return(%_DateField(this,1));
}


--- Code ---
source_position = 6123
kind = FUNCTION
name = getFullYear
compiler = full-codegen
Instructions (size = 228)
0x165865008f40     0  55             push rbp                ;; debug: position 6123
0x165865008f41     1  4889e5         REX.W movq rbp,rsp
0x165865008f44     4  56             push rsi
0x165865008f45     5  57             push rdi
0x165865008f46     6  493ba548090000 REX.W cmpq rsp,[r13+0x948]
0x165865008f4d    13  7305           jnc 20  (0x165865008f54)
0x165865008f4f    15  e82cdbf2ff     call StackCheck  (0x165864f36a80)    ;; code: BUILTIN
0x165865008f54    20  488b4510       REX.W movq rax,[rbp+0x10]    ;; debug: statement 6127
                                                             ;; debug: position 6140
0x165865008f58    24  a801           test al,0x1
0x165865008f5a    26  0f841f000000   jz 63  (0x165865008f7f)
0x165865008f60    32  488b58ff       REX.W movq rbx,[rax-0x1]
0x165865008f64    36  807b0bb6       cmpb [rbx+0xb],0xb6
0x165865008f68    40  eb0f           jmp 57  (0x165865008f79)
0x165865008f6a    42  493b45c0       REX.W cmpq rax,[r13-0x40]
0x165865008f6e    46  0f841c000000   jz 80  (0x165865008f90)
0x165865008f74    52  e906000000     jmp 63  (0x165865008f7f)
0x165865008f79    57  0f8411000000   jz 80  (0x165865008f90)
0x165865008f7f    63  33c0           xorl rax,rax            ;; debug: statement 6146
0x165865008f81    65  48bb30bc270100000000 REX.W movq rbx,0x127bc30
0x165865008f8b    75  e850fbefff     call 0x165864f08ae0     ;; code: STUB, CEntryStub, minor: 0
0x165865008f90    80  488b4510       REX.W movq rax,[rbp+0x10]    ;; debug: statement 6169
                                                             ;; debug: position 6188
0x165865008f94    84  49ba4835f30200000000 REX.W movq r10,0x2f33548
0x165865008f9e    94  498b0a         REX.W movq rcx,[r10]
0x165865008fa1    97  483b4857       REX.W cmpq rcx,[rax+0x57]
0x165865008fa5   101  7506           jnz 109  (0x165865008fad)
0x165865008fa7   103  488b401f       REX.W movq rax,[rax+0x1f]
0x165865008fab   107  eb30           jmp 157  (0x165865008fdd)
0x165865008fad   109  4989e2         REX.W movq r10,rsp
0x165865008fb0   112  4883ec08       REX.W subq rsp,0x8
0x165865008fb4   116  4883e4f0       REX.W andq rsp,0xf0
0x165865008fb8   120  4c891424       REX.W movq [rsp],r10
0x165865008fbc   124  488bf8         REX.W movq rdi,rax
0x165865008fbf   127  48be0000000001000000 REX.W movq rsi,0x100000000
0x165865008fc9   137  48b800e7ed0000000000 REX.W movq rax,0xede700
0x165865008fd3   147  ffd0           call rax
0x165865008fd5   149  488b2424       REX.W movq rsp,[rsp]
0x165865008fd9   153  488b75f8       REX.W movq rsi,[rbp-0x8]
0x165865008fdd   157  48bb295c9fcfdd1e0000 REX.W movq rbx,0x1eddcf9f5c29    ;; object: 0x1eddcf9f5c29 Cell for 6144
0x165865008fe7   167  83430bd1       addl [rbx+0xb],0xd1
0x165865008feb   171  791f           jns 204  (0x16586500900c)
0x165865008fed   173  50             push rax
0x165865008fee   174  e84dd9f2ff     call InterruptCheck  (0x165864f36940)    ;; code: BUILTIN
0x165865008ff3   179  58             pop rax
0x165865008ff4   180  48bb295c9fcfdd1e0000 REX.W movq rbx,0x1eddcf9f5c29    ;; object: 0x1eddcf9f5c29 Cell for 6144
0x165865008ffe   190  49ba0000000000180000 REX.W movq r10,0x180000000000
0x165865009008   200  4c895307       REX.W movq [rbx+0x7],r10
0x16586500900c   204  c9             leave                   ;; debug: statement 6198
0x16586500900d   205  c20800         ret 0x8
0x165865009010   208  498b45a8       REX.W movq rax,[r13-0x58]
0x165865009014   212  e9c4ffffff     jmp 157  (0x165865008fdd)
0x165865009019   217  0f1f8000000000 nop

Deoptimization Output Data (deopt points = 14)
ast id        pc  state
     1         6  NO_REGISTERS
     2         6  NO_REGISTERS
     3         6  NO_REGISTERS
    16        20  NO_REGISTERS
    14        24  TOS_REG
    11        42  TOS_REG
     5        63  NO_REGISTERS
    19        63  NO_REGISTERS
    17        80  NO_REGISTERS
     6        80  NO_REGISTERS
     4        80  NO_REGISTERS
    25        80  NO_REGISTERS
    23        84  TOS_REG
    20       157  TOS_REG

Back edges (size = 0)
ast_id  pc_offset  loop_depth

0x1eddcf9f5d59: [TypeFeedbackInfo]
 - ic_total_count: 0, ic_with_type_info_count: 0, ic_generic_count: 0

RelocInfo (size = 25)
0x165865008f40  position  (6123)
0x165865008f50  code target (BUILTIN)  (0x165864f36a80)
0x165865008f54  statement position  (6127)
0x165865008f54  position  (6140)
0x165865008f7f  statement position  (6146)
0x165865008f8c  code target (STUB)  (0x165864f08ae0)
0x165865008f90  statement position  (6169)
0x165865008f90  position  (6188)
0x165865008fdf  embedded object  (0x1eddcf9f5c29 Cell for 6144)
0x165865008fef  code target (BUILTIN)  (0x165864f36940)
0x165865008ff6  embedded object  (0x1eddcf9f5c29 Cell for 6144)
0x16586500900c  statement position  (6198)

--- End code ---
--- Raw source ---
(){
if(!%_IsDate(this))%_ThrowNotDateError();
return(%_DateField(this,3));
}


--- Optimized code ---
optimization_id = 1
source_position = 6525
kind = OPTIMIZED_FUNCTION
name = getDate
stack_slots = 1
compiler = crankshaft
Instructions (size = 167)
0x1658650090a0     0  55             push rbp
0x1658650090a1     1  4889e5         REX.W movq rbp,rsp
0x1658650090a4     4  56             push rsi
0x1658650090a5     5  57             push rdi
0x1658650090a6     6  4883ec08       REX.W subq rsp,0x8
0x1658650090aa    10  488b45f8       REX.W movq rax,[rbp-0x8]
0x1658650090ae    14  488945e8       REX.W movq [rbp-0x18],rax
0x1658650090b2    18  488bf0         REX.W movq rsi,rax
0x1658650090b5    21  6690           nop
0x1658650090b7    23  493ba548090000 REX.W cmpq rsp,[r13+0x948]
0x1658650090be    30  7305           jnc 37  (0x1658650090c5)
0x1658650090c0    32  e8bbd9f2ff     call StackCheck  (0x165864f36a80)    ;; code: BUILTIN
0x1658650090c5    37  488b5d10       REX.W movq rbx,[rbp+0x10]
0x1658650090c9    41  f6c301         testb rbx,0x1
0x1658650090cc    44  0f840f000000   jz 65  (0x1658650090e1)
0x1658650090d2    50  4c8b53ff       REX.W movq r10,[rbx-0x1]
0x1658650090d6    54  41807a0bb6     cmpb [r10+0xb],0xb6
0x1658650090db    59  0f8405000000   jz 70  (0x1658650090e6)
0x1658650090e1    65  e82ecfbfff     call 0x165864c06014     ;; deoptimization bailout 2
0x1658650090e6    70  488bc3         REX.W movq rax,rbx
0x1658650090e9    73  4d8b95005b0200 REX.W movq r10,[r13+0x25b00]
0x1658650090f0    80  4c3b5057       REX.W cmpq r10,[rax+0x57]
0x1658650090f4    84  7506           jnz 92  (0x1658650090fc)
0x1658650090f6    86  488b402f       REX.W movq rax,[rax+0x2f]
0x1658650090fa    90  eb29           jmp 133  (0x165865009125)
0x1658650090fc    92  4989e2         REX.W movq r10,rsp
0x1658650090ff    95  4883ec08       REX.W subq rsp,0x8
0x165865009103    99  4883e4f0       REX.W andq rsp,0xf0
0x165865009107   103  4c891424       REX.W movq [rsp],r10
0x16586500910b   107  488bf8         REX.W movq rdi,rax
0x16586500910e   110  48be0000000003000000 REX.W movq rsi,0x300000000
0x165865009118   120  498d85b80cfdfd REX.W leaq rax,[r13-0x202f348]
0x16586500911f   127  ffd0           call rax
0x165865009121   129  488b2424       REX.W movq rsp,[rsp]
0x165865009125   133  488be5         REX.W movq rsp,rbp
0x165865009128   136  5d             pop rbp
0x165865009129   137  c20800         ret 0x8
0x16586500912c   140  660f1f440000   nop
0x165865009132   146  6690           nop

Inlined functions (count = 0)

Deoptimization Input Data (deopt points = 4)
 index  ast id    argc     pc
     0       1       0     10
     1       3       0     37
     2       5       0     -1
     3       4       0    133

Safepoints (size = 19)
0x1658650090c5    37  1 (sp -> fp)       1

RelocInfo (size = 3)
0x1658650090c1  code target (BUILTIN)  (0x165864f36a80)
0x1658650090e2  runtime entry  (deoptimization bailout 2)

--- End code ---
--- Raw source ---
(){
if(!%_IsDate(this))%_ThrowNotDateError();
return(%_DateField(this,1));
}


--- Optimized code ---
optimization_id = 2
source_position = 6123
kind = OPTIMIZED_FUNCTION
name = getFullYear
stack_slots = 1
compiler = crankshaft
Instructions (size = 167)
0x1658650091c0     0  55             push rbp
0x1658650091c1     1  4889e5         REX.W movq rbp,rsp
0x1658650091c4     4  56             push rsi
0x1658650091c5     5  57             push rdi
0x1658650091c6     6  4883ec08       REX.W subq rsp,0x8
0x1658650091ca    10  488b45f8       REX.W movq rax,[rbp-0x8]
0x1658650091ce    14  488945e8       REX.W movq [rbp-0x18],rax
0x1658650091d2    18  488bf0         REX.W movq rsi,rax
0x1658650091d5    21  6690           nop
0x1658650091d7    23  493ba548090000 REX.W cmpq rsp,[r13+0x948]
0x1658650091de    30  7305           jnc 37  (0x1658650091e5)
0x1658650091e0    32  e89bd8f2ff     call StackCheck  (0x165864f36a80)    ;; code: BUILTIN
0x1658650091e5    37  488b5d10       REX.W movq rbx,[rbp+0x10]
0x1658650091e9    41  f6c301         testb rbx,0x1
0x1658650091ec    44  0f840f000000   jz 65  (0x165865009201)
0x1658650091f2    50  4c8b53ff       REX.W movq r10,[rbx-0x1]
0x1658650091f6    54  41807a0bb6     cmpb [r10+0xb],0xb6
0x1658650091fb    59  0f8405000000   jz 70  (0x165865009206)
0x165865009201    65  e80ecebfff     call 0x165864c06014     ;; deoptimization bailout 2
0x165865009206    70  488bc3         REX.W movq rax,rbx
0x165865009209    73  4d8b95005b0200 REX.W movq r10,[r13+0x25b00]
0x165865009210    80  4c3b5057       REX.W cmpq r10,[rax+0x57]
0x165865009214    84  7506           jnz 92  (0x16586500921c)
0x165865009216    86  488b401f       REX.W movq rax,[rax+0x1f]
0x16586500921a    90  eb29           jmp 133  (0x165865009245)
0x16586500921c    92  4989e2         REX.W movq r10,rsp
0x16586500921f    95  4883ec08       REX.W subq rsp,0x8
0x165865009223    99  4883e4f0       REX.W andq rsp,0xf0
0x165865009227   103  4c891424       REX.W movq [rsp],r10
0x16586500922b   107  488bf8         REX.W movq rdi,rax
0x16586500922e   110  48be0000000001000000 REX.W movq rsi,0x100000000
0x165865009238   120  498d85b80cfdfd REX.W leaq rax,[r13-0x202f348]
0x16586500923f   127  ffd0           call rax
0x165865009241   129  488b2424       REX.W movq rsp,[rsp]
0x165865009245   133  488be5         REX.W movq rsp,rbp
0x165865009248   136  5d             pop rbp
0x165865009249   137  c20800         ret 0x8
0x16586500924c   140  660f1f440000   nop
0x165865009252   146  6690           nop

Inlined functions (count = 0)

Deoptimization Input Data (deopt points = 4)
 index  ast id    argc     pc
     0       1       0     10
     1       3       0     37
     2       5       0     -1
     3       4       0    133

Safepoints (size = 19)
0x1658650091e5    37  1 (sp -> fp)       1

RelocInfo (size = 3)
0x1658650091e1  code target (BUILTIN)  (0x165864f36a80)
0x165865009202  runtime entry  (deoptimization bailout 2)

--- End code ---
--- Raw source ---
(){
if(!%_IsDate(this))%_ThrowNotDateError();
return(%_DateField(this,2));
}


--- Code ---
source_position = 6326
kind = FUNCTION
name = getMonth
compiler = full-codegen
Instructions (size = 228)
0x1658650092e0     0  55             push rbp                ;; debug: position 6326
0x1658650092e1     1  4889e5         REX.W movq rbp,rsp
0x1658650092e4     4  56             push rsi
0x1658650092e5     5  57             push rdi
0x1658650092e6     6  493ba548090000 REX.W cmpq rsp,[r13+0x948]
0x1658650092ed    13  7305           jnc 20  (0x1658650092f4)
0x1658650092ef    15  e88cd7f2ff     call StackCheck  (0x165864f36a80)    ;; code: BUILTIN
0x1658650092f4    20  488b4510       REX.W movq rax,[rbp+0x10]    ;; debug: statement 6330
                                                             ;; debug: position 6343
0x1658650092f8    24  a801           test al,0x1
0x1658650092fa    26  0f841f000000   jz 63  (0x16586500931f)
0x165865009300    32  488b58ff       REX.W movq rbx,[rax-0x1]
0x165865009304    36  807b0bb6       cmpb [rbx+0xb],0xb6
0x165865009308    40  eb0f           jmp 57  (0x165865009319)
0x16586500930a    42  493b45c0       REX.W cmpq rax,[r13-0x40]
0x16586500930e    46  0f841c000000   jz 80  (0x165865009330)
0x165865009314    52  e906000000     jmp 63  (0x16586500931f)
0x165865009319    57  0f8411000000   jz 80  (0x165865009330)
0x16586500931f    63  33c0           xorl rax,rax            ;; debug: statement 6349
0x165865009321    65  48bb30bc270100000000 REX.W movq rbx,0x127bc30
0x16586500932b    75  e8b0f7efff     call 0x165864f08ae0     ;; code: STUB, CEntryStub, minor: 0
0x165865009330    80  488b4510       REX.W movq rax,[rbp+0x10]    ;; debug: statement 6372
                                                             ;; debug: position 6391
0x165865009334    84  49ba4835f30200000000 REX.W movq r10,0x2f33548
0x16586500933e    94  498b0a         REX.W movq rcx,[r10]
0x165865009341    97  483b4857       REX.W cmpq rcx,[rax+0x57]
0x165865009345   101  7506           jnz 109  (0x16586500934d)
0x165865009347   103  488b4027       REX.W movq rax,[rax+0x27]
0x16586500934b   107  eb30           jmp 157  (0x16586500937d)
0x16586500934d   109  4989e2         REX.W movq r10,rsp
0x165865009350   112  4883ec08       REX.W subq rsp,0x8
0x165865009354   116  4883e4f0       REX.W andq rsp,0xf0
0x165865009358   120  4c891424       REX.W movq [rsp],r10
0x16586500935c   124  488bf8         REX.W movq rdi,rax
0x16586500935f   127  48be0000000002000000 REX.W movq rsi,0x200000000
0x165865009369   137  48b800e7ed0000000000 REX.W movq rax,0xede700
0x165865009373   147  ffd0           call rax
0x165865009375   149  488b2424       REX.W movq rsp,[rsp]
0x165865009379   153  488b75f8       REX.W movq rsi,[rbp-0x8]
0x16586500937d   157  48bbe9609fcfdd1e0000 REX.W movq rbx,0x1eddcf9f60e9    ;; object: 0x1eddcf9f60e9 Cell for 6144
0x165865009387   167  83430bd1       addl [rbx+0xb],0xd1
0x16586500938b   171  791f           jns 204  (0x1658650093ac)
0x16586500938d   173  50             push rax
0x16586500938e   174  e8add5f2ff     call InterruptCheck  (0x165864f36940)    ;; code: BUILTIN
0x165865009393   179  58             pop rax
0x165865009394   180  48bbe9609fcfdd1e0000 REX.W movq rbx,0x1eddcf9f60e9    ;; object: 0x1eddcf9f60e9 Cell for 6144
0x16586500939e   190  49ba0000000000180000 REX.W movq r10,0x180000000000
0x1658650093a8   200  4c895307       REX.W movq [rbx+0x7],r10
0x1658650093ac   204  c9             leave                   ;; debug: statement 6401
0x1658650093ad   205  c20800         ret 0x8
0x1658650093b0   208  498b45a8       REX.W movq rax,[r13-0x58]
0x1658650093b4   212  e9c4ffffff     jmp 157  (0x16586500937d)
0x1658650093b9   217  0f1f8000000000 nop

Deoptimization Output Data (deopt points = 14)
ast id        pc  state
     1         6  NO_REGISTERS
     2         6  NO_REGISTERS
     3         6  NO_REGISTERS
    16        20  NO_REGISTERS
    14        24  TOS_REG
    11        42  TOS_REG
     5        63  NO_REGISTERS
    19        63  NO_REGISTERS
    17        80  NO_REGISTERS
     6        80  NO_REGISTERS
     4        80  NO_REGISTERS
    25        80  NO_REGISTERS
    23        84  TOS_REG
    20       157  TOS_REG

Back edges (size = 0)
ast_id  pc_offset  loop_depth

0x1eddcf9f6219: [TypeFeedbackInfo]
 - ic_total_count: 0, ic_with_type_info_count: 0, ic_generic_count: 0

RelocInfo (size = 25)
0x1658650092e0  position  (6326)
0x1658650092f0  code target (BUILTIN)  (0x165864f36a80)
0x1658650092f4  statement position  (6330)
0x1658650092f4  position  (6343)
0x16586500931f  statement position  (6349)
0x16586500932c  code target (STUB)  (0x165864f08ae0)
0x165865009330  statement position  (6372)
0x165865009330  position  (6391)
0x16586500937f  embedded object  (0x1eddcf9f60e9 Cell for 6144)
0x16586500938f  code target (BUILTIN)  (0x165864f36940)
0x165865009396  embedded object  (0x1eddcf9f60e9 Cell for 6144)
0x1658650093ac  statement position  (6401)

--- End code ---
--- Raw source ---
(){
if(!%_IsDate(this))%_ThrowNotDateError();
return(%_DateField(this,5));
}


--- Code ---
source_position = 6920
kind = FUNCTION
name = getHours
compiler = full-codegen
Instructions (size = 228)
0x165865009440     0  55             push rbp                ;; debug: position 6920
0x165865009441     1  4889e5         REX.W movq rbp,rsp
0x165865009444     4  56             push rsi
0x165865009445     5  57             push rdi
0x165865009446     6  493ba548090000 REX.W cmpq rsp,[r13+0x948]
0x16586500944d    13  7305           jnc 20  (0x165865009454)
0x16586500944f    15  e82cd6f2ff     call StackCheck  (0x165864f36a80)    ;; code: BUILTIN
0x165865009454    20  488b4510       REX.W movq rax,[rbp+0x10]    ;; debug: statement 6924
                                                             ;; debug: position 6937
0x165865009458    24  a801           test al,0x1
0x16586500945a    26  0f841f000000   jz 63  (0x16586500947f)
0x165865009460    32  488b58ff       REX.W movq rbx,[rax-0x1]
0x165865009464    36  807b0bb6       cmpb [rbx+0xb],0xb6
0x165865009468    40  eb0f           jmp 57  (0x165865009479)
0x16586500946a    42  493b45c0       REX.W cmpq rax,[r13-0x40]
0x16586500946e    46  0f841c000000   jz 80  (0x165865009490)
0x165865009474    52  e906000000     jmp 63  (0x16586500947f)
0x165865009479    57  0f8411000000   jz 80  (0x165865009490)
0x16586500947f    63  33c0           xorl rax,rax            ;; debug: statement 6943
0x165865009481    65  48bb30bc270100000000 REX.W movq rbx,0x127bc30
0x16586500948b    75  e850f6efff     call 0x165864f08ae0     ;; code: STUB, CEntryStub, minor: 0
0x165865009490    80  488b4510       REX.W movq rax,[rbp+0x10]    ;; debug: statement 6966
                                                             ;; debug: position 6985
0x165865009494    84  49ba4835f30200000000 REX.W movq r10,0x2f33548
0x16586500949e    94  498b0a         REX.W movq rcx,[r10]
0x1658650094a1    97  483b4857       REX.W cmpq rcx,[rax+0x57]
0x1658650094a5   101  7506           jnz 109  (0x1658650094ad)
0x1658650094a7   103  488b403f       REX.W movq rax,[rax+0x3f]
0x1658650094ab   107  eb30           jmp 157  (0x1658650094dd)
0x1658650094ad   109  4989e2         REX.W movq r10,rsp
0x1658650094b0   112  4883ec08       REX.W subq rsp,0x8
0x1658650094b4   116  4883e4f0       REX.W andq rsp,0xf0
0x1658650094b8   120  4c891424       REX.W movq [rsp],r10
0x1658650094bc   124  488bf8         REX.W movq rdi,rax
0x1658650094bf   127  48be0000000005000000 REX.W movq rsi,0x500000000
0x1658650094c9   137  48b800e7ed0000000000 REX.W movq rax,0xede700
0x1658650094d3   147  ffd0           call rax
0x1658650094d5   149  488b2424       REX.W movq rsp,[rsp]
0x1658650094d9   153  488b75f8       REX.W movq rsi,[rbp-0x8]
0x1658650094dd   157  48bb39629fcfdd1e0000 REX.W movq rbx,0x1eddcf9f6239    ;; object: 0x1eddcf9f6239 Cell for 6144
0x1658650094e7   167  83430bd1       addl [rbx+0xb],0xd1
0x1658650094eb   171  791f           jns 204  (0x16586500950c)
0x1658650094ed   173  50             push rax
0x1658650094ee   174  e84dd4f2ff     call InterruptCheck  (0x165864f36940)    ;; code: BUILTIN
0x1658650094f3   179  58             pop rax
0x1658650094f4   180  48bb39629fcfdd1e0000 REX.W movq rbx,0x1eddcf9f6239    ;; object: 0x1eddcf9f6239 Cell for 6144
0x1658650094fe   190  49ba0000000000180000 REX.W movq r10,0x180000000000
0x165865009508   200  4c895307       REX.W movq [rbx+0x7],r10
0x16586500950c   204  c9             leave                   ;; debug: statement 6995
0x16586500950d   205  c20800         ret 0x8
0x165865009510   208  498b45a8       REX.W movq rax,[r13-0x58]
0x165865009514   212  e9c4ffffff     jmp 157  (0x1658650094dd)
0x165865009519   217  0f1f8000000000 nop

Deoptimization Output Data (deopt points = 14)
ast id        pc  state
     1         6  NO_REGISTERS
     2         6  NO_REGISTERS
     3         6  NO_REGISTERS
    16        20  NO_REGISTERS
    14        24  TOS_REG
    11        42  TOS_REG
     5        63  NO_REGISTERS
    19        63  NO_REGISTERS
    17        80  NO_REGISTERS
     6        80  NO_REGISTERS
     4        80  NO_REGISTERS
    25        80  NO_REGISTERS
    23        84  TOS_REG
    20       157  TOS_REG

Back edges (size = 0)
ast_id  pc_offset  loop_depth

0x1eddcf9f6369: [TypeFeedbackInfo]
 - ic_total_count: 0, ic_with_type_info_count: 0, ic_generic_count: 0

RelocInfo (size = 25)
0x165865009440  position  (6920)
0x165865009450  code target (BUILTIN)  (0x165864f36a80)
0x165865009454  statement position  (6924)
0x165865009454  position  (6937)
0x16586500947f  statement position  (6943)
0x16586500948c  code target (STUB)  (0x165864f08ae0)
0x165865009490  statement position  (6966)
0x165865009490  position  (6985)
0x1658650094df  embedded object  (0x1eddcf9f6239 Cell for 6144)
0x1658650094ef  code target (BUILTIN)  (0x165864f36940)
0x1658650094f6  embedded object  (0x1eddcf9f6239 Cell for 6144)
0x16586500950c  statement position  (6995)

--- End code ---
--- Raw source ---
(){
if(!%_IsDate(this))%_ThrowNotDateError();
return(%_DateField(this,2));
}


--- Optimized code ---
optimization_id = 3
source_position = 6326
kind = OPTIMIZED_FUNCTION
name = getMonth
stack_slots = 1
compiler = crankshaft
Instructions (size = 167)
0x1658650095a0     0  55             push rbp
0x1658650095a1     1  4889e5         REX.W movq rbp,rsp
0x1658650095a4     4  56             push rsi
0x1658650095a5     5  57             push rdi
0x1658650095a6     6  4883ec08       REX.W subq rsp,0x8
0x1658650095aa    10  488b45f8       REX.W movq rax,[rbp-0x8]
0x1658650095ae    14  488945e8       REX.W movq [rbp-0x18],rax
0x1658650095b2    18  488bf0         REX.W movq rsi,rax
0x1658650095b5    21  6690           nop
0x1658650095b7    23  493ba548090000 REX.W cmpq rsp,[r13+0x948]
0x1658650095be    30  7305           jnc 37  (0x1658650095c5)
0x1658650095c0    32  e8bbd4f2ff     call StackCheck  (0x165864f36a80)    ;; code: BUILTIN
0x1658650095c5    37  488b5d10       REX.W movq rbx,[rbp+0x10]
0x1658650095c9    41  f6c301         testb rbx,0x1
0x1658650095cc    44  0f840f000000   jz 65  (0x1658650095e1)
0x1658650095d2    50  4c8b53ff       REX.W movq r10,[rbx-0x1]
0x1658650095d6    54  41807a0bb6     cmpb [r10+0xb],0xb6
0x1658650095db    59  0f8405000000   jz 70  (0x1658650095e6)
0x1658650095e1    65  e82ecabfff     call 0x165864c06014     ;; deoptimization bailout 2
0x1658650095e6    70  488bc3         REX.W movq rax,rbx
0x1658650095e9    73  4d8b95005b0200 REX.W movq r10,[r13+0x25b00]
0x1658650095f0    80  4c3b5057       REX.W cmpq r10,[rax+0x57]
0x1658650095f4    84  7506           jnz 92  (0x1658650095fc)
0x1658650095f6    86  488b4027       REX.W movq rax,[rax+0x27]
0x1658650095fa    90  eb29           jmp 133  (0x165865009625)
0x1658650095fc    92  4989e2         REX.W movq r10,rsp
0x1658650095ff    95  4883ec08       REX.W subq rsp,0x8
0x165865009603    99  4883e4f0       REX.W andq rsp,0xf0
0x165865009607   103  4c891424       REX.W movq [rsp],r10
0x16586500960b   107  488bf8         REX.W movq rdi,rax
0x16586500960e   110  48be0000000002000000 REX.W movq rsi,0x200000000
0x165865009618   120  498d85b80cfdfd REX.W leaq rax,[r13-0x202f348]
0x16586500961f   127  ffd0           call rax
0x165865009621   129  488b2424       REX.W movq rsp,[rsp]
0x165865009625   133  488be5         REX.W movq rsp,rbp
0x165865009628   136  5d             pop rbp
0x165865009629   137  c20800         ret 0x8
0x16586500962c   140  660f1f440000   nop
0x165865009632   146  6690           nop

Inlined functions (count = 0)

Deoptimization Input Data (deopt points = 4)
 index  ast id    argc     pc
     0       1       0     10
     1       3       0     37
     2       5       0     -1
     3       4       0    133

Safepoints (size = 19)
0x1658650095c5    37  1 (sp -> fp)       1

RelocInfo (size = 3)
0x1658650095c1  code target (BUILTIN)  (0x165864f36a80)
0x1658650095e2  runtime entry  (deoptimization bailout 2)

--- End code ---
--- Raw source ---
(){
if(!%_IsDate(this))%_ThrowNotDateError();
return(%_DateField(this,5));
}


--- Optimized code ---
optimization_id = 4
source_position = 6920
kind = OPTIMIZED_FUNCTION
name = getHours
stack_slots = 1
compiler = crankshaft
Instructions (size = 167)
0x1658650096c0     0  55             push rbp
0x1658650096c1     1  4889e5         REX.W movq rbp,rsp
0x1658650096c4     4  56             push rsi
0x1658650096c5     5  57             push rdi
0x1658650096c6     6  4883ec08       REX.W subq rsp,0x8
0x1658650096ca    10  488b45f8       REX.W movq rax,[rbp-0x8]
0x1658650096ce    14  488945e8       REX.W movq [rbp-0x18],rax
0x1658650096d2    18  488bf0         REX.W movq rsi,rax
0x1658650096d5    21  6690           nop
0x1658650096d7    23  493ba548090000 REX.W cmpq rsp,[r13+0x948]
0x1658650096de    30  7305           jnc 37  (0x1658650096e5)
0x1658650096e0    32  e89bd3f2ff     call StackCheck  (0x165864f36a80)    ;; code: BUILTIN
0x1658650096e5    37  488b5d10       REX.W movq rbx,[rbp+0x10]
0x1658650096e9    41  f6c301         testb rbx,0x1
0x1658650096ec    44  0f840f000000   jz 65  (0x165865009701)
0x1658650096f2    50  4c8b53ff       REX.W movq r10,[rbx-0x1]
0x1658650096f6    54  41807a0bb6     cmpb [r10+0xb],0xb6
0x1658650096fb    59  0f8405000000   jz 70  (0x165865009706)
0x165865009701    65  e80ec9bfff     call 0x165864c06014     ;; deoptimization bailout 2
0x165865009706    70  488bc3         REX.W movq rax,rbx
0x165865009709    73  4d8b95005b0200 REX.W movq r10,[r13+0x25b00]
0x165865009710    80  4c3b5057       REX.W cmpq r10,[rax+0x57]
0x165865009714    84  7506           jnz 92  (0x16586500971c)
0x165865009716    86  488b403f       REX.W movq rax,[rax+0x3f]
0x16586500971a    90  eb29           jmp 133  (0x165865009745)
0x16586500971c    92  4989e2         REX.W movq r10,rsp
0x16586500971f    95  4883ec08       REX.W subq rsp,0x8
0x165865009723    99  4883e4f0       REX.W andq rsp,0xf0
0x165865009727   103  4c891424       REX.W movq [rsp],r10
0x16586500972b   107  488bf8         REX.W movq rdi,rax
0x16586500972e   110  48be0000000005000000 REX.W movq rsi,0x500000000
0x165865009738   120  498d85b80cfdfd REX.W leaq rax,[r13-0x202f348]
0x16586500973f   127  ffd0           call rax
0x165865009741   129  488b2424       REX.W movq rsp,[rsp]
0x165865009745   133  488be5         REX.W movq rsp,rbp
0x165865009748   136  5d             pop rbp
0x165865009749   137  c20800         ret 0x8
0x16586500974c   140  660f1f440000   nop
0x165865009752   146  6690           nop

Inlined functions (count = 0)

Deoptimization Input Data (deopt points = 4)
 index  ast id    argc     pc
     0       1       0     10
     1       3       0     37
     2       5       0     -1
     3       4       0    133

Safepoints (size = 19)
0x1658650096e5    37  1 (sp -> fp)       1

RelocInfo (size = 3)
0x1658650096e1  code target (BUILTIN)  (0x165864f36a80)
0x165865009702  runtime entry  (deoptimization bailout 2)

--- End code ---
--- Raw source ---
(){
if(!V){
V=%DateCacheVersion();
if(!V)return;
}
if(V[0]==W){
return;
}
W=V[0];
k=$NaN;
l=(void 0);
x.time=$NaN;
x.string=null;
}


--- Code ---
source_position = 14316
kind = FUNCTION
name = CheckDateCacheCurrent
compiler = full-codegen
Instructions (size = 660)
0x1658650097e0     0  55             push rbp                ;; debug: position 14316
0x1658650097e1     1  4889e5         REX.W movq rbp,rsp
0x1658650097e4     4  56             push rsi
0x1658650097e5     5  57             push rdi
0x1658650097e6     6  493ba548090000 REX.W cmpq rsp,[r13+0x948]
0x1658650097ed    13  7305           jnc 20  (0x1658650097f4)
0x1658650097ef    15  e88cd2f2ff     call StackCheck  (0x165864f36a80)    ;; code: BUILTIN
0x1658650097f4    20  488bc6         REX.W movq rax,rsi      ;; debug: statement 14320
                                                             ;; debug: position 14324
0x1658650097f7    23  488b801f010000 REX.W movq rax,[rax+0x11f]
0x1658650097fe    30  e8ddbdf1ff     call 0x165864f255e0     ;; code: TO_BOOLEAN_IC, UNINITIALIZED (id = 12)
0x165865009803    35  4885c0         REX.W testq rax,rax
0x165865009806    38  0f85a5000000   jnz 209  (0x1658650098b1)
0x16586500980c    44  33c0           xorl rax,rax            ;; debug: statement 14328
                                                             ;; debug: position 14329
0x16586500980e    46  48bbe0c8270100000000 REX.W movq rbx,0x127c8e0
0x165865009818    56  e8c3f2efff     call 0x165864f08ae0     ;; code: STUB, CEntryStub, minor: 0
0x16586500981d    61  488bce         REX.W movq rcx,rsi
0x165865009820    64  4889811f010000 REX.W movq [rcx+0x11f],rax
0x165865009827    71  488bd0         REX.W movq rdx,rax
0x16586500982a    74  f6c201         testb rdx,0x1
0x16586500982d    77  0f8429000000   jz 124  (0x16586500985c)
0x165865009833    83  488d991f010000 REX.W leaq rbx,[rcx+0x11f]
0x16586500983a    90  4881e20000f0ff REX.W andq rdx,0xfffffffffff00000
0x165865009841    97  f6420804       testb [rdx+0x8],0x4
0x165865009845   101  7415           jz 124  (0x16586500985c)
0x165865009847   103  48c7c20000f0ff REX.W movq rdx,0xfff00000
0x16586500984e   110  4823d1         REX.W andq rdx,rcx
0x165865009851   113  f6420808       testb [rdx+0x8],0x8
0x165865009855   117  7405           jz 124  (0x16586500985c)
0x165865009857   119  e8e460f2ff     call 0x165864f2f940     ;; code: STUB, RecordWriteStub, minor: 801
0x16586500985c   124  488bc6         REX.W movq rax,rsi      ;; debug: statement 14351
                                                             ;; debug: position 14355
0x16586500985f   127  488b801f010000 REX.W movq rax,[rax+0x11f]
0x165865009866   134  e875bdf1ff     call 0x165864f255e0     ;; code: TO_BOOLEAN_IC, UNINITIALIZED (id = 35)
0x16586500986b   139  4885c0         REX.W testq rax,rax
0x16586500986e   142  0f853d000000   jnz 209  (0x1658650098b1)
0x165865009874   148  48b8894190cfdd1e0000 REX.W movq rax,0x1eddcf904189    ;; debug: statement 14357
                                                             ;; object: 0x1eddcf904189 <undefined>
0x16586500987e   158  48bb59679fcfdd1e0000 REX.W movq rbx,0x1eddcf9f6759    ;; object: 0x1eddcf9f6759 Cell for 6144
0x165865009888   168  83430bd1       addl [rbx+0xb],0xd1
0x16586500988c   172  791f           jns 205  (0x1658650098ad)
0x16586500988e   174  50             push rax
0x16586500988f   175  e8acd0f2ff     call InterruptCheck  (0x165864f36940)    ;; code: BUILTIN
0x165865009894   180  58             pop rax
0x165865009895   181  48bb59679fcfdd1e0000 REX.W movq rbx,0x1eddcf9f6759    ;; object: 0x1eddcf9f6759 Cell for 6144
0x16586500989f   191  49ba0000000000180000 REX.W movq r10,0x180000000000
0x1658650098a9   201  4c895307       REX.W movq [rbx+0x7],r10
0x1658650098ad   205  c9             leave                   ;; debug: statement 14446
0x1658650098ae   206  c20800         ret 0x8
0x1658650098b1   209  488bc6         REX.W movq rax,rsi      ;; debug: statement 14367
                                                             ;; debug: position 14370
0x1658650098b4   212  ffb01f010000   push [rax+0x11f]
0x1658650098ba   218  48b80000000000000000 REX.W movq rax,(nil)
0x1658650098c4   228  488bc8         REX.W movq rcx,rax
0x1658650098c7   231  5a             pop rdx
0x1658650098c8   232  48b80000000004000000 REX.W movq rax,0x400000000    ;; debug: position 14371
0x1658650098d2   242  e8e927f1ff     call 0x165864f1c0c0     ;; code: KEYED_LOAD_IC, DEFAULT
0x1658650098d7   247  50             push rax
0x1658650098d8   248  488bc6         REX.W movq rax,rsi      ;; debug: position 14376
0x1658650098db   251  488b8027010000 REX.W movq rax,[rax+0x127]
0x1658650098e2   258  5a             pop rdx
0x1658650098e3   259  e8981af2ff     call 0x165864f2b380     ;; code: COMPARE_IC, UNINITIALIZED (id = 45)
0x1658650098e8   264  90             nop
0x1658650098e9   265  eb0f           jmp 282  (0x1658650098fa)
0x1658650098eb   267  493b45c0       REX.W cmpq rax,[r13-0x40]
0x1658650098ef   271  0f840e000000   jz 291  (0x165865009903)
0x1658650098f5   277  e918000000     jmp 306  (0x165865009912)
0x1658650098fa   282  4885c0         REX.W testq rax,rax
0x1658650098fd   285  0f850f000000   jnz 306  (0x165865009912)
0x165865009903   291  48b8894190cfdd1e0000 REX.W movq rax,0x1eddcf904189    ;; debug: statement 14380
                                                             ;; object: 0x1eddcf904189 <undefined>
0x16586500990d   301  e96cffffff     jmp 158  (0x16586500987e)
0x165865009912   306  488bc6         REX.W movq rax,rsi      ;; debug: statement 14390
                                                             ;; debug: position 14392
0x165865009915   309  ffb01f010000   push [rax+0x11f]
0x16586500991b   315  48b80000000000000000 REX.W movq rax,(nil)
0x165865009925   325  488bc8         REX.W movq rcx,rax
0x165865009928   328  5a             pop rdx
0x165865009929   329  48b80000000006000000 REX.W movq rax,0x600000000    ;; debug: position 14393
0x165865009933   339  e88827f1ff     call 0x165864f1c0c0     ;; code: KEYED_LOAD_IC, DEFAULT
0x165865009938   344  488bce         REX.W movq rcx,rsi      ;; debug: position 14391
0x16586500993b   347  48898127010000 REX.W movq [rcx+0x127],rax
0x165865009942   354  488bd0         REX.W movq rdx,rax
0x165865009945   357  f6c201         testb rdx,0x1
0x165865009948   360  0f8429000000   jz 407  (0x165865009977)
0x16586500994e   366  488d9927010000 REX.W leaq rbx,[rcx+0x127]
0x165865009955   373  4881e20000f0ff REX.W andq rdx,0xfffffffffff00000
0x16586500995c   380  f6420804       testb [rdx+0x8],0x4
0x165865009960   384  7415           jz 407  (0x165865009977)
0x165865009962   386  48c7c20000f0ff REX.W movq rdx,0xfff00000
0x165865009969   393  4823d1         REX.W andq rdx,rcx
0x16586500996c   396  f6420808       testb [rdx+0x8],0x8
0x165865009970   400  7405           jz 407  (0x165865009977)
0x165865009972   402  e8c95ff2ff     call 0x165864f2f940     ;; code: STUB, RecordWriteStub, minor: 801
0x165865009977   407  48b9099294cfdd1e0000 REX.W movq rcx,0x1eddcf949209    ;; debug: statement 14398
                                                             ;; debug: position 14400
                                                             ;; object: 0x1eddcf949209 <String[4]: $NaN>
0x165865009981   417  488b5627       REX.W movq rdx,[rsi+0x27]
0x165865009985   421  48b80000000008000000 REX.W movq rax,0x800000000
0x16586500998f   431  e8ccebf1ff     call 0x165864f28560     ;; code: contextual, LOAD_IC, DEFAULT
0x165865009994   436  488bce         REX.W movq rcx,rsi      ;; debug: position 14399
0x165865009997   439  48894157       REX.W movq [rcx+0x57],rax
0x16586500999b   443  488bd0         REX.W movq rdx,rax
0x16586500999e   446  f6c201         testb rdx,0x1
0x1658650099a1   449  0f8426000000   jz 493  (0x1658650099cd)
0x1658650099a7   455  488d5957       REX.W leaq rbx,[rcx+0x57]
0x1658650099ab   459  4881e20000f0ff REX.W andq rdx,0xfffffffffff00000
0x1658650099b2   466  f6420804       testb [rdx+0x8],0x4
0x1658650099b6   470  7415           jz 493  (0x1658650099cd)
0x1658650099b8   472  48c7c20000f0ff REX.W movq rdx,0xfff00000
0x1658650099bf   479  4823d1         REX.W andq rdx,rcx
0x1658650099c2   482  f6420808       testb [rdx+0x8],0x8
0x1658650099c6   486  7405           jz 493  (0x1658650099cd)
0x1658650099c8   488  e8735ff2ff     call 0x165864f2f940     ;; code: STUB, RecordWriteStub, minor: 801
0x1658650099cd   493  498b45a8       REX.W movq rax,[r13-0x58]    ;; debug: statement 14406
                                                             ;; debug: position 14407
0x1658650099d1   497  488bce         REX.W movq rcx,rsi
0x1658650099d4   500  4889415f       REX.W movq [rcx+0x5f],rax
0x1658650099d8   504  488bd0         REX.W movq rdx,rax
0x1658650099db   507  f6c201         testb rdx,0x1
0x1658650099de   510  0f8426000000   jz 554  (0x165865009a0a)
0x1658650099e4   516  488d595f       REX.W leaq rbx,[rcx+0x5f]
0x1658650099e8   520  4881e20000f0ff REX.W andq rdx,0xfffffffffff00000
0x1658650099ef   527  f6420804       testb [rdx+0x8],0x4
0x1658650099f3   531  7415           jz 554  (0x165865009a0a)
0x1658650099f5   533  48c7c20000f0ff REX.W movq rdx,0xfff00000
0x1658650099fc   540  4823d1         REX.W andq rdx,rcx
0x1658650099ff   543  f6420808       testb [rdx+0x8],0x8
0x165865009a03   547  7405           jz 554  (0x165865009a0a)
0x165865009a05   549  e8365ff2ff     call 0x165864f2f940     ;; code: STUB, RecordWriteStub, minor: 801
0x165865009a0a   554  488bc6         REX.W movq rax,rsi      ;; debug: statement 14418
                                                             ;; debug: position 14418
0x165865009a0d   557  ffb097000000   push [rax+0x97]
0x165865009a13   563  48b9099294cfdd1e0000 REX.W movq rcx,0x1eddcf949209    ;; debug: position 14425
                                                             ;; object: 0x1eddcf949209 <String[4]: $NaN>
0x165865009a1d   573  488b5627       REX.W movq rdx,[rsi+0x27]
0x165865009a21   577  48b80000000008000000 REX.W movq rax,0x800000000
0x165865009a2b   587  e830ebf1ff     call 0x165864f28560     ;; code: contextual, LOAD_IC, DEFAULT
0x165865009a30   592  48b971f199cfdd1e0000 REX.W movq rcx,0x1eddcf99f171    ;; debug: position 14424
                                                             ;; object: 0x1eddcf99f171 <String[4]: time>
0x165865009a3a   602  5a             pop rdx
0x165865009a3b   603  e84089f2ff     call 0x165864f32380     ;; code: STORE_IC, UNINITIALIZED (id = 107)
0x165865009a40   608  488bc6         REX.W movq rax,rsi      ;; debug: statement 14431
                                                             ;; debug: position 14431
0x165865009a43   611  ffb097000000   push [rax+0x97]
0x165865009a49   617  48b8014190cfdd1e0000 REX.W movq rax,0x1eddcf904101    ;; object: 0x1eddcf904101 <null>
0x165865009a53   627  48b9491791cfdd1e0000 REX.W movq rcx,0x1eddcf911749    ;; debug: position 14439
                                                             ;; object: 0x1eddcf911749 <String[6]: string>
0x165865009a5d   637  5a             pop rdx
0x165865009a5e   638  e81d89f2ff     call 0x165864f32380     ;; code: STORE_IC, UNINITIALIZED (id = 123)
0x165865009a63   643  498b45a8       REX.W movq rax,[r13-0x58]
0x165865009a67   647  e912feffff     jmp 158  (0x16586500987e)
0x165865009a6c   652  0f1f4000       nop

Deoptimization Output Data (deopt points = 60)
ast id        pc  state
     1         6  NO_REGISTERS
     2         6  NO_REGISTERS
     3         6  NO_REGISTERS
    13        20  NO_REGISTERS
    11        30  TOS_REG
     5        44  NO_REGISTERS
    14        44  NO_REGISTERS
    26        44  NO_REGISTERS
    24        61  TOS_REG
    19       124  TOS_REG
    17       124  NO_REGISTERS
    36       124  NO_REGISTERS
    34       134  TOS_REG
    28       148  NO_REGISTERS
    37       158  TOS_REG
    29       209  NO_REGISTERS
    27       209  NO_REGISTERS
    15       209  NO_REGISTERS
     6       209  NO_REGISTERS
     4       209  NO_REGISTERS
    54       209  NO_REGISTERS
    52       218  NO_REGISTERS
    49       228  TOS_REG
    48       247  TOS_REG
    46       248  NO_REGISTERS
    57       248  NO_REGISTERS
    55       258  TOS_REG
    43       267  TOS_REG
    41       291  NO_REGISTERS
    58       291  NO_REGISTERS
    61       301  TOS_REG
    59       306  NO_REGISTERS
    42       306  NO_REGISTERS
    40       306  NO_REGISTERS
    79       306  NO_REGISTERS
    77       315  NO_REGISTERS
    74       325  TOS_REG
    73       344  TOS_REG
    71       344  TOS_REG
    66       407  TOS_REG
    64       407  NO_REGISTERS
    89       407  NO_REGISTERS
    87       436  TOS_REG
    82       493  TOS_REG
    80       493  NO_REGISTERS
   101       493  NO_REGISTERS
    97       497  TOS_REG
    92       554  TOS_REG
    90       554  NO_REGISTERS
   116       554  NO_REGISTERS
   114       563  NO_REGISTERS
   119       563  NO_REGISTERS
   117       592  TOS_REG
   106       608  TOS_REG
   104       608  NO_REGISTERS
   132       608  NO_REGISTERS
   130       617  NO_REGISTERS
   133       627  TOS_REG
   122       643  TOS_REG
   120       643  NO_REGISTERS

Back edges (size = 0)
ast_id  pc_offset  loop_depth

0x1eddcf9f6bb9: [TypeFeedbackInfo]
 - ic_total_count: 9, ic_with_type_info_count: 0, ic_generic_count: 0

RelocInfo (size = 106)
0x1658650097e0  position  (14316)
0x1658650097f0  code target (BUILTIN)  (0x165864f36a80)
0x1658650097f4  statement position  (14320)
0x1658650097f4  position  (14324)
0x1658650097ff  code target with id (TO_BOOLEAN_IC)  (0x165864f255e0) (id=12)
0x16586500980c  statement position  (14328)
0x16586500980c  position  (14329)
0x165865009819  code target (STUB)  (0x165864f08ae0)
0x165865009858  code target (STUB)  (0x165864f2f940)
0x16586500985c  statement position  (14351)
0x16586500985c  position  (14355)
0x165865009867  code target with id (TO_BOOLEAN_IC)  (0x165864f255e0) (id=35)
0x165865009874  statement position  (14357)
0x165865009876  embedded object  (0x1eddcf904189 <undefined>)
0x165865009880  embedded object  (0x1eddcf9f6759 Cell for 6144)
0x165865009890  code target (BUILTIN)  (0x165864f36940)
0x165865009897  embedded object  (0x1eddcf9f6759 Cell for 6144)
0x1658650098ad  statement position  (14446)
0x1658650098b1  statement position  (14367)
0x1658650098b1  position  (14370)
0x1658650098c8  position  (14371)
0x1658650098d3  code target (KEYED_LOAD_IC)  (0x165864f1c0c0)
0x1658650098d8  position  (14376)
0x1658650098e4  code target with id (COMPARE_IC)  (0x165864f2b380) (id=45)
0x165865009903  statement position  (14380)
0x165865009905  embedded object  (0x1eddcf904189 <undefined>)
0x165865009912  statement position  (14390)
0x165865009912  position  (14392)
0x165865009929  position  (14393)
0x165865009934  code target (KEYED_LOAD_IC)  (0x165864f1c0c0)
0x165865009938  position  (14391)
0x165865009973  code target (STUB)  (0x165864f2f940)
0x165865009977  statement position  (14398)
0x165865009977  position  (14400)
0x165865009979  embedded object  (0x1eddcf949209 <String[4]: $NaN>)
0x165865009990  code target (LOAD_IC)  (0x165864f28560)
0x165865009994  position  (14399)
0x1658650099c9  code target (STUB)  (0x165864f2f940)
0x1658650099cd  statement position  (14406)
0x1658650099cd  position  (14407)
0x165865009a06  code target (STUB)  (0x165864f2f940)
0x165865009a0a  statement position  (14418)
0x165865009a0a  position  (14418)
0x165865009a13  position  (14425)
0x165865009a15  embedded object  (0x1eddcf949209 <String[4]: $NaN>)
0x165865009a2c  code target (LOAD_IC)  (0x165864f28560)
0x165865009a30  position  (14424)
0x165865009a32  embedded object  (0x1eddcf99f171 <String[4]: time>)
0x165865009a3c  code target with id (STORE_IC)  (0x165864f32380) (id=107)
0x165865009a40  statement position  (14431)
0x165865009a40  position  (14431)
0x165865009a4b  embedded object  (0x1eddcf904101 <null>)
0x165865009a53  position  (14439)
0x165865009a55  embedded object  (0x1eddcf911749 <String[6]: string>)
0x165865009a5f  code target with id (STORE_IC)  (0x165864f32380) (id=123)

--- End code ---
--- Raw source ---
(){
if(!%_IsDate(this))%_ThrowNotDateError();
return(%_DateField(this,6));
}


--- Code ---
source_position = 7122
kind = FUNCTION
name = getMinutes
compiler = full-codegen
Instructions (size = 228)
0x165865009ae0     0  55             push rbp                ;; debug: position 7122
0x165865009ae1     1  4889e5         REX.W movq rbp,rsp
0x165865009ae4     4  56             push rsi
0x165865009ae5     5  57             push rdi
0x165865009ae6     6  493ba548090000 REX.W cmpq rsp,[r13+0x948]
0x165865009aed    13  7305           jnc 20  (0x165865009af4)
0x165865009aef    15  e88ccff2ff     call StackCheck  (0x165864f36a80)    ;; code: BUILTIN
0x165865009af4    20  488b4510       REX.W movq rax,[rbp+0x10]    ;; debug: statement 7126
                                                             ;; debug: position 7139
0x165865009af8    24  a801           test al,0x1
0x165865009afa    26  0f841f000000   jz 63  (0x165865009b1f)
0x165865009b00    32  488b58ff       REX.W movq rbx,[rax-0x1]
0x165865009b04    36  807b0bb6       cmpb [rbx+0xb],0xb6
0x165865009b08    40  eb0f           jmp 57  (0x165865009b19)
0x165865009b0a    42  493b45c0       REX.W cmpq rax,[r13-0x40]
0x165865009b0e    46  0f841c000000   jz 80  (0x165865009b30)
0x165865009b14    52  e906000000     jmp 63  (0x165865009b1f)
0x165865009b19    57  0f8411000000   jz 80  (0x165865009b30)
0x165865009b1f    63  33c0           xorl rax,rax            ;; debug: statement 7145
0x165865009b21    65  48bb30bc270100000000 REX.W movq rbx,0x127bc30
0x165865009b2b    75  e8b0efefff     call 0x165864f08ae0     ;; code: STUB, CEntryStub, minor: 0
0x165865009b30    80  488b4510       REX.W movq rax,[rbp+0x10]    ;; debug: statement 7168
                                                             ;; debug: position 7187
0x165865009b34    84  49ba4835f30200000000 REX.W movq r10,0x2f33548
0x165865009b3e    94  498b0a         REX.W movq rcx,[r10]
0x165865009b41    97  483b4857       REX.W cmpq rcx,[rax+0x57]
0x165865009b45   101  7506           jnz 109  (0x165865009b4d)
0x165865009b47   103  488b4047       REX.W movq rax,[rax+0x47]
0x165865009b4b   107  eb30           jmp 157  (0x165865009b7d)
0x165865009b4d   109  4989e2         REX.W movq r10,rsp
0x165865009b50   112  4883ec08       REX.W subq rsp,0x8
0x165865009b54   116  4883e4f0       REX.W andq rsp,0xf0
0x165865009b58   120  4c891424       REX.W movq [rsp],r10
0x165865009b5c   124  488bf8         REX.W movq rdi,rax
0x165865009b5f   127  48be0000000006000000 REX.W movq rsi,0x600000000
0x165865009b69   137  48b800e7ed0000000000 REX.W movq rax,0xede700
0x165865009b73   147  ffd0           call rax
0x165865009b75   149  488b2424       REX.W movq rsp,[rsp]
0x165865009b79   153  488b75f8       REX.W movq rsi,[rbp-0x8]
0x165865009b7d   157  48bb316c9fcfdd1e0000 REX.W movq rbx,0x1eddcf9f6c31    ;; object: 0x1eddcf9f6c31 Cell for 6144
0x165865009b87   167  83430bd1       addl [rbx+0xb],0xd1
0x165865009b8b   171  791f           jns 204  (0x165865009bac)
0x165865009b8d   173  50             push rax
0x165865009b8e   174  e8adcdf2ff     call InterruptCheck  (0x165864f36940)    ;; code: BUILTIN
0x165865009b93   179  58             pop rax
0x165865009b94   180  48bb316c9fcfdd1e0000 REX.W movq rbx,0x1eddcf9f6c31    ;; object: 0x1eddcf9f6c31 Cell for 6144
0x165865009b9e   190  49ba0000000000180000 REX.W movq r10,0x180000000000
0x165865009ba8   200  4c895307       REX.W movq [rbx+0x7],r10
0x165865009bac   204  c9             leave                   ;; debug: statement 7197
0x165865009bad   205  c20800         ret 0x8
0x165865009bb0   208  498b45a8       REX.W movq rax,[r13-0x58]
0x165865009bb4   212  e9c4ffffff     jmp 157  (0x165865009b7d)
0x165865009bb9   217  0f1f8000000000 nop

Deoptimization Output Data (deopt points = 14)
ast id        pc  state
     1         6  NO_REGISTERS
     2         6  NO_REGISTERS
     3         6  NO_REGISTERS
    16        20  NO_REGISTERS
    14        24  TOS_REG
    11        42  TOS_REG
     5        63  NO_REGISTERS
    19        63  NO_REGISTERS
    17        80  NO_REGISTERS
     6        80  NO_REGISTERS
     4        80  NO_REGISTERS
    25        80  NO_REGISTERS
    23        84  TOS_REG
    20       157  TOS_REG

Back edges (size = 0)
ast_id  pc_offset  loop_depth

0x1eddcf9f6d61: [TypeFeedbackInfo]
 - ic_total_count: 0, ic_with_type_info_count: 0, ic_generic_count: 0

RelocInfo (size = 25)
0x165865009ae0  position  (7122)
0x165865009af0  code target (BUILTIN)  (0x165864f36a80)
0x165865009af4  statement position  (7126)
0x165865009af4  position  (7139)
0x165865009b1f  statement position  (7145)
0x165865009b2c  code target (STUB)  (0x165864f08ae0)
0x165865009b30  statement position  (7168)
0x165865009b30  position  (7187)
0x165865009b7f  embedded object  (0x1eddcf9f6c31 Cell for 6144)
0x165865009b8f  code target (BUILTIN)  (0x165864f36940)
0x165865009b96  embedded object  (0x1eddcf9f6c31 Cell for 6144)
0x165865009bac  statement position  (7197)

--- End code ---
--- Raw source ---
(){
if(!%_IsDate(this))%_ThrowNotDateError();
return(%_DateField(this,7));
}


--- Code ---
source_position = 7326
kind = FUNCTION
name = getSeconds
compiler = full-codegen
Instructions (size = 228)
0x165865009c40     0  55             push rbp                ;; debug: position 7326
0x165865009c41     1  4889e5         REX.W movq rbp,rsp
0x165865009c44     4  56             push rsi
0x165865009c45     5  57             push rdi
0x165865009c46     6  493ba548090000 REX.W cmpq rsp,[r13+0x948]
0x165865009c4d    13  7305           jnc 20  (0x165865009c54)
0x165865009c4f    15  e82ccef2ff     call StackCheck  (0x165864f36a80)    ;; code: BUILTIN
0x165865009c54    20  488b4510       REX.W movq rax,[rbp+0x10]    ;; debug: statement 7330
                                                             ;; debug: position 7343
0x165865009c58    24  a801           test al,0x1
0x165865009c5a    26  0f841f000000   jz 63  (0x165865009c7f)
0x165865009c60    32  488b58ff       REX.W movq rbx,[rax-0x1]
0x165865009c64    36  807b0bb6       cmpb [rbx+0xb],0xb6
0x165865009c68    40  eb0f           jmp 57  (0x165865009c79)
0x165865009c6a    42  493b45c0       REX.W cmpq rax,[r13-0x40]
0x165865009c6e    46  0f841c000000   jz 80  (0x165865009c90)
0x165865009c74    52  e906000000     jmp 63  (0x165865009c7f)
0x165865009c79    57  0f8411000000   jz 80  (0x165865009c90)
0x165865009c7f    63  33c0           xorl rax,rax            ;; debug: statement 7349
0x165865009c81    65  48bb30bc270100000000 REX.W movq rbx,0x127bc30
0x165865009c8b    75  e850eeefff     call 0x165864f08ae0     ;; code: STUB, CEntryStub, minor: 0
0x165865009c90    80  488b4510       REX.W movq rax,[rbp+0x10]    ;; debug: statement 7372
                                                             ;; debug: position 7391
0x165865009c94    84  49ba4835f30200000000 REX.W movq r10,0x2f33548
0x165865009c9e    94  498b0a         REX.W movq rcx,[r10]
0x165865009ca1    97  483b4857       REX.W cmpq rcx,[rax+0x57]
0x165865009ca5   101  7506           jnz 109  (0x165865009cad)
0x165865009ca7   103  488b404f       REX.W movq rax,[rax+0x4f]
0x165865009cab   107  eb30           jmp 157  (0x165865009cdd)
0x165865009cad   109  4989e2         REX.W movq r10,rsp
0x165865009cb0   112  4883ec08       REX.W subq rsp,0x8
0x165865009cb4   116  4883e4f0       REX.W andq rsp,0xf0
0x165865009cb8   120  4c891424       REX.W movq [rsp],r10
0x165865009cbc   124  488bf8         REX.W movq rdi,rax
0x165865009cbf   127  48be0000000007000000 REX.W movq rsi,0x700000000
0x165865009cc9   137  48b800e7ed0000000000 REX.W movq rax,0xede700
0x165865009cd3   147  ffd0           call rax
0x165865009cd5   149  488b2424       REX.W movq rsp,[rsp]
0x165865009cd9   153  488b75f8       REX.W movq rsi,[rbp-0x8]
0x165865009cdd   157  48bb816d9fcfdd1e0000 REX.W movq rbx,0x1eddcf9f6d81    ;; object: 0x1eddcf9f6d81 Cell for 6144
0x165865009ce7   167  83430bd1       addl [rbx+0xb],0xd1
0x165865009ceb   171  791f           jns 204  (0x165865009d0c)
0x165865009ced   173  50             push rax
0x165865009cee   174  e84dccf2ff     call InterruptCheck  (0x165864f36940)    ;; code: BUILTIN
0x165865009cf3   179  58             pop rax
0x165865009cf4   180  48bb816d9fcfdd1e0000 REX.W movq rbx,0x1eddcf9f6d81    ;; object: 0x1eddcf9f6d81 Cell for 6144
0x165865009cfe   190  49ba0000000000180000 REX.W movq r10,0x180000000000
0x165865009d08   200  4c895307       REX.W movq [rbx+0x7],r10
0x165865009d0c   204  c9             leave                   ;; debug: statement 7401
0x165865009d0d   205  c20800         ret 0x8
0x165865009d10   208  498b45a8       REX.W movq rax,[r13-0x58]
0x165865009d14   212  e9c4ffffff     jmp 157  (0x165865009cdd)
0x165865009d19   217  0f1f8000000000 nop

Deoptimization Output Data (deopt points = 14)
ast id        pc  state
     1         6  NO_REGISTERS
     2         6  NO_REGISTERS
     3         6  NO_REGISTERS
    16        20  NO_REGISTERS
    14        24  TOS_REG
    11        42  TOS_REG
     5        63  NO_REGISTERS
    19        63  NO_REGISTERS
    17        80  NO_REGISTERS
     6        80  NO_REGISTERS
     4        80  NO_REGISTERS
    25        80  NO_REGISTERS
    23        84  TOS_REG
    20       157  TOS_REG

Back edges (size = 0)
ast_id  pc_offset  loop_depth

0x1eddcf9f6eb1: [TypeFeedbackInfo]
 - ic_total_count: 0, ic_with_type_info_count: 0, ic_generic_count: 0

RelocInfo (size = 25)
0x165865009c40  position  (7326)
0x165865009c50  code target (BUILTIN)  (0x165864f36a80)
0x165865009c54  statement position  (7330)
0x165865009c54  position  (7343)
0x165865009c7f  statement position  (7349)
0x165865009c8c  code target (STUB)  (0x165864f08ae0)
0x165865009c90  statement position  (7372)
0x165865009c90  position  (7391)
0x165865009cdf  embedded object  (0x1eddcf9f6d81 Cell for 6144)
0x165865009cef  code target (BUILTIN)  (0x165864f36940)
0x165865009cf6  embedded object  (0x1eddcf9f6d81 Cell for 6144)
0x165865009d0c  statement position  (7401)

--- End code ---
--- Raw source ---
(D){
if((%IS_VAR(this)===null)||(this===(void 0)))throw MakeTypeError(15,"Array.prototype.join");
var q=(%_ToObject(this));
var w=(harmony_tolength?$toLength(q.length):(q.length>>>0));
return InnerArrayJoin(D,q,w);
}


--- Code ---
source_position = 5353
kind = FUNCTION
name = join
compiler = full-codegen
Instructions (size = 540)
0x165865009da0     0  55             push rbp                ;; debug: position 5353
0x165865009da1     1  4889e5         REX.W movq rbp,rsp
0x165865009da4     4  56             push rsi
0x165865009da5     5  57             push rdi
0x165865009da6     6  498b55a8       REX.W movq rdx,[r13-0x58]
0x165865009daa    10  52             push rdx
0x165865009dab    11  52             push rdx
0x165865009dac    12  493ba548090000 REX.W cmpq rsp,[r13+0x948]
0x165865009db3    19  7305           jnc 26  (0x165865009dba)
0x165865009db5    21  e8c6ccf2ff     call StackCheck  (0x165864f36a80)    ;; code: BUILTIN
0x165865009dba    26  488b4518       REX.W movq rax,[rbp+0x18]    ;; debug: statement 5358
                                                             ;; debug: position 5370
0x165865009dbe    30  eb0f           jmp 47  (0x165865009dcf)
0x165865009dc0    32  493b45c0       REX.W cmpq rax,[r13-0x40]
0x165865009dc4    36  0f842e000000   jz 88  (0x165865009df8)
0x165865009dca    42  e90a000000     jmp 57  (0x165865009dd9)
0x165865009dcf    47  493b45b8       REX.W cmpq rax,[r13-0x48]
0x165865009dd3    51  0f841f000000   jz 88  (0x165865009df8)
0x165865009dd9    57  488b4518       REX.W movq rax,[rbp+0x18]    ;; debug: position 5386
0x165865009ddd    61  eb0f           jmp 78  (0x165865009dee)
0x165865009ddf    63  493b45c0       REX.W cmpq rax,[r13-0x40]
0x165865009de3    67  0f840f000000   jz 88  (0x165865009df8)
0x165865009de9    73  e97c000000     jmp 202  (0x165865009e6a)
0x165865009dee    78  493b45a8       REX.W cmpq rax,[r13-0x58]
0x165865009df2    82  0f8572000000   jnz 202  (0x165865009e6a)
0x165865009df8    88  48b9b92e98cfdd1e0000 REX.W movq rcx,0x1eddcf982eb9    ;; debug: statement 5403
                                                             ;; debug: position 5409
                                                             ;; object: 0x1eddcf982eb9 <String[13]: MakeTypeError>
0x165865009e02    98  488b5627       REX.W movq rdx,[rsi+0x27]
0x165865009e06   102  48b80000000006000000 REX.W movq rax,0x600000000
0x165865009e10   112  e84be7f1ff     call 0x165864f28560     ;; code: contextual, LOAD_IC, DEFAULT
0x165865009e15   117  50             push rax
0x165865009e16   118  49ba894190cfdd1e0000 REX.W movq r10,0x1eddcf904189    ;; object: 0x1eddcf904189 <undefined>
0x165865009e20   128  4152           push r10
0x165865009e22   130  49ba000000000f000000 REX.W movq r10,0xf00000000
0x165865009e2c   140  4152           push r10
0x165865009e2e   142  49baa90a9fcfdd1e0000 REX.W movq r10,0x1eddcf9f0aa9    ;; object: 0x1eddcf9f0aa9 <String[20]: Array.prototype.join>
0x165865009e38   152  4152           push r10
0x165865009e3a   154  48ba0000000004000000 REX.W movq rdx,0x400000000
0x165865009e44   164  488b7c2418     REX.W movq rdi,[rsp+0x18]
0x165865009e49   169  e8b299f0ff     call 0x165864f13800     ;; code: CALL_IC, DEFAULT
0x165865009e4e   174  488b75f8       REX.W movq rsi,[rbp-0x8]
0x165865009e52   178  48890424       REX.W movq [rsp],rax
0x165865009e56   182  b801000000     movl rax,0x1            ;; debug: position 5403
0x165865009e5b   187  48bb9038290100000000 REX.W movq rbx,0x1293890
0x165865009e65   197  e876ecefff     call 0x165864f08ae0     ;; code: STUB, CEntryStub, minor: 0
0x165865009e6a   202  488b4518       REX.W movq rax,[rbp+0x18]    ;; debug: statement 5451
                                                             ;; debug: position 5469
0x165865009e6e   206  e88df9efff     call 0x165864f09800     ;; code: STUB, ToObjectStub, minor: 0
0x165865009e73   211  488945e8       REX.W movq [rbp-0x18],rax    ;; debug: position 5451
0x165865009e77   215  48b9519394cfdd1e0000 REX.W movq rcx,0x1eddcf949351    ;; debug: statement 5477
                                                             ;; debug: position 5484
                                                             ;; object: 0x1eddcf949351 <String[16]: harmony_tolength>
0x165865009e81   225  488b5627       REX.W movq rdx,[rsi+0x27]
0x165865009e85   229  48b80000000008000000 REX.W movq rax,0x800000000
0x165865009e8f   239  e8cce6f1ff     call 0x165864f28560     ;; code: contextual, LOAD_IC, DEFAULT
0x165865009e94   244  e847b7f1ff     call 0x165864f255e0     ;; code: TO_BOOLEAN_IC, UNINITIALIZED (id = 86)
0x165865009e99   249  4885c0         REX.W testq rax,rax
0x165865009e9c   252  0f846c000000   jz 366  (0x165865009f0e)
0x165865009ea2   258  48b9d19294cfdd1e0000 REX.W movq rcx,0x1eddcf9492d1    ;; debug: position 5501
                                                             ;; object: 0x1eddcf9492d1 <String[9]: $toLength>
0x165865009eac   268  488b5627       REX.W movq rdx,[rsi+0x27]
0x165865009eb0   272  48b8000000000c000000 REX.W movq rax,0xc00000000
0x165865009eba   282  e8a1e6f1ff     call 0x165864f28560     ;; code: contextual, LOAD_IC, DEFAULT
0x165865009ebf   287  50             push rax
0x165865009ec0   288  49ba894190cfdd1e0000 REX.W movq r10,0x1eddcf904189    ;; object: 0x1eddcf904189 <undefined>
0x165865009eca   298  4152           push r10
0x165865009ecc   300  488b45e8       REX.W movq rax,[rbp-0x18]    ;; debug: position 5511
0x165865009ed0   304  488bd0         REX.W movq rdx,rax
0x165865009ed3   307  48b9710799cfdd1e0000 REX.W movq rcx,0x1eddcf990771    ;; debug: position 5512
                                                             ;; object: 0x1eddcf990771 <String[6]: length>
0x165865009edd   317  48b8000000000e000000 REX.W movq rax,0xe00000000
0x165865009ee7   327  e87481f2ff     call 0x165864f32060     ;; code: contextual, LOAD_IC, DEFAULT
0x165865009eec   332  50             push rax
0x165865009eed   333  48ba000000000a000000 REX.W movq rdx,0xa00000000    ;; debug: position 5501
0x165865009ef7   343  488b7c2410     REX.W movq rdi,[rsp+0x10]
0x165865009efc   348  e83f80f2ff     call 0x165864f31f40     ;; code: CALL_IC, DEFAULT
0x165865009f01   353  488b75f8       REX.W movq rsi,[rbp-0x8]
0x165865009f05   357  4883c408       REX.W addq rsp,0x8
0x165865009f09   361  e932000000     jmp 416  (0x165865009f40)
0x165865009f0e   366  488b45e8       REX.W movq rax,[rbp-0x18]    ;; debug: position 5522
0x165865009f12   370  488bd0         REX.W movq rdx,rax
0x165865009f15   373  48b9710799cfdd1e0000 REX.W movq rcx,0x1eddcf990771    ;; debug: position 5523
                                                             ;; object: 0x1eddcf990771 <String[6]: length>
0x165865009f1f   383  48b80000000010000000 REX.W movq rax,0x1000000000
0x165865009f29   393  e83281f2ff     call 0x165864f32060     ;; code: contextual, LOAD_IC, DEFAULT
0x165865009f2e   398  50             push rax
0x165865009f2f   399  48b80000000000000000 REX.W movq rax,(nil)
0x165865009f39   409  5a             pop rdx                 ;; debug: position 5530
0x165865009f3a   410  e8412cf0ff     call 0x165864f0cb80     ;; code: BINARY_OP_IC, UNINITIALIZED (id = 108)
0x165865009f3f   415  90             nop
0x165865009f40   416  488945e0       REX.W movq [rbp-0x20],rax    ;; debug: position 5477
0x165865009f44   420  488bc6         REX.W movq rax,rsi      ;; debug: statement 5538
                                                             ;; debug: position 5545
0x165865009f47   423  ffb0ef000000   push [rax+0xef]
0x165865009f4d   429  41ff75a8       push [r13-0x58]
0x165865009f51   433  ff7510         push [rbp+0x10]         ;; debug: position 5560
0x165865009f54   436  ff75e8         push [rbp-0x18]         ;; debug: position 5562
0x165865009f57   439  ff75e0         push [rbp-0x20]         ;; debug: position 5564
0x165865009f5a   442  48ba0000000012000000 REX.W movq rdx,0x1200000000    ;; debug: position 5545
0x165865009f64   452  488b7c2420     REX.W movq rdi,[rsp+0x20]
0x165865009f69   457  e832dcf0ff     call 0x165864f17ba0     ;; code: CALL_IC, DEFAULT
0x165865009f6e   462  488b75f8       REX.W movq rsi,[rbp-0x8]
0x165865009f72   466  4883c408       REX.W addq rsp,0x8
0x165865009f76   470  48bbd16e9fcfdd1e0000 REX.W movq rbx,0x1eddcf9f6ed1    ;; object: 0x1eddcf9f6ed1 Cell for 6144
0x165865009f80   480  83430bd1       addl [rbx+0xb],0xd1
0x165865009f84   484  791f           jns 517  (0x165865009fa5)
0x165865009f86   486  50             push rax
0x165865009f87   487  e8b4c9f2ff     call InterruptCheck  (0x165864f36940)    ;; code: BUILTIN
0x165865009f8c   492  58             pop rax
0x165865009f8d   493  48bbd16e9fcfdd1e0000 REX.W movq rbx,0x1eddcf9f6ed1    ;; object: 0x1eddcf9f6ed1 Cell for 6144
0x165865009f97   503  49ba0000000000180000 REX.W movq r10,0x180000000000
0x165865009fa1   513  4c895307       REX.W movq [rbx+0x7],r10
0x165865009fa5   517  c9             leave                   ;; debug: statement 5568
0x165865009fa6   518  c21000         ret 0x10
0x165865009fa9   521  498b45a8       REX.W movq rax,[r13-0x58]
0x165865009fad   525  e9c4ffffff     jmp 470  (0x165865009f76)
0x165865009fb2   530  660f1f440000   nop

Deoptimization Output Data (deopt points = 60)
ast id        pc  state
     1        12  NO_REGISTERS
     2        12  NO_REGISTERS
     3        12  NO_REGISTERS
    22        26  NO_REGISTERS
    20        30  TOS_REG
    17        32  TOS_REG
    15        57  NO_REGISTERS
    31        57  NO_REGISTERS
    29        61  TOS_REG
    26        63  TOS_REG
    11        88  NO_REGISTERS
    48        88  NO_REGISTERS
    46       118  NO_REGISTERS
    49       142  NO_REGISTERS
    52       154  NO_REGISTERS
    43       174  TOS_REG
    41       182  NO_REGISTERS
    39       202  NO_REGISTERS
    12       202  NO_REGISTERS
    10       202  NO_REGISTERS
    55       202  NO_REGISTERS
    70       202  NO_REGISTERS
    68       206  TOS_REG
    65       211  TOS_REG
    60       215  TOS_REG
    58       215  NO_REGISTERS
    56       215  NO_REGISTERS
    71       215  NO_REGISTERS
    87       215  NO_REGISTERS
    85       244  TOS_REG
    83       258  NO_REGISTERS
    95       258  NO_REGISTERS
    93       288  NO_REGISTERS
   104       300  NO_REGISTERS
   102       304  TOS_REG
    98       332  TOS_REG
    96       333  NO_REGISTERS
    90       353  TOS_REG
    88       361  TOS_REG
    84       366  NO_REGISTERS
   117       366  NO_REGISTERS
   115       370  TOS_REG
   111       398  TOS_REG
   109       399  NO_REGISTERS
   118       409  TOS_REG
   105       416  TOS_REG
    81       416  TOS_REG
    76       420  TOS_REG
    74       420  NO_REGISTERS
    72       420  NO_REGISTERS
   128       420  NO_REGISTERS
   126       429  NO_REGISTERS
   131       433  NO_REGISTERS
   129       436  NO_REGISTERS
   134       436  NO_REGISTERS
   132       439  NO_REGISTERS
   137       439  NO_REGISTERS
   135       442  NO_REGISTERS
   123       462  TOS_REG
   121       470  TOS_REG

Back edges (size = 0)
ast_id  pc_offset  loop_depth

0x1eddcf9f7329: [TypeFeedbackInfo]
 - ic_total_count: 10, ic_with_type_info_count: 0, ic_generic_count: 0

RelocInfo (size = 100)
0x165865009da0  position  (5353)
0x165865009db6  code target (BUILTIN)  (0x165864f36a80)
0x165865009dba  statement position  (5358)
0x165865009dba  position  (5370)
0x165865009dd9  position  (5386)
0x165865009df8  statement position  (5403)
0x165865009df8  position  (5409)
0x165865009dfa  embedded object  (0x1eddcf982eb9 <String[13]: MakeTypeError>)
0x165865009e11  code target (LOAD_IC)  (0x165864f28560)
0x165865009e18  embedded object  (0x1eddcf904189 <undefined>)
0x165865009e30  embedded object  (0x1eddcf9f0aa9 <String[20]: Array.prototype.join>)
0x165865009e4a  code target (CALL_IC)  (0x165864f13800)
0x165865009e56  position  (5403)
0x165865009e66  code target (STUB)  (0x165864f08ae0)
0x165865009e6a  statement position  (5451)
0x165865009e6a  position  (5469)
0x165865009e6f  code target (STUB)  (0x165864f09800)
0x165865009e73  position  (5451)
0x165865009e77  statement position  (5477)
0x165865009e77  position  (5484)
0x165865009e79  embedded object  (0x1eddcf949351 <String[16]: harmony_tolength>)
0x165865009e90  code target (LOAD_IC)  (0x165864f28560)
0x165865009e95  code target with id (TO_BOOLEAN_IC)  (0x165864f255e0) (id=86)
0x165865009ea2  position  (5501)
0x165865009ea4  embedded object  (0x1eddcf9492d1 <String[9]: $toLength>)
0x165865009ebb  code target (LOAD_IC)  (0x165864f28560)
0x165865009ec2  embedded object  (0x1eddcf904189 <undefined>)
0x165865009ecc  position  (5511)
0x165865009ed3  position  (5512)
0x165865009ed5  embedded object  (0x1eddcf990771 <String[6]: length>)
0x165865009ee8  code target (LOAD_IC)  (0x165864f32060)
0x165865009eed  position  (5501)
0x165865009efd  code target (CALL_IC)  (0x165864f31f40)
0x165865009f0e  position  (5522)
0x165865009f15  position  (5523)
0x165865009f17  embedded object  (0x1eddcf990771 <String[6]: length>)
0x165865009f2a  code target (LOAD_IC)  (0x165864f32060)
0x165865009f39  position  (5530)
0x165865009f3b  code target with id (BINARY_OP_IC)  (0x165864f0cb80) (id=108)
0x165865009f40  position  (5477)
0x165865009f44  statement position  (5538)
0x165865009f44  position  (5545)
0x165865009f51  position  (5560)
0x165865009f54  position  (5562)
0x165865009f57  position  (5564)
0x165865009f5a  position  (5545)
0x165865009f6a  code target (CALL_IC)  (0x165864f17ba0)
0x165865009f78  embedded object  (0x1eddcf9f6ed1 Cell for 6144)
0x165865009f88  code target (BUILTIN)  (0x165864f36940)
0x165865009f8f  embedded object  (0x1eddcf9f6ed1 Cell for 6144)
0x165865009fa5  statement position  (5568)

--- End code ---
--- Raw source ---
(){
if(!%_IsDate(this))%_ThrowNotDateError();
return(%_DateField(this,6));
}


--- Optimized code ---
optimization_id = 6
source_position = 7122
kind = OPTIMIZED_FUNCTION
name = getMinutes
stack_slots = 1
compiler = crankshaft
Instructions (size = 167)
0x16586500a020     0  55             push rbp
0x16586500a021     1  4889e5         REX.W movq rbp,rsp
0x16586500a024     4  56             push rsi
0x16586500a025     5  57             push rdi
0x16586500a026     6  4883ec08       REX.W subq rsp,0x8
0x16586500a02a    10  488b45f8       REX.W movq rax,[rbp-0x8]
0x16586500a02e    14  488945e8       REX.W movq [rbp-0x18],rax
0x16586500a032    18  488bf0         REX.W movq rsi,rax
0x16586500a035    21  6690           nop
0x16586500a037    23  493ba548090000 REX.W cmpq rsp,[r13+0x948]
0x16586500a03e    30  7305           jnc 37  (0x16586500a045)
0x16586500a040    32  e83bcaf2ff     call StackCheck  (0x165864f36a80)    ;; code: BUILTIN
0x16586500a045    37  488b5d10       REX.W movq rbx,[rbp+0x10]
0x16586500a049    41  f6c301         testb rbx,0x1
0x16586500a04c    44  0f840f000000   jz 65  (0x16586500a061)
0x16586500a052    50  4c8b53ff       REX.W movq r10,[rbx-0x1]
0x16586500a056    54  41807a0bb6     cmpb [r10+0xb],0xb6
0x16586500a05b    59  0f8405000000   jz 70  (0x16586500a066)
0x16586500a061    65  e8aebfbfff     call 0x165864c06014     ;; deoptimization bailout 2
0x16586500a066    70  488bc3         REX.W movq rax,rbx
0x16586500a069    73  4d8b95005b0200 REX.W movq r10,[r13+0x25b00]
0x16586500a070    80  4c3b5057       REX.W cmpq r10,[rax+0x57]
0x16586500a074    84  7506           jnz 92  (0x16586500a07c)
0x16586500a076    86  488b4047       REX.W movq rax,[rax+0x47]
0x16586500a07a    90  eb29           jmp 133  (0x16586500a0a5)
0x16586500a07c    92  4989e2         REX.W movq r10,rsp
0x16586500a07f    95  4883ec08       REX.W subq rsp,0x8
0x16586500a083    99  4883e4f0       REX.W andq rsp,0xf0
0x16586500a087   103  4c891424       REX.W movq [rsp],r10
0x16586500a08b   107  488bf8         REX.W movq rdi,rax
0x16586500a08e   110  48be0000000006000000 REX.W movq rsi,0x600000000
0x16586500a098   120  498d85b80cfdfd REX.W leaq rax,[r13-0x202f348]
0x16586500a09f   127  ffd0           call rax
0x16586500a0a1   129  488b2424       REX.W movq rsp,[rsp]
0x16586500a0a5   133  488be5         REX.W movq rsp,rbp
0x16586500a0a8   136  5d             pop rbp
0x16586500a0a9   137  c20800         ret 0x8
0x16586500a0ac   140  660f1f440000   nop
0x16586500a0b2   146  6690           nop

Inlined functions (count = 0)

Deoptimization Input Data (deopt points = 4)
 index  ast id    argc     pc
     0       1       0     10
     1       3       0     37
     2       5       0     -1
     3       4       0    133

Safepoints (size = 19)
0x16586500a045    37  1 (sp -> fp)       1

RelocInfo (size = 3)
0x16586500a041  code target (BUILTIN)  (0x165864f36a80)
0x16586500a062  runtime entry  (deoptimization bailout 2)

--- End code ---
--- Raw source ---
(){
if(!V){
V=%DateCacheVersion();
if(!V)return;
}
if(V[0]==W){
return;
}
W=V[0];
k=$NaN;
l=(void 0);
x.time=$NaN;
x.string=null;
}


--- Optimized code ---
optimization_id = 5
source_position = 14316
kind = OPTIMIZED_FUNCTION
name = CheckDateCacheCurrent
stack_slots = 1
compiler = crankshaft
Instructions (size = 620)
0x16586500abe0     0  55             push rbp
0x16586500abe1     1  4889e5         REX.W movq rbp,rsp
0x16586500abe4     4  56             push rsi
0x16586500abe5     5  57             push rdi
0x16586500abe6     6  4883ec08       REX.W subq rsp,0x8
0x16586500abea    10  488b45f8       REX.W movq rax,[rbp-0x8]
0x16586500abee    14  488945e8       REX.W movq [rbp-0x18],rax
0x16586500abf2    18  488bf0         REX.W movq rsi,rax
0x16586500abf5    21  6690           nop
0x16586500abf7    23  493ba548090000 REX.W cmpq rsp,[r13+0x948]
0x16586500abfe    30  7305           jnc 37  (0x16586500ac05)
0x16586500ac00    32  e87bbef2ff     call StackCheck  (0x165864f36a80)    ;; code: BUILTIN
0x16586500ac05    37  488b45e8       REX.W movq rax,[rbp-0x18]
0x16586500ac09    41  488b981f010000 REX.W movq rbx,[rax+0x11f]
0x16586500ac10    48  493b5da8       REX.W cmpq rbx,[r13-0x58]
0x16586500ac14    52  0f8428000000   jz 98  (0x16586500ac42)
0x16586500ac1a    58  f6c301         testb rbx,0x1
0x16586500ac1d    61  0f84d4010000   jz 535  (0x16586500adf7)
0x16586500ac23    67  4c8b53ff       REX.W movq r10,[rbx-0x1]
0x16586500ac27    71  41f6420c10     testb [r10+0xc],0x10
0x16586500ac2c    76  0f8510000000   jnz 98  (0x16586500ac42)
0x16586500ac32    82  41807a0bb2     cmpb [r10+0xb],0xb2
0x16586500ac37    87  0f8396000000   jnc 243  (0x16586500acd3)
0x16586500ac3d    93  e8d2b3bfff     call 0x165864c06014     ;; deoptimization bailout 2
0x16586500ac42    98  488bf0         REX.W movq rsi,rax
0x16586500ac45   101  33c0           xorl rax,rax
0x16586500ac47   103  498d9d98ee36fe REX.W leaq rbx,[r13-0x1c91168]
0x16586500ac4e   110  e88ddeefff     call 0x165864f08ae0     ;; code: STUB, CEntryStub, minor: 0
0x16586500ac53   115  488bd8         REX.W movq rbx,rax
0x16586500ac56   118  488b4de8       REX.W movq rcx,[rbp-0x18]
0x16586500ac5a   122  4889991f010000 REX.W movq [rcx+0x11f],rbx
0x16586500ac61   129  f6c301         testb rbx,0x1
0x16586500ac64   132  0f8429000000   jz 179  (0x16586500ac93)
0x16586500ac6a   138  488d911f010000 REX.W leaq rdx,[rcx+0x11f]
0x16586500ac71   145  4881e30000f0ff REX.W andq rbx,0xfffffffffff00000
0x16586500ac78   152  f6430804       testb [rbx+0x8],0x4
0x16586500ac7c   156  7415           jz 179  (0x16586500ac93)
0x16586500ac7e   158  48c7c30000f0ff REX.W movq rbx,0xfff00000
0x16586500ac85   165  4823d9         REX.W andq rbx,rcx
0x16586500ac88   168  f6430808       testb [rbx+0x8],0x8
0x16586500ac8c   172  7405           jz 179  (0x16586500ac93)
0x16586500ac8e   174  e8adf4ffff     call 0x16586500a140     ;; code: STUB, RecordWriteStub, minor: 8753
0x16586500ac93   179  488b991f010000 REX.W movq rbx,[rcx+0x11f]
0x16586500ac9a   186  f6c301         testb rbx,0x1
0x16586500ac9d   189  0f8459010000   jz 540  (0x16586500adfc)
0x16586500aca3   195  4c8b53ff       REX.W movq r10,[rbx-0x1]
0x16586500aca7   199  41f6420c10     testb [r10+0xc],0x10
0x16586500acac   204  0f8510000000   jnz 226  (0x16586500acc2)
0x16586500acb2   210  41807a0bb2     cmpb [r10+0xb],0xb2
0x16586500acb7   215  0f8319000000   jnc 246  (0x16586500acd6)
0x16586500acbd   221  e866b3bfff     call 0x165864c06028     ;; deoptimization bailout 4
0x16586500acc2   226  48b8894190cfdd1e0000 REX.W movq rax,0x1eddcf904189    ;; object: 0x1eddcf904189 <undefined>
0x16586500accc   236  488be5         REX.W movq rsp,rbp
0x16586500accf   239  5d             pop rbp
0x16586500acd0   240  c20800         ret 0x8
0x16586500acd3   243  488bc8         REX.W movq rcx,rax
0x16586500acd6   246  488b811f010000 REX.W movq rax,[rcx+0x11f]    ;; debug: position 14374
0x16586500acdd   253  a801           test al,0x1
0x16586500acdf   255  0f841c010000   jz 545  (0x16586500ae01)
0x16586500ace5   261  49ba797cd047962b0000 REX.W movq r10,0x2b9647d07c79    ;; object: 0x2b9647d07c79 <Map(FAST_SMI_ELEMENTS)>
0x16586500acef   271  4c3950ff       REX.W cmpq [rax-0x1],r10
0x16586500acf3   275  0f850d010000   jnz 550  (0x16586500ae06)
0x16586500acf9   281  488b580f       REX.W movq rbx,[rax+0xf]
0x16586500acfd   285  8b401b         movl rax,[rax+0x1b]
0x16586500ad00   288  83f800         cmpl rax,0x0
0x16586500ad03   291  0f8602010000   jna 555  (0x16586500ae0b)
0x16586500ad09   297  8b4313         movl rax,[rbx+0x13]
0x16586500ad0c   300  488b9927010000 REX.W movq rbx,[rcx+0x127]
0x16586500ad13   307  0f57c9         xorps xmm1,xmm1
0x16586500ad16   310  f20f2ac8       cvtsi2sd xmm1,rax
0x16586500ad1a   314  f6c301         testb rbx,0x1
0x16586500ad1d   317  7415           jz 340  (0x16586500ad34)
0x16586500ad1f   319  4d8b5508       REX.W movq r10,[r13+0x8]
0x16586500ad23   323  4c3953ff       REX.W cmpq [rbx-0x1],r10
0x16586500ad27   327  f20f105307     movsd xmm2,[rbx+0x7]
0x16586500ad2c   332  0f85de000000   jnz 560  (0x16586500ae10)
0x16586500ad32   338  eb0f           jmp 355  (0x16586500ad43)
0x16586500ad34   340  4c8bd3         REX.W movq r10,rbx
0x16586500ad37   343  49c1ea20       REX.W shrq r10, 32
0x16586500ad3b   347  0f57d2         xorps xmm2,xmm2
0x16586500ad3e   350  f2410f2ad2     cvtsi2sd xmm2,r10
0x16586500ad43   355  660f2eca       ucomisd xmm1,xmm2
0x16586500ad47   359  0f8a06000000   jpe 371  (0x16586500ad53)
0x16586500ad4d   365  0f8493000000   jz 518  (0x16586500ade6)
0x16586500ad53   371  8bd8           movl rbx,rax
0x16586500ad55   373  48c1e320       REX.W shlq rbx, 32
0x16586500ad59   377  48899927010000 REX.W movq [rcx+0x127],rbx
0x16586500ad60   384  49ba000000000000f87f REX.W movq r10,0x7ff8000000000000
0x16586500ad6a   394  66490f6eca     REX.W movq xmm1,r10
0x16586500ad6f   399  48b8d94190cfdd1e0000 REX.W movq rax,0x1eddcf9041d9    ;; object: 0x1eddcf9041d9 <Number: nan>
0x16586500ad79   409  48894157       REX.W movq [rcx+0x57],rax
0x16586500ad7d   413  48b8894190cfdd1e0000 REX.W movq rax,0x1eddcf904189    ;; object: 0x1eddcf904189 <undefined>
0x16586500ad87   423  4889415f       REX.W movq [rcx+0x5f],rax
0x16586500ad8b   427  488b9197000000 REX.W movq rdx,[rcx+0x97]
0x16586500ad92   434  48b8d94190cfdd1e0000 REX.W movq rax,0x1eddcf9041d9    ;; object: 0x1eddcf9041d9 <Number: nan>
0x16586500ad9c   444  488bf1         REX.W movq rsi,rcx
0x16586500ad9f   447  48b971f199cfdd1e0000 REX.W movq rcx,0x1eddcf99f171    ;; object: 0x1eddcf99f171 <String[4]: time>
0x16586500ada9   457  e8d274f2ff     call 0x165864f32280     ;; code: STORE_IC, PREMONOMORPHIC
0x16586500adae   462  488b5de8       REX.W movq rbx,[rbp-0x18]
0x16586500adb2   466  488b9397000000 REX.W movq rdx,[rbx+0x97]
0x16586500adb9   473  48b8014190cfdd1e0000 REX.W movq rax,0x1eddcf904101    ;; object: 0x1eddcf904101 <null>
0x16586500adc3   483  488bf3         REX.W movq rsi,rbx
0x16586500adc6   486  48b9491791cfdd1e0000 REX.W movq rcx,0x1eddcf911749    ;; object: 0x1eddcf911749 <String[6]: string>
0x16586500add0   496  e8ab74f2ff     call 0x165864f32280     ;; code: STORE_IC, PREMONOMORPHIC
0x16586500add5   501  48b8894190cfdd1e0000 REX.W movq rax,0x1eddcf904189    ;; object: 0x1eddcf904189 <undefined>
0x16586500addf   511  488be5         REX.W movq rsp,rbp
0x16586500ade2   514  5d             pop rbp
0x16586500ade3   515  c20800         ret 0x8
0x16586500ade6   518  48b8894190cfdd1e0000 REX.W movq rax,0x1eddcf904189    ;; object: 0x1eddcf904189 <undefined>
0x16586500adf0   528  488be5         REX.W movq rsp,rbp
0x16586500adf3   531  5d             pop rbp
0x16586500adf4   532  c20800         ret 0x8
0x16586500adf7   535  e818b2bfff     call 0x165864c06014     ;; deoptimization bailout 2
0x16586500adfc   540  e827b2bfff     call 0x165864c06028     ;; deoptimization bailout 4
0x16586500ae01   545  e82cb2bfff     call 0x165864c06032     ;; deoptimization bailout 5
0x16586500ae06   550  e831b2bfff     call 0x165864c0603c     ;; deoptimization bailout 6
0x16586500ae0b   555  e836b2bfff     call 0x165864c06046     ;; deoptimization bailout 7
0x16586500ae10   560  e83bb2bfff     call 0x165864c06050     ;; deoptimization bailout 8
0x16586500ae15   565  0f1f00         nop

Inlined functions (count = 0)

Deoptimization Input Data (deopt points = 11)
 index  ast id    argc     pc
     0       1       0     10
     1       3       0     37
     2       3       0     -1
     3      24       0    115
     4      19       0     -1
     5       4       0     -1
     6       4       0     -1
     7       4       0     -1
     8       4       0     -1
     9     104       0    462
    10     120       0    501

Safepoints (size = 52)
0x16586500ac05    37  1 (sp -> fp)       1
0x16586500ac53   115  1 (sp -> fp)       3
0x16586500adae   462  1 (sp -> fp)       9
0x16586500add5   501  1 (sp -> fp)      10

RelocInfo (size = 41)
0x16586500ac01  code target (BUILTIN)  (0x165864f36a80)
0x16586500ac3e  runtime entry  (deoptimization bailout 2)
0x16586500ac4f  code target (STUB)  (0x165864f08ae0)
0x16586500ac8f  code target (STUB)  (0x16586500a140)
0x16586500acbe  runtime entry  (deoptimization bailout 4)
0x16586500acc4  embedded object  (0x1eddcf904189 <undefined>)
0x16586500acd6  position  (14374)
0x16586500ace7  embedded object  (0x2b9647d07c79 <Map(FAST_SMI_ELEMENTS)>)
0x16586500ad71  embedded object  (0x1eddcf9041d9 <Number: nan>)
0x16586500ad7f  embedded object  (0x1eddcf904189 <undefined>)
0x16586500ad94  embedded object  (0x1eddcf9041d9 <Number: nan>)
0x16586500ada1  embedded object  (0x1eddcf99f171 <String[4]: time>)
0x16586500adaa  code target (STORE_IC)  (0x165864f32280)
0x16586500adbb  embedded object  (0x1eddcf904101 <null>)
0x16586500adc8  embedded object  (0x1eddcf911749 <String[6]: string>)
0x16586500add1  code target (STORE_IC)  (0x165864f32280)
0x16586500add7  embedded object  (0x1eddcf904189 <undefined>)
0x16586500ade8  embedded object  (0x1eddcf904189 <undefined>)
0x16586500adf8  runtime entry  (deoptimization bailout 2)
0x16586500adfd  runtime entry  (deoptimization bailout 4)
0x16586500ae02  runtime entry  (deoptimization bailout 5)
0x16586500ae07  runtime entry  (deoptimization bailout 6)
0x16586500ae0c  runtime entry  (deoptimization bailout 7)
0x16586500ae11  runtime entry  (deoptimization bailout 8)

--- End code ---
--- Raw source ---
(){
if(!%_IsDate(this))%_ThrowNotDateError();
return(%_DateField(this,7));
}


--- Optimized code ---
optimization_id = 7
source_position = 7326
kind = OPTIMIZED_FUNCTION
name = getSeconds
stack_slots = 1
compiler = crankshaft
Instructions (size = 167)
0x16586500aec0     0  55             push rbp
0x16586500aec1     1  4889e5         REX.W movq rbp,rsp
0x16586500aec4     4  56             push rsi
0x16586500aec5     5  57             push rdi
0x16586500aec6     6  4883ec08       REX.W subq rsp,0x8
0x16586500aeca    10  488b45f8       REX.W movq rax,[rbp-0x8]
0x16586500aece    14  488945e8       REX.W movq [rbp-0x18],rax
0x16586500aed2    18  488bf0         REX.W movq rsi,rax
0x16586500aed5    21  6690           nop
0x16586500aed7    23  493ba548090000 REX.W cmpq rsp,[r13+0x948]
0x16586500aede    30  7305           jnc 37  (0x16586500aee5)
0x16586500aee0    32  e89bbbf2ff     call StackCheck  (0x165864f36a80)    ;; code: BUILTIN
0x16586500aee5    37  488b5d10       REX.W movq rbx,[rbp+0x10]
0x16586500aee9    41  f6c301         testb rbx,0x1
0x16586500aeec    44  0f840f000000   jz 65  (0x16586500af01)
0x16586500aef2    50  4c8b53ff       REX.W movq r10,[rbx-0x1]
0x16586500aef6    54  41807a0bb6     cmpb [r10+0xb],0xb6
0x16586500aefb    59  0f8405000000   jz 70  (0x16586500af06)
0x16586500af01    65  e80eb1bfff     call 0x165864c06014     ;; deoptimization bailout 2
0x16586500af06    70  488bc3         REX.W movq rax,rbx
0x16586500af09    73  4d8b95005b0200 REX.W movq r10,[r13+0x25b00]
0x16586500af10    80  4c3b5057       REX.W cmpq r10,[rax+0x57]
0x16586500af14    84  7506           jnz 92  (0x16586500af1c)
0x16586500af16    86  488b404f       REX.W movq rax,[rax+0x4f]
0x16586500af1a    90  eb29           jmp 133  (0x16586500af45)
0x16586500af1c    92  4989e2         REX.W movq r10,rsp
0x16586500af1f    95  4883ec08       REX.W subq rsp,0x8
0x16586500af23    99  4883e4f0       REX.W andq rsp,0xf0
0x16586500af27   103  4c891424       REX.W movq [rsp],r10
0x16586500af2b   107  488bf8         REX.W movq rdi,rax
0x16586500af2e   110  48be0000000007000000 REX.W movq rsi,0x700000000
0x16586500af38   120  498d85b80cfdfd REX.W leaq rax,[r13-0x202f348]
0x16586500af3f   127  ffd0           call rax
0x16586500af41   129  488b2424       REX.W movq rsp,[rsp]
0x16586500af45   133  488be5         REX.W movq rsp,rbp
0x16586500af48   136  5d             pop rbp
0x16586500af49   137  c20800         ret 0x8
0x16586500af4c   140  660f1f440000   nop
0x16586500af52   146  6690           nop

Inlined functions (count = 0)

Deoptimization Input Data (deopt points = 4)
 index  ast id    argc     pc
     0       1       0     10
     1       3       0     37
     2       5       0     -1
     3       4       0    133

Safepoints (size = 19)
0x16586500aee5    37  1 (sp -> fp)       1

RelocInfo (size = 3)
0x16586500aee1  code target (BUILTIN)  (0x165864f36a80)
0x16586500af02  runtime entry  (deoptimization bailout 2)

--- End code ---
--- Raw source ---
(D){
if((%IS_VAR(this)===null)||(this===(void 0)))throw MakeTypeError(15,"Array.prototype.join");
var q=(%_ToObject(this));
var w=(harmony_tolength?$toLength(q.length):(q.length>>>0));
return InnerArrayJoin(D,q,w);
}


--- Optimized code ---
optimization_id = 8
source_position = 5353
kind = OPTIMIZED_FUNCTION
name = join
stack_slots = 1
compiler = crankshaft
Instructions (size = 806)
0x16586500afe0     0  55             push rbp
0x16586500afe1     1  4889e5         REX.W movq rbp,rsp
0x16586500afe4     4  56             push rsi
0x16586500afe5     5  57             push rdi
0x16586500afe6     6  4883ec08       REX.W subq rsp,0x8
0x16586500afea    10  488b45f8       REX.W movq rax,[rbp-0x8]
0x16586500afee    14  488945e8       REX.W movq [rbp-0x18],rax
0x16586500aff2    18  488bf0         REX.W movq rsi,rax
0x16586500aff5    21  6690           nop
0x16586500aff7    23  493ba548090000 REX.W cmpq rsp,[r13+0x948]
0x16586500affe    30  7305           jnc 37  (0x16586500b005)
0x16586500b000    32  e87bbaf2ff     call StackCheck  (0x165864f36a80)    ;; code: BUILTIN
0x16586500b005    37  488b4518       REX.W movq rax,[rbp+0x18]    ;; debug: position 5375
0x16586500b009    41  49ba014190cfdd1e0000 REX.W movq r10,0x1eddcf904101    ;; object: 0x1eddcf904101 <null>
0x16586500b013    51  493bc2         REX.W cmpq rax,r10
0x16586500b016    54  0f8426010000   jz 354  (0x16586500b142)
0x16586500b01c    60  49ba894190cfdd1e0000 REX.W movq r10,0x1eddcf904189    ;; debug: position 5390
                                                             ;; object: 0x1eddcf904189 <undefined>
0x16586500b026    70  493bc2         REX.W cmpq rax,r10
0x16586500b029    73  0f8413010000   jz 354  (0x16586500b142)
0x16586500b02f    79  a801           test al,0x1             ;; debug: position 5403
0x16586500b031    81  0f8432000000   jz 137  (0x16586500b069)
0x16586500b037    87  488b58ff       REX.W movq rbx,[rax-0x1]
0x16586500b03b    91  0fb6530b       movzxbl rdx,[rbx+0xb]
0x16586500b03f    95  81fab2000000   cmpl rdx,0xb2
0x16586500b045   101  0f8c0c000000   jl 119  (0x16586500b057)
0x16586500b04b   107  488bd8         REX.W movq rbx,rax
0x16586500b04e   110  488b55e8       REX.W movq rdx,[rbp-0x18]
0x16586500b052   114  e971000000     jmp 232  (0x16586500b0c8)
0x16586500b057   119  0fb65b08       movzxbl rbx,[rbx+0x8]
0x16586500b05b   123  83fb00         cmpl rbx,0x0
0x16586500b05e   126  0f850a000000   jnz 142  (0x16586500b06e)
0x16586500b064   132  e8abafbfff     call 0x165864c06014     ;; deoptimization bailout 2
0x16586500b069   137  bb33000000     movl rbx,0x33
0x16586500b06e   142  488b55e8       REX.W movq rdx,[rbp-0x18]
0x16586500b072   146  488b4a27       REX.W movq rcx,[rdx+0x27]
0x16586500b076   150  488b491f       REX.W movq rcx,[rcx+0x1f]
0x16586500b07a   154  488b5cd90f     REX.W movq rbx,[rcx+rbx*8+0xf]
0x16586500b07f   159  488b5b1f       REX.W movq rbx,[rbx+0x1f]
0x16586500b083   163  498bb5900c0000 REX.W movq rsi,[r13+0xc90]
0x16586500b08a   170  488bce         REX.W movq rcx,rsi
0x16586500b08d   173  4883c120       REX.W addq rcx,0x20
0x16586500b091   177  0f8224010000   jc 475  (0x16586500b1bb)
0x16586500b097   183  493b8d980c0000 REX.W cmpq rcx,[r13+0xc98]
0x16586500b09e   190  0f8717010000   ja 475  (0x16586500b1bb)
0x16586500b0a4   196  49898d900c0000 REX.W movq [r13+0xc90],rcx
0x16586500b0ab   203  48ffc6         REX.W incq rsi
0x16586500b0ae   206  48895eff       REX.W movq [rsi-0x1],rbx
0x16586500b0b2   210  498b9db8000000 REX.W movq rbx,[r13+0xb8]
0x16586500b0b9   217  48895e07       REX.W movq [rsi+0x7],rbx
0x16586500b0bd   221  48895e0f       REX.W movq [rsi+0xf],rbx
0x16586500b0c1   225  48894617       REX.W movq [rsi+0x17],rax
0x16586500b0c5   229  488bde         REX.W movq rbx,rsi
0x16586500b0c8   232  f6c301         testb rbx,0x1           ;; debug: position 5501
0x16586500b0cb   235  0f84d9010000   jz 714  (0x16586500b2aa)
0x16586500b0d1   241  49baa982d047962b0000 REX.W movq r10,0x2b9647d082a9    ;; object: 0x2b9647d082a9 <Map(FAST_HOLEY_ELEMENTS)>
0x16586500b0db   251  4c3953ff       REX.W cmpq [rbx-0x1],r10
0x16586500b0df   255  0f85ca010000   jnz 719  (0x16586500b2af)
0x16586500b0e5   261  8b4b1b         movl rcx,[rbx+0x1b]
0x16586500b0e8   264  81f9ffffff7f   cmpl rcx,0x7fffffff     ;; debug: position 5530
0x16586500b0ee   270  0f872b010000   ja 575  (0x16586500b21f)
0x16586500b0f4   276  48c1e120       REX.W shlq rcx, 32
0x16586500b0f8   280  488bb2ef000000 REX.W movq rsi,[rdx+0xef]    ;; debug: position 5545
0x16586500b0ff   287  49baa19c9ccfdd1e0000 REX.W movq r10,0x1eddcf9c9ca1    ;; object: 0x1eddcf9c9ca1 <JS Function InnerArrayJoin (SharedFunctionInfo 0x1eddcf957d21)>
0x16586500b109   297  493bf2         REX.W cmpq rsi,r10
0x16586500b10c   300  0f85a2010000   jnz 724  (0x16586500b2b4)
0x16586500b112   306  49ba894190cfdd1e0000 REX.W movq r10,0x1eddcf904189    ;; object: 0x1eddcf904189 <undefined>
0x16586500b11c   316  4152           push r10
0x16586500b11e   318  488b7510       REX.W movq rsi,[rbp+0x10]
0x16586500b122   322  56             push rsi
0x16586500b123   323  53             push rbx
0x16586500b124   324  51             push rcx
0x16586500b125   325  48bfa19c9ccfdd1e0000 REX.W movq rdi,0x1eddcf9c9ca1    ;; object: 0x1eddcf9c9ca1 <JS Function InnerArrayJoin (SharedFunctionInfo 0x1eddcf957d21)>
0x16586500b12f   335  b803000000     movl rax,0x3
0x16586500b134   340  488b772f       REX.W movq rsi,[rdi+0x2f]
0x16586500b138   344  ff5717         call [rdi+0x17]
0x16586500b13b   347  488be5         REX.W movq rsp,rbp
0x16586500b13e   350  5d             pop rbp
0x16586500b13f   351  c21000         ret 0x10
0x16586500b142   354  49ba107b9fcfdd1e0000 REX.W movq r10,0x1eddcf9f7b10    ;; debug: position 5409
                                                             ;; property cell
0x16586500b14c   364  4d8b12         REX.W movq r10,[r10]
0x16586500b14f   367  4152           push r10
0x16586500b151   369  49ba000000000f000000 REX.W movq r10,0xf00000000
0x16586500b15b   379  4152           push r10
0x16586500b15d   381  49baa90a9fcfdd1e0000 REX.W movq r10,0x1eddcf9f0aa9    ;; object: 0x1eddcf9f0aa9 <String[20]: Array.prototype.join>
0x16586500b167   391  4152           push r10
0x16586500b169   393  48bff9c79ccfdd1e0000 REX.W movq rdi,0x1eddcf9cc7f9    ;; object: 0x1eddcf9cc7f9 <JS Function MakeTypeError (SharedFunctionInfo 0x1eddcf982e21)>
0x16586500b173   403  488b772f       REX.W movq rsi,[rdi+0x2f]
0x16586500b177   407  48bff9c79ccfdd1e0000 REX.W movq rdi,0x1eddcf9cc7f9    ;; object: 0x1eddcf9cc7f9 <JS Function MakeTypeError (SharedFunctionInfo 0x1eddcf982e21)>
0x16586500b181   417  b802000000     movl rax,0x2
0x16586500b186   422  bb04000000     movl rbx,0x4
0x16586500b18b   427  e8f0e2efff     call ArgumentsAdaptorTrampoline  (0x165864f09480)    ;; code: BUILTIN
0x16586500b190   432  50             push rax                ;; debug: position 5403
0x16586500b191   433  488b75e8       REX.W movq rsi,[rbp-0x18]
0x16586500b195   437  0f1f840000000000 nop
0x16586500b19d   445  b801000000     movl rax,0x1
0x16586500b1a2   450  498d9d485e38fe REX.W leaq rbx,[r13-0x1c7a1b8]
0x16586500b1a9   457  e832d9efff     call 0x165864f08ae0     ;; code: STUB, CEntryStub, minor: 0
0x16586500b1ae   462  6666660f1f840000000000 nop
0x16586500b1b9   473  6690           nop
0x16586500b1bb   475  48be0000000000000000 REX.W movq rsi,(nil)
0x16586500b1c5   485  50             push rax
0x16586500b1c6   486  51             push rcx
0x16586500b1c7   487  52             push rdx
0x16586500b1c8   488  53             push rbx
0x16586500b1c9   489  56             push rsi
0x16586500b1ca   490  57             push rdi
0x16586500b1cb   491  4150           push r8
0x16586500b1cd   493  4151           push r9
0x16586500b1cf   495  4153           push r11
0x16586500b1d1   497  4154           push r12
0x16586500b1d3   499  4156           push r14
0x16586500b1d5   501  4157           push r15
0x16586500b1d7   503  488d6424e0     REX.W leaq rsp,[rsp-0x20]
0x16586500b1dc   508  49ba0000000020000000 REX.W movq r10,0x2000000000
0x16586500b1e6   518  4152           push r10
0x16586500b1e8   520  6a00           push 0x0
0x16586500b1ea   522  488bf2         REX.W movq rsi,rdx
0x16586500b1ed   525  b802000000     movl rax,0x2
0x16586500b1f2   530  498d9d287a38fe REX.W leaq rbx,[r13-0x1c785d8]
0x16586500b1f9   537  e8a2b0efff     call 0x165864f062a0     ;; code: STUB, CEntryStub, minor: 1
0x16586500b1fe   542  4889442458     REX.W movq [rsp+0x58],rax
0x16586500b203   547  488d642420     REX.W leaq rsp,[rsp+0x20]
0x16586500b208   552  415f           pop r15
0x16586500b20a   554  415e           pop r14
0x16586500b20c   556  415c           pop r12
0x16586500b20e   558  415b           pop r11
0x16586500b210   560  4159           pop r9
0x16586500b212   562  4158           pop r8
0x16586500b214   564  5f             pop rdi
0x16586500b215   565  5e             pop rsi
0x16586500b216   566  5b             pop rbx
0x16586500b217   567  5a             pop rdx
0x16586500b218   568  59             pop rcx
0x16586500b219   569  58             pop rax
0x16586500b21a   570  e98ffeffff     jmp 206  (0x16586500b0ae)
0x16586500b21f   575  f2480f2ac9     REX.W cvtsi2sd xmm1,rcx    ;; debug: position 5530
0x16586500b224   580  498b8d900c0000 REX.W movq rcx,[r13+0xc90]
0x16586500b22b   587  488bf1         REX.W movq rsi,rcx
0x16586500b22e   590  4883c610       REX.W addq rsi,0x10
0x16586500b232   594  0f8221000000   jc 633  (0x16586500b259)
0x16586500b238   600  493bb5980c0000 REX.W cmpq rsi,[r13+0xc98]
0x16586500b23f   607  0f8714000000   ja 633  (0x16586500b259)
0x16586500b245   613  4989b5900c0000 REX.W movq [r13+0xc90],rsi
0x16586500b24c   620  48ffc1         REX.W incq rcx
0x16586500b24f   623  4d8b5508       REX.W movq r10,[r13+0x8]
0x16586500b253   627  4c8951ff       REX.W movq [rcx-0x1],r10
0x16586500b257   631  eb47           jmp 704  (0x16586500b2a0)
0x16586500b259   633  33c9           xorl rcx,rcx
0x16586500b25b   635  50             push rax
0x16586500b25c   636  51             push rcx
0x16586500b25d   637  52             push rdx
0x16586500b25e   638  53             push rbx
0x16586500b25f   639  56             push rsi
0x16586500b260   640  57             push rdi
0x16586500b261   641  4150           push r8
0x16586500b263   643  4151           push r9
0x16586500b265   645  4153           push r11
0x16586500b267   647  4154           push r12
0x16586500b269   649  4156           push r14
0x16586500b26b   651  4157           push r15
0x16586500b26d   653  488d6424e0     REX.W leaq rsp,[rsp-0x20]
0x16586500b272   658  488b75f8       REX.W movq rsi,[rbp-0x8]
0x16586500b276   662  33c0           xorl rax,rax
0x16586500b278   664  498d9d88bf08fe REX.W leaq rbx,[r13-0x1f74078]
0x16586500b27f   671  e81cb0efff     call 0x165864f062a0     ;; code: STUB, CEntryStub, minor: 1
0x16586500b284   676  4889442470     REX.W movq [rsp+0x70],rax
0x16586500b289   681  488d642420     REX.W leaq rsp,[rsp+0x20]
0x16586500b28e   686  415f           pop r15
0x16586500b290   688  415e           pop r14
0x16586500b292   690  415c           pop r12
0x16586500b294   692  415b           pop r11
0x16586500b296   694  4159           pop r9
0x16586500b298   696  4158           pop r8
0x16586500b29a   698  5f             pop rdi
0x16586500b29b   699  5e             pop rsi
0x16586500b29c   700  5b             pop rbx
0x16586500b29d   701  5a             pop rdx
0x16586500b29e   702  59             pop rcx
0x16586500b29f   703  58             pop rax
0x16586500b2a0   704  f20f114907     movsd [rcx+0x7],xmm1
0x16586500b2a5   709  e94efeffff     jmp 280  (0x16586500b0f8)
0x16586500b2aa   714  e86fadbfff     call 0x165864c0601e     ;; deoptimization bailout 3
0x16586500b2af   719  e874adbfff     call 0x165864c06028     ;; deoptimization bailout 4
0x16586500b2b4   724  e879adbfff     call 0x165864c06032     ;; deoptimization bailout 5
0x16586500b2b9   729  0f1f00         nop

Inlined functions (count = 0)

Deoptimization Input Data (deopt points = 9)
 index  ast id    argc     pc
     0       1       0     10
     1       3       0     37
     2      12       0     -1
     3      84       0     -1
     4      84       0     -1
     5      81       0     -1
     6     121       0    347
     7      41       0    432
     8      39       0    462

Safepoints (size = 74)
0x16586500b005    37  1 (sp -> fp)       1
0x16586500b13b   347  1 (sp -> fp)       6
0x16586500b190   432  1 (sp -> fp)       7
0x16586500b1ae   462  1 (sp -> fp)       8
0x16586500b1fe   542  1 | rax | rdx | rbx | rsi (sp -> fp)  <none> argc: 2
0x16586500b284   676  1 | rax | rcx | rdx | rbx (sp -> fp)  <none>

RelocInfo (size = 64)
0x16586500b001  code target (BUILTIN)  (0x165864f36a80)
0x16586500b005  position  (5375)
0x16586500b00b  embedded object  (0x1eddcf904101 <null>)
0x16586500b01c  position  (5390)
0x16586500b01e  embedded object  (0x1eddcf904189 <undefined>)
0x16586500b02f  position  (5403)
0x16586500b065  runtime entry  (deoptimization bailout 2)
0x16586500b0c8  position  (5501)
0x16586500b0d3  embedded object  (0x2b9647d082a9 <Map(FAST_HOLEY_ELEMENTS)>)
0x16586500b0e8  position  (5530)
0x16586500b0f8  position  (5545)
0x16586500b101  embedded object  (0x1eddcf9c9ca1 <JS Function InnerArrayJoin (SharedFunctionInfo 0x1eddcf957d21)>)
0x16586500b114  embedded object  (0x1eddcf904189 <undefined>)
0x16586500b127  embedded object  (0x1eddcf9c9ca1 <JS Function InnerArrayJoin (SharedFunctionInfo 0x1eddcf957d21)>)
0x16586500b142  position  (5409)
0x16586500b144  property cell
0x16586500b15f  embedded object  (0x1eddcf9f0aa9 <String[20]: Array.prototype.join>)
0x16586500b16b  embedded object  (0x1eddcf9cc7f9 <JS Function MakeTypeError (SharedFunctionInfo 0x1eddcf982e21)>)
0x16586500b179  embedded object  (0x1eddcf9cc7f9 <JS Function MakeTypeError (SharedFunctionInfo 0x1eddcf982e21)>)
0x16586500b18c  code target (BUILTIN)  (0x165864f09480)
0x16586500b190  position  (5403)
0x16586500b1aa  code target (STUB)  (0x165864f08ae0)
0x16586500b1fa  code target (STUB)  (0x165864f062a0)
0x16586500b21f  position  (5530)
0x16586500b280  code target (STUB)  (0x165864f062a0)
0x16586500b2ab  runtime entry  (deoptimization bailout 3)
0x16586500b2b0  runtime entry  (deoptimization bailout 4)
0x16586500b2b5  runtime entry  (deoptimization bailout 5)

--- End code ---
--- Raw source ---
(){
if(!%_IsDate(this))%_ThrowNotDateError();
return(%_DateField(this,4));
}


--- Code ---
source_position = 6722
kind = FUNCTION
name = getDay
compiler = full-codegen
Instructions (size = 228)
0x16586500b380     0  55             push rbp                ;; debug: position 6722
0x16586500b381     1  4889e5         REX.W movq rbp,rsp
0x16586500b384     4  56             push rsi
0x16586500b385     5  57             push rdi
0x16586500b386     6  493ba548090000 REX.W cmpq rsp,[r13+0x948]
0x16586500b38d    13  7305           jnc 20  (0x16586500b394)
0x16586500b38f    15  e8ecb6f2ff     call StackCheck  (0x165864f36a80)    ;; code: BUILTIN
0x16586500b394    20  488b4510       REX.W movq rax,[rbp+0x10]    ;; debug: statement 6726
                                                             ;; debug: position 6739
0x16586500b398    24  a801           test al,0x1
0x16586500b39a    26  0f841f000000   jz 63  (0x16586500b3bf)
0x16586500b3a0    32  488b58ff       REX.W movq rbx,[rax-0x1]
0x16586500b3a4    36  807b0bb6       cmpb [rbx+0xb],0xb6
0x16586500b3a8    40  eb0f           jmp 57  (0x16586500b3b9)
0x16586500b3aa    42  493b45c0       REX.W cmpq rax,[r13-0x40]
0x16586500b3ae    46  0f841c000000   jz 80  (0x16586500b3d0)
0x16586500b3b4    52  e906000000     jmp 63  (0x16586500b3bf)
0x16586500b3b9    57  0f8411000000   jz 80  (0x16586500b3d0)
0x16586500b3bf    63  33c0           xorl rax,rax            ;; debug: statement 6745
0x16586500b3c1    65  48bb30bc270100000000 REX.W movq rbx,0x127bc30
0x16586500b3cb    75  e810d7efff     call 0x165864f08ae0     ;; code: STUB, CEntryStub, minor: 0
0x16586500b3d0    80  488b4510       REX.W movq rax,[rbp+0x10]    ;; debug: statement 6768
                                                             ;; debug: position 6787
0x16586500b3d4    84  49ba4835f30200000000 REX.W movq r10,0x2f33548
0x16586500b3de    94  498b0a         REX.W movq rcx,[r10]
0x16586500b3e1    97  483b4857       REX.W cmpq rcx,[rax+0x57]
0x16586500b3e5   101  7506           jnz 109  (0x16586500b3ed)
0x16586500b3e7   103  488b4037       REX.W movq rax,[rax+0x37]
0x16586500b3eb   107  eb30           jmp 157  (0x16586500b41d)
0x16586500b3ed   109  4989e2         REX.W movq r10,rsp
0x16586500b3f0   112  4883ec08       REX.W subq rsp,0x8
0x16586500b3f4   116  4883e4f0       REX.W andq rsp,0xf0
0x16586500b3f8   120  4c891424       REX.W movq [rsp],r10
0x16586500b3fc   124  488bf8         REX.W movq rdi,rax
0x16586500b3ff   127  48be0000000004000000 REX.W movq rsi,0x400000000
0x16586500b409   137  48b800e7ed0000000000 REX.W movq rax,0xede700
0x16586500b413   147  ffd0           call rax
0x16586500b415   149  488b2424       REX.W movq rsp,[rsp]
0x16586500b419   153  488b75f8       REX.W movq rsi,[rbp-0x8]
0x16586500b41d   157  48bbb97f9fcfdd1e0000 REX.W movq rbx,0x1eddcf9f7fb9    ;; object: 0x1eddcf9f7fb9 Cell for 6144
0x16586500b427   167  83430bd1       addl [rbx+0xb],0xd1
0x16586500b42b   171  791f           jns 204  (0x16586500b44c)
0x16586500b42d   173  50             push rax
0x16586500b42e   174  e80db5f2ff     call InterruptCheck  (0x165864f36940)    ;; code: BUILTIN
0x16586500b433   179  58             pop rax
0x16586500b434   180  48bbb97f9fcfdd1e0000 REX.W movq rbx,0x1eddcf9f7fb9    ;; object: 0x1eddcf9f7fb9 Cell for 6144
0x16586500b43e   190  49ba0000000000180000 REX.W movq r10,0x180000000000
0x16586500b448   200  4c895307       REX.W movq [rbx+0x7],r10
0x16586500b44c   204  c9             leave                   ;; debug: statement 6797
0x16586500b44d   205  c20800         ret 0x8
0x16586500b450   208  498b45a8       REX.W movq rax,[r13-0x58]
0x16586500b454   212  e9c4ffffff     jmp 157  (0x16586500b41d)
0x16586500b459   217  0f1f8000000000 nop

Deoptimization Output Data (deopt points = 14)
ast id        pc  state
     1         6  NO_REGISTERS
     2         6  NO_REGISTERS
     3         6  NO_REGISTERS
    16        20  NO_REGISTERS
    14        24  TOS_REG
    11        42  TOS_REG
     5        63  NO_REGISTERS
    19        63  NO_REGISTERS
    17        80  NO_REGISTERS
     6        80  NO_REGISTERS
     4        80  NO_REGISTERS
    25        80  NO_REGISTERS
    23        84  TOS_REG
    20       157  TOS_REG

Back edges (size = 0)
ast_id  pc_offset  loop_depth

0x1eddcf9f80e9: [TypeFeedbackInfo]
 - ic_total_count: 0, ic_with_type_info_count: 0, ic_generic_count: 0

RelocInfo (size = 25)
0x16586500b380  position  (6722)
0x16586500b390  code target (BUILTIN)  (0x165864f36a80)
0x16586500b394  statement position  (6726)
0x16586500b394  position  (6739)
0x16586500b3bf  statement position  (6745)
0x16586500b3cc  code target (STUB)  (0x165864f08ae0)
0x16586500b3d0  statement position  (6768)
0x16586500b3d0  position  (6787)
0x16586500b41f  embedded object  (0x1eddcf9f7fb9 Cell for 6144)
0x16586500b42f  code target (BUILTIN)  (0x165864f36940)
0x16586500b436  embedded object  (0x1eddcf9f7fb9 Cell for 6144)
0x16586500b44c  statement position  (6797)

--- End code ---
--- Raw source ---
(){
if(!%_IsDate(this))%_ThrowNotDateError();
return(%_DateField(this,0));
}


--- Code ---
source_position = 6022
kind = FUNCTION
name = getTime
compiler = full-codegen
Instructions (size = 156)
0x16586500b4e0     0  55             push rbp                ;; debug: position 6022
0x16586500b4e1     1  4889e5         REX.W movq rbp,rsp
0x16586500b4e4     4  56             push rsi
0x16586500b4e5     5  57             push rdi
0x16586500b4e6     6  493ba548090000 REX.W cmpq rsp,[r13+0x948]
0x16586500b4ed    13  7305           jnc 20  (0x16586500b4f4)
0x16586500b4ef    15  e88cb5f2ff     call StackCheck  (0x165864f36a80)    ;; code: BUILTIN
0x16586500b4f4    20  488b4510       REX.W movq rax,[rbp+0x10]    ;; debug: statement 6026
                                                             ;; debug: position 6039
0x16586500b4f8    24  a801           test al,0x1
0x16586500b4fa    26  0f841f000000   jz 63  (0x16586500b51f)
0x16586500b500    32  488b58ff       REX.W movq rbx,[rax-0x1]
0x16586500b504    36  807b0bb6       cmpb [rbx+0xb],0xb6
0x16586500b508    40  eb0f           jmp 57  (0x16586500b519)
0x16586500b50a    42  493b45c0       REX.W cmpq rax,[r13-0x40]
0x16586500b50e    46  0f841c000000   jz 80  (0x16586500b530)
0x16586500b514    52  e906000000     jmp 63  (0x16586500b51f)
0x16586500b519    57  0f8411000000   jz 80  (0x16586500b530)
0x16586500b51f    63  33c0           xorl rax,rax            ;; debug: statement 6045
0x16586500b521    65  48bb30bc270100000000 REX.W movq rbx,0x127bc30
0x16586500b52b    75  e8b0d5efff     call 0x165864f08ae0     ;; code: STUB, CEntryStub, minor: 0
0x16586500b530    80  488b4510       REX.W movq rax,[rbp+0x10]    ;; debug: statement 6068
                                                             ;; debug: position 6087
0x16586500b534    84  488b4017       REX.W movq rax,[rax+0x17]
0x16586500b538    88  48bb09819fcfdd1e0000 REX.W movq rbx,0x1eddcf9f8109    ;; object: 0x1eddcf9f8109 Cell for 6144
0x16586500b542    98  83430bd1       addl [rbx+0xb],0xd1
0x16586500b546   102  791f           jns 135  (0x16586500b567)
0x16586500b548   104  50             push rax
0x16586500b549   105  e8f2b3f2ff     call InterruptCheck  (0x165864f36940)    ;; code: BUILTIN
0x16586500b54e   110  58             pop rax
0x16586500b54f   111  48bb09819fcfdd1e0000 REX.W movq rbx,0x1eddcf9f8109    ;; object: 0x1eddcf9f8109 Cell for 6144
0x16586500b559   121  49ba0000000000180000 REX.W movq r10,0x180000000000
0x16586500b563   131  4c895307       REX.W movq [rbx+0x7],r10
0x16586500b567   135  c9             leave                   ;; debug: statement 6097
0x16586500b568   136  c20800         ret 0x8
0x16586500b56b   139  498b45a8       REX.W movq rax,[r13-0x58]
0x16586500b56f   143  e9c4ffffff     jmp 88  (0x16586500b538)
0x16586500b574   148  0f1f4000       nop

Deoptimization Output Data (deopt points = 14)
ast id        pc  state
     1         6  NO_REGISTERS
     2         6  NO_REGISTERS
     3         6  NO_REGISTERS
    16        20  NO_REGISTERS
    14        24  TOS_REG
    11        42  TOS_REG
     5        63  NO_REGISTERS
    19        63  NO_REGISTERS
    17        80  NO_REGISTERS
     6        80  NO_REGISTERS
     4        80  NO_REGISTERS
    25        80  NO_REGISTERS
    23        84  TOS_REG
    20        88  TOS_REG

Back edges (size = 0)
ast_id  pc_offset  loop_depth

0x1eddcf9f8231: [TypeFeedbackInfo]
 - ic_total_count: 0, ic_with_type_info_count: 0, ic_generic_count: 0

RelocInfo (size = 23)
0x16586500b4e0  position  (6022)
0x16586500b4f0  code target (BUILTIN)  (0x165864f36a80)
0x16586500b4f4  statement position  (6026)
0x16586500b4f4  position  (6039)
0x16586500b51f  statement position  (6045)
0x16586500b52c  code target (STUB)  (0x165864f08ae0)
0x16586500b530  statement position  (6068)
0x16586500b530  position  (6087)
0x16586500b53a  embedded object  (0x1eddcf9f8109 Cell for 6144)
0x16586500b54a  code target (BUILTIN)  (0x165864f36940)
0x16586500b551  embedded object  (0x1eddcf9f8109 Cell for 6144)
0x16586500b567  statement position  (6097)

--- End code ---
--- Raw source ---
(){
if(!%_IsDate(this))%_ThrowNotDateError();
return(%_DateField(this,4));
}


--- Optimized code ---
optimization_id = 9
source_position = 6722
kind = OPTIMIZED_FUNCTION
name = getDay
stack_slots = 1
compiler = crankshaft
Instructions (size = 167)
0x16586500b5e0     0  55             push rbp
0x16586500b5e1     1  4889e5         REX.W movq rbp,rsp
0x16586500b5e4     4  56             push rsi
0x16586500b5e5     5  57             push rdi
0x16586500b5e6     6  4883ec08       REX.W subq rsp,0x8
0x16586500b5ea    10  488b45f8       REX.W movq rax,[rbp-0x8]
0x16586500b5ee    14  488945e8       REX.W movq [rbp-0x18],rax
0x16586500b5f2    18  488bf0         REX.W movq rsi,rax
0x16586500b5f5    21  6690           nop
0x16586500b5f7    23  493ba548090000 REX.W cmpq rsp,[r13+0x948]
0x16586500b5fe    30  7305           jnc 37  (0x16586500b605)
0x16586500b600    32  e87bb4f2ff     call StackCheck  (0x165864f36a80)    ;; code: BUILTIN
0x16586500b605    37  488b5d10       REX.W movq rbx,[rbp+0x10]
0x16586500b609    41  f6c301         testb rbx,0x1
0x16586500b60c    44  0f840f000000   jz 65  (0x16586500b621)
0x16586500b612    50  4c8b53ff       REX.W movq r10,[rbx-0x1]
0x16586500b616    54  41807a0bb6     cmpb [r10+0xb],0xb6
0x16586500b61b    59  0f8405000000   jz 70  (0x16586500b626)
0x16586500b621    65  e8eea9bfff     call 0x165864c06014     ;; deoptimization bailout 2
0x16586500b626    70  488bc3         REX.W movq rax,rbx
0x16586500b629    73  4d8b95005b0200 REX.W movq r10,[r13+0x25b00]
0x16586500b630    80  4c3b5057       REX.W cmpq r10,[rax+0x57]
0x16586500b634    84  7506           jnz 92  (0x16586500b63c)
0x16586500b636    86  488b4037       REX.W movq rax,[rax+0x37]
0x16586500b63a    90  eb29           jmp 133  (0x16586500b665)
0x16586500b63c    92  4989e2         REX.W movq r10,rsp
0x16586500b63f    95  4883ec08       REX.W subq rsp,0x8
0x16586500b643    99  4883e4f0       REX.W andq rsp,0xf0
0x16586500b647   103  4c891424       REX.W movq [rsp],r10
0x16586500b64b   107  488bf8         REX.W movq rdi,rax
0x16586500b64e   110  48be0000000004000000 REX.W movq rsi,0x400000000
0x16586500b658   120  498d85b80cfdfd REX.W leaq rax,[r13-0x202f348]
0x16586500b65f   127  ffd0           call rax
0x16586500b661   129  488b2424       REX.W movq rsp,[rsp]
0x16586500b665   133  488be5         REX.W movq rsp,rbp
0x16586500b668   136  5d             pop rbp
0x16586500b669   137  c20800         ret 0x8
0x16586500b66c   140  660f1f440000   nop
0x16586500b672   146  6690           nop

Inlined functions (count = 0)

Deoptimization Input Data (deopt points = 4)
 index  ast id    argc     pc
     0       1       0     10
     1       3       0     37
     2       5       0     -1
     3       4       0    133

Safepoints (size = 19)
0x16586500b605    37  1 (sp -> fp)       1

RelocInfo (size = 3)
0x16586500b601  code target (BUILTIN)  (0x165864f36a80)
0x16586500b622  runtime entry  (deoptimization bailout 2)

--- End code ---
--- Raw source ---
(s){
if(!%_IsDate(this))%_ThrowNotDateError();
(%DateSetValue(this,i(s),1));
return(%_DateField(this,0));
}


--- Code ---
source_position = 7848
kind = FUNCTION
name = setTime
compiler = full-codegen
Instructions (size = 228)
0x16586500b700     0  55             push rbp                ;; debug: position 7848
0x16586500b701     1  4889e5         REX.W movq rbp,rsp
0x16586500b704     4  56             push rsi
0x16586500b705     5  57             push rdi
0x16586500b706     6  493ba548090000 REX.W cmpq rsp,[r13+0x948]
0x16586500b70d    13  7305           jnc 20  (0x16586500b714)
0x16586500b70f    15  e86cb3f2ff     call StackCheck  (0x165864f36a80)    ;; code: BUILTIN
0x16586500b714    20  488b4518       REX.W movq rax,[rbp+0x18]    ;; debug: statement 7853
                                                             ;; debug: position 7866
0x16586500b718    24  a801           test al,0x1
0x16586500b71a    26  0f841f000000   jz 63  (0x16586500b73f)
0x16586500b720    32  488b58ff       REX.W movq rbx,[rax-0x1]
0x16586500b724    36  807b0bb6       cmpb [rbx+0xb],0xb6
0x16586500b728    40  eb0f           jmp 57  (0x16586500b739)
0x16586500b72a    42  493b45c0       REX.W cmpq rax,[r13-0x40]
0x16586500b72e    46  0f841c000000   jz 80  (0x16586500b750)
0x16586500b734    52  e906000000     jmp 63  (0x16586500b73f)
0x16586500b739    57  0f8411000000   jz 80  (0x16586500b750)
0x16586500b73f    63  33c0           xorl rax,rax            ;; debug: statement 7872
0x16586500b741    65  48bb30bc270100000000 REX.W movq rbx,0x127bc30
0x16586500b74b    75  e890d3efff     call 0x165864f08ae0     ;; code: STUB, CEntryStub, minor: 0
0x16586500b750    80  ff7518         push [rbp+0x18]         ;; debug: statement 7895
                                                             ;; debug: position 7910
0x16586500b753    83  488bc6         REX.W movq rax,rsi      ;; debug: position 7915
0x16586500b756    86  ff704f         push [rax+0x4f]
0x16586500b759    89  41ff75a8       push [r13-0x58]
0x16586500b75d    93  ff7510         push [rbp+0x10]         ;; debug: position 7917
0x16586500b760    96  48ba0000000004000000 REX.W movq rdx,0x400000000    ;; debug: position 7915
0x16586500b76a   106  488b7c2410     REX.W movq rdi,[rsp+0x10]
0x16586500b76f   111  e8cc67f2ff     call 0x165864f31f40     ;; code: CALL_IC, DEFAULT
0x16586500b774   116  488b75f8       REX.W movq rsi,[rbp-0x8]
0x16586500b778   120  48890424       REX.W movq [rsp],rax
0x16586500b77c   124  49ba0000000001000000 REX.W movq r10,0x100000000
0x16586500b786   134  4152           push r10
0x16586500b788   136  b803000000     movl rax,0x3
0x16586500b78d   141  48bb70b6270100000000 REX.W movq rbx,0x127b670
0x16586500b797   151  e844d3efff     call 0x165864f08ae0     ;; code: STUB, CEntryStub, minor: 0
0x16586500b79c   156  488b4518       REX.W movq rax,[rbp+0x18]    ;; debug: statement 7925
                                                             ;; debug: position 7944
0x16586500b7a0   160  488b4017       REX.W movq rax,[rax+0x17]
0x16586500b7a4   164  48bbd9839fcfdd1e0000 REX.W movq rbx,0x1eddcf9f83d9    ;; object: 0x1eddcf9f83d9 Cell for 6144
0x16586500b7ae   174  83430bd1       addl [rbx+0xb],0xd1
0x16586500b7b2   178  791f           jns 211  (0x16586500b7d3)
0x16586500b7b4   180  50             push rax
0x16586500b7b5   181  e886b1f2ff     call InterruptCheck  (0x165864f36940)    ;; code: BUILTIN
0x16586500b7ba   186  58             pop rax
0x16586500b7bb   187  48bbd9839fcfdd1e0000 REX.W movq rbx,0x1eddcf9f83d9    ;; object: 0x1eddcf9f83d9 Cell for 6144
0x16586500b7c5   197  49ba0000000000180000 REX.W movq r10,0x180000000000
0x16586500b7cf   207  4c895307       REX.W movq [rbx+0x7],r10
0x16586500b7d3   211  c9             leave                   ;; debug: statement 7954
0x16586500b7d4   212  c21000         ret 0x10
0x16586500b7d7   215  498b45a8       REX.W movq rax,[r13-0x58]
0x16586500b7db   219  e9c4ffffff     jmp 164  (0x16586500b7a4)

Deoptimization Output Data (deopt points = 25)
ast id        pc  state
     1         6  NO_REGISTERS
     2         6  NO_REGISTERS
     3         6  NO_REGISTERS
    16        20  NO_REGISTERS
    14        24  TOS_REG
    11        42  TOS_REG
     5        63  NO_REGISTERS
    19        63  NO_REGISTERS
    17        80  NO_REGISTERS
     6        80  NO_REGISTERS
     4        80  NO_REGISTERS
    25        80  NO_REGISTERS
    23        83  NO_REGISTERS
    33        83  NO_REGISTERS
    31        89  NO_REGISTERS
    36        93  NO_REGISTERS
    34        96  NO_REGISTERS
    28       116  TOS_REG
    26       124  NO_REGISTERS
    37       136  NO_REGISTERS
    22       136  NO_REGISTERS
    20       156  NO_REGISTERS
    45       156  NO_REGISTERS
    43       160  TOS_REG
    40       164  TOS_REG

Back edges (size = 0)
ast_id  pc_offset  loop_depth

0x1eddcf9f85c1: [TypeFeedbackInfo]
 - ic_total_count: 1, ic_with_type_info_count: 0, ic_generic_count: 0

RelocInfo (size = 35)
0x16586500b700  position  (7848)
0x16586500b710  code target (BUILTIN)  (0x165864f36a80)
0x16586500b714  statement position  (7853)
0x16586500b714  position  (7866)
0x16586500b73f  statement position  (7872)
0x16586500b74c  code target (STUB)  (0x165864f08ae0)
0x16586500b750  statement position  (7895)
0x16586500b750  position  (7910)
0x16586500b753  position  (7915)
0x16586500b75d  position  (7917)
0x16586500b760  position  (7915)
0x16586500b770  code target (CALL_IC)  (0x165864f31f40)
0x16586500b798  code target (STUB)  (0x165864f08ae0)
0x16586500b79c  statement position  (7925)
0x16586500b79c  position  (7944)
0x16586500b7a6  embedded object  (0x1eddcf9f83d9 Cell for 6144)
0x16586500b7b6  code target (BUILTIN)  (0x165864f36940)
0x16586500b7bd  embedded object  (0x1eddcf9f83d9 Cell for 6144)
0x16586500b7d3  statement position  (7954)

--- End code ---
--- Raw source ---
(){
if(!%_IsDate(this))%_ThrowNotDateError();
return(%_DateField(this,0));
}


--- Optimized code ---
optimization_id = 10
source_position = 6022
kind = OPTIMIZED_FUNCTION
name = getTime
stack_slots = 1
compiler = crankshaft
Instructions (size = 111)
0x16586500b860     0  55             push rbp
0x16586500b861     1  4889e5         REX.W movq rbp,rsp
0x16586500b864     4  56             push rsi
0x16586500b865     5  57             push rdi
0x16586500b866     6  4883ec08       REX.W subq rsp,0x8
0x16586500b86a    10  488b45f8       REX.W movq rax,[rbp-0x8]
0x16586500b86e    14  488945e8       REX.W movq [rbp-0x18],rax
0x16586500b872    18  488bf0         REX.W movq rsi,rax
0x16586500b875    21  6690           nop
0x16586500b877    23  493ba548090000 REX.W cmpq rsp,[r13+0x948]
0x16586500b87e    30  7305           jnc 37  (0x16586500b885)
0x16586500b880    32  e8fbb1f2ff     call StackCheck  (0x165864f36a80)    ;; code: BUILTIN
0x16586500b885    37  488b5d10       REX.W movq rbx,[rbp+0x10]
0x16586500b889    41  f6c301         testb rbx,0x1
0x16586500b88c    44  0f840f000000   jz 65  (0x16586500b8a1)
0x16586500b892    50  4c8b53ff       REX.W movq r10,[rbx-0x1]
0x16586500b896    54  41807a0bb6     cmpb [r10+0xb],0xb6
0x16586500b89b    59  0f8405000000   jz 70  (0x16586500b8a6)
0x16586500b8a1    65  e86ea7bfff     call 0x165864c06014     ;; deoptimization bailout 2
0x16586500b8a6    70  488bc3         REX.W movq rax,rbx
0x16586500b8a9    73  488b4017       REX.W movq rax,[rax+0x17]
0x16586500b8ad    77  488be5         REX.W movq rsp,rbp
0x16586500b8b0    80  5d             pop rbp
0x16586500b8b1    81  c20800         ret 0x8
0x16586500b8b4    84  660f1f440000   nop
0x16586500b8ba    90  6690           nop

Inlined functions (count = 0)

Deoptimization Input Data (deopt points = 4)
 index  ast id    argc     pc
     0       1       0     10
     1       3       0     37
     2       5       0     -1
     3       4       0     77

Safepoints (size = 19)
0x16586500b885    37  1 (sp -> fp)       1

RelocInfo (size = 3)
0x16586500b881  code target (BUILTIN)  (0x165864f36a80)
0x16586500b8a2  runtime entry  (deoptimization bailout 2)

--- End code ---
--- Raw source ---
(s){
if(!%_IsDate(this))%_ThrowNotDateError();
(%DateSetValue(this,i(s),1));
return(%_DateField(this,0));
}


--- Optimized code ---
optimization_id = 11
source_position = 7848
kind = OPTIMIZED_FUNCTION
name = setTime
stack_slots = 1
compiler = crankshaft
Instructions (size = 253)
0x16586500b940     0  55             push rbp
0x16586500b941     1  4889e5         REX.W movq rbp,rsp
0x16586500b944     4  56             push rsi
0x16586500b945     5  57             push rdi
0x16586500b946     6  4883ec08       REX.W subq rsp,0x8
0x16586500b94a    10  488b45f8       REX.W movq rax,[rbp-0x8]
0x16586500b94e    14  488945e8       REX.W movq [rbp-0x18],rax
0x16586500b952    18  488bf0         REX.W movq rsi,rax
0x16586500b955    21  6690           nop
0x16586500b957    23  493ba548090000 REX.W cmpq rsp,[r13+0x948]
0x16586500b95e    30  7305           jnc 37  (0x16586500b965)
0x16586500b960    32  e81bb1f2ff     call StackCheck  (0x165864f36a80)    ;; code: BUILTIN
0x16586500b965    37  488b4518       REX.W movq rax,[rbp+0x18]
0x16586500b969    41  a801           test al,0x1
0x16586500b96b    43  0f840f000000   jz 64  (0x16586500b980)
0x16586500b971    49  4c8b50ff       REX.W movq r10,[rax-0x1]
0x16586500b975    53  41807a0bb6     cmpb [r10+0xb],0xb6
0x16586500b97a    58  0f8405000000   jz 69  (0x16586500b985)
0x16586500b980    64  e88fa6bfff     call 0x165864c06014     ;; deoptimization bailout 2
0x16586500b985    69  488b5de8       REX.W movq rbx,[rbp-0x18]    ;; debug: position 7915
0x16586500b989    73  488b534f       REX.W movq rdx,[rbx+0x4f]
0x16586500b98d    77  49ba71759ccfdd1e0000 REX.W movq r10,0x1eddcf9c7571    ;; object: 0x1eddcf9c7571 <JS Function ToNumber (SharedFunctionInfo 0x1eddcf94bc89)>
0x16586500b997    87  493bd2         REX.W cmpq rdx,r10
0x16586500b99a    90  0f856d000000   jnz 205  (0x16586500ba0d)
0x16586500b9a0    96  49ba70879fcfdd1e0000 REX.W movq r10,0x1eddcf9f8770    ;; property cell
0x16586500b9aa   106  4d8b12         REX.W movq r10,[r10]
0x16586500b9ad   109  4152           push r10
0x16586500b9af   111  488b5510       REX.W movq rdx,[rbp+0x10]
0x16586500b9b3   115  52             push rdx
0x16586500b9b4   116  48bf71759ccfdd1e0000 REX.W movq rdi,0x1eddcf9c7571    ;; object: 0x1eddcf9c7571 <JS Function ToNumber (SharedFunctionInfo 0x1eddcf94bc89)>
0x16586500b9be   126  b801000000     movl rax,0x1
0x16586500b9c3   131  488b772f       REX.W movq rsi,[rdi+0x2f]
0x16586500b9c7   135  ff5717         call [rdi+0x17]
0x16586500b9ca   138  ff7518         push [rbp+0x18]
0x16586500b9cd   141  50             push rax
0x16586500b9ce   142  49ba0000000001000000 REX.W movq r10,0x100000000
0x16586500b9d8   152  4152           push r10
0x16586500b9da   154  488b75e8       REX.W movq rsi,[rbp-0x18]
0x16586500b9de   158  b803000000     movl rax,0x3
0x16586500b9e3   163  498d9d28dc36fe REX.W leaq rbx,[r13-0x1c923d8]
0x16586500b9ea   170  e8f1d0efff     call 0x165864f08ae0     ;; code: STUB, CEntryStub, minor: 0
0x16586500b9ef   175  488b4518       REX.W movq rax,[rbp+0x18]
0x16586500b9f3   179  660f1f840000000000 nop
0x16586500b9fc   188  488b4017       REX.W movq rax,[rax+0x17]
0x16586500ba00   192  488be5         REX.W movq rsp,rbp
0x16586500ba03   195  5d             pop rbp
0x16586500ba04   196  c21000         ret 0x10
0x16586500ba07   199  660f1f440000   nop
0x16586500ba0d   205  e80ca6bfff     call 0x165864c0601e     ;; deoptimization bailout 3
0x16586500ba12   210  6690           nop

Inlined functions (count = 0)

Deoptimization Input Data (deopt points = 7)
 index  ast id    argc     pc
     0       1       0     10
     1       3       0     37
     2       5       0     -1
     3       4       0     -1
     4      26       0    138
     5      20       0    175
     6      20       0    192

Safepoints (size = 41)
0x16586500b965    37  1 (sp -> fp)       1
0x16586500b9ca   138  1 (sp -> fp)       4
0x16586500b9ef   175  1 (sp -> fp)       5

RelocInfo (size = 16)
0x16586500b961  code target (BUILTIN)  (0x165864f36a80)
0x16586500b981  runtime entry  (deoptimization bailout 2)
0x16586500b985  position  (7915)
0x16586500b98f  embedded object  (0x1eddcf9c7571 <JS Function ToNumber (SharedFunctionInfo 0x1eddcf94bc89)>)
0x16586500b9a2  property cell
0x16586500b9b6  embedded object  (0x1eddcf9c7571 <JS Function ToNumber (SharedFunctionInfo 0x1eddcf94bc89)>)
0x16586500b9eb  code target (STUB)  (0x165864f08ae0)
0x16586500ba0e  runtime entry  (deoptimization bailout 3)

--- End code ---
--- Raw source ---
(t,u,v,y,z,A,s){
if(!%_IsConstructCall()){
return %_CallFunction(new c(),DateToString);
}
var B=%_ArgumentsLength();
var C;
if(B==0){
C=%DateCurrentTime();
(%DateSetValue(this,C,1));
}else if(B==1){
if((typeof(t)==='number')){
C=t;
}else if((typeof(t)==='string')){
CheckDateCacheCurrent();
var D=x;
if(D.string===t){
C=D.time;
}else{
C=DateParse(t);
if(!(!%_IsSmi(%IS_VAR(C))&&!(C==C))){
D.time=C;
D.string=t;
}
}
}else if((%_IsDate(t))){
C=(%_DateField(t,0));
}else{
var o=(%_ToPrimitive(t));
C=(typeof(o)==='string')?DateParse(o):i(o);
}
(%DateSetValue(this,C,1));
}else{
t=i(t);
u=i(u);
v=B>2?i(v):1;
y=B>3?i(y):0;
z=B>4?i(z):0;
A=B>5?i(A):0;
s=B>6?i(s):0;
t=(!(!%_IsSmi(%IS_VAR(t))&&!(t==t))&&
0<=(%_IsSmi(%IS_VAR(t))?t:%NumberToInteger(i(t)))&&
(%_IsSmi(%IS_VAR(t))?t:%NumberToInteger(i(t)))<=99)?1900+(%_IsSmi(%IS_VAR(t))?t:%NumberToInteger(i(t))):t;
var w=MakeDay(t,u,v);
var o=MakeTime(y,z,A,s);
C=MakeDate(w,o);
(%DateSetValue(this,C,0));
}
}


--- Code ---
source_position = 1541
kind = FUNCTION
name = Date
compiler = full-codegen
Instructions (size = 2500)
0x16586500baa0     0  55             push rbp                ;; debug: position 1541
0x16586500baa1     1  4889e5         REX.W movq rbp,rsp
0x16586500baa4     4  56             push rsi
0x16586500baa5     5  57             push rdi
0x16586500baa6     6  498b55a8       REX.W movq rdx,[r13-0x58]
0x16586500baaa    10  52             push rdx
0x16586500baab    11  52             push rdx
0x16586500baac    12  52             push rdx
0x16586500baad    13  52             push rdx
0x16586500baae    14  52             push rdx
0x16586500baaf    15  493ba548090000 REX.W cmpq rsp,[r13+0x948]
0x16586500bab6    22  7305           jnc 29  (0x16586500babd)
0x16586500bab8    24  e8c3aff2ff     call StackCheck  (0x165864f36a80)    ;; code: BUILTIN
0x16586500babd    29  488b4500       REX.W movq rax,[rbp+0x0]    ;; debug: statement 1558
0x16586500bac1    33  49ba000000000a000000 REX.W movq r10,0xa00000000
0x16586500bacb    43  4c3950f8       REX.W cmpq [rax-0x8],r10
0x16586500bacf    47  0f8503000000   jnz 56  (0x16586500bad8)
0x16586500bad5    53  488b00         REX.W movq rax,[rax]
0x16586500bad8    56  49ba0000000009000000 REX.W movq r10,0x900000000
0x16586500bae2    66  4c3950f0       REX.W cmpq [rax-0x10],r10
0x16586500bae6    70  eb0f           jmp 87  (0x16586500baf7)
0x16586500bae8    72  493b45c0       REX.W cmpq rax,[r13-0x40]
0x16586500baec    76  0f84cc000000   jz 286  (0x16586500bbbe)
0x16586500baf2    82  e906000000     jmp 93  (0x16586500bafd)
0x16586500baf7    87  0f84c1000000   jz 286  (0x16586500bbbe)
0x16586500bafd    93  488bc6         REX.W movq rax,rsi      ;; debug: statement 1584
                                                             ;; debug: position 1610
0x16586500bb00    96  ff702f         push [rax+0x2f]
0x16586500bb03    99  33c0           xorl rax,rax            ;; debug: position 1606
0x16586500bb05   101  488b3c24       REX.W movq rdi,[rsp]
0x16586500bb09   105  488b5df0       REX.W movq rbx,[rbp-0x10]
0x16586500bb0d   109  488b5b27       REX.W movq rbx,[rbx+0x27]
0x16586500bb11   113  488b5b57       REX.W movq rbx,[rbx+0x57]
0x16586500bb15   117  48ba0000000005000000 REX.W movq rdx,0x500000000
0x16586500bb1f   127  e81cebf0ff     call 0x165864f1a640     ;; code: constructor, STUB, CallConstructStub, minor: 1
0x16586500bb24   132  488b75f8       REX.W movq rsi,[rbp-0x8]
0x16586500bb28   136  50             push rax
0x16586500bb29   137  488bc6         REX.W movq rax,rsi      ;; debug: position 1614
0x16586500bb2c   140  488b8007010000 REX.W movq rax,[rax+0x107]
0x16586500bb33   147  a801           test al,0x1
0x16586500bb35   149  0f843b000000   jz 214  (0x16586500bb76)
0x16586500bb3b   155  488b58ff       REX.W movq rbx,[rax-0x1]
0x16586500bb3f   159  807b0bca       cmpb [rbx+0xb],0xca
0x16586500bb43   163  0f852d000000   jnz 214  (0x16586500bb76)
0x16586500bb49   169  488bf8         REX.W movq rdi,rax
0x16586500bb4c   172  488b5727       REX.W movq rdx,[rdi+0x27]
0x16586500bb50   176  488b772f       REX.W movq rsi,[rdi+0x2f]
0x16586500bb54   180  48635a6b       REX.W movsxlq rbx,[rdx+0x6b]
0x16586500bb58   184  488b5717       REX.W movq rdx,[rdi+0x17]
0x16586500bb5c   188  33c0           xorl rax,rax
0x16586500bb5e   190  4883fb00       REX.W cmpq rbx,0x0
0x16586500bb62   194  7407           jz 203  (0x16586500bb6b)
0x16586500bb64   196  e817d9efff     call ArgumentsAdaptorTrampoline  (0x165864f09480)    ;; code: BUILTIN
0x16586500bb69   201  eb02           jmp 205  (0x16586500bb6d)
0x16586500bb6b   203  ffd2           call rdx
0x16586500bb6d   205  488b75f8       REX.W movq rsi,[rbp-0x8]
0x16586500bb71   209  e915000000     jmp 235  (0x16586500bb8b)
0x16586500bb76   214  50             push rax
0x16586500bb77   215  b802000000     movl rax,0x2
0x16586500bb7c   220  48bbb08c280100000000 REX.W movq rbx,0x1288cb0
0x16586500bb86   230  e855cfefff     call 0x165864f08ae0     ;; code: STUB, CEntryStub, minor: 0
0x16586500bb8b   235  48bb998a9fcfdd1e0000 REX.W movq rbx,0x1eddcf9f8a99    ;; object: 0x1eddcf9f8a99 Cell for 6144
0x16586500bb95   245  83430bd1       addl [rbx+0xb],0xd1
0x16586500bb99   249  791f           jns 282  (0x16586500bbba)
0x16586500bb9b   251  50             push rax
0x16586500bb9c   252  e89fadf2ff     call InterruptCheck  (0x165864f36940)    ;; code: BUILTIN
0x16586500bba1   257  58             pop rax
0x16586500bba2   258  48bb998a9fcfdd1e0000 REX.W movq rbx,0x1eddcf9f8a99    ;; object: 0x1eddcf9f8a99 Cell for 6144
0x16586500bbac   268  49ba0000000000180000 REX.W movq r10,0x180000000000
0x16586500bbb6   278  4c895307       REX.W movq [rbx+0x7],r10
0x16586500bbba   282  c9             leave                   ;; debug: statement 2492
0x16586500bbbb   283  c24000         ret 0x40
0x16586500bbbe   286  48b80000000007000000 REX.W movq rax,0x700000000    ;; debug: statement 1631
0x16586500bbc8   296  488b5d00       REX.W movq rbx,[rbp+0x0]
0x16586500bbcc   300  49ba000000000a000000 REX.W movq r10,0xa00000000
0x16586500bbd6   310  4c3953f8       REX.W cmpq [rbx-0x8],r10
0x16586500bbda   314  7504           jnz 320  (0x16586500bbe0)
0x16586500bbdc   316  488b43e8       REX.W movq rax,[rbx-0x18]
0x16586500bbe0   320  488945e8       REX.W movq [rbp-0x18],rax
0x16586500bbe4   324  ff75e8         push [rbp-0x18]         ;; debug: statement 1658
                                                             ;; debug: statement 1665
                                                             ;; debug: position 1668
0x16586500bbe7   327  48b80000000000000000 REX.W movq rax,(nil)
0x16586500bbf1   337  5a             pop rdx
0x16586500bbf2   338  e889f7f1ff     call 0x165864f2b380     ;; code: COMPARE_IC, UNINITIALIZED (id = 68)
0x16586500bbf7   343  90             nop
0x16586500bbf8   344  eb0f           jmp 361  (0x16586500bc09)
0x16586500bbfa   346  493b45c0       REX.W cmpq rax,[r13-0x40]
0x16586500bbfe   350  0f840e000000   jz 370  (0x16586500bc12)
0x16586500bc04   356  e949000000     jmp 434  (0x16586500bc52)
0x16586500bc09   361  4885c0         REX.W testq rax,rax
0x16586500bc0c   364  0f8540000000   jnz 434  (0x16586500bc52)
0x16586500bc12   370  33c0           xorl rax,rax            ;; debug: statement 1675
                                                             ;; debug: position 1676
0x16586500bc14   372  48bbc0bd270100000000 REX.W movq rbx,0x127bdc0
0x16586500bc1e   382  e8bdceefff     call 0x165864f08ae0     ;; code: STUB, CEntryStub, minor: 0
0x16586500bc23   387  488945e0       REX.W movq [rbp-0x20],rax
0x16586500bc27   391  ff7548         push [rbp+0x48]         ;; debug: statement 1697
                                                             ;; debug: position 1712
0x16586500bc2a   394  ff75e0         push [rbp-0x20]         ;; debug: position 1717
0x16586500bc2d   397  49ba0000000001000000 REX.W movq r10,0x100000000
0x16586500bc37   407  4152           push r10
0x16586500bc39   409  b803000000     movl rax,0x3
0x16586500bc3e   414  48bb70b6270100000000 REX.W movq rbx,0x127b670
0x16586500bc48   424  e893ceefff     call 0x165864f08ae0     ;; code: STUB, CEntryStub, minor: 0
0x16586500bc4d   429  e903080000     jmp 2485  (0x16586500c455)
0x16586500bc52   434  ff75e8         push [rbp-0x18]         ;; debug: statement 1730
                                                             ;; debug: position 1733
0x16586500bc55   437  48b80000000001000000 REX.W movq rax,0x100000000
0x16586500bc5f   447  5a             pop rdx
0x16586500bc60   448  e81bf7f1ff     call 0x165864f2b380     ;; code: COMPARE_IC, UNINITIALIZED (id = 105)
0x16586500bc65   453  90             nop
0x16586500bc66   454  eb0f           jmp 471  (0x16586500bc77)
0x16586500bc68   456  493b45c0       REX.W cmpq rax,[r13-0x40]
0x16586500bc6c   460  0f840e000000   jz 480  (0x16586500bc80)
0x16586500bc72   466  e9ca020000     jmp 1185  (0x16586500bf41)
0x16586500bc77   471  4885c0         REX.W testq rax,rax
0x16586500bc7a   474  0f85c1020000   jnz 1185  (0x16586500bf41)
0x16586500bc80   480  488b4540       REX.W movq rax,[rbp+0x40]    ;; debug: statement 1740
                                                             ;; debug: position 1751
0x16586500bc84   484  eb0f           jmp 501  (0x16586500bc95)
0x16586500bc86   486  493b45c0       REX.W cmpq rax,[r13-0x40]
0x16586500bc8a   490  0f841b000000   jz 523  (0x16586500bcab)
0x16586500bc90   496  e923000000     jmp 536  (0x16586500bcb8)
0x16586500bc95   501  a801           test al,0x1
0x16586500bc97   503  0f840e000000   jz 523  (0x16586500bcab)
0x16586500bc9d   509  488b40ff       REX.W movq rax,[rax-0x1]
0x16586500bca1   513  493b4508       REX.W cmpq rax,[r13+0x8]
0x16586500bca5   517  0f850d000000   jnz 536  (0x16586500bcb8)
0x16586500bcab   523  488b4540       REX.W movq rax,[rbp+0x40]    ;; debug: statement 1768
                                                             ;; debug: position 1770
0x16586500bcaf   527  488945e0       REX.W movq [rbp-0x20],rax    ;; debug: position 1769
0x16586500bcb3   531  e95e020000     jmp 1142  (0x16586500bf16)
0x16586500bcb8   536  488b4540       REX.W movq rax,[rbp+0x40]    ;; debug: statement 1779
                                                             ;; debug: position 1790
0x16586500bcbc   540  eb0f           jmp 557  (0x16586500bccd)
0x16586500bcbe   542  493b45c0       REX.W cmpq rax,[r13-0x40]
0x16586500bcc2   546  0f841b000000   jz 579  (0x16586500bce3)
0x16586500bcc8   552  e969010000     jmp 918  (0x16586500be36)
0x16586500bccd   557  a801           test al,0x1
0x16586500bccf   559  0f8461010000   jz 918  (0x16586500be36)
0x16586500bcd5   565  488b50ff       REX.W movq rdx,[rax-0x1]
0x16586500bcd9   569  807a0b80       cmpb [rdx+0xb],0x80
0x16586500bcdd   573  0f8353010000   jnc 918  (0x16586500be36)
0x16586500bce3   579  488bc6         REX.W movq rax,rsi      ;; debug: statement 1807
0x16586500bce6   582  ffb02f010000   push [rax+0x12f]
0x16586500bcec   588  41ff75a8       push [r13-0x58]
0x16586500bcf0   592  48ba0000000006000000 REX.W movq rdx,0x600000000
0x16586500bcfa   602  488b7c2408     REX.W movq rdi,[rsp+0x8]
0x16586500bcff   607  e83c14f2ff     call 0x165864f2d140     ;; code: CALL_IC, DEFAULT
0x16586500bd04   612  488b75f8       REX.W movq rsi,[rbp-0x8]
0x16586500bd08   616  4883c408       REX.W addq rsp,0x8
0x16586500bd0c   620  488bc6         REX.W movq rax,rsi      ;; debug: statement 1832
                                                             ;; debug: position 1838
0x16586500bd0f   623  488b8097000000 REX.W movq rax,[rax+0x97]
0x16586500bd16   630  488945d8       REX.W movq [rbp-0x28],rax    ;; debug: position 1832
0x16586500bd1a   634  488b45d8       REX.W movq rax,[rbp-0x28]    ;; debug: statement 1841
                                                             ;; debug: position 1844
0x16586500bd1e   638  488bd0         REX.W movq rdx,rax
0x16586500bd21   641  48b9491791cfdd1e0000 REX.W movq rcx,0x1eddcf911749    ;; debug: position 1845
                                                             ;; object: 0x1eddcf911749 <String[6]: string>
0x16586500bd2b   651  48b80000000008000000 REX.W movq rax,0x800000000
0x16586500bd35   661  e82663f2ff     call 0x165864f32060     ;; code: contextual, LOAD_IC, DEFAULT
0x16586500bd3a   666  50             push rax
0x16586500bd3b   667  488b4540       REX.W movq rax,[rbp+0x40]    ;; debug: position 1855
0x16586500bd3f   671  5a             pop rdx
0x16586500bd40   672  e8fbf5f0ff     call 0x165864f1b340     ;; code: COMPARE_IC, UNINITIALIZED (id = 189)
0x16586500bd45   677  90             nop
0x16586500bd46   678  eb0f           jmp 695  (0x16586500bd57)
0x16586500bd48   680  493b45c0       REX.W cmpq rax,[r13-0x40]
0x16586500bd4c   684  0f840e000000   jz 704  (0x16586500bd60)
0x16586500bd52   690  e932000000     jmp 745  (0x16586500bd89)
0x16586500bd57   695  4885c0         REX.W testq rax,rax
0x16586500bd5a   698  0f8529000000   jnz 745  (0x16586500bd89)
0x16586500bd60   704  488b45d8       REX.W movq rax,[rbp-0x28]    ;; debug: statement 1859
                                                             ;; debug: position 1861
0x16586500bd64   708  488bd0         REX.W movq rdx,rax
0x16586500bd67   711  48b971f199cfdd1e0000 REX.W movq rcx,0x1eddcf99f171    ;; debug: position 1862
                                                             ;; object: 0x1eddcf99f171 <String[4]: time>
0x16586500bd71   721  48b8000000000a000000 REX.W movq rax,0xa00000000
0x16586500bd7b   731  e8e062f2ff     call 0x165864f32060     ;; code: contextual, LOAD_IC, DEFAULT
0x16586500bd80   736  488945e0       REX.W movq [rbp-0x20],rax    ;; debug: position 1860
0x16586500bd84   740  e9a8000000     jmp 913  (0x16586500be31)
0x16586500bd89   745  488bc6         REX.W movq rax,rsi      ;; debug: statement 1876
                                                             ;; debug: position 1878
0x16586500bd8c   748  ffb0ff000000   push [rax+0xff]
0x16586500bd92   754  41ff75a8       push [r13-0x58]
0x16586500bd96   758  ff7540         push [rbp+0x40]         ;; debug: position 1888
0x16586500bd99   761  48ba000000000c000000 REX.W movq rdx,0xc00000000    ;; debug: position 1878
0x16586500bda3   771  488b7c2410     REX.W movq rdi,[rsp+0x10]
0x16586500bda8   776  e89361f2ff     call 0x165864f31f40     ;; code: CALL_IC, DEFAULT
0x16586500bdad   781  488b75f8       REX.W movq rsi,[rbp-0x8]
0x16586500bdb1   785  4883c408       REX.W addq rsp,0x8
0x16586500bdb5   789  488945e0       REX.W movq [rbp-0x20],rax    ;; debug: position 1877
0x16586500bdb9   793  488b45e0       REX.W movq rax,[rbp-0x20]    ;; debug: statement 1892
                                                             ;; debug: position 1914
0x16586500bdbd   797  eb0f           jmp 814  (0x16586500bdce)
0x16586500bdbf   799  493b45c0       REX.W cmpq rax,[r13-0x40]
0x16586500bdc3   803  0f843a000000   jz 867  (0x16586500be03)
0x16586500bdc9   809  e90d000000     jmp 827  (0x16586500bddb)
0x16586500bdce   814  a801           test al,0x1
0x16586500bdd0   816  0f842d000000   jz 867  (0x16586500be03)
0x16586500bdd6   822  e900000000     jmp 827  (0x16586500bddb)
0x16586500bddb   827  ff75e0         push [rbp-0x20]         ;; debug: position 1921
0x16586500bdde   830  488b45e0       REX.W movq rax,[rbp-0x20]    ;; debug: position 1924
0x16586500bde2   834  5a             pop rdx
0x16586500bde3   835  e898f5f1ff     call 0x165864f2b380     ;; code: COMPARE_IC, UNINITIALIZED (id = 269)
0x16586500bde8   840  90             nop
0x16586500bde9   841  eb0f           jmp 858  (0x16586500bdfa)
0x16586500bdeb   843  493b45c0       REX.W cmpq rax,[r13-0x40]
0x16586500bdef   847  0f840e000000   jz 867  (0x16586500be03)
0x16586500bdf5   853  e937000000     jmp 913  (0x16586500be31)
0x16586500bdfa   858  4885c0         REX.W testq rax,rax
0x16586500bdfd   861  0f852e000000   jnz 913  (0x16586500be31)
0x16586500be03   867  ff75d8         push [rbp-0x28]         ;; debug: statement 1930
                                                             ;; debug: position 1930
0x16586500be06   870  488b45e0       REX.W movq rax,[rbp-0x20]    ;; debug: position 1937
0x16586500be0a   874  48b971f199cfdd1e0000 REX.W movq rcx,0x1eddcf99f171    ;; debug: position 1936
                                                             ;; object: 0x1eddcf99f171 <String[4]: time>
0x16586500be14   884  5a             pop rdx
0x16586500be15   885  e86665f2ff     call 0x165864f32380     ;; code: STORE_IC, UNINITIALIZED (id = 282)
0x16586500be1a   890  ff75d8         push [rbp-0x28]         ;; debug: statement 1940
                                                             ;; debug: position 1940
0x16586500be1d   893  488b4540       REX.W movq rax,[rbp+0x40]    ;; debug: position 1949
0x16586500be21   897  48b9491791cfdd1e0000 REX.W movq rcx,0x1eddcf911749    ;; debug: position 1948
                                                             ;; object: 0x1eddcf911749 <String[6]: string>
0x16586500be2b   907  5a             pop rdx
0x16586500be2c   908  e84f65f2ff     call 0x165864f32380     ;; code: STORE_IC, UNINITIALIZED (id = 298)
0x16586500be31   913  e9e0000000     jmp 1142  (0x16586500bf16)
0x16586500be36   918  488b4540       REX.W movq rax,[rbp+0x40]    ;; debug: statement 1962
                                                             ;; debug: position 1975
0x16586500be3a   922  a801           test al,0x1
0x16586500be3c   924  0f8430000000   jz 978  (0x16586500be72)
0x16586500be42   930  488b58ff       REX.W movq rbx,[rax-0x1]
0x16586500be46   934  807b0bb6       cmpb [rbx+0xb],0xb6
0x16586500be4a   938  eb0f           jmp 955  (0x16586500be5b)
0x16586500be4c   940  493b45c0       REX.W cmpq rax,[r13-0x40]
0x16586500be50   944  0f840b000000   jz 961  (0x16586500be61)
0x16586500be56   950  e917000000     jmp 978  (0x16586500be72)
0x16586500be5b   955  0f8511000000   jnz 978  (0x16586500be72)
0x16586500be61   961  488b4540       REX.W movq rax,[rbp+0x40]    ;; debug: statement 1981
                                                             ;; debug: position 1996
0x16586500be65   965  488b4017       REX.W movq rax,[rax+0x17]
0x16586500be69   969  488945e0       REX.W movq [rbp-0x20],rax    ;; debug: position 1982
0x16586500be6d   973  e9a4000000     jmp 1142  (0x16586500bf16)
0x16586500be72   978  ff7540         push [rbp+0x40]         ;; debug: statement 2010
                                                             ;; debug: position 2031
0x16586500be75   981  b801000000     movl rax,0x1
0x16586500be7a   986  48bb00cff90000000000 REX.W movq rbx,0xf9cf00
0x16586500be84   996  e857ccefff     call 0x165864f08ae0     ;; code: STUB, CEntryStub, minor: 0
0x16586500be89  1001  488945d0       REX.W movq [rbp-0x30],rax    ;; debug: position 2010
0x16586500be8d  1005  488b45d0       REX.W movq rax,[rbp-0x30]    ;; debug: statement 2036
                                                             ;; debug: position 2046
0x16586500be91  1009  eb0f           jmp 1026  (0x16586500bea2)
0x16586500be93  1011  493b45c0       REX.W cmpq rax,[r13-0x40]
0x16586500be97  1015  0f841b000000   jz 1048  (0x16586500beb8)
0x16586500be9d  1021  e947000000     jmp 1097  (0x16586500bee9)
0x16586500bea2  1026  a801           test al,0x1
0x16586500bea4  1028  0f843f000000   jz 1097  (0x16586500bee9)
0x16586500beaa  1034  488b50ff       REX.W movq rdx,[rax-0x1]
0x16586500beae  1038  807a0b80       cmpb [rdx+0xb],0x80
0x16586500beb2  1042  0f8331000000   jnc 1097  (0x16586500bee9)
0x16586500beb8  1048  488bc6         REX.W movq rax,rsi      ;; debug: position 2061
0x16586500bebb  1051  ffb0ff000000   push [rax+0xff]
0x16586500bec1  1057  41ff75a8       push [r13-0x58]
0x16586500bec5  1061  ff75d0         push [rbp-0x30]         ;; debug: position 2071
0x16586500bec8  1064  48ba000000000e000000 REX.W movq rdx,0xe00000000    ;; debug: position 2061
0x16586500bed2  1074  488b7c2410     REX.W movq rdi,[rsp+0x10]
0x16586500bed7  1079  e86460f2ff     call 0x165864f31f40     ;; code: CALL_IC, DEFAULT
0x16586500bedc  1084  488b75f8       REX.W movq rsi,[rbp-0x8]
0x16586500bee0  1088  4883c408       REX.W addq rsp,0x8
0x16586500bee4  1092  e929000000     jmp 1138  (0x16586500bf12)
0x16586500bee9  1097  488bc6         REX.W movq rax,rsi      ;; debug: position 2074
0x16586500beec  1100  ff704f         push [rax+0x4f]
0x16586500beef  1103  41ff75a8       push [r13-0x58]
0x16586500bef3  1107  ff75d0         push [rbp-0x30]         ;; debug: position 2076
0x16586500bef6  1110  48ba0000000010000000 REX.W movq rdx,0x1000000000    ;; debug: position 2074
0x16586500bf00  1120  488b7c2410     REX.W movq rdi,[rsp+0x10]
0x16586500bf05  1125  e83660f2ff     call 0x165864f31f40     ;; code: CALL_IC, DEFAULT
0x16586500bf0a  1130  488b75f8       REX.W movq rsi,[rbp-0x8]
0x16586500bf0e  1134  4883c408       REX.W addq rsp,0x8
0x16586500bf12  1138  488945e0       REX.W movq [rbp-0x20],rax    ;; debug: position 2037
0x16586500bf16  1142  ff7548         push [rbp+0x48]         ;; debug: statement 2082
                                                             ;; debug: position 2097
0x16586500bf19  1145  ff75e0         push [rbp-0x20]         ;; debug: position 2102
0x16586500bf1c  1148  49ba0000000001000000 REX.W movq r10,0x100000000
0x16586500bf26  1158  4152           push r10
0x16586500bf28  1160  b803000000     movl rax,0x3
0x16586500bf2d  1165  48bb70b6270100000000 REX.W movq rbx,0x127b670
0x16586500bf37  1175  e8a4cbefff     call 0x165864f08ae0     ;; code: STUB, CEntryStub, minor: 0
0x16586500bf3c  1180  e914050000     jmp 2485  (0x16586500c455)
0x16586500bf41  1185  488bc6         REX.W movq rax,rsi      ;; debug: statement 2116
                                                             ;; debug: position 2118
0x16586500bf44  1188  ff704f         push [rax+0x4f]
0x16586500bf47  1191  41ff75a8       push [r13-0x58]
0x16586500bf4b  1195  ff7540         push [rbp+0x40]         ;; debug: position 2120
0x16586500bf4e  1198  48ba0000000012000000 REX.W movq rdx,0x1200000000    ;; debug: position 2118
0x16586500bf58  1208  488b7c2410     REX.W movq rdi,[rsp+0x10]
0x16586500bf5d  1213  e8de5ff2ff     call 0x165864f31f40     ;; code: CALL_IC, DEFAULT
0x16586500bf62  1218  488b75f8       REX.W movq rsi,[rbp-0x8]
0x16586500bf66  1222  4883c408       REX.W addq rsp,0x8
0x16586500bf6a  1226  48894540       REX.W movq [rbp+0x40],rax    ;; debug: position 2117
0x16586500bf6e  1230  488bc6         REX.W movq rax,rsi      ;; debug: statement 2124
                                                             ;; debug: position 2126
0x16586500bf71  1233  ff704f         push [rax+0x4f]
0x16586500bf74  1236  41ff75a8       push [r13-0x58]
0x16586500bf78  1240  ff7538         push [rbp+0x38]         ;; debug: position 2128
0x16586500bf7b  1243  48ba0000000014000000 REX.W movq rdx,0x1400000000    ;; debug: position 2126
0x16586500bf85  1253  488b7c2410     REX.W movq rdi,[rsp+0x10]
0x16586500bf8a  1258  e8b15ff2ff     call 0x165864f31f40     ;; code: CALL_IC, DEFAULT
0x16586500bf8f  1263  488b75f8       REX.W movq rsi,[rbp-0x8]
0x16586500bf93  1267  4883c408       REX.W addq rsp,0x8
0x16586500bf97  1271  48894538       REX.W movq [rbp+0x38],rax    ;; debug: position 2125
0x16586500bf9b  1275  ff75e8         push [rbp-0x18]         ;; debug: statement 2132
                                                             ;; debug: position 2134
0x16586500bf9e  1278  48b80000000002000000 REX.W movq rax,0x200000000
0x16586500bfa8  1288  5a             pop rdx
0x16586500bfa9  1289  e81202f2ff     call 0x165864f2c1c0     ;; code: COMPARE_IC, UNINITIALIZED (id = 468)
0x16586500bfae  1294  90             nop
0x16586500bfaf  1295  eb0f           jmp 1312  (0x16586500bfc0)
0x16586500bfb1  1297  493b45c0       REX.W cmpq rax,[r13-0x40]
0x16586500bfb5  1301  0f840e000000   jz 1321  (0x16586500bfc9)
0x16586500bfbb  1307  e937000000     jmp 1367  (0x16586500bff7)
0x16586500bfc0  1312  4885c0         REX.W testq rax,rax
0x16586500bfc3  1315  0f8e2e000000   jle 1367  (0x16586500bff7)
0x16586500bfc9  1321  488bc6         REX.W movq rax,rsi      ;; debug: position 2138
0x16586500bfcc  1324  ff704f         push [rax+0x4f]
0x16586500bfcf  1327  41ff75a8       push [r13-0x58]
0x16586500bfd3  1331  ff7530         push [rbp+0x30]         ;; debug: position 2140
0x16586500bfd6  1334  48ba0000000016000000 REX.W movq rdx,0x1600000000    ;; debug: position 2138
0x16586500bfe0  1344  488b7c2410     REX.W movq rdi,[rsp+0x10]
0x16586500bfe5  1349  e8565ff2ff     call 0x165864f31f40     ;; code: CALL_IC, DEFAULT
0x16586500bfea  1354  488b75f8       REX.W movq rsi,[rbp-0x8]
0x16586500bfee  1358  4883c408       REX.W addq rsp,0x8
0x16586500bff2  1362  e90a000000     jmp 1377  (0x16586500c001)
0x16586500bff7  1367  48b80000000001000000 REX.W movq rax,0x100000000    ;; debug: position 2143
0x16586500c001  1377  48894530       REX.W movq [rbp+0x30],rax    ;; debug: position 2133
0x16586500c005  1381  ff75e8         push [rbp-0x18]         ;; debug: statement 2146
                                                             ;; debug: position 2148
0x16586500c008  1384  48b80000000003000000 REX.W movq rax,0x300000000
0x16586500c012  1394  5a             pop rdx
0x16586500c013  1395  e8a801f2ff     call 0x165864f2c1c0     ;; code: COMPARE_IC, UNINITIALIZED (id = 502)
0x16586500c018  1400  90             nop
0x16586500c019  1401  eb0f           jmp 1418  (0x16586500c02a)
0x16586500c01b  1403  493b45c0       REX.W cmpq rax,[r13-0x40]
0x16586500c01f  1407  0f840e000000   jz 1427  (0x16586500c033)
0x16586500c025  1413  e937000000     jmp 1473  (0x16586500c061)
0x16586500c02a  1418  4885c0         REX.W testq rax,rax
0x16586500c02d  1421  0f8e2e000000   jle 1473  (0x16586500c061)
0x16586500c033  1427  488bc6         REX.W movq rax,rsi      ;; debug: position 2152
0x16586500c036  1430  ff704f         push [rax+0x4f]
0x16586500c039  1433  41ff75a8       push [r13-0x58]
0x16586500c03d  1437  ff7528         push [rbp+0x28]         ;; debug: position 2154
0x16586500c040  1440  48ba0000000018000000 REX.W movq rdx,0x1800000000    ;; debug: position 2152
0x16586500c04a  1450  488b7c2410     REX.W movq rdi,[rsp+0x10]
0x16586500c04f  1455  e8ec5ef2ff     call 0x165864f31f40     ;; code: CALL_IC, DEFAULT
0x16586500c054  1460  488b75f8       REX.W movq rsi,[rbp-0x8]
0x16586500c058  1464  4883c408       REX.W addq rsp,0x8
0x16586500c05c  1468  e90a000000     jmp 1483  (0x16586500c06b)
0x16586500c061  1473  48b80000000000000000 REX.W movq rax,(nil)    ;; debug: position 2157
0x16586500c06b  1483  48894528       REX.W movq [rbp+0x28],rax    ;; debug: position 2147
0x16586500c06f  1487  ff75e8         push [rbp-0x18]         ;; debug: statement 2160
                                                             ;; debug: position 2162
0x16586500c072  1490  48b80000000004000000 REX.W movq rax,0x400000000
0x16586500c07c  1500  5a             pop rdx
0x16586500c07d  1501  e83e01f2ff     call 0x165864f2c1c0     ;; code: COMPARE_IC, UNINITIALIZED (id = 536)
0x16586500c082  1506  90             nop
0x16586500c083  1507  eb0f           jmp 1524  (0x16586500c094)
0x16586500c085  1509  493b45c0       REX.W cmpq rax,[r13-0x40]
0x16586500c089  1513  0f840e000000   jz 1533  (0x16586500c09d)
0x16586500c08f  1519  e937000000     jmp 1579  (0x16586500c0cb)
0x16586500c094  1524  4885c0         REX.W testq rax,rax
0x16586500c097  1527  0f8e2e000000   jle 1579  (0x16586500c0cb)
0x16586500c09d  1533  488bc6         REX.W movq rax,rsi      ;; debug: position 2166
0x16586500c0a0  1536  ff704f         push [rax+0x4f]
0x16586500c0a3  1539  41ff75a8       push [r13-0x58]
0x16586500c0a7  1543  ff7520         push [rbp+0x20]         ;; debug: position 2168
0x16586500c0aa  1546  48ba000000001a000000 REX.W movq rdx,0x1a00000000    ;; debug: position 2166
0x16586500c0b4  1556  488b7c2410     REX.W movq rdi,[rsp+0x10]
0x16586500c0b9  1561  e8825ef2ff     call 0x165864f31f40     ;; code: CALL_IC, DEFAULT
0x16586500c0be  1566  488b75f8       REX.W movq rsi,[rbp-0x8]
0x16586500c0c2  1570  4883c408       REX.W addq rsp,0x8
0x16586500c0c6  1574  e90a000000     jmp 1589  (0x16586500c0d5)
0x16586500c0cb  1579  48b80000000000000000 REX.W movq rax,(nil)    ;; debug: position 2171
0x16586500c0d5  1589  48894520       REX.W movq [rbp+0x20],rax    ;; debug: position 2161
0x16586500c0d9  1593  ff75e8         push [rbp-0x18]         ;; debug: statement 2174
                                                             ;; debug: position 2176
0x16586500c0dc  1596  48b80000000005000000 REX.W movq rax,0x500000000
0x16586500c0e6  1606  5a             pop rdx
0x16586500c0e7  1607  e8d400f2ff     call 0x165864f2c1c0     ;; code: COMPARE_IC, UNINITIALIZED (id = 570)
0x16586500c0ec  1612  90             nop
0x16586500c0ed  1613  eb0f           jmp 1630  (0x16586500c0fe)
0x16586500c0ef  1615  493b45c0       REX.W cmpq rax,[r13-0x40]
0x16586500c0f3  1619  0f840e000000   jz 1639  (0x16586500c107)
0x16586500c0f9  1625  e937000000     jmp 1685  (0x16586500c135)
0x16586500c0fe  1630  4885c0         REX.W testq rax,rax
0x16586500c101  1633  0f8e2e000000   jle 1685  (0x16586500c135)
0x16586500c107  1639  488bc6         REX.W movq rax,rsi      ;; debug: position 2180
0x16586500c10a  1642  ff704f         push [rax+0x4f]
0x16586500c10d  1645  41ff75a8       push [r13-0x58]
0x16586500c111  1649  ff7518         push [rbp+0x18]         ;; debug: position 2182
0x16586500c114  1652  48ba000000001c000000 REX.W movq rdx,0x1c00000000    ;; debug: position 2180
0x16586500c11e  1662  488b7c2410     REX.W movq rdi,[rsp+0x10]
0x16586500c123  1667  e8185ef2ff     call 0x165864f31f40     ;; code: CALL_IC, DEFAULT
0x16586500c128  1672  488b75f8       REX.W movq rsi,[rbp-0x8]
0x16586500c12c  1676  4883c408       REX.W addq rsp,0x8
0x16586500c130  1680  e90a000000     jmp 1695  (0x16586500c13f)
0x16586500c135  1685  48b80000000000000000 REX.W movq rax,(nil)    ;; debug: position 2185
0x16586500c13f  1695  48894518       REX.W movq [rbp+0x18],rax    ;; debug: position 2175
0x16586500c143  1699  ff75e8         push [rbp-0x18]         ;; debug: statement 2188
                                                             ;; debug: position 2190
0x16586500c146  1702  48b80000000006000000 REX.W movq rax,0x600000000
0x16586500c150  1712  5a             pop rdx
0x16586500c151  1713  e86a00f2ff     call 0x165864f2c1c0     ;; code: COMPARE_IC, UNINITIALIZED (id = 604)
0x16586500c156  1718  90             nop
0x16586500c157  1719  eb0f           jmp 1736  (0x16586500c168)
0x16586500c159  1721  493b45c0       REX.W cmpq rax,[r13-0x40]
0x16586500c15d  1725  0f840e000000   jz 1745  (0x16586500c171)
0x16586500c163  1731  e937000000     jmp 1791  (0x16586500c19f)
0x16586500c168  1736  4885c0         REX.W testq rax,rax
0x16586500c16b  1739  0f8e2e000000   jle 1791  (0x16586500c19f)
0x16586500c171  1745  488bc6         REX.W movq rax,rsi      ;; debug: position 2194
0x16586500c174  1748  ff704f         push [rax+0x4f]
0x16586500c177  1751  41ff75a8       push [r13-0x58]
0x16586500c17b  1755  ff7510         push [rbp+0x10]         ;; debug: position 2196
0x16586500c17e  1758  48ba000000001e000000 REX.W movq rdx,0x1e00000000    ;; debug: position 2194
0x16586500c188  1768  488b7c2410     REX.W movq rdi,[rsp+0x10]
0x16586500c18d  1773  e8ae5df2ff     call 0x165864f31f40     ;; code: CALL_IC, DEFAULT
0x16586500c192  1778  488b75f8       REX.W movq rsi,[rbp-0x8]
0x16586500c196  1782  4883c408       REX.W addq rsp,0x8
0x16586500c19a  1786  e90a000000     jmp 1801  (0x16586500c1a9)
0x16586500c19f  1791  48b80000000000000000 REX.W movq rax,(nil)    ;; debug: position 2199
0x16586500c1a9  1801  48894510       REX.W movq [rbp+0x10],rax    ;; debug: position 2189
0x16586500c1ad  1805  488b4540       REX.W movq rax,[rbp+0x40]    ;; debug: statement 2202
                                                             ;; debug: position 2224
0x16586500c1b1  1809  eb0f           jmp 1826  (0x16586500c1c2)
0x16586500c1b3  1811  493b45c0       REX.W cmpq rax,[r13-0x40]
0x16586500c1b7  1815  0f843a000000   jz 1879  (0x16586500c1f7)
0x16586500c1bd  1821  e90d000000     jmp 1839  (0x16586500c1cf)
0x16586500c1c2  1826  a801           test al,0x1
0x16586500c1c4  1828  0f842d000000   jz 1879  (0x16586500c1f7)
0x16586500c1ca  1834  e900000000     jmp 1839  (0x16586500c1cf)
0x16586500c1cf  1839  ff7540         push [rbp+0x40]         ;; debug: position 2231
0x16586500c1d2  1842  488b4540       REX.W movq rax,[rbp+0x40]    ;; debug: position 2234
0x16586500c1d6  1846  5a             pop rdx
0x16586500c1d7  1847  e8a4f1f1ff     call 0x165864f2b380     ;; code: COMPARE_IC, UNINITIALIZED (id = 668)
0x16586500c1dc  1852  90             nop
0x16586500c1dd  1853  eb0f           jmp 1870  (0x16586500c1ee)
0x16586500c1df  1855  493b45c0       REX.W cmpq rax,[r13-0x40]
0x16586500c1e3  1859  0f840e000000   jz 1879  (0x16586500c1f7)
0x16586500c1e9  1865  e9a7010000     jmp 2293  (0x16586500c395)
0x16586500c1ee  1870  4885c0         REX.W testq rax,rax
0x16586500c1f1  1873  0f859e010000   jnz 2293  (0x16586500c395)
0x16586500c1f7  1879  6a00           push 0x0                ;; debug: position 2241
0x16586500c1f9  1881  488b4540       REX.W movq rax,[rbp+0x40]    ;; debug: position 2260
0x16586500c1fd  1885  eb0f           jmp 1902  (0x16586500c20e)
0x16586500c1ff  1887  493b45c0       REX.W cmpq rax,[r13-0x40]
0x16586500c203  1891  0f8412000000   jz 1915  (0x16586500c21b)
0x16586500c209  1897  e916000000     jmp 1924  (0x16586500c224)
0x16586500c20e  1902  a801           test al,0x1
0x16586500c210  1904  0f8405000000   jz 1915  (0x16586500c21b)
0x16586500c216  1910  e909000000     jmp 1924  (0x16586500c224)
0x16586500c21b  1915  488b4540       REX.W movq rax,[rbp+0x40]    ;; debug: position 2264
0x16586500c21f  1919  e93d000000     jmp 1985  (0x16586500c261)
0x16586500c224  1924  488bc6         REX.W movq rax,rsi      ;; debug: position 2283
0x16586500c227  1927  ff704f         push [rax+0x4f]
0x16586500c22a  1930  41ff75a8       push [r13-0x58]
0x16586500c22e  1934  ff7540         push [rbp+0x40]         ;; debug: position 2285
0x16586500c231  1937  48ba0000000020000000 REX.W movq rdx,0x2000000000    ;; debug: position 2283
0x16586500c23b  1947  488b7c2410     REX.W movq rdi,[rsp+0x10]
0x16586500c240  1952  e8fb5cf2ff     call 0x165864f31f40     ;; code: CALL_IC, DEFAULT
0x16586500c245  1957  488b75f8       REX.W movq rsi,[rbp-0x8]
0x16586500c249  1961  48890424       REX.W movq [rsp],rax
0x16586500c24d  1965  b801000000     movl rax,0x1
0x16586500c252  1970  48bbf03d2a0100000000 REX.W movq rbx,0x12a3df0
0x16586500c25c  1980  e87fc8efff     call 0x165864f08ae0     ;; code: STUB, CEntryStub, minor: 0
0x16586500c261  1985  5a             pop rdx
0x16586500c262  1986  e859aef1ff     call 0x165864f270c0     ;; code: COMPARE_IC, UNINITIALIZED (id = 677)
0x16586500c267  1991  90             nop
0x16586500c268  1992  eb0f           jmp 2009  (0x16586500c279)
0x16586500c26a  1994  493b45c0       REX.W cmpq rax,[r13-0x40]
0x16586500c26e  1998  0f840e000000   jz 2018  (0x16586500c282)
0x16586500c274  2004  e91c010000     jmp 2293  (0x16586500c395)
0x16586500c279  2009  4885c0         REX.W testq rax,rax
0x16586500c27c  2012  0f8f13010000   jg 2293  (0x16586500c395)
0x16586500c282  2018  488b4540       REX.W movq rax,[rbp+0x40]    ;; debug: position 2309
0x16586500c286  2022  eb0f           jmp 2039  (0x16586500c297)
0x16586500c288  2024  493b45c0       REX.W cmpq rax,[r13-0x40]
0x16586500c28c  2028  0f8412000000   jz 2052  (0x16586500c2a4)
0x16586500c292  2034  e915000000     jmp 2060  (0x16586500c2ac)
0x16586500c297  2039  a801           test al,0x1
0x16586500c299  2041  0f8405000000   jz 2052  (0x16586500c2a4)
0x16586500c29f  2047  e908000000     jmp 2060  (0x16586500c2ac)
0x16586500c2a4  2052  ff7540         push [rbp+0x40]         ;; debug: position 2313
0x16586500c2a7  2055  e93e000000     jmp 2122  (0x16586500c2ea)
0x16586500c2ac  2060  488bc6         REX.W movq rax,rsi      ;; debug: position 2332
0x16586500c2af  2063  ff704f         push [rax+0x4f]
0x16586500c2b2  2066  41ff75a8       push [r13-0x58]
0x16586500c2b6  2070  ff7540         push [rbp+0x40]         ;; debug: position 2334
0x16586500c2b9  2073  48ba0000000022000000 REX.W movq rdx,0x2200000000    ;; debug: position 2332
0x16586500c2c3  2083  488b7c2410     REX.W movq rdi,[rsp+0x10]
0x16586500c2c8  2088  e8735cf2ff     call 0x165864f31f40     ;; code: CALL_IC, DEFAULT
0x16586500c2cd  2093  488b75f8       REX.W movq rsi,[rbp-0x8]
0x16586500c2d1  2097  48890424       REX.W movq [rsp],rax
0x16586500c2d5  2101  b801000000     movl rax,0x1
0x16586500c2da  2106  48bbf03d2a0100000000 REX.W movq rbx,0x12a3df0
0x16586500c2e4  2116  e8f7c7efff     call 0x165864f08ae0     ;; code: STUB, CEntryStub, minor: 0
0x16586500c2e9  2121  50             push rax
0x16586500c2ea  2122  48b80000000063000000 REX.W movq rax,0x6300000000
0x16586500c2f4  2132  5a             pop rdx
0x16586500c2f5  2133  e8c6adf1ff     call 0x165864f270c0     ;; code: COMPARE_IC, UNINITIALIZED (id = 710)
0x16586500c2fa  2138  90             nop
0x16586500c2fb  2139  eb0f           jmp 2156  (0x16586500c30c)
0x16586500c2fd  2141  493b45c0       REX.W cmpq rax,[r13-0x40]
0x16586500c301  2145  0f840e000000   jz 2165  (0x16586500c315)
0x16586500c307  2151  e989000000     jmp 2293  (0x16586500c395)
0x16586500c30c  2156  4885c0         REX.W testq rax,rax
0x16586500c30f  2159  0f8f80000000   jg 2293  (0x16586500c395)
0x16586500c315  2165  49ba000000006c070000 REX.W movq r10,0x76c00000000    ;; debug: position 2348
0x16586500c31f  2175  4152           push r10
0x16586500c321  2177  488b4540       REX.W movq rax,[rbp+0x40]    ;; debug: position 2366
0x16586500c325  2181  eb0f           jmp 2198  (0x16586500c336)
0x16586500c327  2183  493b45c0       REX.W cmpq rax,[r13-0x40]
0x16586500c32b  2187  0f8412000000   jz 2211  (0x16586500c343)
0x16586500c331  2193  e916000000     jmp 2220  (0x16586500c34c)
0x16586500c336  2198  a801           test al,0x1
0x16586500c338  2200  0f8405000000   jz 2211  (0x16586500c343)
0x16586500c33e  2206  e909000000     jmp 2220  (0x16586500c34c)
0x16586500c343  2211  488b4540       REX.W movq rax,[rbp+0x40]    ;; debug: position 2370
0x16586500c347  2215  e93d000000     jmp 2281  (0x16586500c389)
0x16586500c34c  2220  488bc6         REX.W movq rax,rsi      ;; debug: position 2389
0x16586500c34f  2223  ff704f         push [rax+0x4f]
0x16586500c352  2226  41ff75a8       push [r13-0x58]
0x16586500c356  2230  ff7540         push [rbp+0x40]         ;; debug: position 2391
0x16586500c359  2233  48ba0000000024000000 REX.W movq rdx,0x2400000000    ;; debug: position 2389
0x16586500c363  2243  488b7c2410     REX.W movq rdi,[rsp+0x10]
0x16586500c368  2248  e8d35bf2ff     call 0x165864f31f40     ;; code: CALL_IC, DEFAULT
0x16586500c36d  2253  488b75f8       REX.W movq rsi,[rbp-0x8]
0x16586500c371  2257  48890424       REX.W movq [rsp],rax
0x16586500c375  2261  b801000000     movl rax,0x1
0x16586500c37a  2266  48bbf03d2a0100000000 REX.W movq rbx,0x12a3df0
0x16586500c384  2276  e857c7efff     call 0x165864f08ae0     ;; code: STUB, CEntryStub, minor: 0
0x16586500c389  2281  5a             pop rdx                 ;; debug: position 2348
0x16586500c38a  2282  e8f1c1f0ff     call 0x165864f18580     ;; code: BINARY_OP_IC, UNINITIALIZED (id = 744)
0x16586500c38f  2287  90             nop
0x16586500c390  2288  e904000000     jmp 2297  (0x16586500c399)
0x16586500c395  2293  488b4540       REX.W movq rax,[rbp+0x40]    ;; debug: position 2396
0x16586500c399  2297  48894540       REX.W movq [rbp+0x40],rax    ;; debug: position 2203
0x16586500c39d  2301  488bc6         REX.W movq rax,rsi      ;; debug: statement 2399
                                                             ;; debug: position 2405
0x16586500c3a0  2304  ff707f         push [rax+0x7f]
0x16586500c3a3  2307  41ff75a8       push [r13-0x58]
0x16586500c3a7  2311  ff7540         push [rbp+0x40]         ;; debug: position 2413
0x16586500c3aa  2314  ff7538         push [rbp+0x38]         ;; debug: position 2415
0x16586500c3ad  2317  ff7530         push [rbp+0x30]         ;; debug: position 2417
0x16586500c3b0  2320  48ba0000000026000000 REX.W movq rdx,0x2600000000    ;; debug: position 2405
0x16586500c3ba  2330  488b7c2420     REX.W movq rdi,[rsp+0x20]
0x16586500c3bf  2335  e8dcb7f0ff     call 0x165864f17ba0     ;; code: CALL_IC, DEFAULT
0x16586500c3c4  2340  488b75f8       REX.W movq rsi,[rbp-0x8]
0x16586500c3c8  2344  4883c408       REX.W addq rsp,0x8
0x16586500c3cc  2348  488945c8       REX.W movq [rbp-0x38],rax    ;; debug: position 2399
0x16586500c3d0  2352  488bc6         REX.W movq rax,rsi      ;; debug: statement 2421
                                                             ;; debug: position 2427
0x16586500c3d3  2355  ff7077         push [rax+0x77]
0x16586500c3d6  2358  41ff75a8       push [r13-0x58]
0x16586500c3da  2362  ff7528         push [rbp+0x28]         ;; debug: position 2436
0x16586500c3dd  2365  ff7520         push [rbp+0x20]         ;; debug: position 2438
0x16586500c3e0  2368  ff7518         push [rbp+0x18]         ;; debug: position 2440
0x16586500c3e3  2371  ff7510         push [rbp+0x10]         ;; debug: position 2442
0x16586500c3e6  2374  48ba0000000028000000 REX.W movq rdx,0x2800000000    ;; debug: position 2427
0x16586500c3f0  2384  488b7c2428     REX.W movq rdi,[rsp+0x28]
0x16586500c3f5  2389  e846e0f1ff     call 0x165864f2a440     ;; code: CALL_IC, DEFAULT
0x16586500c3fa  2394  488b75f8       REX.W movq rsi,[rbp-0x8]
0x16586500c3fe  2398  4883c408       REX.W addq rsp,0x8
0x16586500c402  2402  488945d0       REX.W movq [rbp-0x30],rax    ;; debug: position 2421
0x16586500c406  2406  488bc6         REX.W movq rax,rsi      ;; debug: statement 2446
                                                             ;; debug: position 2448
0x16586500c409  2409  ffb087000000   push [rax+0x87]
0x16586500c40f  2415  41ff75a8       push [r13-0x58]
0x16586500c413  2419  ff75c8         push [rbp-0x38]         ;; debug: position 2457
0x16586500c416  2422  ff75d0         push [rbp-0x30]         ;; debug: position 2459
0x16586500c419  2425  48ba000000002a000000 REX.W movq rdx,0x2a00000000    ;; debug: position 2448
0x16586500c423  2435  488b7c2418     REX.W movq rdi,[rsp+0x18]
0x16586500c428  2440  e8d373f0ff     call 0x165864f13800     ;; code: CALL_IC, DEFAULT
0x16586500c42d  2445  488b75f8       REX.W movq rsi,[rbp-0x8]
0x16586500c431  2449  4883c408       REX.W addq rsp,0x8
0x16586500c435  2453  488945e0       REX.W movq [rbp-0x20],rax    ;; debug: position 2447
0x16586500c439  2457  ff7548         push [rbp+0x48]         ;; debug: statement 2463
                                                             ;; debug: position 2478
0x16586500c43c  2460  ff75e0         push [rbp-0x20]         ;; debug: position 2483
0x16586500c43f  2463  6a00           push 0x0
0x16586500c441  2465  b803000000     movl rax,0x3
0x16586500c446  2470  48bb70b6270100000000 REX.W movq rbx,0x127b670
0x16586500c450  2480  e88bc6efff     call 0x165864f08ae0     ;; code: STUB, CEntryStub, minor: 0
0x16586500c455  2485  498b45a8       REX.W movq rax,[r13-0x58]
0x16586500c459  2489  e92df7ffff     jmp 235  (0x16586500bb8b)
0x16586500c45e  2494  6690           nop

Deoptimization Output Data (deopt points = 403)
ast id        pc  state
     1        15  NO_REGISTERS
     2        15  NO_REGISTERS
     3        15  NO_REGISTERS
    29        72  TOS_REG
    23        93  NO_REGISTERS
    32        93  NO_REGISTERS
    43        93  NO_REGISTERS
    41        99  NO_REGISTERS
    40       132  TOS_REG
    38       137  NO_REGISTERS
    46       137  NO_REGISTERS
    44       147  TOS_REG
    35       235  TOS_REG
    33       286  NO_REGISTERS
    24       286  NO_REGISTERS
    22       286  NO_REGISTERS
    47       286  NO_REGISTERS
    57       320  TOS_REG
    52       324  TOS_REG
    50       324  NO_REGISTERS
    48       324  NO_REGISTERS
    60       324  NO_REGISTERS
    61       324  NO_REGISTERS
    71       324  NO_REGISTERS
    69       327  NO_REGISTERS
    72       337  TOS_REG
    66       346  TOS_REG
    64       370  NO_REGISTERS
    75       370  NO_REGISTERS
    87       370  NO_REGISTERS
    85       387  TOS_REG
    80       391  TOS_REG
    78       391  NO_REGISTERS
    93       391  NO_REGISTERS
    91       394  NO_REGISTERS
    96       394  NO_REGISTERS
    94       397  NO_REGISTERS
    97       409  NO_REGISTERS
    90       409  NO_REGISTERS
    88       429  NO_REGISTERS
    76       429  NO_REGISTERS
    65       434  NO_REGISTERS
   108       434  NO_REGISTERS
   106       437  NO_REGISTERS
   109       447  TOS_REG
   103       456  TOS_REG
   101       480  NO_REGISTERS
   112       480  NO_REGISTERS
   127       480  NO_REGISTERS
   125       484  TOS_REG
   118       486  TOS_REG
   116       523  NO_REGISTERS
   131       523  NO_REGISTERS
   143       523  NO_REGISTERS
   141       527  TOS_REG
   136       531  TOS_REG
   134       531  NO_REGISTERS
   132       531  NO_REGISTERS
   117       536  NO_REGISTERS
   156       536  NO_REGISTERS
   154       540  TOS_REG
   147       542  TOS_REG
   145       579  NO_REGISTERS
   160       579  NO_REGISTERS
   170       579  NO_REGISTERS
   168       588  NO_REGISTERS
   165       612  TOS_REG
   163       620  NO_REGISTERS
   171       620  NO_REGISTERS
   183       620  NO_REGISTERS
   181       630  TOS_REG
   176       634  TOS_REG
   174       634  NO_REGISTERS
   172       634  NO_REGISTERS
   198       634  NO_REGISTERS
   196       638  TOS_REG
   192       666  TOS_REG
   190       667  NO_REGISTERS
   201       667  NO_REGISTERS
   199       671  TOS_REG
   187       680  TOS_REG
   185       704  NO_REGISTERS
   202       704  NO_REGISTERS
   220       704  NO_REGISTERS
   218       708  TOS_REG
   214       736  TOS_REG
   212       736  TOS_REG
   207       740  TOS_REG
   205       740  NO_REGISTERS
   203       740  NO_REGISTERS
   186       745  NO_REGISTERS
   221       745  NO_REGISTERS
   238       745  NO_REGISTERS
   236       754  NO_REGISTERS
   241       758  NO_REGISTERS
   239       761  NO_REGISTERS
   233       781  TOS_REG
   231       789  TOS_REG
   226       793  TOS_REG
   224       793  NO_REGISTERS
   262       793  NO_REGISTERS
   260       797  TOS_REG
   257       799  TOS_REG
   251       827  NO_REGISTERS
   272       827  NO_REGISTERS
   270       830  NO_REGISTERS
   275       830  NO_REGISTERS
   273       834  TOS_REG
   267       843  TOS_REG
   243       867  NO_REGISTERS
   276       867  NO_REGISTERS
   291       867  NO_REGISTERS
   289       870  NO_REGISTERS
   294       870  NO_REGISTERS
   292       874  TOS_REG
   281       890  TOS_REG
   279       890  NO_REGISTERS
   307       890  NO_REGISTERS
   305       893  NO_REGISTERS
   310       893  NO_REGISTERS
   308       897  TOS_REG
   297       913  TOS_REG
   295       913  NO_REGISTERS
   277       913  NO_REGISTERS
   244       913  NO_REGISTERS
   242       913  NO_REGISTERS
   222       913  NO_REGISTERS
   184       913  NO_REGISTERS
   161       913  NO_REGISTERS
   146       918  NO_REGISTERS
   319       918  NO_REGISTERS
   317       922  TOS_REG
   314       940  TOS_REG
   312       961  NO_REGISTERS
   320       961  NO_REGISTERS
   335       961  NO_REGISTERS
   333       965  TOS_REG
   330       969  TOS_REG
   325       973  TOS_REG
   323       973  NO_REGISTERS
   321       973  NO_REGISTERS
   313       978  NO_REGISTERS
   339       978  NO_REGISTERS
   342       978  NO_REGISTERS
   357       978  NO_REGISTERS
   355       981  NO_REGISTERS
   354       981  NO_REGISTERS
   352      1001  TOS_REG
   347      1005  TOS_REG
   345      1005  NO_REGISTERS
   343      1005  NO_REGISTERS
   378      1005  NO_REGISTERS
   376      1009  TOS_REG
   369      1011  TOS_REG
   367      1048  NO_REGISTERS
   389      1048  NO_REGISTERS
   387      1057  NO_REGISTERS
   392      1061  NO_REGISTERS
   390      1064  NO_REGISTERS
   384      1084  TOS_REG
   382      1092  TOS_REG
   368      1097  NO_REGISTERS
   400      1097  NO_REGISTERS
   398      1103  NO_REGISTERS
   403      1107  NO_REGISTERS
   401      1110  NO_REGISTERS
   395      1130  TOS_REG
   393      1138  TOS_REG
   365      1138  TOS_REG
   360      1142  TOS_REG
   358      1142  NO_REGISTERS
   340      1142  NO_REGISTERS
   311      1142  NO_REGISTERS
   144      1142  NO_REGISTERS
   115      1142  NO_REGISTERS
   409      1142  NO_REGISTERS
   407      1145  NO_REGISTERS
   412      1145  NO_REGISTERS
   410      1148  NO_REGISTERS
   413      1160  NO_REGISTERS
   406      1160  NO_REGISTERS
   404      1180  NO_REGISTERS
   113      1180  NO_REGISTERS
   102      1185  NO_REGISTERS
   416      1185  NO_REGISTERS
   433      1185  NO_REGISTERS
   431      1191  NO_REGISTERS
   436      1195  NO_REGISTERS
   434      1198  NO_REGISTERS
   428      1218  TOS_REG
   426      1226  TOS_REG
   421      1230  TOS_REG
   419      1230  NO_REGISTERS
   451      1230  NO_REGISTERS
   449      1236  NO_REGISTERS
   454      1240  NO_REGISTERS
   452      1243  NO_REGISTERS
   446      1263  TOS_REG
   444      1271  TOS_REG
   439      1275  TOS_REG
   437      1275  NO_REGISTERS
   471      1275  NO_REGISTERS
   469      1278  NO_REGISTERS
   472      1288  TOS_REG
   466      1297  TOS_REG
   464      1321  NO_REGISTERS
   482      1321  NO_REGISTERS
   480      1327  NO_REGISTERS
   485      1331  NO_REGISTERS
   483      1334  NO_REGISTERS
   477      1354  TOS_REG
   475      1362  TOS_REG
   465      1367  NO_REGISTERS
   486      1377  TOS_REG
   462      1377  TOS_REG
   457      1381  TOS_REG
   455      1381  NO_REGISTERS
   505      1381  NO_REGISTERS
   503      1384  NO_REGISTERS
   506      1394  TOS_REG
   500      1403  TOS_REG
   498      1427  NO_REGISTERS
   516      1427  NO_REGISTERS
   514      1433  NO_REGISTERS
   519      1437  NO_REGISTERS
   517      1440  NO_REGISTERS
   511      1460  TOS_REG
   509      1468  TOS_REG
   499      1473  NO_REGISTERS
   520      1483  TOS_REG
   496      1483  TOS_REG
   491      1487  TOS_REG
   489      1487  NO_REGISTERS
   539      1487  NO_REGISTERS
   537      1490  NO_REGISTERS
   540      1500  TOS_REG
   534      1509  TOS_REG
   532      1533  NO_REGISTERS
   550      1533  NO_REGISTERS
   548      1539  NO_REGISTERS
   553      1543  NO_REGISTERS
   551      1546  NO_REGISTERS
   545      1566  TOS_REG
   543      1574  TOS_REG
   533      1579  NO_REGISTERS
   554      1589  TOS_REG
   530      1589  TOS_REG
   525      1593  TOS_REG
   523      1593  NO_REGISTERS
   573      1593  NO_REGISTERS
   571      1596  NO_REGISTERS
   574      1606  TOS_REG
   568      1615  TOS_REG
   566      1639  NO_REGISTERS
   584      1639  NO_REGISTERS
   582      1645  NO_REGISTERS
   587      1649  NO_REGISTERS
   585      1652  NO_REGISTERS
   579      1672  TOS_REG
   577      1680  TOS_REG
   567      1685  NO_REGISTERS
   588      1695  TOS_REG
   564      1695  TOS_REG
   559      1699  TOS_REG
   557      1699  NO_REGISTERS
   607      1699  NO_REGISTERS
   605      1702  NO_REGISTERS
   608      1712  TOS_REG
   602      1721  TOS_REG
   600      1745  NO_REGISTERS
   618      1745  NO_REGISTERS
   616      1751  NO_REGISTERS
   621      1755  NO_REGISTERS
   619      1758  NO_REGISTERS
   613      1778  TOS_REG
   611      1786  TOS_REG
   601      1791  NO_REGISTERS
   622      1801  TOS_REG
   598      1801  TOS_REG
   593      1805  TOS_REG
   591      1805  NO_REGISTERS
   661      1805  NO_REGISTERS
   659      1809  TOS_REG
   656      1811  TOS_REG
   650      1839  NO_REGISTERS
   671      1839  NO_REGISTERS
   669      1842  NO_REGISTERS
   674      1842  NO_REGISTERS
   672      1846  TOS_REG
   666      1855  TOS_REG
   642      1879  NO_REGISTERS
   678      1881  NO_REGISTERS
   690      1881  NO_REGISTERS
   688      1885  TOS_REG
   685      1887  TOS_REG
   683      1915  NO_REGISTERS
   693      1915  NO_REGISTERS
   691      1919  TOS_REG
   684      1924  NO_REGISTERS
   704      1924  NO_REGISTERS
   702      1930  NO_REGISTERS
   707      1934  NO_REGISTERS
   705      1937  NO_REGISTERS
   699      1957  TOS_REG
   697      1965  NO_REGISTERS
   696      1965  NO_REGISTERS
   694      1985  TOS_REG
   681      1985  TOS_REG
   675      1994  TOS_REG
   638      2018  NO_REGISTERS
   720      2018  NO_REGISTERS
   718      2022  TOS_REG
   715      2024  TOS_REG
   713      2052  NO_REGISTERS
   723      2052  NO_REGISTERS
   721      2055  NO_REGISTERS
   714      2060  NO_REGISTERS
   734      2060  NO_REGISTERS
   732      2066  NO_REGISTERS
   737      2070  NO_REGISTERS
   735      2073  NO_REGISTERS
   729      2093  TOS_REG
   727      2101  NO_REGISTERS
   726      2101  NO_REGISTERS
   724      2122  NO_REGISTERS
   711      2122  NO_REGISTERS
   738      2132  TOS_REG
   708      2141  TOS_REG
   634      2165  NO_REGISTERS
   745      2177  NO_REGISTERS
   757      2177  NO_REGISTERS
   755      2181  TOS_REG
   752      2183  TOS_REG
   750      2211  NO_REGISTERS
   760      2211  NO_REGISTERS
   758      2215  TOS_REG
   751      2220  NO_REGISTERS
   771      2220  NO_REGISTERS
   769      2226  NO_REGISTERS
   774      2230  NO_REGISTERS
   772      2233  NO_REGISTERS
   766      2253  TOS_REG
   764      2261  NO_REGISTERS
   763      2261  NO_REGISTERS
   761      2281  TOS_REG
   748      2281  TOS_REG
   741      2288  TOS_REG
   635      2293  NO_REGISTERS
   777      2293  NO_REGISTERS
   775      2297  TOS_REG
   632      2297  TOS_REG
   627      2301  TOS_REG
   625      2301  NO_REGISTERS
   778      2301  NO_REGISTERS
   795      2301  NO_REGISTERS
   793      2307  NO_REGISTERS
   798      2311  NO_REGISTERS
   796      2314  NO_REGISTERS
   801      2314  NO_REGISTERS
   799      2317  NO_REGISTERS
   804      2317  NO_REGISTERS
   802      2320  NO_REGISTERS
   790      2340  TOS_REG
   788      2348  TOS_REG
   783      2352  TOS_REG
   781      2352  NO_REGISTERS
   779      2352  NO_REGISTERS
   805      2352  NO_REGISTERS
   822      2352  NO_REGISTERS
   820      2358  NO_REGISTERS
   825      2362  NO_REGISTERS
   823      2365  NO_REGISTERS
   828      2365  NO_REGISTERS
   826      2368  NO_REGISTERS
   831      2368  NO_REGISTERS
   829      2371  NO_REGISTERS
   834      2371  NO_REGISTERS
   832      2374  NO_REGISTERS
   817      2394  TOS_REG
   815      2402  TOS_REG
   810      2406  TOS_REG
   808      2406  NO_REGISTERS
   806      2406  NO_REGISTERS
   849      2406  NO_REGISTERS
   847      2415  NO_REGISTERS
   852      2419  NO_REGISTERS
   850      2422  NO_REGISTERS
   855      2422  NO_REGISTERS
   853      2425  NO_REGISTERS
   844      2445  TOS_REG
   842      2453  TOS_REG
   837      2457  TOS_REG
   835      2457  NO_REGISTERS
   861      2457  NO_REGISTERS
   859      2460  NO_REGISTERS
   864      2460  NO_REGISTERS
   862      2463  NO_REGISTERS
   865      2465  NO_REGISTERS
   858      2465  NO_REGISTERS
   856      2485  NO_REGISTERS
   417      2485  NO_REGISTERS
   100      2485  NO_REGISTERS
    63      2485  NO_REGISTERS

Back edges (size = 0)
ast_id  pc_offset  loop_depth

0x1eddcf9fa5e9: [TypeFeedbackInfo]
 - ic_total_count: 34, ic_with_type_info_count: 0, ic_generic_count: 0

RelocInfo (size = 489)
0x16586500baa0  position  (1541)
0x16586500bab9  code target (BUILTIN)  (0x165864f36a80)
0x16586500babd  statement position  (1558)
0x16586500bafd  statement position  (1584)
0x16586500bafd  position  (1610)
0x16586500bb03  position  (1606)
0x16586500bb20  code target (js construct call) (STUB)  (0x165864f1a640)
0x16586500bb29  position  (1614)
0x16586500bb65  code target (BUILTIN)  (0x165864f09480)
0x16586500bb87  code target (STUB)  (0x165864f08ae0)
0x16586500bb8d  embedded object  (0x1eddcf9f8a99 Cell for 6144)
0x16586500bb9d  code target (BUILTIN)  (0x165864f36940)
0x16586500bba4  embedded object  (0x1eddcf9f8a99 Cell for 6144)
0x16586500bbba  statement position  (2492)
0x16586500bbbe  statement position  (1631)
0x16586500bbe4  statement position  (1658)
0x16586500bbe4  statement position  (1665)
0x16586500bbe4  position  (1668)
0x16586500bbf3  code target with id (COMPARE_IC)  (0x165864f2b380) (id=68)
0x16586500bc12  statement position  (1675)
0x16586500bc12  position  (1676)
0x16586500bc1f  code target (STUB)  (0x165864f08ae0)
0x16586500bc27  statement position  (1697)
0x16586500bc27  position  (1712)
0x16586500bc2a  position  (1717)
0x16586500bc49  code target (STUB)  (0x165864f08ae0)
0x16586500bc52  statement position  (1730)
0x16586500bc52  position  (1733)
0x16586500bc61  code target with id (COMPARE_IC)  (0x165864f2b380) (id=105)
0x16586500bc80  statement position  (1740)
0x16586500bc80  position  (1751)
0x16586500bcab  statement position  (1768)
0x16586500bcab  position  (1770)
0x16586500bcaf  position  (1769)
0x16586500bcb8  statement position  (1779)
0x16586500bcb8  position  (1790)
0x16586500bce3  statement position  (1807)
0x16586500bd00  code target (CALL_IC)  (0x165864f2d140)
0x16586500bd0c  statement position  (1832)
0x16586500bd0c  position  (1838)
0x16586500bd16  position  (1832)
0x16586500bd1a  statement position  (1841)
0x16586500bd1a  position  (1844)
0x16586500bd21  position  (1845)
0x16586500bd23  embedded object  (0x1eddcf911749 <String[6]: string>)
0x16586500bd36  code target (LOAD_IC)  (0x165864f32060)
0x16586500bd3b  position  (1855)
0x16586500bd41  code target with id (COMPARE_IC)  (0x165864f1b340) (id=189)
0x16586500bd60  statement position  (1859)
0x16586500bd60  position  (1861)
0x16586500bd67  position  (1862)
0x16586500bd69  embedded object  (0x1eddcf99f171 <String[4]: time>)
0x16586500bd7c  code target (LOAD_IC)  (0x165864f32060)
0x16586500bd80  position  (1860)
0x16586500bd89  statement position  (1876)
0x16586500bd89  position  (1878)
0x16586500bd96  position  (1888)
0x16586500bd99  position  (1878)
0x16586500bda9  code target (CALL_IC)  (0x165864f31f40)
0x16586500bdb5  position  (1877)
0x16586500bdb9  statement position  (1892)
0x16586500bdb9  position  (1914)
0x16586500bddb  position  (1921)
0x16586500bdde  position  (1924)
0x16586500bde4  code target with id (COMPARE_IC)  (0x165864f2b380) (id=269)
0x16586500be03  statement position  (1930)
0x16586500be03  position  (1930)
0x16586500be06  position  (1937)
0x16586500be0a  position  (1936)
0x16586500be0c  embedded object  (0x1eddcf99f171 <String[4]: time>)
0x16586500be16  code target with id (STORE_IC)  (0x165864f32380) (id=282)
0x16586500be1a  statement position  (1940)
0x16586500be1a  position  (1940)
0x16586500be1d  position  (1949)
0x16586500be21  position  (1948)
0x16586500be23  embedded object  (0x1eddcf911749 <String[6]: string>)
0x16586500be2d  code target with id (STORE_IC)  (0x165864f32380) (id=298)
0x16586500be36  statement position  (1962)
0x16586500be36  position  (1975)
0x16586500be61  statement position  (1981)
0x16586500be61  position  (1996)
0x16586500be69  position  (1982)
0x16586500be72  statement position  (2010)
0x16586500be72  position  (2031)
0x16586500be85  code target (STUB)  (0x165864f08ae0)
0x16586500be89  position  (2010)
0x16586500be8d  statement position  (2036)
0x16586500be8d  position  (2046)
0x16586500beb8  position  (2061)
0x16586500bec5  position  (2071)
0x16586500bec8  position  (2061)
0x16586500bed8  code target (CALL_IC)  (0x165864f31f40)
0x16586500bee9  position  (2074)
0x16586500bef3  position  (2076)
0x16586500bef6  position  (2074)
0x16586500bf06  code target (CALL_IC)  (0x165864f31f40)
0x16586500bf12  position  (2037)
0x16586500bf16  statement position  (2082)
0x16586500bf16  position  (2097)
0x16586500bf19  position  (2102)
0x16586500bf38  code target (STUB)  (0x165864f08ae0)
0x16586500bf41  statement position  (2116)
0x16586500bf41  position  (2118)
0x16586500bf4b  position  (2120)
0x16586500bf4e  position  (2118)
0x16586500bf5e  code target (CALL_IC)  (0x165864f31f40)
0x16586500bf6a  position  (2117)
0x16586500bf6e  statement position  (2124)
0x16586500bf6e  position  (2126)
0x16586500bf78  position  (2128)
0x16586500bf7b  position  (2126)
0x16586500bf8b  code target (CALL_IC)  (0x165864f31f40)
0x16586500bf97  position  (2125)
0x16586500bf9b  statement position  (2132)
0x16586500bf9b  position  (2134)
0x16586500bfaa  code target with id (COMPARE_IC)  (0x165864f2c1c0) (id=468)
0x16586500bfc9  position  (2138)
0x16586500bfd3  position  (2140)
0x16586500bfd6  position  (2138)
0x16586500bfe6  code target (CALL_IC)  (0x165864f31f40)
0x16586500bff7  position  (2143)
0x16586500c001  position  (2133)
0x16586500c005  statement position  (2146)
0x16586500c005  position  (2148)
0x16586500c014  code target with id (COMPARE_IC)  (0x165864f2c1c0) (id=502)
0x16586500c033  position  (2152)
0x16586500c03d  position  (2154)
0x16586500c040  position  (2152)
0x16586500c050  code target (CALL_IC)  (0x165864f31f40)
0x16586500c061  position  (2157)
0x16586500c06b  position  (2147)
0x16586500c06f  statement position  (2160)
0x16586500c06f  position  (2162)
0x16586500c07e  code target with id (COMPARE_IC)  (0x165864f2c1c0) (id=536)
0x16586500c09d  position  (2166)
0x16586500c0a7  position  (2168)
0x16586500c0aa  position  (2166)
0x16586500c0ba  code target (CALL_IC)  (0x165864f31f40)
0x16586500c0cb  position  (2171)
0x16586500c0d5  position  (2161)
0x16586500c0d9  statement position  (2174)
0x16586500c0d9  position  (2176)
0x16586500c0e8  code target with id (COMPARE_IC)  (0x165864f2c1c0) (id=570)
0x16586500c107  position  (2180)
0x16586500c111  position  (2182)
0x16586500c114  position  (2180)
0x16586500c124  code target (CALL_IC)  (0x165864f31f40)
0x16586500c135  position  (2185)
0x16586500c13f  position  (2175)
0x16586500c143  statement position  (2188)
0x16586500c143  position  (2190)
0x16586500c152  code target with id (COMPARE_IC)  (0x165864f2c1c0) (id=604)
0x16586500c171  position  (2194)
0x16586500c17b  position  (2196)
0x16586500c17e  position  (2194)
0x16586500c18e  code target (CALL_IC)  (0x165864f31f40)
0x16586500c19f  position  (2199)
0x16586500c1a9  position  (2189)
0x16586500c1ad  statement position  (2202)
0x16586500c1ad  position  (2224)
0x16586500c1cf  position  (2231)
0x16586500c1d2  position  (2234)
0x16586500c1d8  code target with id (COMPARE_IC)  (0x165864f2b380) (id=668)
0x16586500c1f7  position  (2241)
0x16586500c1f9  position  (2260)
0x16586500c21b  position  (2264)
0x16586500c224  position  (2283)
0x16586500c22e  position  (2285)
0x16586500c231  position  (2283)
0x16586500c241  code target (CALL_IC)  (0x165864f31f40)
0x16586500c25d  code target (STUB)  (0x165864f08ae0)
0x16586500c263  code target with id (COMPARE_IC)  (0x165864f270c0) (id=677)
0x16586500c282  position  (2309)
0x16586500c2a4  position  (2313)
0x16586500c2ac  position  (2332)
0x16586500c2b6  position  (2334)
0x16586500c2b9  position  (2332)
0x16586500c2c9  code target (CALL_IC)  (0x165864f31f40)
0x16586500c2e5  code target (STUB)  (0x165864f08ae0)
0x16586500c2f6  code target with id (COMPARE_IC)  (0x165864f270c0) (id=710)
0x16586500c315  position  (2348)
0x16586500c321  position  (2366)
0x16586500c343  position  (2370)
0x16586500c34c  position  (2389)
0x16586500c356  position  (2391)
0x16586500c359  position  (2389)
0x16586500c369  code target (CALL_IC)  (0x165864f31f40)
0x16586500c385  code target (STUB)  (0x165864f08ae0)
0x16586500c389  position  (2348)
0x16586500c38b  code target with id (BINARY_OP_IC)  (0x165864f18580) (id=744)
0x16586500c395  position  (2396)
0x16586500c399  position  (2203)
0x16586500c39d  statement position  (2399)
0x16586500c39d  position  (2405)
0x16586500c3a7  position  (2413)
0x16586500c3aa  position  (2415)
0x16586500c3ad  position  (2417)
0x16586500c3b0  position  (2405)
0x16586500c3c0  code target (CALL_IC)  (0x165864f17ba0)
0x16586500c3cc  position  (2399)
0x16586500c3d0  statement position  (2421)
0x16586500c3d0  position  (2427)
0x16586500c3da  position  (2436)
0x16586500c3dd  position  (2438)
0x16586500c3e0  position  (2440)
0x16586500c3e3  position  (2442)
0x16586500c3e6  position  (2427)
0x16586500c3f6  code target (CALL_IC)  (0x165864f2a440)
0x16586500c402  position  (2421)
0x16586500c406  statement position  (2446)
0x16586500c406  position  (2448)
0x16586500c413  position  (2457)
0x16586500c416  position  (2459)
0x16586500c419  position  (2448)
0x16586500c429  code target (CALL_IC)  (0x165864f13800)
0x16586500c435  position  (2447)
0x16586500c439  statement position  (2463)
0x16586500c439  position  (2478)
0x16586500c43c  position  (2483)
0x16586500c451  code target (STUB)  (0x165864f08ae0)

--- End code ---
--- Raw source ---
(au,av){
if((%IS_VAR(this)===null)||(this===(void 0)))throw MakeTypeError(15,"String.prototype.split");
var w=(%_ToString(this));
av=((av===(void 0)))?0xffffffff:(av>>>0);
var U=w.length;
if(!(%_IsRegExp(au))){
var aw=(%_ToString(au));
if(av===0)return[];
if((au===(void 0)))return[w];
var ax=aw.length;
if(ax===0)return %StringToArray(w,av);
var o=%StringSplit(w,aw,av);
return o;
}
if(av===0)return[];
return StringSplitOnRegExp(w,au,av,U);
}


--- Code ---
source_position = 7589
kind = FUNCTION
name = split
compiler = full-codegen
Instructions (size = 932)
0x16586500c4e0     0  55             push rbp                ;; debug: position 7589
0x16586500c4e1     1  4889e5         REX.W movq rbp,rsp
0x16586500c4e4     4  56             push rsi
0x16586500c4e5     5  57             push rdi
0x16586500c4e6     6  498b55a8       REX.W movq rdx,[r13-0x58]
0x16586500c4ea    10  52             push rdx
0x16586500c4eb    11  52             push rdx
0x16586500c4ec    12  52             push rdx
0x16586500c4ed    13  52             push rdx
0x16586500c4ee    14  52             push rdx
0x16586500c4ef    15  493ba548090000 REX.W cmpq rsp,[r13+0x948]
0x16586500c4f6    22  7305           jnc 29  (0x16586500c4fd)
0x16586500c4f8    24  e883a5f2ff     call StackCheck  (0x165864f36a80)    ;; code: BUILTIN
0x16586500c4fd    29  488b4520       REX.W movq rax,[rbp+0x20]    ;; debug: statement 7598
                                                             ;; debug: position 7610
0x16586500c501    33  eb0f           jmp 50  (0x16586500c512)
0x16586500c503    35  493b45c0       REX.W cmpq rax,[r13-0x40]
0x16586500c507    39  0f842e000000   jz 91  (0x16586500c53b)
0x16586500c50d    45  e90a000000     jmp 60  (0x16586500c51c)
0x16586500c512    50  493b45b8       REX.W cmpq rax,[r13-0x48]
0x16586500c516    54  0f841f000000   jz 91  (0x16586500c53b)
0x16586500c51c    60  488b4520       REX.W movq rax,[rbp+0x20]    ;; debug: position 7626
0x16586500c520    64  eb0f           jmp 81  (0x16586500c531)
0x16586500c522    66  493b45c0       REX.W cmpq rax,[r13-0x40]
0x16586500c526    70  0f840f000000   jz 91  (0x16586500c53b)
0x16586500c52c    76  e97c000000     jmp 205  (0x16586500c5ad)
0x16586500c531    81  493b45a8       REX.W cmpq rax,[r13-0x58]
0x16586500c535    85  0f8572000000   jnz 205  (0x16586500c5ad)
0x16586500c53b    91  48b9b92e98cfdd1e0000 REX.W movq rcx,0x1eddcf982eb9    ;; debug: statement 7643
                                                             ;; debug: position 7649
                                                             ;; object: 0x1eddcf982eb9 <String[13]: MakeTypeError>
0x16586500c545   101  488b5627       REX.W movq rdx,[rsi+0x27]
0x16586500c549   105  48b80000000006000000 REX.W movq rax,0x600000000
0x16586500c553   115  e808c0f1ff     call 0x165864f28560     ;; code: contextual, LOAD_IC, DEFAULT
0x16586500c558   120  50             push rax
0x16586500c559   121  49ba894190cfdd1e0000 REX.W movq r10,0x1eddcf904189    ;; object: 0x1eddcf904189 <undefined>
0x16586500c563   131  4152           push r10
0x16586500c565   133  49ba000000000f000000 REX.W movq r10,0xf00000000
0x16586500c56f   143  4152           push r10
0x16586500c571   145  49ba71f39ecfdd1e0000 REX.W movq r10,0x1eddcf9ef371    ;; object: 0x1eddcf9ef371 <String[22]: String.prototype.split>
0x16586500c57b   155  4152           push r10
0x16586500c57d   157  48ba0000000004000000 REX.W movq rdx,0x400000000
0x16586500c587   167  488b7c2418     REX.W movq rdi,[rsp+0x18]
0x16586500c58c   172  e86f72f0ff     call 0x165864f13800     ;; code: CALL_IC, DEFAULT
0x16586500c591   177  488b75f8       REX.W movq rsi,[rbp-0x8]
0x16586500c595   181  48890424       REX.W movq [rsp],rax
0x16586500c599   185  b801000000     movl rax,0x1            ;; debug: position 7643
0x16586500c59e   190  48bb9038290100000000 REX.W movq rbx,0x1293890
0x16586500c5a8   200  e833c5efff     call 0x165864f08ae0     ;; code: STUB, CEntryStub, minor: 0
0x16586500c5ad   205  488b4520       REX.W movq rax,[rbp+0x20]    ;; debug: statement 7693
                                                             ;; debug: position 7711
0x16586500c5b1   209  e82a0ef2ff     call 0x165864f2d3e0     ;; code: STUB, ToStringStub, minor: 0
0x16586500c5b6   214  488945e8       REX.W movq [rbp-0x18],rax    ;; debug: position 7693
0x16586500c5ba   218  488b4510       REX.W movq rax,[rbp+0x10]    ;; debug: statement 7719
                                                             ;; debug: position 7724
0x16586500c5be   222  eb0f           jmp 239  (0x16586500c5cf)
0x16586500c5c0   224  493b45c0       REX.W cmpq rax,[r13-0x40]
0x16586500c5c4   228  0f840f000000   jz 249  (0x16586500c5d9)
0x16586500c5ca   234  e919000000     jmp 264  (0x16586500c5e8)
0x16586500c5cf   239  493b45a8       REX.W cmpq rax,[r13-0x58]
0x16586500c5d3   243  0f850f000000   jnz 264  (0x16586500c5e8)
0x16586500c5d9   249  48b809a69fcfdd1e0000 REX.W movq rax,0x1eddcf9fa609    ;; debug: position 7740
                                                             ;; object: 0x1eddcf9fa609 <Number: 4.29497e+09>
0x16586500c5e3   259  e914000000     jmp 284  (0x16586500c5fc)
0x16586500c5e8   264  ff7510         push [rbp+0x10]         ;; debug: position 7752
0x16586500c5eb   267  48b80000000000000000 REX.W movq rax,(nil)
0x16586500c5f5   277  5a             pop rdx                 ;; debug: position 7754
0x16586500c5f6   278  e88505f0ff     call 0x165864f0cb80     ;; code: BINARY_OP_IC, UNINITIALIZED (id = 110)
0x16586500c5fb   283  90             nop
0x16586500c5fc   284  48894510       REX.W movq [rbp+0x10],rax    ;; debug: position 7721
0x16586500c600   288  488b45e8       REX.W movq rax,[rbp-0x18]    ;; debug: statement 7761
                                                             ;; debug: position 7767
0x16586500c604   292  488bd0         REX.W movq rdx,rax
0x16586500c607   295  48b9710799cfdd1e0000 REX.W movq rcx,0x1eddcf990771    ;; debug: position 7768
                                                             ;; object: 0x1eddcf990771 <String[6]: length>
0x16586500c611   305  48b80000000008000000 REX.W movq rax,0x800000000
0x16586500c61b   315  e840bff1ff     call 0x165864f28560     ;; code: contextual, LOAD_IC, DEFAULT
0x16586500c620   320  488945e0       REX.W movq [rbp-0x20],rax    ;; debug: position 7761
0x16586500c624   324  488b4518       REX.W movq rax,[rbp+0x18]    ;; debug: statement 7777
                                                             ;; debug: position 7793
0x16586500c628   328  a801           test al,0x1
0x16586500c62a   330  0f841f000000   jz 367  (0x16586500c64f)
0x16586500c630   336  488b58ff       REX.W movq rbx,[rax-0x1]
0x16586500c634   340  807b0bc9       cmpb [rbx+0xb],0xc9
0x16586500c638   344  eb0f           jmp 361  (0x16586500c649)
0x16586500c63a   346  493b45c0       REX.W cmpq rax,[r13-0x40]
0x16586500c63e   350  0f849f010000   jz 771  (0x16586500c7e3)
0x16586500c644   356  e906000000     jmp 367  (0x16586500c64f)
0x16586500c649   361  0f8494010000   jz 771  (0x16586500c7e3)
0x16586500c64f   367  488b4518       REX.W movq rax,[rbp+0x18]    ;; debug: statement 7800
                                                             ;; debug: position 7819
0x16586500c653   371  e8880df2ff     call 0x165864f2d3e0     ;; code: STUB, ToStringStub, minor: 0
0x16586500c658   376  488945d8       REX.W movq [rbp-0x28],rax    ;; debug: position 7800
0x16586500c65c   380  ff7510         push [rbp+0x10]         ;; debug: statement 7825
                                                             ;; debug: position 7828
0x16586500c65f   383  48b80000000000000000 REX.W movq rax,(nil)
0x16586500c669   393  5a             pop rdx
0x16586500c66a   394  e8d1ecf0ff     call 0x165864f1b340     ;; code: COMPARE_IC, UNINITIALIZED (id = 173)
0x16586500c66f   399  90             nop
0x16586500c670   400  eb0f           jmp 417  (0x16586500c681)
0x16586500c672   402  493b45c0       REX.W cmpq rax,[r13-0x40]
0x16586500c676   406  0f840e000000   jz 426  (0x16586500c68a)
0x16586500c67c   412  e95d000000     jmp 510  (0x16586500c6de)
0x16586500c681   417  4885c0         REX.W testq rax,rax
0x16586500c684   420  0f8554000000   jnz 510  (0x16586500c6de)
0x16586500c68a   426  488b5df0       REX.W movq rbx,[rbp-0x10]    ;; debug: statement 7835
0x16586500c68e   430  488b4337       REX.W movq rax,[rbx+0x37]
0x16586500c692   434  48bb0000000000000000 REX.W movq rbx,(nil)
0x16586500c69c   444  48b929a69fcfdd1e0000 REX.W movq rcx,0x1eddcf9fa629    ;; object: 0x1eddcf9fa629 <FixedArray[2]>
0x16586500c6a6   454  e8b5fbf0ff     call 0x165864f1c260     ;; code: STUB, FastCloneShallowArrayStub, minor: 1
0x16586500c6ab   459  48bb19a69fcfdd1e0000 REX.W movq rbx,0x1eddcf9fa619    ;; object: 0x1eddcf9fa619 Cell for 6144
0x16586500c6b5   469  83430bd1       addl [rbx+0xb],0xd1
0x16586500c6b9   473  791f           jns 506  (0x16586500c6da)
0x16586500c6bb   475  50             push rax
0x16586500c6bc   476  e87fa2f2ff     call InterruptCheck  (0x165864f36940)    ;; code: BUILTIN
0x16586500c6c1   481  58             pop rax
0x16586500c6c2   482  48bb19a69fcfdd1e0000 REX.W movq rbx,0x1eddcf9fa619    ;; object: 0x1eddcf9fa619 Cell for 6144
0x16586500c6cc   492  49ba0000000000180000 REX.W movq r10,0x180000000000
0x16586500c6d6   502  4c895307       REX.W movq [rbx+0x7],r10
0x16586500c6da   506  c9             leave                   ;; debug: statement 8032
0x16586500c6db   507  c21800         ret 0x18
0x16586500c6de   510  488b4518       REX.W movq rax,[rbp+0x18]    ;; debug: statement 7845
                                                             ;; debug: position 7849
0x16586500c6e2   514  eb0f           jmp 531  (0x16586500c6f3)
0x16586500c6e4   516  493b45c0       REX.W cmpq rax,[r13-0x40]
0x16586500c6e8   520  0f840f000000   jz 541  (0x16586500c6fd)
0x16586500c6ee   526  e955000000     jmp 616  (0x16586500c748)
0x16586500c6f3   531  493b45a8       REX.W cmpq rax,[r13-0x58]
0x16586500c6f7   535  0f854b000000   jnz 616  (0x16586500c748)
0x16586500c6fd   541  488b5df0       REX.W movq rbx,[rbp-0x10]    ;; debug: statement 7864
0x16586500c701   545  488b4337       REX.W movq rax,[rbx+0x37]
0x16586500c705   549  48bb0000000001000000 REX.W movq rbx,0x100000000
0x16586500c70f   559  48b949a69fcfdd1e0000 REX.W movq rcx,0x1eddcf9fa649    ;; object: 0x1eddcf9fa649 <FixedArray[2]>
0x16586500c719   569  e842fbf0ff     call 0x165864f1c260     ;; code: STUB, FastCloneShallowArrayStub, minor: 1
0x16586500c71e   574  50             push rax
0x16586500c71f   575  49ba0000000001000000 REX.W movq r10,0x100000000
0x16586500c729   585  4152           push r10
0x16586500c72b   587  488b45e8       REX.W movq rax,[rbp-0x18]    ;; debug: position 7871
0x16586500c72f   591  48b90000000000000000 REX.W movq rcx,(nil)
0x16586500c739   601  e8e23af1ff     call 0x165864f20220     ;; code: STUB, StoreArrayLiteralElementStub, minor: 0
0x16586500c73e   606  4883c408       REX.W addq rsp,0x8
0x16586500c742   610  58             pop rax
0x16586500c743   611  e963ffffff     jmp 459  (0x16586500c6ab)
0x16586500c748   616  488b45d8       REX.W movq rax,[rbp-0x28]    ;; debug: statement 7875
                                                             ;; debug: position 7882
0x16586500c74c   620  488bd0         REX.W movq rdx,rax
0x16586500c74f   623  48b9710799cfdd1e0000 REX.W movq rcx,0x1eddcf990771    ;; debug: position 7884
                                                             ;; object: 0x1eddcf990771 <String[6]: length>
0x16586500c759   633  48b8000000000a000000 REX.W movq rax,0xa00000000
0x16586500c763   643  e8f8bdf1ff     call 0x165864f28560     ;; code: contextual, LOAD_IC, DEFAULT
0x16586500c768   648  488945d0       REX.W movq [rbp-0x30],rax    ;; debug: position 7875
0x16586500c76c   652  ff75d0         push [rbp-0x30]         ;; debug: statement 7893
                                                             ;; debug: position 7896
0x16586500c76f   655  48b80000000000000000 REX.W movq rax,(nil)
0x16586500c779   665  5a             pop rdx
0x16586500c77a   666  e8c1ebf0ff     call 0x165864f1b340     ;; code: COMPARE_IC, UNINITIALIZED (id = 230)
0x16586500c77f   671  90             nop
0x16586500c780   672  eb0f           jmp 689  (0x16586500c791)
0x16586500c782   674  493b45c0       REX.W cmpq rax,[r13-0x40]
0x16586500c786   678  0f840e000000   jz 698  (0x16586500c79a)
0x16586500c78c   684  e928000000     jmp 729  (0x16586500c7b9)
0x16586500c791   689  4885c0         REX.W testq rax,rax
0x16586500c794   692  0f851f000000   jnz 729  (0x16586500c7b9)
0x16586500c79a   698  ff75e8         push [rbp-0x18]         ;; debug: statement 7903
                                                             ;; debug: position 7925
0x16586500c79d   701  ff7510         push [rbp+0x10]         ;; debug: position 7927
0x16586500c7a0   704  b802000000     movl rax,0x2
0x16586500c7a5   709  48bb50002f0100000000 REX.W movq rbx,0x12f0050
0x16586500c7af   719  e82cc3efff     call 0x165864f08ae0     ;; code: STUB, CEntryStub, minor: 0
0x16586500c7b4   724  e9f2feffff     jmp 459  (0x16586500c6ab)
0x16586500c7b9   729  ff75e8         push [rbp-0x18]         ;; debug: statement 7932
                                                             ;; debug: position 7951
0x16586500c7bc   732  ff75d8         push [rbp-0x28]         ;; debug: position 7953
0x16586500c7bf   735  ff7510         push [rbp+0x10]         ;; debug: position 7956
0x16586500c7c2   738  b803000000     movl rax,0x3
0x16586500c7c7   743  48bb00da2a0100000000 REX.W movq rbx,0x12ada00
0x16586500c7d1   753  e80ac3efff     call 0x165864f08ae0     ;; code: STUB, CEntryStub, minor: 0
0x16586500c7d6   758  488945c8       REX.W movq [rbp-0x38],rax    ;; debug: position 7932
0x16586500c7da   762  488b45c8       REX.W movq rax,[rbp-0x38]    ;; debug: statement 7961
                                                             ;; debug: position 7968
0x16586500c7de   766  e9c8feffff     jmp 459  (0x16586500c6ab)
0x16586500c7e3   771  ff7510         push [rbp+0x10]         ;; debug: statement 7973
                                                             ;; debug: position 7976
0x16586500c7e6   774  48b80000000000000000 REX.W movq rax,(nil)
0x16586500c7f0   784  5a             pop rdx
0x16586500c7f1   785  e84aebf0ff     call 0x165864f1b340     ;; code: COMPARE_IC, UNINITIALIZED (id = 276)
0x16586500c7f6   790  90             nop
0x16586500c7f7   791  eb0f           jmp 808  (0x16586500c808)
0x16586500c7f9   793  493b45c0       REX.W cmpq rax,[r13-0x40]
0x16586500c7fd   797  0f840e000000   jz 817  (0x16586500c811)
0x16586500c803   803  e92f000000     jmp 855  (0x16586500c837)
0x16586500c808   808  4885c0         REX.W testq rax,rax
0x16586500c80b   811  0f8526000000   jnz 855  (0x16586500c837)
0x16586500c811   817  488b5df0       REX.W movq rbx,[rbp-0x10]    ;; debug: statement 7983
0x16586500c815   821  488b4337       REX.W movq rax,[rbx+0x37]
0x16586500c819   825  48bb0000000002000000 REX.W movq rbx,0x200000000
0x16586500c823   835  48b969a69fcfdd1e0000 REX.W movq rcx,0x1eddcf9fa669    ;; object: 0x1eddcf9fa669 <FixedArray[2]>
0x16586500c82d   845  e82efaf0ff     call 0x165864f1c260     ;; code: STUB, FastCloneShallowArrayStub, minor: 1
0x16586500c832   850  e974feffff     jmp 459  (0x16586500c6ab)
0x16586500c837   855  488bc6         REX.W movq rax,rsi      ;; debug: statement 7993
                                                             ;; debug: position 8000
0x16586500c83a   858  ffb0df000000   push [rax+0xdf]
0x16586500c840   864  41ff75a8       push [r13-0x58]
0x16586500c844   868  ff75e8         push [rbp-0x18]         ;; debug: position 8020
0x16586500c847   871  ff7518         push [rbp+0x18]         ;; debug: position 8022
0x16586500c84a   874  ff7510         push [rbp+0x10]         ;; debug: position 8025
0x16586500c84d   877  ff75e0         push [rbp-0x20]         ;; debug: position 8028
0x16586500c850   880  48ba000000000c000000 REX.W movq rdx,0xc00000000    ;; debug: position 8000
0x16586500c85a   890  488b7c2428     REX.W movq rdi,[rsp+0x28]
0x16586500c85f   895  e8dcdbf1ff     call 0x165864f2a440     ;; code: CALL_IC, DEFAULT
0x16586500c864   900  488b75f8       REX.W movq rsi,[rbp-0x8]
0x16586500c868   904  4883c408       REX.W addq rsp,0x8
0x16586500c86c   908  e93afeffff     jmp 459  (0x16586500c6ab)
0x16586500c871   913  498b45a8       REX.W movq rax,[r13-0x58]
0x16586500c875   917  e931feffff     jmp 459  (0x16586500c6ab)
0x16586500c87a   922  660f1f440000   nop

Deoptimization Output Data (deopt points = 139)
ast id        pc  state
     1        15  NO_REGISTERS
     2        15  NO_REGISTERS
     3        15  NO_REGISTERS
    31        29  NO_REGISTERS
    29        33  TOS_REG
    26        35  TOS_REG
    24        60  NO_REGISTERS
    40        60  NO_REGISTERS
    38        64  TOS_REG
    35        66  TOS_REG
    20        91  NO_REGISTERS
    57        91  NO_REGISTERS
    55       121  NO_REGISTERS
    58       145  NO_REGISTERS
    61       157  NO_REGISTERS
    52       177  TOS_REG
    50       185  NO_REGISTERS
    48       205  NO_REGISTERS
    21       205  NO_REGISTERS
    19       205  NO_REGISTERS
    64       205  NO_REGISTERS
    79       205  NO_REGISTERS
    77       209  TOS_REG
    74       214  TOS_REG
    69       218  TOS_REG
    67       218  NO_REGISTERS
    65       218  NO_REGISTERS
    96       218  NO_REGISTERS
    94       222  TOS_REG
    91       224  TOS_REG
    89       249  NO_REGISTERS
   104       259  TOS_REG
    90       264  NO_REGISTERS
   113       264  NO_REGISTERS
   111       267  NO_REGISTERS
   114       277  TOS_REG
   107       284  TOS_REG
    87       284  TOS_REG
    82       288  TOS_REG
    80       288  NO_REGISTERS
   117       288  NO_REGISTERS
   135       288  NO_REGISTERS
   133       292  TOS_REG
   129       320  TOS_REG
   127       320  TOS_REG
   122       324  TOS_REG
   120       324  NO_REGISTERS
   118       324  NO_REGISTERS
   148       324  NO_REGISTERS
   146       328  TOS_REG
   143       346  TOS_REG
   137       367  NO_REGISTERS
   149       367  NO_REGISTERS
   152       367  NO_REGISTERS
   167       367  NO_REGISTERS
   165       371  TOS_REG
   162       376  TOS_REG
   157       380  TOS_REG
   155       380  NO_REGISTERS
   153       380  NO_REGISTERS
   176       380  NO_REGISTERS
   174       383  NO_REGISTERS
   177       393  TOS_REG
   171       402  TOS_REG
   169       426  NO_REGISTERS
   182       459  TOS_REG
   180       459  TOS_REG
   170       510  NO_REGISTERS
   168       510  NO_REGISTERS
   191       510  NO_REGISTERS
   189       514  TOS_REG
   186       516  TOS_REG
   184       541  NO_REGISTERS
   201       574  TOS_REG
   205       587  NO_REGISTERS
   203       591  TOS_REG
   202       606  NO_REGISTERS
   199       611  TOS_REG
   185       616  NO_REGISTERS
   183       616  NO_REGISTERS
   206       616  NO_REGISTERS
   224       616  NO_REGISTERS
   222       620  TOS_REG
   218       648  TOS_REG
   216       648  TOS_REG
   211       652  TOS_REG
   209       652  NO_REGISTERS
   207       652  NO_REGISTERS
   233       652  NO_REGISTERS
   231       655  NO_REGISTERS
   234       665  TOS_REG
   228       674  TOS_REG
   226       698  NO_REGISTERS
   242       698  NO_REGISTERS
   240       701  NO_REGISTERS
   245       701  NO_REGISTERS
   243       704  NO_REGISTERS
   239       704  NO_REGISTERS
   237       724  TOS_REG
   227       729  NO_REGISTERS
   225       729  NO_REGISTERS
   246       729  NO_REGISTERS
   261       729  NO_REGISTERS
   259       732  NO_REGISTERS
   264       732  NO_REGISTERS
   262       735  NO_REGISTERS
   267       735  NO_REGISTERS
   265       738  NO_REGISTERS
   258       738  NO_REGISTERS
   256       758  TOS_REG
   251       762  TOS_REG
   249       762  NO_REGISTERS
   247       762  NO_REGISTERS
   270       762  NO_REGISTERS
   268       766  TOS_REG
   150       771  NO_REGISTERS
   138       771  NO_REGISTERS
   136       771  NO_REGISTERS
   279       771  NO_REGISTERS
   277       774  NO_REGISTERS
   280       784  TOS_REG
   274       793  TOS_REG
   272       817  NO_REGISTERS
   285       850  TOS_REG
   283       850  TOS_REG
   273       855  NO_REGISTERS
   271       855  NO_REGISTERS
   293       855  NO_REGISTERS
   291       864  NO_REGISTERS
   296       868  NO_REGISTERS
   294       871  NO_REGISTERS
   299       871  NO_REGISTERS
   297       874  NO_REGISTERS
   302       874  NO_REGISTERS
   300       877  NO_REGISTERS
   305       877  NO_REGISTERS
   303       880  NO_REGISTERS
   288       900  TOS_REG
   286       908  TOS_REG

Back edges (size = 0)
ast_id  pc_offset  loop_depth

0x1eddcf9fb021: [TypeFeedbackInfo]
 - ic_total_count: 9, ic_with_type_info_count: 0, ic_generic_count: 0

RelocInfo (size = 193)
0x16586500c4e0  position  (7589)
0x16586500c4f9  code target (BUILTIN)  (0x165864f36a80)
0x16586500c4fd  statement position  (7598)
0x16586500c4fd  position  (7610)
0x16586500c51c  position  (7626)
0x16586500c53b  statement position  (7643)
0x16586500c53b  position  (7649)
0x16586500c53d  embedded object  (0x1eddcf982eb9 <String[13]: MakeTypeError>)
0x16586500c554  code target (LOAD_IC)  (0x165864f28560)
0x16586500c55b  embedded object  (0x1eddcf904189 <undefined>)
0x16586500c573  embedded object  (0x1eddcf9ef371 <String[22]: String.prototype.split>)
0x16586500c58d  code target (CALL_IC)  (0x165864f13800)
0x16586500c599  position  (7643)
0x16586500c5a9  code target (STUB)  (0x165864f08ae0)
0x16586500c5ad  statement position  (7693)
0x16586500c5ad  position  (7711)
0x16586500c5b2  code target (STUB)  (0x165864f2d3e0)
0x16586500c5b6  position  (7693)
0x16586500c5ba  statement position  (7719)
0x16586500c5ba  position  (7724)
0x16586500c5d9  position  (7740)
0x16586500c5db  embedded object  (0x1eddcf9fa609 <Number: 4.29497e+09>)
0x16586500c5e8  position  (7752)
0x16586500c5f5  position  (7754)
0x16586500c5f7  code target with id (BINARY_OP_IC)  (0x165864f0cb80) (id=110)
0x16586500c5fc  position  (7721)
0x16586500c600  statement position  (7761)
0x16586500c600  position  (7767)
0x16586500c607  position  (7768)
0x16586500c609  embedded object  (0x1eddcf990771 <String[6]: length>)
0x16586500c61c  code target (LOAD_IC)  (0x165864f28560)
0x16586500c620  position  (7761)
0x16586500c624  statement position  (7777)
0x16586500c624  position  (7793)
0x16586500c64f  statement position  (7800)
0x16586500c64f  position  (7819)
0x16586500c654  code target (STUB)  (0x165864f2d3e0)
0x16586500c658  position  (7800)
0x16586500c65c  statement position  (7825)
0x16586500c65c  position  (7828)
0x16586500c66b  code target with id (COMPARE_IC)  (0x165864f1b340) (id=173)
0x16586500c68a  statement position  (7835)
0x16586500c69e  embedded object  (0x1eddcf9fa629 <FixedArray[2]>)
0x16586500c6a7  code target (STUB)  (0x165864f1c260)
0x16586500c6ad  embedded object  (0x1eddcf9fa619 Cell for 6144)
0x16586500c6bd  code target (BUILTIN)  (0x165864f36940)
0x16586500c6c4  embedded object  (0x1eddcf9fa619 Cell for 6144)
0x16586500c6da  statement position  (8032)
0x16586500c6de  statement position  (7845)
0x16586500c6de  position  (7849)
0x16586500c6fd  statement position  (7864)
0x16586500c711  embedded object  (0x1eddcf9fa649 <FixedArray[2]>)
0x16586500c71a  code target (STUB)  (0x165864f1c260)
0x16586500c72b  position  (7871)
0x16586500c73a  code target (STUB)  (0x165864f20220)
0x16586500c748  statement position  (7875)
0x16586500c748  position  (7882)
0x16586500c74f  position  (7884)
0x16586500c751  embedded object  (0x1eddcf990771 <String[6]: length>)
0x16586500c764  code target (LOAD_IC)  (0x165864f28560)
0x16586500c768  position  (7875)
0x16586500c76c  statement position  (7893)
0x16586500c76c  position  (7896)
0x16586500c77b  code target with id (COMPARE_IC)  (0x165864f1b340) (id=230)
0x16586500c79a  statement position  (7903)
0x16586500c79a  position  (7925)
0x16586500c79d  position  (7927)
0x16586500c7b0  code target (STUB)  (0x165864f08ae0)
0x16586500c7b9  statement position  (7932)
0x16586500c7b9  position  (7951)
0x16586500c7bc  position  (7953)
0x16586500c7bf  position  (7956)
0x16586500c7d2  code target (STUB)  (0x165864f08ae0)
0x16586500c7d6  position  (7932)
0x16586500c7da  statement position  (7961)
0x16586500c7da  position  (7968)
0x16586500c7e3  statement position  (7973)
0x16586500c7e3  position  (7976)
0x16586500c7f2  code target with id (COMPARE_IC)  (0x165864f1b340) (id=276)
0x16586500c811  statement position  (7983)
0x16586500c825  embedded object  (0x1eddcf9fa669 <FixedArray[2]>)
0x16586500c82e  code target (STUB)  (0x165864f1c260)
0x16586500c837  statement position  (7993)
0x16586500c837  position  (8000)
0x16586500c844  position  (8020)
0x16586500c847  position  (8022)
0x16586500c84a  position  (8025)
0x16586500c84d  position  (8028)
0x16586500c850  position  (8000)
0x16586500c860  code target (CALL_IC)  (0x165864f2a440)

--- End code ---
--- Raw source ---
(D,q,w){
if((D===(void 0))){
D=',';
}else{
D=(%_ToString(D));
}
var O=%_FastOneByteArrayJoin(q,D);
if(!(O===(void 0)))return O;
if(w===1){
var v=q[0];
if((v==null))return'';
return(%_ToString(v));
}
return Join(q,w,D,ConvertToString);
}


--- Code ---
source_position = 5098
kind = FUNCTION
name = InnerArrayJoin
compiler = full-codegen
Instructions (size = 1324)
0x16586500c900     0  55             push rbp                ;; debug: position 5098
0x16586500c901     1  4889e5         REX.W movq rbp,rsp
0x16586500c904     4  56             push rsi
0x16586500c905     5  57             push rdi
0x16586500c906     6  498b55a8       REX.W movq rdx,[r13-0x58]
0x16586500c90a    10  52             push rdx
0x16586500c90b    11  52             push rdx
0x16586500c90c    12  493ba548090000 REX.W cmpq rsp,[r13+0x948]
0x16586500c913    19  7305           jnc 26  (0x16586500c91a)
0x16586500c915    21  e866a1f2ff     call StackCheck  (0x165864f36a80)    ;; code: BUILTIN
0x16586500c91a    26  488b4520       REX.W movq rax,[rbp+0x20]    ;; debug: statement 5107
                                                             ;; debug: position 5111
0x16586500c91e    30  eb0f           jmp 47  (0x16586500c92f)
0x16586500c920    32  493b45c0       REX.W cmpq rax,[r13-0x40]
0x16586500c924    36  0f840f000000   jz 57  (0x16586500c939)
0x16586500c92a    42  e91d000000     jmp 76  (0x16586500c94c)
0x16586500c92f    47  493b45a8       REX.W cmpq rax,[r13-0x58]
0x16586500c933    51  0f8513000000   jnz 76  (0x16586500c94c)
0x16586500c939    57  48b8b10c9fcfdd1e0000 REX.W movq rax,0x1eddcf9f0cb1    ;; debug: statement 5127
                                                             ;; debug: position 5128
                                                             ;; object: 0x1eddcf9f0cb1 <String[1]: ,>
0x16586500c943    67  48894520       REX.W movq [rbp+0x20],rax
0x16586500c947    71  e90d000000     jmp 89  (0x16586500c959)
0x16586500c94c    76  488b4520       REX.W movq rax,[rbp+0x20]    ;; debug: statement 5141
                                                             ;; debug: position 5155
0x16586500c950    80  e88b0af2ff     call 0x165864f2d3e0     ;; code: STUB, ToStringStub, minor: 0
0x16586500c955    85  48894520       REX.W movq [rbp+0x20],rax    ;; debug: position 5142
0x16586500c959    89  ff7520         push [rbp+0x20]         ;; debug: statement 5162
                                                             ;; debug: position 5193
0x16586500c95c    92  488b4518       REX.W movq rax,[rbp+0x18]    ;; debug: position 5191
0x16586500c960    96  4883ec10       REX.W subq rsp,0x10
0x16586500c964   100  fc             cld
0x16586500c965   101  a801           test al,0x1
0x16586500c967   103  0f84c4010000   jz 561  (0x16586500cb31)
0x16586500c96d   109  488b58ff       REX.W movq rbx,[rax-0x1]
0x16586500c971   113  807b0bbe       cmpb [rbx+0xb],0xbe
0x16586500c975   117  0f85b6010000   jnz 561  (0x16586500cb31)
0x16586500c97b   123  807b0d1f       cmpb [rbx+0xd],0x1f
0x16586500c97f   127  0f87ac010000   ja 561  (0x16586500cb31)
0x16586500c985   133  488b7817       REX.W movq rdi,[rax+0x17]
0x16586500c989   137  4885ff         REX.W testq rdi,rdi
0x16586500c98c   140  0f8509000000   jnz 155  (0x16586500c99b)
0x16586500c992   146  498b45d0       REX.W movq rax,[r13-0x30]
0x16586500c996   150  e94f030000     jmp 1002  (0x16586500ccea)
0x16586500c99b   155  48c1ef20       REX.W shrq rdi, 32
0x16586500c99f   159  893c24         movl [rsp],rdi
0x16586500c9a2   162  488b400f       REX.W movq rax,[rax+0xf]
0x16586500c9a6   166  33d2           xorl rdx,rdx
0x16586500c9a8   168  33c9           xorl rcx,rcx
0x16586500c9aa   170  488b74d00f     REX.W movq rsi,[rax+rdx*8+0xf]
0x16586500c9af   175  40f6c601       testb rsi,0x1
0x16586500c9b3   179  0f8478010000   jz 561  (0x16586500cb31)
0x16586500c9b9   185  488b5eff       REX.W movq rbx,[rsi-0x1]
0x16586500c9bd   189  0fb65b0b       movzxbl rbx,[rbx+0xb]
0x16586500c9c1   193  80e387         cmpb bl,0x87
0x16586500c9c4   196  80fb04         cmpb bl,0x4
0x16586500c9c7   199  0f8564010000   jnz 561  (0x16586500cb31)
0x16586500c9cd   205  034e13         addl rcx,[rsi+0x13]
0x16586500c9d0   208  0f805b010000   jo 561  (0x16586500cb31)
0x16586500c9d6   214  ffc2           incl rdx
0x16586500c9d8   216  3bd7           cmpl rdx,rdi
0x16586500c9da   218  0f8ccaffffff   jl 170  (0x16586500c9aa)
0x16586500c9e0   224  83ff01         cmpl rdi,0x1
0x16586500c9e3   227  0f8509000000   jnz 242  (0x16586500c9f2)
0x16586500c9e9   233  488b400f       REX.W movq rax,[rax+0xf]
0x16586500c9ed   237  e9f8020000     jmp 1002  (0x16586500ccea)
0x16586500c9f2   242  488b742410     REX.W movq rsi,[rsp+0x10]
0x16586500c9f7   247  40f6c601       testb rsi,0x1
0x16586500c9fb   251  0f8430010000   jz 561  (0x16586500cb31)
0x16586500ca01   257  488b5eff       REX.W movq rbx,[rsi-0x1]
0x16586500ca05   261  0fb65b0b       movzxbl rbx,[rbx+0xb]
0x16586500ca09   265  80e387         cmpb bl,0x87
0x16586500ca0c   268  80fb04         cmpb bl,0x4
0x16586500ca0f   271  0f851c010000   jnz 561  (0x16586500cb31)
0x16586500ca15   277  8b5e13         movl rbx,[rsi+0x13]
0x16586500ca18   280  ffca           decl rdx
0x16586500ca1a   282  0fafda         imull rbx,rdx
0x16586500ca1d   285  0f800e010000   jo 561  (0x16586500cb31)
0x16586500ca23   291  03cb           addl rcx,rbx
0x16586500ca25   293  0f8006010000   jo 561  (0x16586500cb31)
0x16586500ca2b   299  8bd9           movl rbx,rcx
0x16586500ca2d   301  4883c307       REX.W addq rbx,0x7
0x16586500ca31   305  4883e3f8       REX.W andq rbx,0xf8
0x16586500ca35   309  488d141d18000000 REX.W leaq rdx,[rbx*1+0x18]
0x16586500ca3d   317  498db5900c0000 REX.W leaq rsi,[r13+0xc90]
0x16586500ca44   324  488b3e         REX.W movq rdi,[rsi]
0x16586500ca47   327  4803d7         REX.W addq rdx,rdi
0x16586500ca4a   330  0f82e1000000   jc 561  (0x16586500cb31)
0x16586500ca50   336  493b95980c0000 REX.W cmpq rdx,[r13+0xc98]
0x16586500ca57   343  0f87d4000000   ja 561  (0x16586500cb31)
0x16586500ca5d   349  488916         REX.W movq [rsi],rdx
0x16586500ca60   352  4883c701       REX.W addq rdi,0x1
0x16586500ca64   356  4d8b95a0000000 REX.W movq r10,[r13+0xa0]
0x16586500ca6b   363  4c8957ff       REX.W movq [rdi-0x1],r10
0x16586500ca6f   367  8bd9           movl rbx,rcx
0x16586500ca71   369  48c1e320       REX.W shlq rbx, 32
0x16586500ca75   373  48895f0f       REX.W movq [rdi+0xf],rbx
0x16586500ca79   377  48c7470703000000 REX.W movq [rdi+0x7],0x3
0x16586500ca81   385  48897c2408     REX.W movq [rsp+0x8],rdi
0x16586500ca86   390  488d7f17       REX.W leaq rdi,[rdi+0x17]
0x16586500ca8a   394  488b742410     REX.W movq rsi,[rsp+0x10]
0x16586500ca8f   399  837e1301       cmpl [rsi+0x13],0x1
0x16586500ca93   403  0f84a1000000   jz 570  (0x16586500cb3a)
0x16586500ca99   409  0f8f34010000   jg 723  (0x16586500cbd3)
0x16586500ca9f   415  33d2           xorl rdx,rdx
0x16586500caa1   417  8b1c24         movl rbx,[rsp]
0x16586500caa4   420  e97b000000     jmp 548  (0x16586500cb24)
0x16586500caa9   425  488b74d00f     REX.W movq rsi,[rax+rdx*8+0xf]
0x16586500caae   430  8b4e13         movl rcx,[rsi+0x13]
0x16586500cab1   433  488d7617       REX.W leaq rsi,[rsi+0x17]
0x16586500cab5   437  83f908         cmpl rcx,0x8
0x16586500cab8   440  7250           jc 522  (0x16586500cb0a)
0x16586500caba   442  83f910         cmpl rcx,0x10
0x16586500cabd   445  7636           jna 501  (0x16586500caf5)
0x16586500cabf   447  83f918         cmpl rcx,0x18
0x16586500cac2   450  7629           jna 493  (0x16586500caed)
0x16586500cac4   452  83f920         cmpl rcx,0x20
0x16586500cac7   455  761c           jna 485  (0x16586500cae5)
0x16586500cac9   457  4c8bd1         REX.W movq r10,rcx
0x16586500cacc   460  c1e903         shrl rcx, 3
0x16586500cacf   463  f348a5         REX.W rep REX.W movsq
0x16586500cad2   466  4183e207       andl r10,0x7
0x16586500cad6   470  4a8b4c16f8     REX.W movq rcx,[rsi+r10*1-0x8]
0x16586500cadb   475  4a894c17f8     REX.W movq [rdi+r10*1-0x8],rcx
0x16586500cae0   480  4903fa         REX.W addq rdi,r10
0x16586500cae3   483  eb3d           jmp 546  (0x16586500cb22)
0x16586500cae5   485  4c8b5610       REX.W movq r10,[rsi+0x10]
0x16586500cae9   489  4c895710       REX.W movq [rdi+0x10],r10
0x16586500caed   493  4c8b5608       REX.W movq r10,[rsi+0x8]
0x16586500caf1   497  4c895708       REX.W movq [rdi+0x8],r10
0x16586500caf5   501  4c8b16         REX.W movq r10,[rsi]
0x16586500caf8   504  4c8917         REX.W movq [rdi],r10
0x16586500cafb   507  4c8b540ef8     REX.W movq r10,[rsi+rcx*1-0x8]
0x16586500cb00   512  4c89540ff8     REX.W movq [rdi+rcx*1-0x8],r10
0x16586500cb05   517  4803f9         REX.W addq rdi,rcx
0x16586500cb08   520  eb18           jmp 546  (0x16586500cb22)
0x16586500cb0a   522  85c9           testl rcx,rcx
0x16586500cb0c   524  7414           jz 546  (0x16586500cb22)
0x16586500cb0e   526  448a16         movb r10l,[rsi]
0x16586500cb11   529  448817         movb [rdi],r10l
0x16586500cb14   532  48ffc6         REX.W incq rsi
0x16586500cb17   535  48ffc7         REX.W incq rdi
0x16586500cb1a   538  ffc9           decl rcx
0x16586500cb1c   540  0f85ecffffff   jnz 526  (0x16586500cb0e)
0x16586500cb22   546  ffc2           incl rdx
0x16586500cb24   548  3bd3           cmpl rdx,rbx
0x16586500cb26   550  0f8c7dffffff   jl 425  (0x16586500caa9)
0x16586500cb2c   556  e9b4010000     jmp 997  (0x16586500cce5)
0x16586500cb31   561  498b45a8       REX.W movq rax,[r13-0x58]
0x16586500cb35   565  e9b0010000     jmp 1002  (0x16586500ccea)
0x16586500cb3a   570  0fb65e17       movzxbl rbx,[rsi+0x17]
0x16586500cb3e   574  33d2           xorl rdx,rdx
0x16586500cb40   576  e905000000     jmp 586  (0x16586500cb4a)
0x16586500cb45   581  881f           movb [rdi],bl
0x16586500cb47   583  48ffc7         REX.W incq rdi
0x16586500cb4a   586  488b74d00f     REX.W movq rsi,[rax+rdx*8+0xf]
0x16586500cb4f   591  8b4e13         movl rcx,[rsi+0x13]
0x16586500cb52   594  488d7617       REX.W leaq rsi,[rsi+0x17]
0x16586500cb56   598  83f908         cmpl rcx,0x8
0x16586500cb59   601  7250           jc 683  (0x16586500cbab)
0x16586500cb5b   603  83f910         cmpl rcx,0x10
0x16586500cb5e   606  7636           jna 662  (0x16586500cb96)
0x16586500cb60   608  83f918         cmpl rcx,0x18
0x16586500cb63   611  7629           jna 654  (0x16586500cb8e)
0x16586500cb65   613  83f920         cmpl rcx,0x20
0x16586500cb68   616  761c           jna 646  (0x16586500cb86)
0x16586500cb6a   618  4c8bd1         REX.W movq r10,rcx
0x16586500cb6d   621  c1e903         shrl rcx, 3
0x16586500cb70   624  f348a5         REX.W rep REX.W movsq
0x16586500cb73   627  4183e207       andl r10,0x7
0x16586500cb77   631  4a8b4c16f8     REX.W movq rcx,[rsi+r10*1-0x8]
0x16586500cb7c   636  4a894c17f8     REX.W movq [rdi+r10*1-0x8],rcx
0x16586500cb81   641  4903fa         REX.W addq rdi,r10
0x16586500cb84   644  eb3d           jmp 707  (0x16586500cbc3)
0x16586500cb86   646  4c8b5610       REX.W movq r10,[rsi+0x10]
0x16586500cb8a   650  4c895710       REX.W movq [rdi+0x10],r10
0x16586500cb8e   654  4c8b5608       REX.W movq r10,[rsi+0x8]
0x16586500cb92   658  4c895708       REX.W movq [rdi+0x8],r10
0x16586500cb96   662  4c8b16         REX.W movq r10,[rsi]
0x16586500cb99   665  4c8917         REX.W movq [rdi],r10
0x16586500cb9c   668  4c8b540ef8     REX.W movq r10,[rsi+rcx*1-0x8]
0x16586500cba1   673  4c89540ff8     REX.W movq [rdi+rcx*1-0x8],r10
0x16586500cba6   678  4803f9         REX.W addq rdi,rcx
0x16586500cba9   681  eb18           jmp 707  (0x16586500cbc3)
0x16586500cbab   683  85c9           testl rcx,rcx
0x16586500cbad   685  7414           jz 707  (0x16586500cbc3)
0x16586500cbaf   687  448a16         movb r10l,[rsi]
0x16586500cbb2   690  448817         movb [rdi],r10l
0x16586500cbb5   693  48ffc6         REX.W incq rsi
0x16586500cbb8   696  48ffc7         REX.W incq rdi
0x16586500cbbb   699  ffc9           decl rcx
0x16586500cbbd   701  0f85ecffffff   jnz 687  (0x16586500cbaf)
0x16586500cbc3   707  ffc2           incl rdx
0x16586500cbc5   709  3b1424         cmpl rdx,[rsp]
0x16586500cbc8   712  0f8c77ffffff   jl 581  (0x16586500cb45)
0x16586500cbce   718  e912010000     jmp 997  (0x16586500cce5)
0x16586500cbd3   723  8b1424         movl rdx,[rsp]
0x16586500cbd6   726  488d44d00f     REX.W leaq rax,[rax+rdx*8+0xf]
0x16586500cbdb   731  48f7da         REX.W negq rdx
0x16586500cbde   734  488b742410     REX.W movq rsi,[rsp+0x10]
0x16586500cbe3   739  8b5e13         movl rbx,[rsi+0x13]
0x16586500cbe6   742  488d7617       REX.W leaq rsi,[rsi+0x17]
0x16586500cbea   746  4889742410     REX.W movq [rsp+0x10],rsi
0x16586500cbef   751  e970000000     jmp 868  (0x16586500cc64)
0x16586500cbf4   756  488b742410     REX.W movq rsi,[rsp+0x10]
0x16586500cbf9   761  8bcb           movl rcx,rbx
0x16586500cbfb   763  83f908         cmpl rcx,0x8
0x16586500cbfe   766  7250           jc 848  (0x16586500cc50)
0x16586500cc00   768  83f910         cmpl rcx,0x10
0x16586500cc03   771  7636           jna 827  (0x16586500cc3b)
0x16586500cc05   773  83f918         cmpl rcx,0x18
0x16586500cc08   776  7629           jna 819  (0x16586500cc33)
0x16586500cc0a   778  83f920         cmpl rcx,0x20
0x16586500cc0d   781  761c           jna 811  (0x16586500cc2b)
0x16586500cc0f   783  4c8bd1         REX.W movq r10,rcx
0x16586500cc12   786  c1e903         shrl rcx, 3
0x16586500cc15   789  f348a5         REX.W rep REX.W movsq
0x16586500cc18   792  4183e207       andl r10,0x7
0x16586500cc1c   796  4a8b4c16f8     REX.W movq rcx,[rsi+r10*1-0x8]
0x16586500cc21   801  4a894c17f8     REX.W movq [rdi+r10*1-0x8],rcx
0x16586500cc26   806  4903fa         REX.W addq rdi,r10
0x16586500cc29   809  eb39           jmp 868  (0x16586500cc64)
0x16586500cc2b   811  4c8b5610       REX.W movq r10,[rsi+0x10]
0x16586500cc2f   815  4c895710       REX.W movq [rdi+0x10],r10
0x16586500cc33   819  4c8b5608       REX.W movq r10,[rsi+0x8]
0x16586500cc37   823  4c895708       REX.W movq [rdi+0x8],r10
0x16586500cc3b   827  4c8b16         REX.W movq r10,[rsi]
0x16586500cc3e   830  4c8917         REX.W movq [rdi],r10
0x16586500cc41   833  4c8b540ef8     REX.W movq r10,[rsi+rcx*1-0x8]
0x16586500cc46   838  4c89540ff8     REX.W movq [rdi+rcx*1-0x8],r10
0x16586500cc4b   843  4803f9         REX.W addq rdi,rcx
0x16586500cc4e   846  eb14           jmp 868  (0x16586500cc64)
0x16586500cc50   848  448a16         movb r10l,[rsi]
0x16586500cc53   851  448817         movb [rdi],r10l
0x16586500cc56   854  48ffc6         REX.W incq rsi
0x16586500cc59   857  48ffc7         REX.W incq rdi
0x16586500cc5c   860  ffc9           decl rcx
0x16586500cc5e   862  0f85ecffffff   jnz 848  (0x16586500cc50)
0x16586500cc64   868  488b34d0       REX.W movq rsi,[rax+rdx*8]
0x16586500cc68   872  8b4e13         movl rcx,[rsi+0x13]
0x16586500cc6b   875  488d7617       REX.W leaq rsi,[rsi+0x17]
0x16586500cc6f   879  83f908         cmpl rcx,0x8
0x16586500cc72   882  7250           jc 964  (0x16586500ccc4)
0x16586500cc74   884  83f910         cmpl rcx,0x10
0x16586500cc77   887  7636           jna 943  (0x16586500ccaf)
0x16586500cc79   889  83f918         cmpl rcx,0x18
0x16586500cc7c   892  7629           jna 935  (0x16586500cca7)
0x16586500cc7e   894  83f920         cmpl rcx,0x20
0x16586500cc81   897  761c           jna 927  (0x16586500cc9f)
0x16586500cc83   899  4c8bd1         REX.W movq r10,rcx
0x16586500cc86   902  c1e903         shrl rcx, 3
0x16586500cc89   905  f348a5         REX.W rep REX.W movsq
0x16586500cc8c   908  4183e207       andl r10,0x7
0x16586500cc90   912  4a8b4c16f8     REX.W movq rcx,[rsi+r10*1-0x8]
0x16586500cc95   917  4a894c17f8     REX.W movq [rdi+r10*1-0x8],rcx
0x16586500cc9a   922  4903fa         REX.W addq rdi,r10
0x16586500cc9d   925  eb3d           jmp 988  (0x16586500ccdc)
0x16586500cc9f   927  4c8b5610       REX.W movq r10,[rsi+0x10]
0x16586500cca3   931  4c895710       REX.W movq [rdi+0x10],r10
0x16586500cca7   935  4c8b5608       REX.W movq r10,[rsi+0x8]
0x16586500ccab   939  4c895708       REX.W movq [rdi+0x8],r10
0x16586500ccaf   943  4c8b16         REX.W movq r10,[rsi]
0x16586500ccb2   946  4c8917         REX.W movq [rdi],r10
0x16586500ccb5   949  4c8b540ef8     REX.W movq r10,[rsi+rcx*1-0x8]
0x16586500ccba   954  4c89540ff8     REX.W movq [rdi+rcx*1-0x8],r10
0x16586500ccbf   959  4803f9         REX.W addq rdi,rcx
0x16586500ccc2   962  eb18           jmp 988  (0x16586500ccdc)
0x16586500ccc4   964  85c9           testl rcx,rcx
0x16586500ccc6   966  7414           jz 988  (0x16586500ccdc)
0x16586500ccc8   968  448a16         movb r10l,[rsi]
0x16586500cccb   971  448817         movb [rdi],r10l
0x16586500ccce   974  48ffc6         REX.W incq rsi
0x16586500ccd1   977  48ffc7         REX.W incq rdi
0x16586500ccd4   980  ffc9           decl rcx
0x16586500ccd6   982  0f85ecffffff   jnz 968  (0x16586500ccc8)
0x16586500ccdc   988  48ffc2         REX.W incq rdx
0x16586500ccdf   991  0f850fffffff   jnz 756  (0x16586500cbf4)
0x16586500cce5   997  488b442408     REX.W movq rax,[rsp+0x8]
0x16586500ccea  1002  4883c418       REX.W addq rsp,0x18
0x16586500ccee  1006  488b75f8       REX.W movq rsi,[rbp-0x8]
0x16586500ccf2  1010  488945e8       REX.W movq [rbp-0x18],rax    ;; debug: position 5162
0x16586500ccf6  1014  488b45e8       REX.W movq rax,[rbp-0x18]    ;; debug: statement 5197
                                                             ;; debug: position 5202
0x16586500ccfa  1018  eb0f           jmp 1035  (0x16586500cd0b)
0x16586500ccfc  1020  493b45c0       REX.W cmpq rax,[r13-0x40]
0x16586500cd00  1024  0f8446000000   jz 1100  (0x16586500cd4c)
0x16586500cd06  1030  e90a000000     jmp 1045  (0x16586500cd15)
0x16586500cd0b  1035  493b45a8       REX.W cmpq rax,[r13-0x58]
0x16586500cd0f  1039  0f8437000000   jz 1100  (0x16586500cd4c)
0x16586500cd15  1045  488b45e8       REX.W movq rax,[rbp-0x18]    ;; debug: statement 5216
                                                             ;; debug: position 5223
0x16586500cd19  1049  48bbd1b39fcfdd1e0000 REX.W movq rbx,0x1eddcf9fb3d1    ;; object: 0x1eddcf9fb3d1 Cell for 6144
0x16586500cd23  1059  83430bd1       addl [rbx+0xb],0xd1
0x16586500cd27  1063  791f           jns 1096  (0x16586500cd48)
0x16586500cd29  1065  50             push rax
0x16586500cd2a  1066  e8119cf2ff     call InterruptCheck  (0x165864f36940)    ;; code: BUILTIN
0x16586500cd2f  1071  58             pop rax
0x16586500cd30  1072  48bbd1b39fcfdd1e0000 REX.W movq rbx,0x1eddcf9fb3d1    ;; object: 0x1eddcf9fb3d1 Cell for 6144
0x16586500cd3a  1082  49ba0000000000180000 REX.W movq r10,0x180000000000
0x16586500cd44  1092  4c895307       REX.W movq [rbx+0x7],r10
0x16586500cd48  1096  c9             leave                   ;; debug: statement 5333
0x16586500cd49  1097  c22000         ret 0x20
0x16586500cd4c  1100  ff7510         push [rbp+0x10]         ;; debug: statement 5226
                                                             ;; debug: position 5229
0x16586500cd4f  1103  48b80000000001000000 REX.W movq rax,0x100000000
0x16586500cd59  1113  5a             pop rdx
0x16586500cd5a  1114  e8e1e5f0ff     call 0x165864f1b340     ;; code: COMPARE_IC, UNINITIALIZED (id = 102)
0x16586500cd5f  1119  90             nop
0x16586500cd60  1120  eb0f           jmp 1137  (0x16586500cd71)
0x16586500cd62  1122  493b45c0       REX.W cmpq rax,[r13-0x40]
0x16586500cd66  1126  0f840e000000   jz 1146  (0x16586500cd7a)
0x16586500cd6c  1132  e96d000000     jmp 1246  (0x16586500cdde)
0x16586500cd71  1137  4885c0         REX.W testq rax,rax
0x16586500cd74  1140  0f8564000000   jnz 1246  (0x16586500cdde)
0x16586500cd7a  1146  ff7518         push [rbp+0x18]         ;; debug: statement 5237
                                                             ;; debug: position 5243
0x16586500cd7d  1149  48b80000000000000000 REX.W movq rax,(nil)
0x16586500cd87  1159  488bc8         REX.W movq rcx,rax
0x16586500cd8a  1162  5a             pop rdx
0x16586500cd8b  1163  48b80000000004000000 REX.W movq rax,0x400000000    ;; debug: position 5244
0x16586500cd95  1173  e826f3f0ff     call 0x165864f1c0c0     ;; code: KEYED_LOAD_IC, DEFAULT
0x16586500cd9a  1178  488945e0       REX.W movq [rbp-0x20],rax    ;; debug: position 5237
0x16586500cd9e  1182  488b45e0       REX.W movq rax,[rbp-0x20]    ;; debug: statement 5249
                                                             ;; debug: position 5253
0x16586500cda2  1186  eb0f           jmp 1203  (0x16586500cdb3)
0x16586500cda4  1188  493b45c0       REX.W cmpq rax,[r13-0x40]
0x16586500cda8  1192  0f8413000000   jz 1217  (0x16586500cdc1)
0x16586500cdae  1198  e91d000000     jmp 1232  (0x16586500cdd0)
0x16586500cdb3  1203  e868feefff     call 0x165864f0cc20     ;; code: COMPARE_NIL_IC, PREMONOMORPHIC (id = 136)
0x16586500cdb8  1208  4885c0         REX.W testq rax,rax
0x16586500cdbb  1211  0f840f000000   jz 1232  (0x16586500cdd0)
0x16586500cdc1  1217  48b8e14290cfdd1e0000 REX.W movq rax,0x1eddcf9042e1    ;; debug: statement 5262
                                                             ;; object: 0x1eddcf9042e1 <String[0]: >
0x16586500cdcb  1227  e949ffffff     jmp 1049  (0x16586500cd19)
0x16586500cdd0  1232  488b45e0       REX.W movq rax,[rbp-0x20]    ;; debug: statement 5272
                                                             ;; debug: position 5290
0x16586500cdd4  1236  e80706f2ff     call 0x165864f2d3e0     ;; code: STUB, ToStringStub, minor: 0
0x16586500cdd9  1241  e93bffffff     jmp 1049  (0x16586500cd19)
0x16586500cdde  1246  488bc6         REX.W movq rax,rsi      ;; debug: statement 5297
                                                             ;; debug: position 5304
0x16586500cde1  1249  ffb0a7000000   push [rax+0xa7]
0x16586500cde7  1255  41ff75a8       push [r13-0x58]
0x16586500cdeb  1259  ff7518         push [rbp+0x18]         ;; debug: position 5309
0x16586500cdee  1262  ff7510         push [rbp+0x10]         ;; debug: position 5311
0x16586500cdf1  1265  ff7520         push [rbp+0x20]         ;; debug: position 5313
0x16586500cdf4  1268  488bc6         REX.W movq rax,rsi      ;; debug: position 5315
0x16586500cdf7  1271  ffb0af000000   push [rax+0xaf]
0x16586500cdfd  1277  48ba0000000006000000 REX.W movq rdx,0x600000000    ;; debug: position 5304
0x16586500ce07  1287  488b7c2428     REX.W movq rdi,[rsp+0x28]
0x16586500ce0c  1292  e82fd6f1ff     call 0x165864f2a440     ;; code: CALL_IC, DEFAULT
0x16586500ce11  1297  488b75f8       REX.W movq rsi,[rbp-0x8]
0x16586500ce15  1301  4883c408       REX.W addq rsp,0x8
0x16586500ce19  1305  e9fbfeffff     jmp 1049  (0x16586500cd19)
0x16586500ce1e  1310  498b45a8       REX.W movq rax,[r13-0x58]
0x16586500ce22  1314  e9f2feffff     jmp 1049  (0x16586500cd19)
0x16586500ce27  1319  90             nop

Deoptimization Output Data (deopt points = 78)
ast id        pc  state
     1        12  NO_REGISTERS
     2        12  NO_REGISTERS
     3        12  NO_REGISTERS
    18        26  NO_REGISTERS
    16        30  TOS_REG
    13        32  TOS_REG
    11        57  NO_REGISTERS
    26        57  NO_REGISTERS
    36        67  TOS_REG
    31        71  TOS_REG
    29        71  NO_REGISTERS
    27        71  NO_REGISTERS
    12        76  NO_REGISTERS
    39        76  NO_REGISTERS
    54        76  NO_REGISTERS
    52        80  TOS_REG
    49        85  TOS_REG
    44        89  TOS_REG
    42        89  NO_REGISTERS
    40        89  NO_REGISTERS
    10        89  NO_REGISTERS
    55        89  NO_REGISTERS
    73        89  NO_REGISTERS
    71        92  NO_REGISTERS
    70        92  NO_REGISTERS
    68        96  TOS_REG
    65      1010  TOS_REG
    60      1014  TOS_REG
    58      1014  NO_REGISTERS
    56      1014  NO_REGISTERS
    86      1014  NO_REGISTERS
    84      1018  TOS_REG
    81      1020  TOS_REG
    75      1045  NO_REGISTERS
    96      1045  NO_REGISTERS
    94      1049  TOS_REG
    76      1100  NO_REGISTERS
    74      1100  NO_REGISTERS
   105      1100  NO_REGISTERS
   103      1103  NO_REGISTERS
   106      1113  TOS_REG
   100      1122  TOS_REG
    98      1146  NO_REGISTERS
   109      1146  NO_REGISTERS
   112      1146  NO_REGISTERS
   130      1146  NO_REGISTERS
   128      1149  NO_REGISTERS
   125      1159  TOS_REG
   124      1178  TOS_REG
   122      1178  TOS_REG
   117      1182  TOS_REG
   115      1182  NO_REGISTERS
   113      1182  NO_REGISTERS
   139      1182  NO_REGISTERS
   137      1186  TOS_REG
   134      1188  TOS_REG
   132      1217  NO_REGISTERS
   143      1227  TOS_REG
   133      1232  NO_REGISTERS
   131      1232  NO_REGISTERS
   151      1232  NO_REGISTERS
   149      1236  TOS_REG
   146      1241  TOS_REG
   110      1246  NO_REGISTERS
    99      1246  NO_REGISTERS
    97      1246  NO_REGISTERS
   159      1246  NO_REGISTERS
   157      1255  NO_REGISTERS
   162      1259  NO_REGISTERS
   160      1262  NO_REGISTERS
   165      1262  NO_REGISTERS
   163      1265  NO_REGISTERS
   168      1265  NO_REGISTERS
   166      1268  NO_REGISTERS
   171      1268  NO_REGISTERS
   169      1277  NO_REGISTERS
   154      1297  TOS_REG
   152      1305  TOS_REG

Back edges (size = 0)
ast_id  pc_offset  loop_depth

0x1eddcf9fb951: [TypeFeedbackInfo]
 - ic_total_count: 4, ic_with_type_info_count: 0, ic_generic_count: 0

RelocInfo (size = 110)
0x16586500c900  position  (5098)
0x16586500c916  code target (BUILTIN)  (0x165864f36a80)
0x16586500c91a  statement position  (5107)
0x16586500c91a  position  (5111)
0x16586500c939  statement position  (5127)
0x16586500c939  position  (5128)
0x16586500c93b  embedded object  (0x1eddcf9f0cb1 <String[1]: ,>)
0x16586500c94c  statement position  (5141)
0x16586500c94c  position  (5155)
0x16586500c951  code target (STUB)  (0x165864f2d3e0)
0x16586500c955  position  (5142)
0x16586500c959  statement position  (5162)
0x16586500c959  position  (5193)
0x16586500c95c  position  (5191)
0x16586500ccf2  position  (5162)
0x16586500ccf6  statement position  (5197)
0x16586500ccf6  position  (5202)
0x16586500cd15  statement position  (5216)
0x16586500cd15  position  (5223)
0x16586500cd1b  embedded object  (0x1eddcf9fb3d1 Cell for 6144)
0x16586500cd2b  code target (BUILTIN)  (0x165864f36940)
0x16586500cd32  embedded object  (0x1eddcf9fb3d1 Cell for 6144)
0x16586500cd48  statement position  (5333)
0x16586500cd4c  statement position  (5226)
0x16586500cd4c  position  (5229)
0x16586500cd5b  code target with id (COMPARE_IC)  (0x165864f1b340) (id=102)
0x16586500cd7a  statement position  (5237)
0x16586500cd7a  position  (5243)
0x16586500cd8b  position  (5244)
0x16586500cd96  code target (KEYED_LOAD_IC)  (0x165864f1c0c0)
0x16586500cd9a  position  (5237)
0x16586500cd9e  statement position  (5249)
0x16586500cd9e  position  (5253)
0x16586500cdb4  code target with id (COMPARE_NIL_IC)  (0x165864f0cc20) (id=136)
0x16586500cdc1  statement position  (5262)
0x16586500cdc3  embedded object  (0x1eddcf9042e1 <String[0]: >)
0x16586500cdd0  statement position  (5272)
0x16586500cdd0  position  (5290)
0x16586500cdd5  code target (STUB)  (0x165864f2d3e0)
0x16586500cdde  statement position  (5297)
0x16586500cdde  position  (5304)
0x16586500cdeb  position  (5309)
0x16586500cdee  position  (5311)
0x16586500cdf1  position  (5313)
0x16586500cdf4  position  (5315)
0x16586500cdfd  position  (5304)
0x16586500ce0d  code target (CALL_IC)  (0x165864f2a440)

--- End code ---
--- Raw source ---
(au,av){
if((%IS_VAR(this)===null)||(this===(void 0)))throw MakeTypeError(15,"String.prototype.split");
var w=(%_ToString(this));
av=((av===(void 0)))?0xffffffff:(av>>>0);
var U=w.length;
if(!(%_IsRegExp(au))){
var aw=(%_ToString(au));
if(av===0)return[];
if((au===(void 0)))return[w];
var ax=aw.length;
if(ax===0)return %StringToArray(w,av);
var o=%StringSplit(w,aw,av);
return o;
}
if(av===0)return[];
return StringSplitOnRegExp(w,au,av,U);
}


--- Optimized code ---
optimization_id = 13
source_position = 7589
kind = OPTIMIZED_FUNCTION
name = split
stack_slots = 4
compiler = crankshaft
Instructions (size = 1211)
0x16586500cea0     0  55             push rbp
0x16586500cea1     1  4889e5         REX.W movq rbp,rsp
0x16586500cea4     4  56             push rsi
0x16586500cea5     5  57             push rdi
0x16586500cea6     6  4883ec20       REX.W subq rsp,0x20
0x16586500ceaa    10  488b45f8       REX.W movq rax,[rbp-0x8]
0x16586500ceae    14  488945e8       REX.W movq [rbp-0x18],rax
0x16586500ceb2    18  488bf0         REX.W movq rsi,rax
0x16586500ceb5    21  6690           nop
0x16586500ceb7    23  493ba548090000 REX.W cmpq rsp,[r13+0x948]
0x16586500cebe    30  7305           jnc 37  (0x16586500cec5)
0x16586500cec0    32  e8bb9bf2ff     call StackCheck  (0x165864f36a80)    ;; code: BUILTIN
0x16586500cec5    37  488b4520       REX.W movq rax,[rbp+0x20]    ;; debug: position 7615
0x16586500cec9    41  49ba014190cfdd1e0000 REX.W movq r10,0x1eddcf904101    ;; object: 0x1eddcf904101 <null>
0x16586500ced3    51  493bc2         REX.W cmpq rax,r10
0x16586500ced6    54  0f84ae020000   jz 746  (0x16586500d18a)
0x16586500cedc    60  49ba894190cfdd1e0000 REX.W movq r10,0x1eddcf904189    ;; debug: position 7630
                                                             ;; object: 0x1eddcf904189 <undefined>
0x16586500cee6    70  493bc2         REX.W cmpq rax,r10
0x16586500cee9    73  0f8492020000   jz 737  (0x16586500d181)
0x16586500ceef    79  50             push rax                ;; debug: position 7643
0x16586500cef0    80  488b75e8       REX.W movq rsi,[rbp-0x18]
0x16586500cef4    84  b801000000     movl rax,0x1
0x16586500cef9    89  498d9d98fe08fe REX.W leaq rbx,[r13-0x1f70168]
0x16586500cf00    96  e8dbbbefff     call 0x165864f08ae0     ;; code: STUB, CEntryStub, minor: 0
0x16586500cf05   101  488945e0       REX.W movq [rbp-0x20],rax
0x16586500cf09   105  488b5510       REX.W movq rdx,[rbp+0x10]    ;; debug: position 7726
0x16586500cf0d   109  49ba894190cfdd1e0000 REX.W movq r10,0x1eddcf904189    ;; object: 0x1eddcf904189 <undefined>
0x16586500cf17   119  493bd2         REX.W cmpq rdx,r10
0x16586500cf1a   122  0f8405000000   jz 133  (0x16586500cf25)
0x16586500cf20   128  e8f990dfff     call 0x165864e0601e     ;; debug: position 7754
                                                             ;; soft deoptimization bailout 3
0x16586500cf25   133  49ba0000e0ffffffef41 REX.W movq r10,0x41efffffffe00000    ;; debug: position 7726
0x16586500cf2f   143  66490f6eca     REX.W movq xmm1,r10
0x16586500cf34   148  48bb09a69fcfdd1e0000 REX.W movq rbx,0x1eddcf9fa609    ;; debug: position 7754
                                                             ;; object: 0x1eddcf9fa609 <Number: 4.29497e+09>
0x16586500cf3e   158  48895dd8       REX.W movq [rbp-0x28],rbx
0x16586500cf42   162  a801           test al,0x1
0x16586500cf44   164  0f8487030000   jz 1073  (0x16586500d2d1)
0x16586500cf4a   170  4c8b50ff       REX.W movq r10,[rax-0x1]
0x16586500cf4e   174  41f6420b80     testb [r10+0xb],0x80
0x16586500cf53   179  0f857d030000   jnz 1078  (0x16586500d2d6)
0x16586500cf59   185  8b5013         movl rdx,[rax+0x13]
0x16586500cf5c   188  488b4d18       REX.W movq rcx,[rbp+0x18]
0x16586500cf60   192  f6c101         testb rcx,0x1
0x16586500cf63   195  0f840f000000   jz 216  (0x16586500cf78)
0x16586500cf69   201  4c8b51ff       REX.W movq r10,[rcx-0x1]
0x16586500cf6d   205  41807a0bc9     cmpb [r10+0xb],0xc9
0x16586500cf72   210  0f8404020000   jz 732  (0x16586500d17c)
0x16586500cf78   216  51             push rcx
0x16586500cf79   217  488b75e8       REX.W movq rsi,[rbp-0x18]
0x16586500cf7d   221  b801000000     movl rax,0x1
0x16586500cf82   226  498d9d98fe08fe REX.W leaq rbx,[r13-0x1f70168]
0x16586500cf89   233  e852bbefff     call 0x165864f08ae0     ;; code: STUB, CEntryStub, minor: 0
0x16586500cf8e   238  488b5dd8       REX.W movq rbx,[rbp-0x28]
0x16586500cf92   242  f6c301         testb rbx,0x1           ;; debug: position 7830
0x16586500cf95   245  7415           jz 268  (0x16586500cfac)
0x16586500cf97   247  4d8b5508       REX.W movq r10,[r13+0x8]
0x16586500cf9b   251  4c3953ff       REX.W cmpq [rbx-0x1],r10
0x16586500cf9f   255  f20f104b07     movsd xmm1,[rbx+0x7]
0x16586500cfa4   260  0f8531030000   jnz 1083  (0x16586500d2db)
0x16586500cfaa   266  eb0f           jmp 283  (0x16586500cfbb)
0x16586500cfac   268  4c8bd3         REX.W movq r10,rbx
0x16586500cfaf   271  49c1ea20       REX.W shrq r10, 32
0x16586500cfb3   275  0f57c9         xorps xmm1,xmm1
0x16586500cfb6   278  f2410f2aca     cvtsi2sd xmm1,r10
0x16586500cfbb   283  0f57d2         xorps xmm2,xmm2
0x16586500cfbe   286  660f2eca       ucomisd xmm1,xmm2
0x16586500cfc2   290  0f8a06000000   jpe 302  (0x16586500cfce)
0x16586500cfc8   296  0f8448010000   jz 630  (0x16586500d116)
0x16586500cfce   302  488b5518       REX.W movq rdx,[rbp+0x18]    ;; debug: position 7851
0x16586500cfd2   306  49ba894190cfdd1e0000 REX.W movq r10,0x1eddcf904189    ;; object: 0x1eddcf904189 <undefined>
0x16586500cfdc   316  493bd2         REX.W cmpq rdx,r10
0x16586500cfdf   319  0f846a000000   jz 431  (0x16586500d04f)
0x16586500cfe5   325  a801           test al,0x1
0x16586500cfe7   327  0f84f3020000   jz 1088  (0x16586500d2e0)
0x16586500cfed   333  4c8b50ff       REX.W movq r10,[rax-0x1]
0x16586500cff1   337  41f6420b80     testb [r10+0xb],0x80
0x16586500cff6   342  0f85e9020000   jnz 1093  (0x16586500d2e5)
0x16586500cffc   348  8b4813         movl rcx,[rax+0x13]
0x16586500cfff   351  48894dd0       REX.W movq [rbp-0x30],rcx
0x16586500d003   355  83f900         cmpl rcx,0x0            ;; debug: position 7898
0x16586500d006   358  0f8421000000   jz 397  (0x16586500d02d)
0x16586500d00c   364  ff75e0         push [rbp-0x20]
0x16586500d00f   367  50             push rax
0x16586500d010   368  53             push rbx
0x16586500d011   369  488b75e8       REX.W movq rsi,[rbp-0x18]
0x16586500d015   373  b803000000     movl rax,0x3
0x16586500d01a   378  498d9db8ff39fe REX.W leaq rbx,[r13-0x1c60048]
0x16586500d021   385  e8babaefff     call 0x165864f08ae0     ;; code: STUB, CEntryStub, minor: 0
0x16586500d026   390  488be5         REX.W movq rsp,rbp
0x16586500d029   393  5d             pop rbp
0x16586500d02a   394  c21800         ret 0x18
0x16586500d02d   397  ff75e0         push [rbp-0x20]
0x16586500d030   400  ff75d8         push [rbp-0x28]
0x16586500d033   403  488b75e8       REX.W movq rsi,[rbp-0x18]
0x16586500d037   407  b802000000     movl rax,0x2
0x16586500d03c   412  498d9d08263efe REX.W leaq rbx,[r13-0x1c1d9f8]
0x16586500d043   419  e898baefff     call 0x165864f08ae0     ;; code: STUB, CEntryStub, minor: 0
0x16586500d048   424  488be5         REX.W movq rsp,rbp
0x16586500d04b   427  5d             pop rbp
0x16586500d04c   428  c21800         ret 0x18
0x16586500d04f   431  498b9d900c0000 REX.W movq rbx,[r13+0xc90]    ;; debug: position 7851
0x16586500d056   438  488bc3         REX.W movq rax,rbx
0x16586500d059   441  4883c038       REX.W addq rax,0x38
0x16586500d05d   445  0f82a4010000   jc 871  (0x16586500d207)
0x16586500d063   451  493b85980c0000 REX.W cmpq rax,[r13+0xc98]
0x16586500d06a   458  0f8797010000   ja 871  (0x16586500d207)
0x16586500d070   464  498985900c0000 REX.W movq [r13+0xc90],rax
0x16586500d077   471  48ffc3         REX.W incq rbx
0x16586500d07a   474  c7431f00000000 movl [rbx+0x1f],0x0
0x16586500d081   481  49ba394190cfdd1e0000 REX.W movq r10,0x1eddcf904139    ;; object: 0x1eddcf904139 <FixedArray[0]>
0x16586500d08b   491  4c89530f       REX.W movq [rbx+0xf],r10
0x16586500d08f   495  49ba797cd047962b0000 REX.W movq r10,0x2b9647d07c79    ;; object: 0x2b9647d07c79 <Map(FAST_SMI_ELEMENTS)>
0x16586500d099   505  4c8953ff       REX.W movq [rbx-0x1],r10
0x16586500d09d   509  49ba394190cfdd1e0000 REX.W movq r10,0x1eddcf904139    ;; object: 0x1eddcf904139 <FixedArray[0]>
0x16586500d0a7   519  4c895307       REX.W movq [rbx+0x7],r10
0x16586500d0ab   523  49ba0000000001000000 REX.W movq r10,0x100000000
0x16586500d0b5   533  4c895317       REX.W movq [rbx+0x17],r10
0x16586500d0b9   537  488d4320       REX.W leaq rax,[rbx+0x20]
0x16586500d0bd   541  49ba0942d047962b0000 REX.W movq r10,0x2b9647d04209    ;; object: 0x2b9647d04209 <Map(FAST_SMI_ELEMENTS)>
0x16586500d0c7   551  4c8950ff       REX.W movq [rax-0x1],r10
0x16586500d0cb   555  49ba0000000001000000 REX.W movq r10,0x100000000
0x16586500d0d5   565  4c895007       REX.W movq [rax+0x7],r10
0x16586500d0d9   569  48ba78b99fcfdd1e0000 REX.W movq rdx,0x1eddcf9fb978    ;; property cell
0x16586500d0e3   579  488b12         REX.W movq rdx,[rdx]
0x16586500d0e6   582  8b5213         movl rdx,[rdx+0x13]
0x16586500d0e9   585  8bca           movl rcx,rdx
0x16586500d0eb   587  48c1e120       REX.W shlq rcx, 32
0x16586500d0ef   591  4889480f       REX.W movq [rax+0xf],rcx
0x16586500d0f3   595  4889430f       REX.W movq [rbx+0xf],rax
0x16586500d0f7   599  488b430f       REX.W movq rax,[rbx+0xf]
0x16586500d0fb   603  488b55e0       REX.W movq rdx,[rbp-0x20]
0x16586500d0ff   607  f6c201         testb rdx,0x1
0x16586500d102   610  0f85e2010000   jnz 1098  (0x16586500d2ea)
0x16586500d108   616  4889500f       REX.W movq [rax+0xf],rdx
0x16586500d10c   620  488bc3         REX.W movq rax,rbx
0x16586500d10f   623  488be5         REX.W movq rsp,rbp
0x16586500d112   626  5d             pop rbp
0x16586500d113   627  c21800         ret 0x18
0x16586500d116   630  498b9d900c0000 REX.W movq rbx,[r13+0xc90]    ;; debug: position 7830
0x16586500d11d   637  488bc3         REX.W movq rax,rbx
0x16586500d120   640  4883c020       REX.W addq rax,0x20
0x16586500d124   644  0f8242010000   jc 972  (0x16586500d26c)
0x16586500d12a   650  493b85980c0000 REX.W cmpq rax,[r13+0xc98]
0x16586500d131   657  0f8735010000   ja 972  (0x16586500d26c)
0x16586500d137   663  498985900c0000 REX.W movq [r13+0xc90],rax
0x16586500d13e   670  48ffc3         REX.W incq rbx
0x16586500d141   673  49ba394190cfdd1e0000 REX.W movq r10,0x1eddcf904139    ;; object: 0x1eddcf904139 <FixedArray[0]>
0x16586500d14b   683  4c89530f       REX.W movq [rbx+0xf],r10
0x16586500d14f   687  49ba797cd047962b0000 REX.W movq r10,0x2b9647d07c79    ;; object: 0x2b9647d07c79 <Map(FAST_SMI_ELEMENTS)>
0x16586500d159   697  4c8953ff       REX.W movq [rbx-0x1],r10
0x16586500d15d   701  49ba394190cfdd1e0000 REX.W movq r10,0x1eddcf904139    ;; object: 0x1eddcf904139 <FixedArray[0]>
0x16586500d167   711  4c895307       REX.W movq [rbx+0x7],r10
0x16586500d16b   715  4533d2         xorl r10,r10
0x16586500d16e   718  4c895317       REX.W movq [rbx+0x17],r10
0x16586500d172   722  488bc3         REX.W movq rax,rbx
0x16586500d175   725  488be5         REX.W movq rsp,rbp
0x16586500d178   728  5d             pop rbp
0x16586500d179   729  c21800         ret 0x18
0x16586500d17c   732  e8018fdfff     call 0x165864e06082     ;; debug: position 7978
                                                             ;; soft deoptimization bailout 13
0x16586500d181   737  488b5510       REX.W movq rdx,[rbp+0x10]    ;; debug: position 7630
0x16586500d185   741  e904000000     jmp 750  (0x16586500d18e)
0x16586500d18a   746  488b5510       REX.W movq rdx,[rbp+0x10]    ;; debug: position 7615
0x16586500d18e   750  49ba88b99fcfdd1e0000 REX.W movq r10,0x1eddcf9fb988    ;; debug: position 7649
                                                             ;; property cell
0x16586500d198   760  4d8b12         REX.W movq r10,[r10]
0x16586500d19b   763  4152           push r10
0x16586500d19d   765  49ba000000000f000000 REX.W movq r10,0xf00000000
0x16586500d1a7   775  4152           push r10
0x16586500d1a9   777  49ba71f39ecfdd1e0000 REX.W movq r10,0x1eddcf9ef371    ;; object: 0x1eddcf9ef371 <String[22]: String.prototype.split>
0x16586500d1b3   787  4152           push r10
0x16586500d1b5   789  48bff9c79ccfdd1e0000 REX.W movq rdi,0x1eddcf9cc7f9    ;; object: 0x1eddcf9cc7f9 <JS Function MakeTypeError (SharedFunctionInfo 0x1eddcf982e21)>
0x16586500d1bf   799  488b772f       REX.W movq rsi,[rdi+0x2f]
0x16586500d1c3   803  48bff9c79ccfdd1e0000 REX.W movq rdi,0x1eddcf9cc7f9    ;; object: 0x1eddcf9cc7f9 <JS Function MakeTypeError (SharedFunctionInfo 0x1eddcf982e21)>
0x16586500d1cd   813  b802000000     movl rax,0x2
0x16586500d1d2   818  bb04000000     movl rbx,0x4
0x16586500d1d7   823  e8a4c2efff     call ArgumentsAdaptorTrampoline  (0x165864f09480)    ;; code: BUILTIN
0x16586500d1dc   828  50             push rax                ;; debug: position 7643
0x16586500d1dd   829  488b75e8       REX.W movq rsi,[rbp-0x18]
0x16586500d1e1   833  0f1f840000000000 nop
0x16586500d1e9   841  b801000000     movl rax,0x1
0x16586500d1ee   846  498d9d485e38fe REX.W leaq rbx,[r13-0x1c7a1b8]
0x16586500d1f5   853  e8e6b8efff     call 0x165864f08ae0     ;; code: STUB, CEntryStub, minor: 0
0x16586500d1fa   858  6666660f1f840000000000 nop
0x16586500d205   869  6690           nop
0x16586500d207   871  48bb0000000000000000 REX.W movq rbx,(nil)    ;; debug: position 7851
0x16586500d211   881  50             push rax
0x16586500d212   882  51             push rcx
0x16586500d213   883  52             push rdx
0x16586500d214   884  53             push rbx
0x16586500d215   885  56             push rsi
0x16586500d216   886  57             push rdi
0x16586500d217   887  4150           push r8
0x16586500d219   889  4151           push r9
0x16586500d21b   891  4153           push r11
0x16586500d21d   893  4154           push r12
0x16586500d21f   895  4156           push r14
0x16586500d221   897  4157           push r15
0x16586500d223   899  488d6424e0     REX.W leaq rsp,[rsp-0x20]
0x16586500d228   904  49ba0000000038000000 REX.W movq r10,0x3800000000
0x16586500d232   914  4152           push r10
0x16586500d234   916  6a00           push 0x0
0x16586500d236   918  488b75e8       REX.W movq rsi,[rbp-0x18]
0x16586500d23a   922  b802000000     movl rax,0x2
0x16586500d23f   927  498d9d287a38fe REX.W leaq rbx,[r13-0x1c785d8]
0x16586500d246   934  e85590efff     call 0x165864f062a0     ;; code: STUB, CEntryStub, minor: 1
0x16586500d24b   939  4889442460     REX.W movq [rsp+0x60],rax
0x16586500d250   944  488d642420     REX.W leaq rsp,[rsp+0x20]
0x16586500d255   949  415f           pop r15
0x16586500d257   951  415e           pop r14
0x16586500d259   953  415c           pop r12
0x16586500d25b   955  415b           pop r11
0x16586500d25d   957  4159           pop r9
0x16586500d25f   959  4158           pop r8
0x16586500d261   961  5f             pop rdi
0x16586500d262   962  5e             pop rsi
0x16586500d263   963  5b             pop rbx
0x16586500d264   964  5a             pop rdx
0x16586500d265   965  59             pop rcx
0x16586500d266   966  58             pop rax
0x16586500d267   967  e90efeffff     jmp 474  (0x16586500d07a)
0x16586500d26c   972  48bb0000000000000000 REX.W movq rbx,(nil)    ;; debug: position 7830
0x16586500d276   982  50             push rax
0x16586500d277   983  51             push rcx
0x16586500d278   984  52             push rdx
0x16586500d279   985  53             push rbx
0x16586500d27a   986  56             push rsi
0x16586500d27b   987  57             push rdi
0x16586500d27c   988  4150           push r8
0x16586500d27e   990  4151           push r9
0x16586500d280   992  4153           push r11
0x16586500d282   994  4154           push r12
0x16586500d284   996  4156           push r14
0x16586500d286   998  4157           push r15
0x16586500d288  1000  488d6424e0     REX.W leaq rsp,[rsp-0x20]
0x16586500d28d  1005  49ba0000000020000000 REX.W movq r10,0x2000000000
0x16586500d297  1015  4152           push r10
0x16586500d299  1017  6a00           push 0x0
0x16586500d29b  1019  488b75e8       REX.W movq rsi,[rbp-0x18]
0x16586500d29f  1023  b802000000     movl rax,0x2
0x16586500d2a4  1028  498d9d287a38fe REX.W leaq rbx,[r13-0x1c785d8]
0x16586500d2ab  1035  e8f08fefff     call 0x165864f062a0     ;; code: STUB, CEntryStub, minor: 1
0x16586500d2b0  1040  4889442460     REX.W movq [rsp+0x60],rax
0x16586500d2b5  1045  488d642420     REX.W leaq rsp,[rsp+0x20]
0x16586500d2ba  1050  415f           pop r15
0x16586500d2bc  1052  415e           pop r14
0x16586500d2be  1054  415c           pop r12
0x16586500d2c0  1056  415b           pop r11
0x16586500d2c2  1058  4159           pop r9
0x16586500d2c4  1060  4158           pop r8
0x16586500d2c6  1062  5f             pop rdi
0x16586500d2c7  1063  5e             pop rsi
0x16586500d2c8  1064  5b             pop rbx
0x16586500d2c9  1065  5a             pop rdx
0x16586500d2ca  1066  59             pop rcx
0x16586500d2cb  1067  58             pop rax
0x16586500d2cc  1068  e970feffff     jmp 673  (0x16586500d141)
0x16586500d2d1  1073  e8528dbfff     call 0x165864c06028     ;; deoptimization bailout 4
0x16586500d2d6  1078  e8578dbfff     call 0x165864c06032     ;; deoptimization bailout 5
0x16586500d2db  1083  e8668dbfff     call 0x165864c06046     ;; deoptimization bailout 7
0x16586500d2e0  1088  e86b8dbfff     call 0x165864c06050     ;; deoptimization bailout 8
0x16586500d2e5  1093  e8708dbfff     call 0x165864c0605a     ;; deoptimization bailout 9
0x16586500d2ea  1098  e8898dbfff     call 0x165864c06078     ;; deoptimization bailout 12
0x16586500d2ef  1103  90             nop

Inlined functions (count = 0)

Deoptimization Input Data (deopt points = 16)
 index  ast id    argc     pc
     0       1       0     10
     1       3       0     37
     2      74       0    105
     3      90       0     -1
     4      87       0     -1
     5      87       0     -1
     6     162       0    238
     7     162       0     -1
     8     185       0     -1
     9     185       0     -1
    10     256       0    390
    11     237       0    424
    12     184       0     -1
    13     138       0     -1
    14      50       0    828
    15      48       0    858

Safepoints (size = 107)
0x16586500cec5    37  0001 (sp -> fp)       1
0x16586500cf05   101  0001 (sp -> fp)       2
0x16586500cf8e   238  0111 (sp -> fp)       6
0x16586500d026   390  0101 (sp -> fp)      10
0x16586500d048   424  0101 (sp -> fp)      11
0x16586500d1dc   828  0001 (sp -> fp)      14
0x16586500d1fa   858  0001 (sp -> fp)      15
0x16586500d24b   939  0111 | rbx (sp -> fp)  <none> argc: 2
0x16586500d2b0  1040  0001 | rbx (sp -> fp)  <none> argc: 2

RelocInfo (size = 124)
0x16586500cec1  code target (BUILTIN)  (0x165864f36a80)
0x16586500cec5  position  (7615)
0x16586500cecb  embedded object  (0x1eddcf904101 <null>)
0x16586500cedc  position  (7630)
0x16586500cede  embedded object  (0x1eddcf904189 <undefined>)
0x16586500ceef  position  (7643)
0x16586500cf01  code target (STUB)  (0x165864f08ae0)
0x16586500cf09  position  (7726)
0x16586500cf0f  embedded object  (0x1eddcf904189 <undefined>)
0x16586500cf20  position  (7754)
0x16586500cf21  runtime entry
0x16586500cf25  position  (7726)
0x16586500cf34  position  (7754)
0x16586500cf36  embedded object  (0x1eddcf9fa609 <Number: 4.29497e+09>)
0x16586500cf8a  code target (STUB)  (0x165864f08ae0)
0x16586500cf92  position  (7830)
0x16586500cfce  position  (7851)
0x16586500cfd4  embedded object  (0x1eddcf904189 <undefined>)
0x16586500d003  position  (7898)
0x16586500d022  code target (STUB)  (0x165864f08ae0)
0x16586500d044  code target (STUB)  (0x165864f08ae0)
0x16586500d04f  position  (7851)
0x16586500d083  embedded object  (0x1eddcf904139 <FixedArray[0]>)
0x16586500d091  embedded object  (0x2b9647d07c79 <Map(FAST_SMI_ELEMENTS)>)
0x16586500d09f  embedded object  (0x1eddcf904139 <FixedArray[0]>)
0x16586500d0bf  embedded object  (0x2b9647d04209 <Map(FAST_SMI_ELEMENTS)>)
0x16586500d0db  property cell
0x16586500d116  position  (7830)
0x16586500d143  embedded object  (0x1eddcf904139 <FixedArray[0]>)
0x16586500d151  embedded object  (0x2b9647d07c79 <Map(FAST_SMI_ELEMENTS)>)
0x16586500d15f  embedded object  (0x1eddcf904139 <FixedArray[0]>)
0x16586500d17c  position  (7978)
0x16586500d17d  runtime entry
0x16586500d181  position  (7630)
0x16586500d18a  position  (7615)
0x16586500d18e  position  (7649)
0x16586500d190  property cell
0x16586500d1ab  embedded object  (0x1eddcf9ef371 <String[22]: String.prototype.split>)
0x16586500d1b7  embedded object  (0x1eddcf9cc7f9 <JS Function MakeTypeError (SharedFunctionInfo 0x1eddcf982e21)>)
0x16586500d1c5  embedded object  (0x1eddcf9cc7f9 <JS Function MakeTypeError (SharedFunctionInfo 0x1eddcf982e21)>)
0x16586500d1d8  code target (BUILTIN)  (0x165864f09480)
0x16586500d1dc  position  (7643)
0x16586500d1f6  code target (STUB)  (0x165864f08ae0)
0x16586500d207  position  (7851)
0x16586500d247  code target (STUB)  (0x165864f062a0)
0x16586500d26c  position  (7830)
0x16586500d2ac  code target (STUB)  (0x165864f062a0)
0x16586500d2d2  runtime entry  (deoptimization bailout 4)
0x16586500d2d7  runtime entry  (deoptimization bailout 5)
0x16586500d2dc  runtime entry  (deoptimization bailout 7)
0x16586500d2e1  runtime entry  (deoptimization bailout 8)
0x16586500d2e6  runtime entry  (deoptimization bailout 9)
0x16586500d2eb  runtime entry  (deoptimization bailout 12)

--- End code ---
--- Raw source ---
(t,u,v,y,z,A,s){
if(!%_IsConstructCall()){
return %_CallFunction(new c(),DateToString);
}
var B=%_ArgumentsLength();
var C;
if(B==0){
C=%DateCurrentTime();
(%DateSetValue(this,C,1));
}else if(B==1){
if((typeof(t)==='number')){
C=t;
}else if((typeof(t)==='string')){
CheckDateCacheCurrent();
var D=x;
if(D.string===t){
C=D.time;
}else{
C=DateParse(t);
if(!(!%_IsSmi(%IS_VAR(C))&&!(C==C))){
D.time=C;
D.string=t;
}
}
}else if((%_IsDate(t))){
C=(%_DateField(t,0));
}else{
var o=(%_ToPrimitive(t));
C=(typeof(o)==='string')?DateParse(o):i(o);
}
(%DateSetValue(this,C,1));
}else{
t=i(t);
u=i(u);
v=B>2?i(v):1;
y=B>3?i(y):0;
z=B>4?i(z):0;
A=B>5?i(A):0;
s=B>6?i(s):0;
t=(!(!%_IsSmi(%IS_VAR(t))&&!(t==t))&&
0<=(%_IsSmi(%IS_VAR(t))?t:%NumberToInteger(i(t)))&&
(%_IsSmi(%IS_VAR(t))?t:%NumberToInteger(i(t)))<=99)?1900+(%_IsSmi(%IS_VAR(t))?t:%NumberToInteger(i(t))):t;
var w=MakeDay(t,u,v);
var o=MakeTime(y,z,A,s);
C=MakeDate(w,o);
(%DateSetValue(this,C,0));
}
}


--- Optimized code ---
optimization_id = 12
source_position = 1541
kind = OPTIMIZED_FUNCTION
name = Date
stack_slots = 4
compiler = crankshaft
Instructions (size = 1376)
0x16586500d500     0  55             push rbp
0x16586500d501     1  4889e5         REX.W movq rbp,rsp
0x16586500d504     4  56             push rsi
0x16586500d505     5  57             push rdi
0x16586500d506     6  4883ec20       REX.W subq rsp,0x20
0x16586500d50a    10  488b45f8       REX.W movq rax,[rbp-0x8]
0x16586500d50e    14  488945e8       REX.W movq [rbp-0x18],rax
0x16586500d512    18  488bf0         REX.W movq rsi,rax
0x16586500d515    21  6690           nop
0x16586500d517    23  493ba548090000 REX.W cmpq rsp,[r13+0x948]
0x16586500d51e    30  7305           jnc 37  (0x16586500d525)
0x16586500d520    32  e85b95f2ff     call StackCheck  (0x165864f36a80)    ;; code: BUILTIN
0x16586500d525    37  488b4500       REX.W movq rax,[rbp+0x0]
0x16586500d529    41  49ba000000000a000000 REX.W movq r10,0xa00000000
0x16586500d533    51  4c3950f8       REX.W cmpq [rax-0x8],r10
0x16586500d537    55  7503           jnz 60  (0x16586500d53c)
0x16586500d539    57  488b00         REX.W movq rax,[rax]
0x16586500d53c    60  49ba0000000009000000 REX.W movq r10,0x900000000
0x16586500d546    70  4c3950f0       REX.W cmpq [rax-0x10],r10
0x16586500d54a    74  0f8479000000   jz 201  (0x16586500d5c9)
0x16586500d550    80  488b45e8       REX.W movq rax,[rbp-0x18]    ;; debug: position 1606
0x16586500d554    84  488b782f       REX.W movq rdi,[rax+0x2f]
0x16586500d558    88  57             push rdi
0x16586500d559    89  488bf0         REX.W movq rsi,rax
0x16586500d55c    92  33c0           xorl rax,rax
0x16586500d55e    94  498b5da8       REX.W movq rbx,[r13-0x58]
0x16586500d562    98  e859feffff     call 0x16586500d3c0     ;; code: constructor, STUB, CallConstructStub, minor: 0
0x16586500d567   103  488b5de8       REX.W movq rbx,[rbp-0x18]
0x16586500d56b   107  488bbb07010000 REX.W movq rdi,[rbx+0x107]
0x16586500d572   114  50             push rax
0x16586500d573   115  40f6c701       testb rdi,0x1
0x16586500d577   119  0f840f000000   jz 140  (0x16586500d58c)
0x16586500d57d   125  4c8b57ff       REX.W movq r10,[rdi-0x1]
0x16586500d581   129  41807a0bca     cmpb [r10+0xb],0xca
0x16586500d586   134  0f840d000000   jz 153  (0x16586500d599)
0x16586500d58c   140  488bf3         REX.W movq rsi,rbx
0x16586500d58f   143  e8ccfeffff     call 0x16586500d460     ;; code: STUB, CallFunctionStub, minor: 0
0x16586500d594   148  e929000000     jmp 194  (0x16586500d5c2)
0x16586500d599   153  488b75e8       REX.W movq rsi,[rbp-0x18]
0x16586500d59d   157  0f1f4000       nop
0x16586500d5a1   161  488b5727       REX.W movq rdx,[rdi+0x27]
0x16586500d5a5   165  488b772f       REX.W movq rsi,[rdi+0x2f]
0x16586500d5a9   169  48635a6b       REX.W movsxlq rbx,[rdx+0x6b]
0x16586500d5ad   173  488b5717       REX.W movq rdx,[rdi+0x17]
0x16586500d5b1   177  33c0           xorl rax,rax
0x16586500d5b3   179  4883fb00       REX.W cmpq rbx,0x0
0x16586500d5b7   183  7407           jz 192  (0x16586500d5c0)
0x16586500d5b9   185  e8c2beefff     call ArgumentsAdaptorTrampoline  (0x165864f09480)    ;; code: BUILTIN
0x16586500d5be   190  eb02           jmp 194  (0x16586500d5c2)
0x16586500d5c0   192  ffd2           call rdx
0x16586500d5c2   194  488be5         REX.W movq rsp,rbp
0x16586500d5c5   197  5d             pop rbp
0x16586500d5c6   198  c24000         ret 0x40
0x16586500d5c9   201  488b4500       REX.W movq rax,[rbp+0x0]
0x16586500d5cd   205  49ba000000000a000000 REX.W movq r10,0xa00000000
0x16586500d5d7   215  4c3950f8       REX.W cmpq [rax-0x8],r10
0x16586500d5db   219  7405           jz 226  (0x16586500d5e2)
0x16586500d5dd   221  488bc5         REX.W movq rax,rbp
0x16586500d5e0   224  eb04           jmp 230  (0x16586500d5e6)
0x16586500d5e2   226  488b4500       REX.W movq rax,[rbp+0x0]
0x16586500d5e6   230  483be8         REX.W cmpq rbp,rax
0x16586500d5e9   233  bb07000000     movl rbx,0x7
0x16586500d5ee   238  7407           jz 247  (0x16586500d5f7)
0x16586500d5f0   240  488b5d00       REX.W movq rbx,[rbp+0x0]
0x16586500d5f4   244  8b5bec         movl rbx,[rbx-0x14]
0x16586500d5f7   247  48895de0       REX.W movq [rbp-0x20],rbx
0x16586500d5fb   251  83fb00         cmpl rbx,0x0            ;; debug: position 1669
0x16586500d5fe   254  0f843c030000   jz 1088  (0x16586500d940)
0x16586500d604   260  83fb01         cmpl rbx,0x1            ;; debug: position 1734
0x16586500d607   263  0f8473000000   jz 384  (0x16586500d680)
0x16586500d60d   269  488b45e8       REX.W movq rax,[rbp-0x18]    ;; debug: position 2118
0x16586500d611   273  488b784f       REX.W movq rdi,[rax+0x4f]
0x16586500d615   277  49ba894190cfdd1e0000 REX.W movq r10,0x1eddcf904189    ;; object: 0x1eddcf904189 <undefined>
0x16586500d61f   287  4152           push r10
0x16586500d621   289  488b5540       REX.W movq rdx,[rbp+0x40]
0x16586500d625   293  52             push rdx
0x16586500d626   294  488bf0         REX.W movq rsi,rax
0x16586500d629   297  48bb59b79ecfdd1e0000 REX.W movq rbx,0x1eddcf9eb759    ;; object: 0x1eddcf9eb759 <FixedArray[44]>
0x16586500d633   307  48ba0000000012000000 REX.W movq rdx,0x1200000000
0x16586500d63d   317  e81eadf0ff     call 0x165864f18360     ;; code: CALL_IC, DEFAULT
0x16586500d642   322  488945d8       REX.W movq [rbp-0x28],rax
0x16586500d646   326  488b5de8       REX.W movq rbx,[rbp-0x18]
0x16586500d64a   330  488b7b4f       REX.W movq rdi,[rbx+0x4f]    ;; debug: position 2126
0x16586500d64e   334  49ba894190cfdd1e0000 REX.W movq r10,0x1eddcf904189    ;; object: 0x1eddcf904189 <undefined>
0x16586500d658   344  4152           push r10
0x16586500d65a   346  488b5538       REX.W movq rdx,[rbp+0x38]
0x16586500d65e   350  52             push rdx
0x16586500d65f   351  488bf3         REX.W movq rsi,rbx
0x16586500d662   354  48bb59b79ecfdd1e0000 REX.W movq rbx,0x1eddcf9eb759    ;; object: 0x1eddcf9eb759 <FixedArray[44]>
0x16586500d66c   364  48ba0000000014000000 REX.W movq rdx,0x1400000000
0x16586500d676   374  e8e5acf0ff     call 0x165864f18360     ;; code: CALL_IC, DEFAULT
0x16586500d67b   379  e8c689dfff     call 0x165864e06046     ;; debug: position 2135
                                                             ;; soft deoptimization bailout 7
0x16586500d680   384  488b4540       REX.W movq rax,[rbp+0x40]    ;; debug: position 1753
0x16586500d684   388  a801           test al,0x1
0x16586500d686   390  0f8484020000   jz 1040  (0x16586500d910)
0x16586500d68c   396  4d8b5508       REX.W movq r10,[r13+0x8]
0x16586500d690   400  4c3950ff       REX.W cmpq [rax-0x1],r10
0x16586500d694   404  0f8476020000   jz 1040  (0x16586500d910)
0x16586500d69a   410  488b4540       REX.W movq rax,[rbp+0x40]    ;; debug: position 1792
0x16586500d69e   414  a801           test al,0x1
0x16586500d6a0   416  740e           jz 432  (0x16586500d6b0)
0x16586500d6a2   418  488b40ff       REX.W movq rax,[rax-0x1]
0x16586500d6a6   422  80780b80       cmpb [rax+0xb],0x80
0x16586500d6aa   426  0f82c7000000   jc 631  (0x16586500d777)
0x16586500d6b0   432  488b4540       REX.W movq rax,[rbp+0x40]    ;; debug: position 1922
0x16586500d6b4   436  a801           test al,0x1
0x16586500d6b6   438  0f840f000000   jz 459  (0x16586500d6cb)
0x16586500d6bc   444  4c8b50ff       REX.W movq r10,[rax-0x1]
0x16586500d6c0   448  41807a0bb6     cmpb [r10+0xb],0xb6
0x16586500d6c5   453  0f849b000000   jz 614  (0x16586500d766)
0x16586500d6cb   459  50             push rax
0x16586500d6cc   460  488b75e8       REX.W movq rsi,[rbp-0x18]
0x16586500d6d0   464  b801000000     movl rax,0x1
0x16586500d6d5   469  498d9db8f408fe REX.W leaq rbx,[r13-0x1f70b48]
0x16586500d6dc   476  e8ffb3efff     call 0x165864f08ae0     ;; code: STUB, CEntryStub, minor: 0
0x16586500d6e1   481  488bd8         REX.W movq rbx,rax      ;; debug: position 2048
0x16586500d6e4   484  f6c301         testb rbx,0x1
0x16586500d6e7   487  740e           jz 503  (0x16586500d6f7)
0x16586500d6e9   489  488b5bff       REX.W movq rbx,[rbx-0x1]
0x16586500d6ed   493  807b0b80       cmpb [rbx+0xb],0x80
0x16586500d6f1   497  0f8236000000   jc 557  (0x16586500d72d)
0x16586500d6f7   503  488b5de8       REX.W movq rbx,[rbp-0x18]    ;; debug: position 2074
0x16586500d6fb   507  488b7b4f       REX.W movq rdi,[rbx+0x4f]
0x16586500d6ff   511  49ba894190cfdd1e0000 REX.W movq r10,0x1eddcf904189    ;; object: 0x1eddcf904189 <undefined>
0x16586500d709   521  4152           push r10
0x16586500d70b   523  50             push rax
0x16586500d70c   524  488bf3         REX.W movq rsi,rbx
0x16586500d70f   527  48bb59b79ecfdd1e0000 REX.W movq rbx,0x1eddcf9eb759    ;; object: 0x1eddcf9eb759 <FixedArray[44]>
0x16586500d719   537  48ba0000000010000000 REX.W movq rdx,0x1000000000
0x16586500d723   547  e838acf0ff     call 0x165864f18360     ;; code: CALL_IC, DEFAULT
0x16586500d728   552  e9e7010000     jmp 1044  (0x16586500d914)
0x16586500d72d   557  488b5de8       REX.W movq rbx,[rbp-0x18]    ;; debug: position 2061
0x16586500d731   561  488bbbff000000 REX.W movq rdi,[rbx+0xff]
0x16586500d738   568  49ba894190cfdd1e0000 REX.W movq r10,0x1eddcf904189    ;; object: 0x1eddcf904189 <undefined>
0x16586500d742   578  4152           push r10
0x16586500d744   580  50             push rax
0x16586500d745   581  488bf3         REX.W movq rsi,rbx
0x16586500d748   584  48bb59b79ecfdd1e0000 REX.W movq rbx,0x1eddcf9eb759    ;; object: 0x1eddcf9eb759 <FixedArray[44]>
0x16586500d752   594  48ba000000000e000000 REX.W movq rdx,0xe00000000
0x16586500d75c   604  e8ffabf0ff     call 0x165864f18360     ;; code: CALL_IC, DEFAULT
0x16586500d761   609  e9ae010000     jmp 1044  (0x16586500d914)    ;; debug: position 2074
0x16586500d766   614  488b4540       REX.W movq rax,[rbp+0x40]    ;; debug: position 1922
0x16586500d76a   618  0f1f4000       nop
0x16586500d76e   622  488b4017       REX.W movq rax,[rax+0x17]
0x16586500d772   626  e99d010000     jmp 1044  (0x16586500d914)    ;; debug: position 2074
0x16586500d777   631  488b45e8       REX.W movq rax,[rbp-0x18]    ;; debug: position 1807
0x16586500d77b   635  488b982f010000 REX.W movq rbx,[rax+0x12f]
0x16586500d782   642  49ba91c19dcfdd1e0000 REX.W movq r10,0x1eddcf9dc191    ;; object: 0x1eddcf9dc191 <JS Function CheckDateCacheCurrent (SharedFunctionInfo 0x1eddcf966cb9)>
0x16586500d78c   652  493bda         REX.W cmpq rbx,r10
0x16586500d78f   655  0f85f7010000   jnz 1164  (0x16586500d98c)
0x16586500d795   661  49ba894190cfdd1e0000 REX.W movq r10,0x1eddcf904189    ;; object: 0x1eddcf904189 <undefined>
0x16586500d79f   671  4152           push r10
0x16586500d7a1   673  48bf91c19dcfdd1e0000 REX.W movq rdi,0x1eddcf9dc191    ;; object: 0x1eddcf9dc191 <JS Function CheckDateCacheCurrent (SharedFunctionInfo 0x1eddcf966cb9)>
0x16586500d7ab   683  33c0           xorl rax,rax
0x16586500d7ad   685  488b772f       REX.W movq rsi,[rdi+0x2f]
0x16586500d7b1   689  ff5717         call [rdi+0x17]
0x16586500d7b4   692  488b5de8       REX.W movq rbx,[rbp-0x18]
0x16586500d7b8   696  488b8b97000000 REX.W movq rcx,[rbx+0x97]
0x16586500d7bf   703  48894dd0       REX.W movq [rbp-0x30],rcx
0x16586500d7c3   707  f6c101         testb rcx,0x1           ;; debug: position 1852
0x16586500d7c6   710  0f84c5010000   jz 1169  (0x16586500d991)
0x16586500d7cc   716  49ba39a0d047962b0000 REX.W movq r10,0x2b9647d0a039    ;; object: 0x2b9647d0a039 <Map(FAST_HOLEY_ELEMENTS)>
0x16586500d7d6   726  4c3951ff       REX.W cmpq [rcx-0x1],r10
0x16586500d7da   730  0f85b6010000   jnz 1174  (0x16586500d996)
0x16586500d7e0   736  488b511f       REX.W movq rdx,[rcx+0x1f]
0x16586500d7e4   740  488bf3         REX.W movq rsi,rbx
0x16586500d7e7   743  488b4540       REX.W movq rax,[rbp+0x40]
0x16586500d7eb   747  e850dbf0ff     call 0x165864f1b340     ;; code: COMPARE_IC, UNINITIALIZED
0x16586500d7f0   752  90             nop
0x16586500d7f1   753  4885c0         REX.W testq rax,rax
0x16586500d7f4   756  7406           jz 764  (0x16586500d7fc)
0x16586500d7f6   758  498b45c8       REX.W movq rax,[r13-0x38]
0x16586500d7fa   762  eb04           jmp 768  (0x16586500d800)
0x16586500d7fc   764  498b45c0       REX.W movq rax,[r13-0x40]
0x16586500d800   768  493b45c0       REX.W cmpq rax,[r13-0x40]
0x16586500d804   772  0f84f9000000   jz 1027  (0x16586500d903)
0x16586500d80a   778  488b45e8       REX.W movq rax,[rbp-0x18]    ;; debug: position 1878
0x16586500d80e   782  488b98ff000000 REX.W movq rbx,[rax+0xff]
0x16586500d815   789  49ba71c09dcfdd1e0000 REX.W movq r10,0x1eddcf9dc071    ;; object: 0x1eddcf9dc071 <JS Function parse (SharedFunctionInfo 0x1eddcf964379)>
0x16586500d81f   799  493bda         REX.W cmpq rbx,r10
0x16586500d822   802  0f8573010000   jnz 1179  (0x16586500d99b)
0x16586500d828   808  49ba894190cfdd1e0000 REX.W movq r10,0x1eddcf904189    ;; object: 0x1eddcf904189 <undefined>
0x16586500d832   818  4152           push r10
0x16586500d834   820  ff7540         push [rbp+0x40]
0x16586500d837   823  48bf71c09dcfdd1e0000 REX.W movq rdi,0x1eddcf9dc071    ;; object: 0x1eddcf9dc071 <JS Function parse (SharedFunctionInfo 0x1eddcf964379)>
0x16586500d841   833  b801000000     movl rax,0x1
0x16586500d846   838  488b772f       REX.W movq rsi,[rdi+0x2f]
0x16586500d84a   842  ff5717         call [rdi+0x17]
0x16586500d84d   845  a801           test al,0x1
0x16586500d84f   847  0f8438000000   jz 909  (0x16586500d88d)
0x16586500d855   853  a801           test al,0x1             ;; debug: position 1922
0x16586500d857   855  7415           jz 878  (0x16586500d86e)
0x16586500d859   857  4d8b5508       REX.W movq r10,[r13+0x8]
0x16586500d85d   861  4c3950ff       REX.W cmpq [rax-0x1],r10
0x16586500d861   865  f20f104807     movsd xmm1,[rax+0x7]
0x16586500d866   870  0f8534010000   jnz 1184  (0x16586500d9a0)
0x16586500d86c   876  eb0f           jmp 893  (0x16586500d87d)
0x16586500d86e   878  4c8bd0         REX.W movq r10,rax
0x16586500d871   881  49c1ea20       REX.W shrq r10, 32
0x16586500d875   885  0f57c9         xorps xmm1,xmm1
0x16586500d878   888  f2410f2aca     cvtsi2sd xmm1,r10
0x16586500d87d   893  660f2ec9       ucomisd xmm1,xmm1
0x16586500d881   897  0f8a8d000000   jpe 1044  (0x16586500d914)
0x16586500d887   903  0f8587000000   jnz 1044  (0x16586500d914)
0x16586500d88d   909  488bd8         REX.W movq rbx,rax
0x16586500d890   912  488b55d0       REX.W movq rdx,[rbp-0x30]
0x16586500d894   916  48895a17       REX.W movq [rdx+0x17],rbx
0x16586500d898   920  f6c301         testb rbx,0x1
0x16586500d89b   923  0f8426000000   jz 967  (0x16586500d8c7)
0x16586500d8a1   929  488d4a17       REX.W leaq rcx,[rdx+0x17]
0x16586500d8a5   933  4881e30000f0ff REX.W andq rbx,0xfffffffffff00000
0x16586500d8ac   940  f6430804       testb [rbx+0x8],0x4
0x16586500d8b0   944  7415           jz 967  (0x16586500d8c7)
0x16586500d8b2   946  48c7c30000f0ff REX.W movq rbx,0xfff00000
0x16586500d8b9   953  4823da         REX.W andq rbx,rdx
0x16586500d8bc   956  f6430808       testb [rbx+0x8],0x8
0x16586500d8c0   960  7405           jz 967  (0x16586500d8c7)
0x16586500d8c2   962  e839faefff     call 0x165864f0d300     ;; code: STUB, RecordWriteStub, minor: 8498
0x16586500d8c7   967  488b5d40       REX.W movq rbx,[rbp+0x40]
0x16586500d8cb   971  48895a1f       REX.W movq [rdx+0x1f],rbx
0x16586500d8cf   975  f6c301         testb rbx,0x1
0x16586500d8d2   978  0f8426000000   jz 1022  (0x16586500d8fe)
0x16586500d8d8   984  488d4a1f       REX.W leaq rcx,[rdx+0x1f]
0x16586500d8dc   988  4881e30000f0ff REX.W andq rbx,0xfffffffffff00000
0x16586500d8e3   995  f6430804       testb [rbx+0x8],0x4
0x16586500d8e7   999  7415           jz 1022  (0x16586500d8fe)
0x16586500d8e9  1001  48c7c30000f0ff REX.W movq rbx,0xfff00000
0x16586500d8f0  1008  4823da         REX.W andq rbx,rdx
0x16586500d8f3  1011  f6430808       testb [rbx+0x8],0x8
0x16586500d8f7  1015  7405           jz 1022  (0x16586500d8fe)
0x16586500d8f9  1017  e802faefff     call 0x165864f0d300     ;; code: STUB, RecordWriteStub, minor: 8498
0x16586500d8fe  1022  e911000000     jmp 1044  (0x16586500d914)
0x16586500d903  1027  488b55d0       REX.W movq rdx,[rbp-0x30]    ;; debug: position 1852
0x16586500d907  1031  488b4217       REX.W movq rax,[rdx+0x17]
0x16586500d90b  1035  e904000000     jmp 1044  (0x16586500d914)    ;; debug: position 1922
0x16586500d910  1040  488b4540       REX.W movq rax,[rbp+0x40]    ;; debug: position 2074
0x16586500d914  1044  488b5d48       REX.W movq rbx,[rbp+0x48]
0x16586500d918  1048  53             push rbx
0x16586500d919  1049  50             push rax
0x16586500d91a  1050  49ba0000000001000000 REX.W movq r10,0x100000000
0x16586500d924  1060  4152           push r10
0x16586500d926  1062  488b75e8       REX.W movq rsi,[rbp-0x18]
0x16586500d92a  1066  b803000000     movl rax,0x3
0x16586500d92f  1071  498d9d28dc36fe REX.W leaq rbx,[r13-0x1c923d8]
0x16586500d936  1078  e8a5b1efff     call 0x165864f08ae0     ;; code: STUB, CEntryStub, minor: 0
0x16586500d93b  1083  e93b000000     jmp 1147  (0x16586500d97b)    ;; debug: position 2448
0x16586500d940  1088  488b75e8       REX.W movq rsi,[rbp-0x18]    ;; debug: position 1669
0x16586500d944  1092  0f1f4000       nop
0x16586500d948  1096  33c0           xorl rax,rax
0x16586500d94a  1098  498d9d78e336fe REX.W leaq rbx,[r13-0x1c91c88]
0x16586500d951  1105  e88ab1efff     call 0x165864f08ae0     ;; code: STUB, CEntryStub, minor: 0
0x16586500d956  1110  ff7548         push [rbp+0x48]
0x16586500d959  1113  50             push rax
0x16586500d95a  1114  49ba0000000001000000 REX.W movq r10,0x100000000
0x16586500d964  1124  4152           push r10
0x16586500d966  1126  488b75e8       REX.W movq rsi,[rbp-0x18]
0x16586500d96a  1130  b803000000     movl rax,0x3
0x16586500d96f  1135  498d9d28dc36fe REX.W leaq rbx,[r13-0x1c923d8]
0x16586500d976  1142  e865b1efff     call 0x165864f08ae0     ;; code: STUB, CEntryStub, minor: 0
0x16586500d97b  1147  48b8894190cfdd1e0000 REX.W movq rax,0x1eddcf904189    ;; debug: position 2448
                                                             ;; object: 0x1eddcf904189 <undefined>
0x16586500d985  1157  488be5         REX.W movq rsp,rbp
0x16586500d988  1160  5d             pop rbp
0x16586500d989  1161  c24000         ret 0x40
0x16586500d98c  1164  e8e786bfff     call 0x165864c06078     ;; deoptimization bailout 12
0x16586500d991  1169  e8f686bfff     call 0x165864c0608c     ;; deoptimization bailout 14
0x16586500d996  1174  e8fb86bfff     call 0x165864c06096     ;; deoptimization bailout 15
0x16586500d99b  1179  e80a87bfff     call 0x165864c060aa     ;; deoptimization bailout 17
0x16586500d9a0  1184  e81987bfff     call 0x165864c060be     ;; deoptimization bailout 19
0x16586500d9a5  1189  0f1f00         nop

Inlined functions (count = 0)

Deoptimization Input Data (deopt points = 23)
 index  ast id    argc     pc
     0       1       0     10
     1       3       0     37
     2      38       0    103
     3      35       0    148
     4      35       0    194
     5     426       0    326
     6     444       0    379
     7     444       0     -1
     8     352       0    481
     9     393       0    552
    10     382       0    609
    11     312       0    626
    12     145       0     -1
    13     163       0    692
    14     163       0     -1
    15     163       0     -1
    16     187       0    768
    17     186       0     -1
    18     231       0    845
    19     251       0     -1
    20     404       0   1083
    21      85       0   1110
    22      88       0   1147

Safepoints (size = 184)
0x16586500d525    37  0001 (sp -> fp)       1
0x16586500d567   103  0001 (sp -> fp)       2
0x16586500d594   148  0001 (sp -> fp)       3
0x16586500d5be   190  0001 (sp -> fp)       4
0x16586500d5c2   194  0001 (sp -> fp)       4
0x16586500d642   322  0001 (sp -> fp)       5
0x16586500d67b   379  0101 (sp -> fp)       6
0x16586500d6e1   481  0001 (sp -> fp)       8
0x16586500d728   552  0001 (sp -> fp)       9
0x16586500d761   609  0001 (sp -> fp)      10
0x16586500d7b4   692  0001 (sp -> fp)      13
0x16586500d7f0   752  1001 (sp -> fp)      16
0x16586500d84d   845  1001 (sp -> fp)      18
0x16586500d93b  1083  0001 (sp -> fp)      20
0x16586500d956  1110  0001 (sp -> fp)      21
0x16586500d97b  1147  0001 (sp -> fp)      22

RelocInfo (size = 174)
0x16586500d521  code target (BUILTIN)  (0x165864f36a80)
0x16586500d550  position  (1606)
0x16586500d563  code target (js construct call) (STUB)  (0x16586500d3c0)
0x16586500d590  code target (STUB)  (0x16586500d460)
0x16586500d5ba  code target (BUILTIN)  (0x165864f09480)
0x16586500d5fb  position  (1669)
0x16586500d604  position  (1734)
0x16586500d60d  position  (2118)
0x16586500d617  embedded object  (0x1eddcf904189 <undefined>)
0x16586500d62b  embedded object  (0x1eddcf9eb759 <FixedArray[44]>)
0x16586500d63e  code target (CALL_IC)  (0x165864f18360)
0x16586500d64a  position  (2126)
0x16586500d650  embedded object  (0x1eddcf904189 <undefined>)
0x16586500d664  embedded object  (0x1eddcf9eb759 <FixedArray[44]>)
0x16586500d677  code target (CALL_IC)  (0x165864f18360)
0x16586500d67b  position  (2135)
0x16586500d67c  runtime entry
0x16586500d680  position  (1753)
0x16586500d69a  position  (1792)
0x16586500d6b0  position  (1922)
0x16586500d6dd  code target (STUB)  (0x165864f08ae0)
0x16586500d6e1  position  (2048)
0x16586500d6f7  position  (2074)
0x16586500d701  embedded object  (0x1eddcf904189 <undefined>)
0x16586500d711  embedded object  (0x1eddcf9eb759 <FixedArray[44]>)
0x16586500d724  code target (CALL_IC)  (0x165864f18360)
0x16586500d72d  position  (2061)
0x16586500d73a  embedded object  (0x1eddcf904189 <undefined>)
0x16586500d74a  embedded object  (0x1eddcf9eb759 <FixedArray[44]>)
0x16586500d75d  code target (CALL_IC)  (0x165864f18360)
0x16586500d761  position  (2074)
0x16586500d766  position  (1922)
0x16586500d772  position  (2074)
0x16586500d777  position  (1807)
0x16586500d784  embedded object  (0x1eddcf9dc191 <JS Function CheckDateCacheCurrent (SharedFunctionInfo 0x1eddcf966cb9)>)
0x16586500d797  embedded object  (0x1eddcf904189 <undefined>)
0x16586500d7a3  embedded object  (0x1eddcf9dc191 <JS Function CheckDateCacheCurrent (SharedFunctionInfo 0x1eddcf966cb9)>)
0x16586500d7c3  position  (1852)
0x16586500d7ce  embedded object  (0x2b9647d0a039 <Map(FAST_HOLEY_ELEMENTS)>)
0x16586500d7ec  code target (COMPARE_IC)  (0x165864f1b340)
0x16586500d80a  position  (1878)
0x16586500d817  embedded object  (0x1eddcf9dc071 <JS Function parse (SharedFunctionInfo 0x1eddcf964379)>)
0x16586500d82a  embedded object  (0x1eddcf904189 <undefined>)
0x16586500d839  embedded object  (0x1eddcf9dc071 <JS Function parse (SharedFunctionInfo 0x1eddcf964379)>)
0x16586500d855  position  (1922)
0x16586500d8c3  code target (STUB)  (0x165864f0d300)
0x16586500d8fa  code target (STUB)  (0x165864f0d300)
0x16586500d903  position  (1852)
0x16586500d90b  position  (1922)
0x16586500d910  position  (2074)
0x16586500d937  code target (STUB)  (0x165864f08ae0)
0x16586500d93b  position  (2448)
0x16586500d940  position  (1669)
0x16586500d952  code target (STUB)  (0x165864f08ae0)
0x16586500d977  code target (STUB)  (0x165864f08ae0)
0x16586500d97b  position  (2448)
0x16586500d97d  embedded object  (0x1eddcf904189 <undefined>)
0x16586500d98d  runtime entry  (deoptimization bailout 12)
0x16586500d992  runtime entry  (deoptimization bailout 14)
0x16586500d997  runtime entry  (deoptimization bailout 15)
0x16586500d99c  runtime entry  (deoptimization bailout 17)
0x16586500d9a1  runtime entry  (deoptimization bailout 19)

--- End code ---
