--- Raw source ---
function f(x0, x1, x2, x3, x4, x5, x6, x7, x8, x9)
{
}

for (var i = 0; i < 3000000; ++i)
    f(0, 1, 2, 3, 4, 5, 6, 7, 8, 9);


--- Code ---
source_position = 0
kind = FUNCTION
compiler = full-codegen
Instructions (size = 576)
0xa6d3d93a1e0     0  55             push rbp                 ;; debug: position 0
0xa6d3d93a1e1     1  4889e5         REX.W movq rbp,rsp
0xa6d3d93a1e4     4  56             push rsi
0xa6d3d93a1e5     5  57             push rdi
0xa6d3d93a1e6     6  41ff75a8       push [r13-0x58]
0xa6d3d93a1ea    10  57             push rdi
0xa6d3d93a1eb    11  49ba89ae9eb233060000 REX.W movq r10,0x633b29eae89    ;; object: 0x633b29eae89 <FixedArray[12]>
0xa6d3d93a1f5    21  4152           push r10
0xa6d3d93a1f7    23  b802000000     movl rax,0x2
0xa6d3d93a1fc    28  48bbb0852b0100000000 REX.W movq rbx,0x12b85b0
0xa6d3d93a206    38  e8d5e8fcff     call 0xa6d3d908ae0       ;; code: STUB, CEntryStub, minor: 0
0xa6d3d93a20b    43  488bf0         REX.W movq rsi,rax
0xa6d3d93a20e    46  488945f8       REX.W movq [rbp-0x8],rax
0xa6d3d93a212    50  49baa9af9eb233060000 REX.W movq r10,0x633b29eafa9    ;; object: 0x633b29eafa9 <FixedArray[4]>
0xa6d3d93a21c    60  4152           push r10
0xa6d3d93a21e    62  6a00           push 0x0
0xa6d3d93a220    64  b802000000     movl rax,0x2
0xa6d3d93a225    69  48bbf05d2b0100000000 REX.W movq rbx,0x12b5df0
0xa6d3d93a22f    79  e8ace8fcff     call 0xa6d3d908ae0       ;; code: STUB, CEntryStub, minor: 0
0xa6d3d93a234    84  493ba548090000 REX.W cmpq rsp,[r13+0x948]
0xa6d3d93a23b    91  7305           jnc 98  (0xa6d3d93a242)
0xa6d3d93a23d    93  e83ec8ffff     call StackCheck  (0xa6d3d936a80)    ;; code: BUILTIN
0xa6d3d93a242    98  48b80000000000000000 REX.W movq rax,(nil)    ;; debug: statement 56
                                                             ;; debug: statement 61
0xa6d3d93a24c   108  bb05000000     movl rbx,0x5
0xa6d3d93a251   113  e8eafbffff     call 0xa6d3d939e40       ;; code: STUB, StoreGlobalViaContextStub, minor: 0
0xa6d3d93a256   118  e917010000     jmp 402  (0xa6d3d93a372)
0xa6d3d93a25b   123  bb04000000     movl rbx,0x4             ;; debug: statement 94
0xa6d3d93a260   128  e87b04ffff     call 0xa6d3d92a6e0       ;; code: STUB, LoadGlobalViaContextStub, minor: 0
0xa6d3d93a265   133  50             push rax
0xa6d3d93a266   134  49ba894190b233060000 REX.W movq r10,0x633b2904189    ;; object: 0x633b2904189 <undefined>
0xa6d3d93a270   144  4152           push r10
0xa6d3d93a272   146  6a00           push 0x0
0xa6d3d93a274   148  49ba0000000001000000 REX.W movq r10,0x100000000
0xa6d3d93a27e   158  4152           push r10
0xa6d3d93a280   160  49ba0000000002000000 REX.W movq r10,0x200000000
0xa6d3d93a28a   170  4152           push r10
0xa6d3d93a28c   172  49ba0000000003000000 REX.W movq r10,0x300000000
0xa6d3d93a296   182  4152           push r10
0xa6d3d93a298   184  49ba0000000004000000 REX.W movq r10,0x400000000
0xa6d3d93a2a2   194  4152           push r10
0xa6d3d93a2a4   196  49ba0000000005000000 REX.W movq r10,0x500000000
0xa6d3d93a2ae   206  4152           push r10
0xa6d3d93a2b0   208  49ba0000000006000000 REX.W movq r10,0x600000000
0xa6d3d93a2ba   218  4152           push r10
0xa6d3d93a2bc   220  49ba0000000007000000 REX.W movq r10,0x700000000
0xa6d3d93a2c6   230  4152           push r10
0xa6d3d93a2c8   232  49ba0000000008000000 REX.W movq r10,0x800000000
0xa6d3d93a2d2   242  4152           push r10
0xa6d3d93a2d4   244  49ba0000000009000000 REX.W movq r10,0x900000000
0xa6d3d93a2de   254  4152           push r10
0xa6d3d93a2e0   256  48ba0000000004000000 REX.W movq rdx,0x400000000
0xa6d3d93a2ea   266  488b7c2458     REX.W movq rdi,[rsp+0x58]
0xa6d3d93a2ef   271  e86cfeffff     call 0xa6d3d93a160       ;; code: CALL_IC, DEFAULT
0xa6d3d93a2f4   276  488b75f8       REX.W movq rsi,[rbp-0x8]
0xa6d3d93a2f8   280  4883c408       REX.W addq rsp,0x8
0xa6d3d93a2fc   284  488945e8       REX.W movq [rbp-0x18],rax
0xa6d3d93a300   288  bb05000000     movl rbx,0x5             ;; debug: statement 87
0xa6d3d93a305   293  e8d603ffff     call 0xa6d3d92a6e0       ;; code: STUB, LoadGlobalViaContextStub, minor: 0
0xa6d3d93a30a   298  a801           test al,0x1
0xa6d3d93a30c   300  7314           jnc 322  (0xa6d3d93a322)
0xa6d3d93a30e   302  49ba0000000001000000 REX.W movq r10,0x100000000
0xa6d3d93a318   312  4903c2         REX.W addq rax,r10
0xa6d3d93a31b   315  711e           jno 347  (0xa6d3d93a33b)
0xa6d3d93a31d   317  492bc2         REX.W subq rax,r10
0xa6d3d93a320   320  eb05           jmp 327  (0xa6d3d93a327)
0xa6d3d93a322   322  e8d98bfeff     call 0xa6d3d922f00       ;; code: STUB, ToNumberStub, minor: 0
0xa6d3d93a327   327  488bd0         REX.W movq rdx,rax
0xa6d3d93a32a   330  48b80000000001000000 REX.W movq rax,0x100000000
0xa6d3d93a334   340  e847e2fdff     call 0xa6d3d918580       ;; code: BINARY_OP_IC, UNINITIALIZED (id = 43)
0xa6d3d93a339   345  a82d           test al,0x2d
0xa6d3d93a33b   347  bb05000000     movl rbx,0x5
0xa6d3d93a340   352  e8fbfaffff     call 0xa6d3d939e40       ;; code: STUB, StoreGlobalViaContextStub, minor: 0
0xa6d3d93a345   357  48bb79ae9eb233060000 REX.W movq rbx,0x633b29eae79    ;; object: 0x633b29eae79 Cell for 6144
0xa6d3d93a34f   367  83430bff       addl [rbx+0xb],0xff
0xa6d3d93a353   371  791d           jns 402  (0xa6d3d93a372)
0xa6d3d93a355   373  e8e6c5ffff     call InterruptCheck  (0xa6d3d936940)    ;; code: BUILTIN
0xa6d3d93a35a   378  48bb79ae9eb233060000 REX.W movq rbx,0x633b29eae79    ;; object: 0x633b29eae79 Cell for 6144
0xa6d3d93a364   388  49ba0000000000180000 REX.W movq r10,0x180000000000
0xa6d3d93a36e   398  4c895307       REX.W movq [rbx+0x7],r10
0xa6d3d93a372   402  bb05000000     movl rbx,0x5             ;; debug: statement 74
                                                             ;; debug: position 72
0xa6d3d93a377   407  e86403ffff     call 0xa6d3d92a6e0       ;; code: STUB, LoadGlobalViaContextStub, minor: 0
0xa6d3d93a37c   412  50             push rax
0xa6d3d93a37d   413  48b800000000c148aacc REX.W movq rax,0xccaa48c100000000
0xa6d3d93a387   423  49ba00000000018e87cc REX.W movq r10,0xcc878e0100000000
0xa6d3d93a391   433  4933c2         REX.W xorq rax,r10
0xa6d3d93a394   436  5a             pop rdx
0xa6d3d93a395   437  488bca         REX.W movq rcx,rdx
0xa6d3d93a398   440  480bc8         REX.W orq rcx,rax
0xa6d3d93a39b   443  f6c101         testb rcx,0x1
0xa6d3d93a39e   446  730e           jnc 462  (0xa6d3d93a3ae)
0xa6d3d93a3a0   448  483bd0         REX.W cmpq rdx,rax
0xa6d3d93a3a3   451  0f8cb2feffff   jl 123  (0xa6d3d93a25b)
0xa6d3d93a3a9   457  e921000000     jmp 495  (0xa6d3d93a3cf)
0xa6d3d93a3ae   462  e80d25feff     call 0xa6d3d91c8c0       ;; code: COMPARE_IC, UNINITIALIZED (id = 32)
0xa6d3d93a3b3   467  a815           test al,0x15
0xa6d3d93a3b5   469  eb0f           jmp 486  (0xa6d3d93a3c6)
0xa6d3d93a3b7   471  493b45c0       REX.W cmpq rax,[r13-0x40]
0xa6d3d93a3bb   475  0f849afeffff   jz 123  (0xa6d3d93a25b)
0xa6d3d93a3c1   481  e909000000     jmp 495  (0xa6d3d93a3cf)
0xa6d3d93a3c6   486  4885c0         REX.W testq rax,rax
0xa6d3d93a3c9   489  0f8c8cfeffff   jl 123  (0xa6d3d93a25b)
0xa6d3d93a3cf   495  488b45e8       REX.W movq rax,[rbp-0x18]    ;; debug: statement 127
0xa6d3d93a3d3   499  48bb79ae9eb233060000 REX.W movq rbx,0x633b29eae79    ;; object: 0x633b29eae79 Cell for 6144
0xa6d3d93a3dd   509  83430bfd       addl [rbx+0xb],0xfd
0xa6d3d93a3e1   513  791f           jns 546  (0xa6d3d93a402)
0xa6d3d93a3e3   515  50             push rax
0xa6d3d93a3e4   516  e857c5ffff     call InterruptCheck  (0xa6d3d936940)    ;; code: BUILTIN
0xa6d3d93a3e9   521  58             pop rax
0xa6d3d93a3ea   522  48bb79ae9eb233060000 REX.W movq rbx,0x633b29eae79    ;; object: 0x633b29eae79 Cell for 6144
0xa6d3d93a3f4   532  49ba0000000000180000 REX.W movq r10,0x180000000000
0xa6d3d93a3fe   542  4c895307       REX.W movq [rbx+0x7],r10
0xa6d3d93a402   546  c9             leave                    ;; debug: statement 126
0xa6d3d93a403   547  c20800         ret 0x8
0xa6d3d93a406   550  498b45a8       REX.W movq rax,[r13-0x58]
0xa6d3d93a40a   554  e9c4ffffff     jmp 499  (0xa6d3d93a3d3)
0xa6d3d93a40f   559  90             nop

Deoptimization Output Data (deopt points = 0)

Back edges (size = 1)
ast_id  pc_offset  loop_depth
    14        378           1

0x633b29eb079: [TypeFeedbackInfo]
 - ic_total_count: 3, ic_with_type_info_count: 0, ic_generic_count: 0

RelocInfo (size = 59)
0xa6d3d93a1e0  position  (0)
0xa6d3d93a1ed  embedded object  (0x633b29eae89 <FixedArray[12]>)
0xa6d3d93a207  code target (STUB)  (0xa6d3d908ae0)
0xa6d3d93a214  embedded object  (0x633b29eafa9 <FixedArray[4]>)
0xa6d3d93a230  code target (STUB)  (0xa6d3d908ae0)
0xa6d3d93a23e  code target (BUILTIN)  (0xa6d3d936a80)
0xa6d3d93a242  statement position  (56)
0xa6d3d93a242  statement position  (61)
0xa6d3d93a252  code target (STUB)  (0xa6d3d939e40)
0xa6d3d93a25b  statement position  (94)
0xa6d3d93a261  code target (STUB)  (0xa6d3d92a6e0)
0xa6d3d93a268  embedded object  (0x633b2904189 <undefined>)
0xa6d3d93a2f0  code target (CALL_IC)  (0xa6d3d93a160)
0xa6d3d93a300  statement position  (87)
0xa6d3d93a306  code target (STUB)  (0xa6d3d92a6e0)
0xa6d3d93a323  code target (STUB)  (0xa6d3d922f00)
0xa6d3d93a335  code target with id (BINARY_OP_IC)  (0xa6d3d918580) (id=43)
0xa6d3d93a341  code target (STUB)  (0xa6d3d939e40)
0xa6d3d93a347  embedded object  (0x633b29eae79 Cell for 6144)
0xa6d3d93a356  code target (BUILTIN)  (0xa6d3d936940)
0xa6d3d93a35c  embedded object  (0x633b29eae79 Cell for 6144)
0xa6d3d93a372  statement position  (74)
0xa6d3d93a372  position  (72)
0xa6d3d93a378  code target (STUB)  (0xa6d3d92a6e0)
0xa6d3d93a3af  code target with id (COMPARE_IC)  (0xa6d3d91c8c0) (id=32)
0xa6d3d93a3cf  statement position  (127)
0xa6d3d93a3d5  embedded object  (0x633b29eae79 Cell for 6144)
0xa6d3d93a3e5  code target (BUILTIN)  (0xa6d3d936940)
0xa6d3d93a3ec  embedded object  (0x633b29eae79 Cell for 6144)
0xa6d3d93a402  statement position  (126)

--- End code ---
--- Raw source ---
(x0, x1, x2, x3, x4, x5, x6, x7, x8, x9)
{
}


--- Code ---
source_position = 10
kind = FUNCTION
name = f
compiler = full-codegen
Instructions (size = 84)
0xa6d3d93a480     0  55             push rbp                 ;; debug: position 10
0xa6d3d93a481     1  4889e5         REX.W movq rbp,rsp
0xa6d3d93a484     4  56             push rsi
0xa6d3d93a485     5  57             push rdi
0xa6d3d93a486     6  493ba548090000 REX.W cmpq rsp,[r13+0x948]
0xa6d3d93a48d    13  7305           jnc 20  (0xa6d3d93a494)
0xa6d3d93a48f    15  e8ecc5ffff     call StackCheck  (0xa6d3d936a80)    ;; code: BUILTIN
0xa6d3d93a494    20  498b45a8       REX.W movq rax,[r13-0x58]
0xa6d3d93a498    24  48bba1b39eb233060000 REX.W movq rbx,0x633b29eb3a1    ;; object: 0x633b29eb3a1 Cell for 6144
0xa6d3d93a4a2    34  83430bd1       addl [rbx+0xb],0xd1
0xa6d3d93a4a6    38  791f           jns 71  (0xa6d3d93a4c7)
0xa6d3d93a4a8    40  50             push rax
0xa6d3d93a4a9    41  e892c4ffff     call InterruptCheck  (0xa6d3d936940)    ;; code: BUILTIN
0xa6d3d93a4ae    46  58             pop rax
0xa6d3d93a4af    47  48bba1b39eb233060000 REX.W movq rbx,0x633b29eb3a1    ;; object: 0x633b29eb3a1 Cell for 6144
0xa6d3d93a4b9    57  49ba0000000000180000 REX.W movq r10,0x180000000000
0xa6d3d93a4c3    67  4c895307       REX.W movq [rbx+0x7],r10
0xa6d3d93a4c7    71  c9             leave                    ;; debug: statement 53
0xa6d3d93a4c8    72  c25800         ret 0x58
0xa6d3d93a4cb    75  0f1f440000     nop

Deoptimization Output Data (deopt points = 0)

Back edges (size = 0)
ast_id  pc_offset  loop_depth

0x633b29eb3d1: [TypeFeedbackInfo]
 - ic_total_count: 0, ic_with_type_info_count: 0, ic_generic_count: 0

RelocInfo (size = 12)
0xa6d3d93a480  position  (10)
0xa6d3d93a490  code target (BUILTIN)  (0xa6d3d936a80)
0xa6d3d93a49a  embedded object  (0x633b29eb3a1 Cell for 6144)
0xa6d3d93a4aa  code target (BUILTIN)  (0xa6d3d936940)
0xa6d3d93a4b1  embedded object  (0x633b29eb3a1 Cell for 6144)
0xa6d3d93a4c7  statement position  (53)

--- End code ---
--- Raw source ---
(x0, x1, x2, x3, x4, x5, x6, x7, x8, x9)
{
}


--- Code ---
source_position = 10
kind = FUNCTION
name = f
compiler = full-codegen
Instructions (size = 84)
0xa6d3d93a540     0  55             push rbp                 ;; debug: position 10
0xa6d3d93a541     1  4889e5         REX.W movq rbp,rsp
0xa6d3d93a544     4  56             push rsi
0xa6d3d93a545     5  57             push rdi
0xa6d3d93a546     6  493ba548090000 REX.W cmpq rsp,[r13+0x948]
0xa6d3d93a54d    13  7305           jnc 20  (0xa6d3d93a554)
0xa6d3d93a54f    15  e82cc5ffff     call StackCheck  (0xa6d3d936a80)    ;; code: BUILTIN
0xa6d3d93a554    20  498b45a8       REX.W movq rax,[r13-0x58]
0xa6d3d93a558    24  48bb89b49eb233060000 REX.W movq rbx,0x633b29eb489    ;; object: 0x633b29eb489 Cell for 6144
0xa6d3d93a562    34  83430bd1       addl [rbx+0xb],0xd1
0xa6d3d93a566    38  791f           jns 71  (0xa6d3d93a587)
0xa6d3d93a568    40  50             push rax
0xa6d3d93a569    41  e8d2c3ffff     call InterruptCheck  (0xa6d3d936940)    ;; code: BUILTIN
0xa6d3d93a56e    46  58             pop rax
0xa6d3d93a56f    47  48bb89b49eb233060000 REX.W movq rbx,0x633b29eb489    ;; object: 0x633b29eb489 Cell for 6144
0xa6d3d93a579    57  49ba0000000000180000 REX.W movq r10,0x180000000000
0xa6d3d93a583    67  4c895307       REX.W movq [rbx+0x7],r10
0xa6d3d93a587    71  c9             leave                    ;; debug: statement 53
0xa6d3d93a588    72  c25800         ret 0x58
0xa6d3d93a58b    75  0f1f440000     nop

Deoptimization Output Data (deopt points = 3)
ast id        pc  state
     1         6  NO_REGISTERS
     2         6  NO_REGISTERS
     3         6  NO_REGISTERS

Back edges (size = 0)
ast_id  pc_offset  loop_depth

0x633b29eb4f9: [TypeFeedbackInfo]
 - ic_total_count: 0, ic_with_type_info_count: 0, ic_generic_count: 0

RelocInfo (size = 12)
0xa6d3d93a540  position  (10)
0xa6d3d93a550  code target (BUILTIN)  (0xa6d3d936a80)
0xa6d3d93a55a  embedded object  (0x633b29eb489 Cell for 6144)
0xa6d3d93a56a  code target (BUILTIN)  (0xa6d3d936940)
0xa6d3d93a571  embedded object  (0x633b29eb489 Cell for 6144)
0xa6d3d93a587  statement position  (53)

--- End code ---
--- Raw source ---
(x0, x1, x2, x3, x4, x5, x6, x7, x8, x9)
{
}


--- Optimized code ---
optimization_id = 0
source_position = 10
kind = OPTIMIZED_FUNCTION
name = f
stack_slots = 1
compiler = crankshaft
Instructions (size = 75)
0xa6d3d93a600     0  55             push rbp
0xa6d3d93a601     1  4889e5         REX.W movq rbp,rsp
0xa6d3d93a604     4  56             push rsi
0xa6d3d93a605     5  57             push rdi
0xa6d3d93a606     6  4883ec08       REX.W subq rsp,0x8
0xa6d3d93a60a    10  488b45f8       REX.W movq rax,[rbp-0x8]
0xa6d3d93a60e    14  488945e8       REX.W movq [rbp-0x18],rax
0xa6d3d93a612    18  488bf0         REX.W movq rsi,rax
0xa6d3d93a615    21  6690           nop
0xa6d3d93a617    23  493ba548090000 REX.W cmpq rsp,[r13+0x948]
0xa6d3d93a61e    30  7305           jnc 37  (0xa6d3d93a625)
0xa6d3d93a620    32  e85bc4ffff     call StackCheck  (0xa6d3d936a80)    ;; code: BUILTIN
0xa6d3d93a625    37  48b8894190b233060000 REX.W movq rax,0x633b2904189    ;; object: 0x633b2904189 <undefined>
0xa6d3d93a62f    47  488be5         REX.W movq rsp,rbp
0xa6d3d93a632    50  5d             pop rbp
0xa6d3d93a633    51  c25800         ret 0x58
0xa6d3d93a636    54  6690           nop

Inlined functions (count = 0)

Deoptimization Input Data (deopt points = 2)
 index  ast id    argc     pc
     0       1       0     10
     1       3       0     37

Safepoints (size = 19)
0xa6d3d93a625    37  1 (sp -> fp)       1

RelocInfo (size = 2)
0xa6d3d93a621  code target (BUILTIN)  (0xa6d3d936a80)
0xa6d3d93a627  embedded object  (0x633b2904189 <undefined>)

--- End code ---
--- Raw source ---
function f(x0, x1, x2, x3, x4, x5, x6, x7, x8, x9)
{
}

for (var i = 0; i < 3000000; ++i)
    f(0, 1, 2, 3, 4, 5, 6, 7, 8, 9);


--- Code ---
source_position = 0
kind = FUNCTION
compiler = full-codegen
Instructions (size = 576)
0xa6d3d93a6c0     0  55             push rbp                 ;; debug: position 0
0xa6d3d93a6c1     1  4889e5         REX.W movq rbp,rsp
0xa6d3d93a6c4     4  56             push rsi
0xa6d3d93a6c5     5  57             push rdi
0xa6d3d93a6c6     6  41ff75a8       push [r13-0x58]
0xa6d3d93a6ca    10  57             push rdi
0xa6d3d93a6cb    11  49ba41b69eb233060000 REX.W movq r10,0x633b29eb641    ;; object: 0x633b29eb641 <FixedArray[12]>
0xa6d3d93a6d5    21  4152           push r10
0xa6d3d93a6d7    23  b802000000     movl rax,0x2
0xa6d3d93a6dc    28  48bbb0852b0100000000 REX.W movq rbx,0x12b85b0
0xa6d3d93a6e6    38  e8f5e3fcff     call 0xa6d3d908ae0       ;; code: STUB, CEntryStub, minor: 0
0xa6d3d93a6eb    43  488bf0         REX.W movq rsi,rax
0xa6d3d93a6ee    46  488945f8       REX.W movq [rbp-0x8],rax
0xa6d3d93a6f2    50  49bab1b69eb233060000 REX.W movq r10,0x633b29eb6b1    ;; object: 0x633b29eb6b1 <FixedArray[4]>
0xa6d3d93a6fc    60  4152           push r10
0xa6d3d93a6fe    62  6a00           push 0x0
0xa6d3d93a700    64  b802000000     movl rax,0x2
0xa6d3d93a705    69  48bbf05d2b0100000000 REX.W movq rbx,0x12b5df0
0xa6d3d93a70f    79  e8cce3fcff     call 0xa6d3d908ae0       ;; code: STUB, CEntryStub, minor: 0
0xa6d3d93a714    84  493ba548090000 REX.W cmpq rsp,[r13+0x948]
0xa6d3d93a71b    91  7305           jnc 98  (0xa6d3d93a722)
0xa6d3d93a71d    93  e85ec3ffff     call StackCheck  (0xa6d3d936a80)    ;; code: BUILTIN
0xa6d3d93a722    98  48b80000000000000000 REX.W movq rax,(nil)    ;; debug: statement 56
                                                             ;; debug: statement 61
0xa6d3d93a72c   108  bb05000000     movl rbx,0x5
0xa6d3d93a731   113  e80af7ffff     call 0xa6d3d939e40       ;; code: STUB, StoreGlobalViaContextStub, minor: 0
0xa6d3d93a736   118  e917010000     jmp 402  (0xa6d3d93a852)
0xa6d3d93a73b   123  bb04000000     movl rbx,0x4             ;; debug: statement 94
0xa6d3d93a740   128  e89bfffeff     call 0xa6d3d92a6e0       ;; code: STUB, LoadGlobalViaContextStub, minor: 0
0xa6d3d93a745   133  50             push rax
0xa6d3d93a746   134  49ba894190b233060000 REX.W movq r10,0x633b2904189    ;; object: 0x633b2904189 <undefined>
0xa6d3d93a750   144  4152           push r10
0xa6d3d93a752   146  6a00           push 0x0
0xa6d3d93a754   148  49ba0000000001000000 REX.W movq r10,0x100000000
0xa6d3d93a75e   158  4152           push r10
0xa6d3d93a760   160  49ba0000000002000000 REX.W movq r10,0x200000000
0xa6d3d93a76a   170  4152           push r10
0xa6d3d93a76c   172  49ba0000000003000000 REX.W movq r10,0x300000000
0xa6d3d93a776   182  4152           push r10
0xa6d3d93a778   184  49ba0000000004000000 REX.W movq r10,0x400000000
0xa6d3d93a782   194  4152           push r10
0xa6d3d93a784   196  49ba0000000005000000 REX.W movq r10,0x500000000
0xa6d3d93a78e   206  4152           push r10
0xa6d3d93a790   208  49ba0000000006000000 REX.W movq r10,0x600000000
0xa6d3d93a79a   218  4152           push r10
0xa6d3d93a79c   220  49ba0000000007000000 REX.W movq r10,0x700000000
0xa6d3d93a7a6   230  4152           push r10
0xa6d3d93a7a8   232  49ba0000000008000000 REX.W movq r10,0x800000000
0xa6d3d93a7b2   242  4152           push r10
0xa6d3d93a7b4   244  49ba0000000009000000 REX.W movq r10,0x900000000
0xa6d3d93a7be   254  4152           push r10
0xa6d3d93a7c0   256  48ba0000000004000000 REX.W movq rdx,0x400000000
0xa6d3d93a7ca   266  488b7c2458     REX.W movq rdi,[rsp+0x58]
0xa6d3d93a7cf   271  e88cf9ffff     call 0xa6d3d93a160       ;; code: CALL_IC, DEFAULT
0xa6d3d93a7d4   276  488b75f8       REX.W movq rsi,[rbp-0x8]
0xa6d3d93a7d8   280  4883c408       REX.W addq rsp,0x8
0xa6d3d93a7dc   284  488945e8       REX.W movq [rbp-0x18],rax
0xa6d3d93a7e0   288  bb05000000     movl rbx,0x5             ;; debug: statement 87
0xa6d3d93a7e5   293  e8f6fefeff     call 0xa6d3d92a6e0       ;; code: STUB, LoadGlobalViaContextStub, minor: 0
0xa6d3d93a7ea   298  a801           test al,0x1
0xa6d3d93a7ec   300  7314           jnc 322  (0xa6d3d93a802)
0xa6d3d93a7ee   302  49ba0000000001000000 REX.W movq r10,0x100000000
0xa6d3d93a7f8   312  4903c2         REX.W addq rax,r10
0xa6d3d93a7fb   315  711e           jno 347  (0xa6d3d93a81b)
0xa6d3d93a7fd   317  492bc2         REX.W subq rax,r10
0xa6d3d93a800   320  eb05           jmp 327  (0xa6d3d93a807)
0xa6d3d93a802   322  e8f986feff     call 0xa6d3d922f00       ;; code: STUB, ToNumberStub, minor: 0
0xa6d3d93a807   327  488bd0         REX.W movq rdx,rax
0xa6d3d93a80a   330  48b80000000001000000 REX.W movq rax,0x100000000
0xa6d3d93a814   340  e867ddfdff     call 0xa6d3d918580       ;; code: BINARY_OP_IC, UNINITIALIZED (id = 43)
0xa6d3d93a819   345  a82d           test al,0x2d
0xa6d3d93a81b   347  bb05000000     movl rbx,0x5
0xa6d3d93a820   352  e81bf6ffff     call 0xa6d3d939e40       ;; code: STUB, StoreGlobalViaContextStub, minor: 0
0xa6d3d93a825   357  48bb31b69eb233060000 REX.W movq rbx,0x633b29eb631    ;; object: 0x633b29eb631 Cell for 6144
0xa6d3d93a82f   367  83430bff       addl [rbx+0xb],0xff
0xa6d3d93a833   371  791d           jns 402  (0xa6d3d93a852)
0xa6d3d93a835   373  e806c1ffff     call InterruptCheck  (0xa6d3d936940)    ;; code: BUILTIN
0xa6d3d93a83a   378  48bb31b69eb233060000 REX.W movq rbx,0x633b29eb631    ;; object: 0x633b29eb631 Cell for 6144
0xa6d3d93a844   388  49ba0000000000180000 REX.W movq r10,0x180000000000
0xa6d3d93a84e   398  4c895307       REX.W movq [rbx+0x7],r10
0xa6d3d93a852   402  bb05000000     movl rbx,0x5             ;; debug: statement 74
                                                             ;; debug: position 72
0xa6d3d93a857   407  e884fefeff     call 0xa6d3d92a6e0       ;; code: STUB, LoadGlobalViaContextStub, minor: 0
0xa6d3d93a85c   412  50             push rax
0xa6d3d93a85d   413  48b800000000d467d20d REX.W movq rax,0xdd267d400000000
0xa6d3d93a867   423  49ba0000000014a1ff0d REX.W movq r10,0xdffa11400000000
0xa6d3d93a871   433  4933c2         REX.W xorq rax,r10
0xa6d3d93a874   436  5a             pop rdx
0xa6d3d93a875   437  488bca         REX.W movq rcx,rdx
0xa6d3d93a878   440  480bc8         REX.W orq rcx,rax
0xa6d3d93a87b   443  f6c101         testb rcx,0x1
0xa6d3d93a87e   446  730e           jnc 462  (0xa6d3d93a88e)
0xa6d3d93a880   448  483bd0         REX.W cmpq rdx,rax
0xa6d3d93a883   451  0f8cb2feffff   jl 123  (0xa6d3d93a73b)
0xa6d3d93a889   457  e921000000     jmp 495  (0xa6d3d93a8af)
0xa6d3d93a88e   462  e82d20feff     call 0xa6d3d91c8c0       ;; code: COMPARE_IC, UNINITIALIZED (id = 32)
0xa6d3d93a893   467  a815           test al,0x15
0xa6d3d93a895   469  eb0f           jmp 486  (0xa6d3d93a8a6)
0xa6d3d93a897   471  493b45c0       REX.W cmpq rax,[r13-0x40]
0xa6d3d93a89b   475  0f849afeffff   jz 123  (0xa6d3d93a73b)
0xa6d3d93a8a1   481  e909000000     jmp 495  (0xa6d3d93a8af)
0xa6d3d93a8a6   486  4885c0         REX.W testq rax,rax
0xa6d3d93a8a9   489  0f8c8cfeffff   jl 123  (0xa6d3d93a73b)
0xa6d3d93a8af   495  488b45e8       REX.W movq rax,[rbp-0x18]    ;; debug: statement 127
0xa6d3d93a8b3   499  48bb31b69eb233060000 REX.W movq rbx,0x633b29eb631    ;; object: 0x633b29eb631 Cell for 6144
0xa6d3d93a8bd   509  83430bfd       addl [rbx+0xb],0xfd
0xa6d3d93a8c1   513  791f           jns 546  (0xa6d3d93a8e2)
0xa6d3d93a8c3   515  50             push rax
0xa6d3d93a8c4   516  e877c0ffff     call InterruptCheck  (0xa6d3d936940)    ;; code: BUILTIN
0xa6d3d93a8c9   521  58             pop rax
0xa6d3d93a8ca   522  48bb31b69eb233060000 REX.W movq rbx,0x633b29eb631    ;; object: 0x633b29eb631 Cell for 6144
0xa6d3d93a8d4   532  49ba0000000000180000 REX.W movq r10,0x180000000000
0xa6d3d93a8de   542  4c895307       REX.W movq [rbx+0x7],r10
0xa6d3d93a8e2   546  c9             leave                    ;; debug: statement 126
0xa6d3d93a8e3   547  c20800         ret 0x8
0xa6d3d93a8e6   550  498b45a8       REX.W movq rax,[r13-0x58]
0xa6d3d93a8ea   554  e9c4ffffff     jmp 499  (0xa6d3d93a8b3)
0xa6d3d93a8ef   559  90             nop

Deoptimization Output Data (deopt points = 40)
ast id        pc  state
     1        50  NO_REGISTERS
     2        50  NO_REGISTERS
     3        84  NO_REGISTERS
    17        98  NO_REGISTERS
    27       108  TOS_REG
    22       118  TOS_REG
    20       118  NO_REGISTERS
    18       118  NO_REGISTERS
    16       123  NO_REGISTERS
    62       123  NO_REGISTERS
    60       134  NO_REGISTERS
    63       148  NO_REGISTERS
    66       160  NO_REGISTERS
    69       172  NO_REGISTERS
    72       184  NO_REGISTERS
    75       196  NO_REGISTERS
    78       208  NO_REGISTERS
    81       220  NO_REGISTERS
    84       232  NO_REGISTERS
    87       244  NO_REGISTERS
    90       256  NO_REGISTERS
    57       276  TOS_REG
    55       284  TOS_REG
    50       288  TOS_REG
    48       288  NO_REGISTERS
    15       288  NO_REGISTERS
    47       288  NO_REGISTERS
    45       298  TOS_REG
    42       327  TOS_REG
    41       357  TOS_REG
    39       357  NO_REGISTERS
    12       402  NO_REGISTERS
    14       402  NO_REGISTERS
    35       402  NO_REGISTERS
    33       413  NO_REGISTERS
    36       436  TOS_REG
    30       471  TOS_REG
    13       495  NO_REGISTERS
    95       495  NO_REGISTERS
    93       499  TOS_REG

Back edges (size = 1)
ast_id  pc_offset  loop_depth
    14        378           1

0x633b29eb9c1: [TypeFeedbackInfo]
 - ic_total_count: 3, ic_with_type_info_count: 0, ic_generic_count: 0

RelocInfo (size = 59)
0xa6d3d93a6c0  position  (0)
0xa6d3d93a6cd  embedded object  (0x633b29eb641 <FixedArray[12]>)
0xa6d3d93a6e7  code target (STUB)  (0xa6d3d908ae0)
0xa6d3d93a6f4  embedded object  (0x633b29eb6b1 <FixedArray[4]>)
0xa6d3d93a710  code target (STUB)  (0xa6d3d908ae0)
0xa6d3d93a71e  code target (BUILTIN)  (0xa6d3d936a80)
0xa6d3d93a722  statement position  (56)
0xa6d3d93a722  statement position  (61)
0xa6d3d93a732  code target (STUB)  (0xa6d3d939e40)
0xa6d3d93a73b  statement position  (94)
0xa6d3d93a741  code target (STUB)  (0xa6d3d92a6e0)
0xa6d3d93a748  embedded object  (0x633b2904189 <undefined>)
0xa6d3d93a7d0  code target (CALL_IC)  (0xa6d3d93a160)
0xa6d3d93a7e0  statement position  (87)
0xa6d3d93a7e6  code target (STUB)  (0xa6d3d92a6e0)
0xa6d3d93a803  code target (STUB)  (0xa6d3d922f00)
0xa6d3d93a815  code target with id (BINARY_OP_IC)  (0xa6d3d918580) (id=43)
0xa6d3d93a821  code target (STUB)  (0xa6d3d939e40)
0xa6d3d93a827  embedded object  (0x633b29eb631 Cell for 6144)
0xa6d3d93a836  code target (BUILTIN)  (0xa6d3d936940)
0xa6d3d93a83c  embedded object  (0x633b29eb631 Cell for 6144)
0xa6d3d93a852  statement position  (74)
0xa6d3d93a852  position  (72)
0xa6d3d93a858  code target (STUB)  (0xa6d3d92a6e0)
0xa6d3d93a88f  code target with id (COMPARE_IC)  (0xa6d3d91c8c0) (id=32)
0xa6d3d93a8af  statement position  (127)
0xa6d3d93a8b5  embedded object  (0x633b29eb631 Cell for 6144)
0xa6d3d93a8c5  code target (BUILTIN)  (0xa6d3d936940)
0xa6d3d93a8cc  embedded object  (0x633b29eb631 Cell for 6144)
0xa6d3d93a8e2  statement position  (126)

--- End code ---
--- Raw source ---
function f(x0, x1, x2, x3, x4, x5, x6, x7, x8, x9)
{
}

for (var i = 0; i < 3000000; ++i)
    f(0, 1, 2, 3, 4, 5, 6, 7, 8, 9);


--- Optimized code ---
optimization_id = 1
source_position = 0
kind = OPTIMIZED_FUNCTION
stack_slots = 2
compiler = crankshaft
Instructions (size = 380)
0xa6d3d93a960     0  55             push rbp
0xa6d3d93a961     1  4889e5         REX.W movq rbp,rsp
0xa6d3d93a964     4  56             push rsi
0xa6d3d93a965     5  57             push rdi
0xa6d3d93a966     6  4883ec10       REX.W subq rsp,0x10
0xa6d3d93a96a    10  57             push rdi
0xa6d3d93a96b    11  49ba41b69eb233060000 REX.W movq r10,0x633b29eb641    ;; object: 0x633b29eb641 <FixedArray[12]>
0xa6d3d93a975    21  4152           push r10
0xa6d3d93a977    23  b802000000     movl rax,0x2
0xa6d3d93a97c    28  498d9d68db20fe REX.W leaq rbx,[r13-0x1df2498]
0xa6d3d93a983    35  e858e1fcff     call 0xa6d3d908ae0       ;; code: STUB, CEntryStub, minor: 0
0xa6d3d93a988    40  488bf0         REX.W movq rsi,rax
0xa6d3d93a98b    43  488945f8       REX.W movq [rbp-0x8],rax
0xa6d3d93a98f    47  488b45f8       REX.W movq rax,[rbp-0x8]
0xa6d3d93a993    51  488945e0       REX.W movq [rbp-0x20],rax
0xa6d3d93a997    55  488bf0         REX.W movq rsi,rax
0xa6d3d93a99a    58  6690           nop
0xa6d3d93a99c    60  49bae1b99eb233060000 REX.W movq r10,0x633b29eb9e1    ;; object: 0x633b29eb9e1 <FixedArray[4]>
0xa6d3d93a9a6    70  4152           push r10
0xa6d3d93a9a8    72  6a00           push 0x0
0xa6d3d93a9aa    74  b802000000     movl rax,0x2
0xa6d3d93a9af    79  498d9da8b320fe REX.W leaq rbx,[r13-0x1df4c58]
0xa6d3d93a9b6    86  e825e1fcff     call 0xa6d3d908ae0       ;; code: STUB, CEntryStub, minor: 0
0xa6d3d93a9bb    91  488b75e0       REX.W movq rsi,[rbp-0x20]
0xa6d3d93a9bf    95  660f1f840000000000 nop
0xa6d3d93a9c8   104  493ba548090000 REX.W cmpq rsp,[r13+0x948]
0xa6d3d93a9cf   111  7305           jnc 118  (0xa6d3d93a9d6)
0xa6d3d93a9d1   113  e8aac0ffff     call StackCheck  (0xa6d3d936a80)    ;; code: BUILTIN
0xa6d3d93a9d6   118  48b869b39eb233060000 REX.W movq rax,0x633b29eb369    ;; object: 0x633b29eb369 PropertyCell for 12291 (data, dictionary_index: 168, attrs: [WE_])
0xa6d3d93a9e0   128  4533d2         xorl r10,r10
0xa6d3d93a9e3   131  4c89500f       REX.W movq [rax+0xf],r10
0xa6d3d93a9e7   135  e918000000     jmp 164  (0xa6d3d93aa04)
0xa6d3d93a9ec   140  4883ec08       REX.W subq rsp,0x8
0xa6d3d93a9f0   144  488b45f8       REX.W movq rax,[rbp-0x8]
0xa6d3d93a9f4   148  488b5510       REX.W movq rdx,[rbp+0x10]
0xa6d3d93a9f8   152  488bd8         REX.W movq rbx,rax
0xa6d3d93a9fb   155  488b45e8       REX.W movq rax,[rbp-0x18]
0xa6d3d93a9ff   159  e912000000     jmp 182  (0xa6d3d93aa16)
0xa6d3d93aa04   164  488b5510       REX.W movq rdx,[rbp+0x10]
0xa6d3d93aa08   168  488b5de0       REX.W movq rbx,[rbp-0x20]
0xa6d3d93aa0c   172  48b8894190b233060000 REX.W movq rax,0x633b2904189    ;; object: 0x633b2904189 <undefined>
0xa6d3d93aa16   182  48b969b39eb233060000 REX.W movq rcx,0x633b29eb369    ;; debug: position 74
                                                             ;; object: 0x633b29eb369 PropertyCell for 12291 (data, dictionary_index: 168, attrs: [WE_])
0xa6d3d93aa20   192  8b4913         movl rcx,[rcx+0x13]
0xa6d3d93aa23   195  81f9c0c62d00   cmpl rcx,0x2dc6c0
0xa6d3d93aa29   201  0f8d30000000   jge 255  (0xa6d3d93aa5f)
0xa6d3d93aa2f   207  493ba548090000 REX.W cmpq rsp,[r13+0x948]
0xa6d3d93aa36   214  0f822a000000   jc 262  (0xa6d3d93aa66)
0xa6d3d93aa3c   220  8d4101         leal rax,[rcx+0x1]       ;; debug: position 87
0xa6d3d93aa3f   223  8bf0           movl rsi,rax
0xa6d3d93aa41   225  48c1e620       REX.W shlq rsi, 32
0xa6d3d93aa45   229  48b969b39eb233060000 REX.W movq rcx,0x633b29eb369    ;; debug: position 74
                                                             ;; object: 0x633b29eb369 PropertyCell for 12291 (data, dictionary_index: 168, attrs: [WE_])
0xa6d3d93aa4f   239  4889710f       REX.W movq [rcx+0xf],rsi    ;; debug: position 87
0xa6d3d93aa53   243  48b8894190b233060000 REX.W movq rax,0x633b2904189    ;; object: 0x633b2904189 <undefined>
0xa6d3d93aa5d   253  ebb7           jmp 182  (0xa6d3d93aa16)
0xa6d3d93aa5f   255  488be5         REX.W movq rsp,rbp
0xa6d3d93aa62   258  5d             pop rbp
0xa6d3d93aa63   259  c20800         ret 0x8
0xa6d3d93aa66   262  50             push rax                 ;; debug: position 74
0xa6d3d93aa67   263  51             push rcx
0xa6d3d93aa68   264  52             push rdx
0xa6d3d93aa69   265  53             push rbx
0xa6d3d93aa6a   266  56             push rsi
0xa6d3d93aa6b   267  57             push rdi
0xa6d3d93aa6c   268  4150           push r8
0xa6d3d93aa6e   270  4151           push r9
0xa6d3d93aa70   272  4153           push r11
0xa6d3d93aa72   274  4154           push r12
0xa6d3d93aa74   276  4156           push r14
0xa6d3d93aa76   278  4157           push r15
0xa6d3d93aa78   280  488d6424e0     REX.W leaq rsp,[rsp-0x20]
0xa6d3d93aa7d   285  488b75f8       REX.W movq rsi,[rbp-0x8]
0xa6d3d93aa81   289  33c0           xorl rax,rax
0xa6d3d93aa83   291  498d9d88a51efe REX.W leaq rbx,[r13-0x1e15a78]
0xa6d3d93aa8a   298  e811b8fcff     call 0xa6d3d9062a0       ;; code: STUB, CEntryStub, minor: 1
0xa6d3d93aa8f   303  488d642420     REX.W leaq rsp,[rsp+0x20]
0xa6d3d93aa94   308  415f           pop r15
0xa6d3d93aa96   310  415e           pop r14
0xa6d3d93aa98   312  415c           pop r12
0xa6d3d93aa9a   314  415b           pop r11
0xa6d3d93aa9c   316  4159           pop r9
0xa6d3d93aa9e   318  4158           pop r8
0xa6d3d93aaa0   320  5f             pop rdi
0xa6d3d93aaa1   321  5e             pop rsi
0xa6d3d93aaa2   322  5b             pop rbx
0xa6d3d93aaa3   323  5a             pop rdx
0xa6d3d93aaa4   324  59             pop rcx
0xa6d3d93aaa5   325  58             pop rax
0xa6d3d93aaa6   326  eb94           jmp 220  (0xa6d3d93aa3c)

Inlined functions (count = 1)
 0x633b29eaef9 <SharedFunctionInfo f>

Deoptimization Input Data (deopt points = 5)
 index  ast id    argc     pc
     0       1       0     47
     1       3       0     91
     2       3       0    118
     3      14       0     -1
     4      16       0    220

Safepoints (size = 52)
0xa6d3d93a988    40  00 (sp -> fp)       0
0xa6d3d93a9bb    91  10 (sp -> fp)       1
0xa6d3d93a9d6   118  10 (sp -> fp)       2
0xa6d3d93aa8f   303  00 | rdx | rbx (sp -> fp)       4

RelocInfo (size = 25)
0xa6d3d93a96d  embedded object  (0x633b29eb641 <FixedArray[12]>)
0xa6d3d93a984  code target (STUB)  (0xa6d3d908ae0)
0xa6d3d93a99e  embedded object  (0x633b29eb9e1 <FixedArray[4]>)
0xa6d3d93a9b7  code target (STUB)  (0xa6d3d908ae0)
0xa6d3d93a9d2  code target (BUILTIN)  (0xa6d3d936a80)
0xa6d3d93a9d8  embedded object  (0x633b29eb369 PropertyCell for 12291 (data, dictionary_index: 168, attrs: [WE_]))
0xa6d3d93aa0e  embedded object  (0x633b2904189 <undefined>)
0xa6d3d93aa16  position  (74)
0xa6d3d93aa18  embedded object  (0x633b29eb369 PropertyCell for 12291 (data, dictionary_index: 168, attrs: [WE_]))
0xa6d3d93aa3c  position  (87)
0xa6d3d93aa45  position  (74)
0xa6d3d93aa47  embedded object  (0x633b29eb369 PropertyCell for 12291 (data, dictionary_index: 168, attrs: [WE_]))
0xa6d3d93aa4f  position  (87)
0xa6d3d93aa55  embedded object  (0x633b2904189 <undefined>)
0xa6d3d93aa66  position  (74)
0xa6d3d93aa8b  code target (STUB)  (0xa6d3d9062a0)

--- End code ---
