--- Raw source ---
// The Great Computer Language Shootout
// http://shootout.alioth.debian.org/
//
// contributed by Ian Osgood

function A(i,j) {
  return 1/((i+j)*(i+j+1)/2+i+1);
}

function Au(u,v) {
  for (var i=0; i<u.length; ++i) {
    var t = 0;
    for (var j=0; j<u.length; ++j)
      t += A(i,j) * u[j];
    v[i] = t;
  }
}

function Atu(u,v) {
  for (var i=0; i<u.length; ++i) {
    var t = 0;
    for (var j=0; j<u.length; ++j)
      t += A(j,i) * u[j];
    v[i] = t;
  }
}

function AtAu(u,v,w) {
  Au(u,w);
  Atu(w,v);
}

function spectralnorm(n) {
  var i, u=[], v=[], w=[], vv=0, vBv=0;
  for (i=0; i<n; ++i) {
    u[i] = 1; v[i] = w[i] = 0;
  }
  for (i=0; i<10; ++i) {
    AtAu(u,v,w);
    AtAu(v,u,w);
  }
  for (i=0; i<n; ++i) {
    vBv += u[i]*v[i];
    vv  += v[i]*v[i];
  }
  return Math.sqrt(vBv/vv);
}

var total = 0;

for (var i = 6; i <= 48; i *= 2) {
    total += spectralnorm(i);
}

var expected = 5.086694231303284;

if (total != expected)
    throw "ERROR: bad result: expected " + expected + " but got " + total;



--- Code ---
source_position = 0
kind = FUNCTION
compiler = full-codegen
Instructions (size = 920)
0x5f8a193a700     0  55             push rbp                 ;; debug: position 0
0x5f8a193a701     1  4889e5         REX.W movq rbp,rsp
0x5f8a193a704     4  56             push rsi
0x5f8a193a705     5  57             push rdi
0x5f8a193a706     6  41ff75a8       push [r13-0x58]
0x5f8a193a70a    10  49baf9e91e7367160000 REX.W movq r10,0x1667731ee9f9    ;; object: 0x1667731ee9f9 <FixedArray[16]>
0x5f8a193a714    20  4152           push r10
0x5f8a193a716    22  6a00           push 0x0
0x5f8a193a718    24  b802000000     movl rax,0x2
0x5f8a193a71d    29  48bb10ac8a0001000000 REX.W movq rbx,0x1008aac10
0x5f8a193a727    39  e8f4f4fcff     call 0x5f8a1909c20       ;; code: STUB, CEntryStub, minor: 0
0x5f8a193a72c    44  493ba540090000 REX.W cmpq rsp,[r13+0x940]
0x5f8a193a733    51  7305           jnc 58  (0x5f8a193a73a)
0x5f8a193a735    53  e8e6c0ffff     call StackCheck  (0x5f8a1936820)    ;; code: BUILTIN
0x5f8a193a73a    58  49baf9e41e7367160000 REX.W movq r10,0x1667731ee4f9    ;; debug: statement 810
                                                             ;; object: 0x1667731ee4f9 <String[5]: total>
0x5f8a193a744    68  4152           push r10
0x5f8a193a746    70  6a00           push 0x0
0x5f8a193a748    72  6a00           push 0x0
0x5f8a193a74a    74  b803000000     movl rax,0x3
0x5f8a193a74f    79  48bba0b28a0001000000 REX.W movq rbx,0x1008ab2a0
0x5f8a193a759    89  e8c2f4fcff     call 0x5f8a1909c20       ;; code: STUB, CEntryStub, minor: 0
0x5f8a193a75e    94  48b80000000006000000 REX.W movq rax,0x600000000    ;; debug: statement 826
                                                             ;; debug: statement 831
0x5f8a193a768   104  48b979c0147367160000 REX.W movq rcx,0x16677314c079    ;; object: 0x16677314c079 <String[1]: i>
0x5f8a193a772   114  488b5627       REX.W movq rdx,[rsi+0x27]
0x5f8a193a776   118  e8a579ffff     call 0x5f8a1932120       ;; code: STORE_IC, UNINITIALIZED
0x5f8a193a77b   123  e95d010000     jmp 477  (0x5f8a193a8dd)
0x5f8a193a780   128  48b9f9e41e7367160000 REX.W movq rcx,0x1667731ee4f9    ;; debug: statement 865
                                                             ;; debug: position 865
                                                             ;; object: 0x1667731ee4f9 <String[5]: total>
0x5f8a193a78a   138  488b5627       REX.W movq rdx,[rsi+0x27]
0x5f8a193a78e   142  48b8000000000e000000 REX.W movq rax,0xe00000000
0x5f8a193a798   152  e8635bfeff     call 0x5f8a1920300       ;; code: contextual, LOAD_IC, DEFAULT
0x5f8a193a79d   157  50             push rax
0x5f8a193a79e   158  48b9d1e41e7367160000 REX.W movq rcx,0x1667731ee4d1    ;; debug: position 874
                                                             ;; object: 0x1667731ee4d1 <String[12]: spectralnorm>
0x5f8a193a7a8   168  488b5627       REX.W movq rdx,[rsi+0x27]
0x5f8a193a7ac   172  48b8000000000c000000 REX.W movq rax,0xc00000000
0x5f8a193a7b6   182  e8455bfeff     call 0x5f8a1920300       ;; code: contextual, LOAD_IC, DEFAULT
0x5f8a193a7bb   187  50             push rax
0x5f8a193a7bc   188  49ba8941107367160000 REX.W movq r10,0x166773104189    ;; object: 0x166773104189 <undefined>
0x5f8a193a7c6   198  4152           push r10
0x5f8a193a7c8   200  48b979c0147367160000 REX.W movq rcx,0x16677314c079    ;; debug: position 887
                                                             ;; object: 0x16677314c079 <String[1]: i>
0x5f8a193a7d2   210  488b5627       REX.W movq rdx,[rsi+0x27]
0x5f8a193a7d6   214  48b80000000010000000 REX.W movq rax,0x1000000000
0x5f8a193a7e0   224  e81b5bfeff     call 0x5f8a1920300       ;; code: contextual, LOAD_IC, DEFAULT
0x5f8a193a7e5   229  50             push rax
0x5f8a193a7e6   230  48ba0000000016000000 REX.W movq rdx,0x1600000000    ;; debug: position 874
0x5f8a193a7f0   240  488b7c2410     REX.W movq rdi,[rsp+0x10]
0x5f8a193a7f5   245  e8c67afdff     call 0x5f8a19122c0       ;; code: CALL_IC, DEFAULT
0x5f8a193a7fa   250  488b75f8       REX.W movq rsi,[rbp-0x8]
0x5f8a193a7fe   254  4883c408       REX.W addq rsp,0x8
0x5f8a193a802   258  5a             pop rdx
0x5f8a193a803   259  488bc8         REX.W movq rcx,rax
0x5f8a193a806   262  480bc2         REX.W orq rax,rdx
0x5f8a193a809   265  a801           test al,0x1
0x5f8a193a80b   267  720c           jc 281  (0x5f8a193a819)
0x5f8a193a80d   269  488bc1         REX.W movq rax,rcx
0x5f8a193a810   272  e82b85fdff     call 0x5f8a1912d40       ;; code: BINARY_OP_IC, UNINITIALIZED (id = 117)
0x5f8a193a815   277  a80a           test al,0xa
0x5f8a193a817   279  eb0c           jmp 293  (0x5f8a193a825)
0x5f8a193a819   281  488bc2         REX.W movq rax,rdx
0x5f8a193a81c   284  4803c1         REX.W addq rax,rcx
0x5f8a193a81f   287  0f80e8ffffff   jo 269  (0x5f8a193a80d)
0x5f8a193a825   293  48b9f9e41e7367160000 REX.W movq rcx,0x1667731ee4f9    ;; debug: position 871
                                                             ;; object: 0x1667731ee4f9 <String[5]: total>
0x5f8a193a82f   303  488b5627       REX.W movq rdx,[rsi+0x27]
0x5f8a193a833   307  e8e878ffff     call 0x5f8a1932120       ;; code: STORE_IC, UNINITIALIZED
0x5f8a193a838   312  488945e8       REX.W movq [rbp-0x18],rax
0x5f8a193a83c   316  48b979c0147367160000 REX.W movq rcx,0x16677314c079    ;; debug: statement 853
                                                             ;; debug: position 851
                                                             ;; object: 0x16677314c079 <String[1]: i>
0x5f8a193a846   326  488b5627       REX.W movq rdx,[rsi+0x27]
0x5f8a193a84a   330  48b80000000010000000 REX.W movq rax,0x1000000000
0x5f8a193a854   340  e8a75afeff     call 0x5f8a1920300       ;; code: contextual, LOAD_IC, DEFAULT
0x5f8a193a859   345  50             push rax
0x5f8a193a85a   346  48b80000000002000000 REX.W movq rax,0x200000000
0x5f8a193a864   356  5a             pop rdx
0x5f8a193a865   357  488bc8         REX.W movq rcx,rax
0x5f8a193a868   360  480bc2         REX.W orq rax,rdx
0x5f8a193a86b   363  a801           test al,0x1
0x5f8a193a86d   365  720c           jc 379  (0x5f8a193a87b)
0x5f8a193a86f   367  488bc1         REX.W movq rax,rcx
0x5f8a193a872   370  e8a964fdff     call 0x5f8a1910d20       ;; code: BINARY_OP_IC, UNINITIALIZED (id = 87)
0x5f8a193a877   375  a80a           test al,0xa
0x5f8a193a879   377  eb22           jmp 413  (0x5f8a193a89d)
0x5f8a193a87b   379  488bc2         REX.W movq rax,rdx
0x5f8a193a87e   382  48c1f820       REX.W sarq rax, 32
0x5f8a193a882   386  480fafc1       REX.W imulq rax,rcx
0x5f8a193a886   390  0f80e3ffffff   jo 367  (0x5f8a193a86f)
0x5f8a193a88c   396  4885c0         REX.W testq rax,rax
0x5f8a193a88f   399  750c           jnz 413  (0x5f8a193a89d)
0x5f8a193a891   401  4c8bd2         REX.W movq r10,rdx
0x5f8a193a894   404  4c33d1         REX.W xorq r10,rcx
0x5f8a193a897   407  0f88d2ffffff   js 367  (0x5f8a193a86f)
0x5f8a193a89d   413  48b979c0147367160000 REX.W movq rcx,0x16677314c079    ;; debug: position 853
                                                             ;; object: 0x16677314c079 <String[1]: i>
0x5f8a193a8a7   423  488b5627       REX.W movq rdx,[rsi+0x27]
0x5f8a193a8ab   427  e87078ffff     call 0x5f8a1932120       ;; code: STORE_IC, UNINITIALIZED
0x5f8a193a8b0   432  48bb79e61e7367160000 REX.W movq rbx,0x1667731ee679    ;; object: 0x1667731ee679 Cell for 6144
0x5f8a193a8ba   442  83430bff       addl [rbx+0xb],0xff
0x5f8a193a8be   446  791d           jns 477  (0x5f8a193a8dd)
0x5f8a193a8c0   448  e81bbeffff     call InterruptCheck  (0x5f8a19366e0)    ;; code: BUILTIN
0x5f8a193a8c5   453  48bb79e61e7367160000 REX.W movq rbx,0x1667731ee679    ;; object: 0x1667731ee679 Cell for 6144
0x5f8a193a8cf   463  49ba0000000000180000 REX.W movq r10,0x180000000000
0x5f8a193a8d9   473  4c895307       REX.W movq [rbx+0x7],r10
0x5f8a193a8dd   477  48b979c0147367160000 REX.W movq rcx,0x16677314c079    ;; debug: statement 844
                                                             ;; debug: position 842
                                                             ;; object: 0x16677314c079 <String[1]: i>
0x5f8a193a8e7   487  488b5627       REX.W movq rdx,[rsi+0x27]
0x5f8a193a8eb   491  48b80000000010000000 REX.W movq rax,0x1000000000
0x5f8a193a8f5   501  e8065afeff     call 0x5f8a1920300       ;; code: contextual, LOAD_IC, DEFAULT
0x5f8a193a8fa   506  50             push rax
0x5f8a193a8fb   507  48b80000000030000000 REX.W movq rax,0x3000000000
0x5f8a193a905   517  5a             pop rdx
0x5f8a193a906   518  488bca         REX.W movq rcx,rdx
0x5f8a193a909   521  480bc8         REX.W orq rcx,rax
0x5f8a193a90c   524  f6c101         testb rcx,0x1
0x5f8a193a90f   527  730e           jnc 543  (0x5f8a193a91f)
0x5f8a193a911   529  483bd0         REX.W cmpq rdx,rax
0x5f8a193a914   532  0f8e66feffff   jle 128  (0x5f8a193a780)
0x5f8a193a91a   538  e921000000     jmp 576  (0x5f8a193a940)
0x5f8a193a91f   543  e8bc18feff     call 0x5f8a191c1e0       ;; code: COMPARE_IC, UNINITIALIZED (id = 73)
0x5f8a193a924   548  a815           test al,0x15
0x5f8a193a926   550  eb0f           jmp 567  (0x5f8a193a937)
0x5f8a193a928   552  493b45c0       REX.W cmpq rax,[r13-0x40]
0x5f8a193a92c   556  0f844efeffff   jz 128  (0x5f8a193a780)
0x5f8a193a932   562  e909000000     jmp 576  (0x5f8a193a940)
0x5f8a193a937   567  4885c0         REX.W testq rax,rax
0x5f8a193a93a   570  0f8e40feffff   jle 128  (0x5f8a193a780)
0x5f8a193a940   576  49ba19e51e7367160000 REX.W movq r10,0x1667731ee519    ;; debug: statement 894
                                                             ;; object: 0x1667731ee519 <String[8]: expected>
0x5f8a193a94a   586  4152           push r10
0x5f8a193a94c   588  6a00           push 0x0
0x5f8a193a94e   590  49ba99e51e7367160000 REX.W movq r10,0x1667731ee599    ;; object: 0x1667731ee599 <Number: 5.08669>
0x5f8a193a958   600  4152           push r10
0x5f8a193a95a   602  b803000000     movl rax,0x3
0x5f8a193a95f   607  48bba0b28a0001000000 REX.W movq rbx,0x1008ab2a0
0x5f8a193a969   617  e8b2f2fcff     call 0x5f8a1909c20       ;; code: STUB, CEntryStub, minor: 0
0x5f8a193a96e   622  48b9f9e41e7367160000 REX.W movq rcx,0x1667731ee4f9    ;; debug: statement 929
                                                             ;; debug: position 933
                                                             ;; object: 0x1667731ee4f9 <String[5]: total>
0x5f8a193a978   632  488b5627       REX.W movq rdx,[rsi+0x27]
0x5f8a193a97c   636  48b8000000000e000000 REX.W movq rax,0xe00000000
0x5f8a193a986   646  e87559feff     call 0x5f8a1920300       ;; code: contextual, LOAD_IC, DEFAULT
0x5f8a193a98b   651  50             push rax
0x5f8a193a98c   652  48b919e51e7367160000 REX.W movq rcx,0x1667731ee519    ;; debug: position 942
                                                             ;; object: 0x1667731ee519 <String[8]: expected>
0x5f8a193a996   662  488b5627       REX.W movq rdx,[rsi+0x27]
0x5f8a193a99a   666  48b80000000012000000 REX.W movq rax,0x1200000000
0x5f8a193a9a4   676  e85759feff     call 0x5f8a1920300       ;; code: contextual, LOAD_IC, DEFAULT
0x5f8a193a9a9   681  5a             pop rdx
0x5f8a193a9aa   682  e8b11bfeff     call 0x5f8a191c560       ;; code: COMPARE_IC, UNINITIALIZED (id = 170)
0x5f8a193a9af   687  90             nop
0x5f8a193a9b0   688  eb0f           jmp 705  (0x5f8a193a9c1)
0x5f8a193a9b2   690  493b45c0       REX.W cmpq rax,[r13-0x40]
0x5f8a193a9b6   694  0f848a000000   jz 838  (0x5f8a193aa46)
0x5f8a193a9bc   700  e909000000     jmp 714  (0x5f8a193a9ca)
0x5f8a193a9c1   705  4885c0         REX.W testq rax,rax
0x5f8a193a9c4   708  0f847c000000   jz 838  (0x5f8a193aa46)
0x5f8a193a9ca   714  49ba39e51e7367160000 REX.W movq r10,0x1667731ee539    ;; debug: statement 956
                                                             ;; object: 0x1667731ee539 <String[28]: ERROR: bad result: expected >
0x5f8a193a9d4   724  4152           push r10
0x5f8a193a9d6   726  48b919e51e7367160000 REX.W movq rcx,0x1667731ee519    ;; debug: position 995
                                                             ;; object: 0x1667731ee519 <String[8]: expected>
0x5f8a193a9e0   736  488b5627       REX.W movq rdx,[rsi+0x27]
0x5f8a193a9e4   740  48b80000000012000000 REX.W movq rax,0x1200000000
0x5f8a193a9ee   750  e80d59feff     call 0x5f8a1920300       ;; code: contextual, LOAD_IC, DEFAULT
0x5f8a193a9f3   755  5a             pop rdx                  ;; debug: position 993
0x5f8a193a9f4   756  e84783fdff     call 0x5f8a1912d40       ;; code: BINARY_OP_IC, UNINITIALIZED (id = 190)
0x5f8a193a9f9   761  90             nop
0x5f8a193a9fa   762  50             push rax
0x5f8a193a9fb   763  48b871e51e7367160000 REX.W movq rax,0x1667731ee571    ;; object: 0x1667731ee571 <String[9]:  but got >
0x5f8a193aa05   773  5a             pop rdx                  ;; debug: position 1004
0x5f8a193aa06   774  e83583fdff     call 0x5f8a1912d40       ;; code: BINARY_OP_IC, UNINITIALIZED (id = 186)
0x5f8a193aa0b   779  90             nop
0x5f8a193aa0c   780  50             push rax
0x5f8a193aa0d   781  48b9f9e41e7367160000 REX.W movq rcx,0x1667731ee4f9    ;; debug: position 1020
                                                             ;; object: 0x1667731ee4f9 <String[5]: total>
0x5f8a193aa17   791  488b5627       REX.W movq rdx,[rsi+0x27]
0x5f8a193aa1b   795  48b8000000000e000000 REX.W movq rax,0xe00000000
0x5f8a193aa25   805  e8d658feff     call 0x5f8a1920300       ;; code: contextual, LOAD_IC, DEFAULT
0x5f8a193aa2a   810  5a             pop rdx                  ;; debug: position 1018
0x5f8a193aa2b   811  e81083fdff     call 0x5f8a1912d40       ;; code: BINARY_OP_IC, UNINITIALIZED (id = 182)
0x5f8a193aa30   816  90             nop
0x5f8a193aa31   817  50             push rax
0x5f8a193aa32   818  b801000000     movl rax,0x1             ;; debug: position 956
0x5f8a193aa37   823  48bb7098870001000000 REX.W movq rbx,0x100879870
0x5f8a193aa41   833  e8daf1fcff     call 0x5f8a1909c20       ;; code: STUB, CEntryStub, minor: 0
0x5f8a193aa46   838  488b45e8       REX.W movq rax,[rbp-0x18]    ;; debug: statement 1028
0x5f8a193aa4a   842  48bb79e61e7367160000 REX.W movq rbx,0x1667731ee679    ;; object: 0x1667731ee679 Cell for 6144
0x5f8a193aa54   852  83430bfc       addl [rbx+0xb],0xfc
0x5f8a193aa58   856  791f           jns 889  (0x5f8a193aa79)
0x5f8a193aa5a   858  50             push rax
0x5f8a193aa5b   859  e880bcffff     call InterruptCheck  (0x5f8a19366e0)    ;; code: BUILTIN
0x5f8a193aa60   864  58             pop rax
0x5f8a193aa61   865  48bb79e61e7367160000 REX.W movq rbx,0x1667731ee679    ;; object: 0x1667731ee679 Cell for 6144
0x5f8a193aa6b   875  49ba0000000000180000 REX.W movq r10,0x180000000000
0x5f8a193aa75   885  4c895307       REX.W movq [rbx+0x7],r10
0x5f8a193aa79   889  c9             leave                    ;; debug: statement 1027
0x5f8a193aa7a   890  c20800         ret 0x8
0x5f8a193aa7d   893  498b45a8       REX.W movq rax,[r13-0x58]
0x5f8a193aa81   897  e9c4ffffff     jmp 842  (0x5f8a193aa4a)
0x5f8a193aa86   902  6690           nop

Deoptimization Output Data (deopt points = 0)

Back edges (size = 1)
ast_id  pc_offset  loop_depth
    55        453           1

0x1667731eeb31: [TypeFeedbackInfo]
 - ic_total_count: 20, ic_with_type_info_count: 0, ic_generic_count: 0

RelocInfo (size = 149)
0x5f8a193a700  position  (0)
0x5f8a193a70c  embedded object  (0x1667731ee9f9 <FixedArray[16]>)
0x5f8a193a728  code target (STUB)  (0x5f8a1909c20)
0x5f8a193a736  code target (BUILTIN)  (0x5f8a1936820)
0x5f8a193a73a  statement position  (810)
0x5f8a193a73c  embedded object  (0x1667731ee4f9 <String[5]: total>)
0x5f8a193a75a  code target (STUB)  (0x5f8a1909c20)
0x5f8a193a75e  statement position  (826)
0x5f8a193a75e  statement position  (831)
0x5f8a193a76a  embedded object  (0x16677314c079 <String[1]: i>)
0x5f8a193a777  code target (STORE_IC)  (0x5f8a1932120)
0x5f8a193a780  statement position  (865)
0x5f8a193a780  position  (865)
0x5f8a193a782  embedded object  (0x1667731ee4f9 <String[5]: total>)
0x5f8a193a799  code target (LOAD_IC)  (0x5f8a1920300)
0x5f8a193a79e  position  (874)
0x5f8a193a7a0  embedded object  (0x1667731ee4d1 <String[12]: spectralnorm>)
0x5f8a193a7b7  code target (LOAD_IC)  (0x5f8a1920300)
0x5f8a193a7be  embedded object  (0x166773104189 <undefined>)
0x5f8a193a7c8  position  (887)
0x5f8a193a7ca  embedded object  (0x16677314c079 <String[1]: i>)
0x5f8a193a7e1  code target (LOAD_IC)  (0x5f8a1920300)
0x5f8a193a7e6  position  (874)
0x5f8a193a7f6  code target (CALL_IC)  (0x5f8a19122c0)
0x5f8a193a811  code target with id (BINARY_OP_IC)  (0x5f8a1912d40) (id=117)
0x5f8a193a825  position  (871)
0x5f8a193a827  embedded object  (0x1667731ee4f9 <String[5]: total>)
0x5f8a193a834  code target (STORE_IC)  (0x5f8a1932120)
0x5f8a193a83c  statement position  (853)
0x5f8a193a83c  position  (851)
0x5f8a193a83e  embedded object  (0x16677314c079 <String[1]: i>)
0x5f8a193a855  code target (LOAD_IC)  (0x5f8a1920300)
0x5f8a193a873  code target with id (BINARY_OP_IC)  (0x5f8a1910d20) (id=87)
0x5f8a193a89d  position  (853)
0x5f8a193a89f  embedded object  (0x16677314c079 <String[1]: i>)
0x5f8a193a8ac  code target (STORE_IC)  (0x5f8a1932120)
0x5f8a193a8b2  embedded object  (0x1667731ee679 Cell for 6144)
0x5f8a193a8c1  code target (BUILTIN)  (0x5f8a19366e0)
0x5f8a193a8c7  embedded object  (0x1667731ee679 Cell for 6144)
0x5f8a193a8dd  statement position  (844)
0x5f8a193a8dd  position  (842)
0x5f8a193a8df  embedded object  (0x16677314c079 <String[1]: i>)
0x5f8a193a8f6  code target (LOAD_IC)  (0x5f8a1920300)
0x5f8a193a920  code target with id (COMPARE_IC)  (0x5f8a191c1e0) (id=73)
0x5f8a193a940  statement position  (894)
0x5f8a193a942  embedded object  (0x1667731ee519 <String[8]: expected>)
0x5f8a193a950  embedded object  (0x1667731ee599 <Number: 5.08669>)
0x5f8a193a96a  code target (STUB)  (0x5f8a1909c20)
0x5f8a193a96e  statement position  (929)
0x5f8a193a96e  position  (933)
0x5f8a193a970  embedded object  (0x1667731ee4f9 <String[5]: total>)
0x5f8a193a987  code target (LOAD_IC)  (0x5f8a1920300)
0x5f8a193a98c  position  (942)
0x5f8a193a98e  embedded object  (0x1667731ee519 <String[8]: expected>)
0x5f8a193a9a5  code target (LOAD_IC)  (0x5f8a1920300)
0x5f8a193a9ab  code target with id (COMPARE_IC)  (0x5f8a191c560) (id=170)
0x5f8a193a9ca  statement position  (956)
0x5f8a193a9cc  embedded object  (0x1667731ee539 <String[28]: ERROR: bad result: expected >)
0x5f8a193a9d6  position  (995)
0x5f8a193a9d8  embedded object  (0x1667731ee519 <String[8]: expected>)
0x5f8a193a9ef  code target (LOAD_IC)  (0x5f8a1920300)
0x5f8a193a9f3  position  (993)
0x5f8a193a9f5  code target with id (BINARY_OP_IC)  (0x5f8a1912d40) (id=190)
0x5f8a193a9fd  embedded object  (0x1667731ee571 <String[9]:  but got >)
0x5f8a193aa05  position  (1004)
0x5f8a193aa07  code target with id (BINARY_OP_IC)  (0x5f8a1912d40) (id=186)
0x5f8a193aa0d  position  (1020)
0x5f8a193aa0f  embedded object  (0x1667731ee4f9 <String[5]: total>)
0x5f8a193aa26  code target (LOAD_IC)  (0x5f8a1920300)
0x5f8a193aa2a  position  (1018)
0x5f8a193aa2c  code target with id (BINARY_OP_IC)  (0x5f8a1912d40) (id=182)
0x5f8a193aa32  position  (956)
0x5f8a193aa42  code target (STUB)  (0x5f8a1909c20)
0x5f8a193aa46  statement position  (1028)
0x5f8a193aa4c  embedded object  (0x1667731ee679 Cell for 6144)
0x5f8a193aa5c  code target (BUILTIN)  (0x5f8a19366e0)
0x5f8a193aa63  embedded object  (0x1667731ee679 Cell for 6144)
0x5f8a193aa79  statement position  (1027)

--- End code ---
--- Raw source ---
(n) {
  var i, u=[], v=[], w=[], vv=0, vBv=0;
  for (i=0; i<n; ++i) {
    u[i] = 1; v[i] = w[i] = 0;
  }
  for (i=0; i<10; ++i) {
    AtAu(u,v,w);
    AtAu(v,u,w);
  }
  for (i=0; i<n; ++i) {
    vBv += u[i]*v[i];
    vv  += v[i]*v[i];
  }
  return Math.sqrt(vBv/vv);
}


--- Code ---
source_position = 539
kind = FUNCTION
name = spectralnorm
compiler = full-codegen
Instructions (size = 1472)
0x5f8a193aca0     0  55             push rbp                 ;; debug: position 539
0x5f8a193aca1     1  4889e5         REX.W movq rbp,rsp
0x5f8a193aca4     4  56             push rsi
0x5f8a193aca5     5  57             push rdi
0x5f8a193aca6     6  498b55a8       REX.W movq rdx,[r13-0x58]
0x5f8a193acaa    10  52             push rdx
0x5f8a193acab    11  52             push rdx
0x5f8a193acac    12  52             push rdx
0x5f8a193acad    13  52             push rdx
0x5f8a193acae    14  52             push rdx
0x5f8a193acaf    15  52             push rdx
0x5f8a193acb0    16  493ba540090000 REX.W cmpq rsp,[r13+0x940]
0x5f8a193acb7    23  7305           jnc 30  (0x5f8a193acbe)
0x5f8a193acb9    25  e862bbffff     call StackCheck  (0x5f8a1936820)    ;; code: BUILTIN
0x5f8a193acbe    30  488b5df0       REX.W movq rbx,[rbp-0x10]    ;; debug: statement 547
0x5f8a193acc2    34  488b4337       REX.W movq rax,[rbx+0x37]
0x5f8a193acc6    38  48bb0000000000000000 REX.W movq rbx,0x0
0x5f8a193acd0    48  48b949f21e7367160000 REX.W movq rcx,0x1667731ef249    ;; object: 0x1667731ef249 <FixedArray[2]>
0x5f8a193acda    58  e8019dfeff     call 0x5f8a19249e0       ;; code: STUB, FastCloneShallowArrayStub, minor: 1
0x5f8a193acdf    63  488945e0       REX.W movq [rbp-0x20],rax
0x5f8a193ace3    67  488b5df0       REX.W movq rbx,[rbp-0x10]
0x5f8a193ace7    71  488b4337       REX.W movq rax,[rbx+0x37]
0x5f8a193aceb    75  48bb0000000001000000 REX.W movq rbx,0x100000000
0x5f8a193acf5    85  48b969f21e7367160000 REX.W movq rcx,0x1667731ef269    ;; object: 0x1667731ef269 <FixedArray[2]>
0x5f8a193acff    95  e8dc9cfeff     call 0x5f8a19249e0       ;; code: STUB, FastCloneShallowArrayStub, minor: 1
0x5f8a193ad04   100  488945d8       REX.W movq [rbp-0x28],rax
0x5f8a193ad08   104  488b5df0       REX.W movq rbx,[rbp-0x10]
0x5f8a193ad0c   108  488b4337       REX.W movq rax,[rbx+0x37]
0x5f8a193ad10   112  48bb0000000002000000 REX.W movq rbx,0x200000000
0x5f8a193ad1a   122  48b989f21e7367160000 REX.W movq rcx,0x1667731ef289    ;; object: 0x1667731ef289 <FixedArray[2]>
0x5f8a193ad24   132  e8b79cfeff     call 0x5f8a19249e0       ;; code: STUB, FastCloneShallowArrayStub, minor: 1
0x5f8a193ad29   137  488945d0       REX.W movq [rbp-0x30],rax
0x5f8a193ad2d   141  48b80000000000000000 REX.W movq rax,0x0
0x5f8a193ad37   151  488945c8       REX.W movq [rbp-0x38],rax
0x5f8a193ad3b   155  48b80000000000000000 REX.W movq rax,0x0
0x5f8a193ad45   165  488945c0       REX.W movq [rbp-0x40],rax
0x5f8a193ad49   169  48b80000000000000000 REX.W movq rax,0x0    ;; debug: statement 587
                                                             ;; debug: statement 592
                                                             ;; debug: position 593
0x5f8a193ad53   179  488945e8       REX.W movq [rbp-0x18],rax
0x5f8a193ad57   183  e9a1000000     jmp 349  (0x5f8a193adfd)
0x5f8a193ad5c   188  ff75e0         push [rbp-0x20]          ;; debug: statement 613
                                                             ;; debug: position 613
0x5f8a193ad5f   191  ff75e8         push [rbp-0x18]          ;; debug: position 615
0x5f8a193ad62   194  48b80000000001000000 REX.W movq rax,0x100000000
0x5f8a193ad6c   204  59             pop rcx                  ;; debug: position 618
0x5f8a193ad6d   205  5a             pop rdx
0x5f8a193ad6e   206  e86d98ffff     call KeyedStoreIC_Initialize  (0x5f8a19345e0)    ;; code: KEYED_STORE_IC, UNINITIALIZED (id = 114)
0x5f8a193ad73   211  ff75d8         push [rbp-0x28]          ;; debug: statement 623
                                                             ;; debug: position 623
0x5f8a193ad76   214  ff75e8         push [rbp-0x18]          ;; debug: position 625
0x5f8a193ad79   217  ff75d0         push [rbp-0x30]          ;; debug: position 630
0x5f8a193ad7c   220  ff75e8         push [rbp-0x18]          ;; debug: position 632
0x5f8a193ad7f   223  48b80000000000000000 REX.W movq rax,0x0
0x5f8a193ad89   233  59             pop rcx                  ;; debug: position 635
0x5f8a193ad8a   234  5a             pop rdx
0x5f8a193ad8b   235  e85098ffff     call KeyedStoreIC_Initialize  (0x5f8a19345e0)    ;; code: KEYED_STORE_IC, UNINITIALIZED (id = 143)
0x5f8a193ad90   240  59             pop rcx                  ;; debug: position 628
0x5f8a193ad91   241  5a             pop rdx
0x5f8a193ad92   242  e84998ffff     call KeyedStoreIC_Initialize  (0x5f8a19345e0)    ;; code: KEYED_STORE_IC, UNINITIALIZED (id = 130)
0x5f8a193ad97   247  488b45e8       REX.W movq rax,[rbp-0x18]    ;; debug: statement 604
0x5f8a193ad9b   251  a801           test al,0x1
0x5f8a193ad9d   253  7314           jnc 275  (0x5f8a193adb3)
0x5f8a193ad9f   255  49ba0000000001000000 REX.W movq r10,0x100000000
0x5f8a193ada9   265  4903c2         REX.W addq rax,r10
0x5f8a193adac   268  711e           jno 300  (0x5f8a193adcc)
0x5f8a193adae   270  492bc2         REX.W subq rax,r10
0x5f8a193adb1   273  eb05           jmp 280  (0x5f8a193adb8)
0x5f8a193adb3   275  e828fefeff     call 0x5f8a192abe0       ;; code: STUB, ToNumberStub, minor: 0
0x5f8a193adb8   280  488bd0         REX.W movq rdx,rax
0x5f8a193adbb   283  48b80000000001000000 REX.W movq rax,0x100000000
0x5f8a193adc5   293  e8767ffdff     call 0x5f8a1912d40       ;; code: BINARY_OP_IC, UNINITIALIZED (id = 103)
0x5f8a193adca   298  a82d           test al,0x2d
0x5f8a193adcc   300  488945e8       REX.W movq [rbp-0x18],rax
0x5f8a193add0   304  48bb39f21e7367160000 REX.W movq rbx,0x1667731ef239    ;; object: 0x1667731ef239 Cell for 6144
0x5f8a193adda   314  83430bff       addl [rbx+0xb],0xff
0x5f8a193adde   318  791d           jns 349  (0x5f8a193adfd)
0x5f8a193ade0   320  e8fbb8ffff     call InterruptCheck  (0x5f8a19366e0)    ;; code: BUILTIN
0x5f8a193ade5   325  48bb39f21e7367160000 REX.W movq rbx,0x1667731ef239    ;; object: 0x1667731ef239 Cell for 6144
0x5f8a193adef   335  49ba0000000000180000 REX.W movq r10,0x180000000000
0x5f8a193adf9   345  4c895307       REX.W movq [rbx+0x7],r10
0x5f8a193adfd   349  ff75e8         push [rbp-0x18]          ;; debug: statement 598
                                                             ;; debug: position 597
0x5f8a193ae00   352  488b4510       REX.W movq rax,[rbp+0x10]    ;; debug: position 599
0x5f8a193ae04   356  5a             pop rdx
0x5f8a193ae05   357  488bca         REX.W movq rcx,rdx
0x5f8a193ae08   360  480bc8         REX.W orq rcx,rax
0x5f8a193ae0b   363  f6c101         testb rcx,0x1
0x5f8a193ae0e   366  730e           jnc 382  (0x5f8a193ae1e)
0x5f8a193ae10   368  483bd0         REX.W cmpq rdx,rax
0x5f8a193ae13   371  0f8c43ffffff   jl 188  (0x5f8a193ad5c)
0x5f8a193ae19   377  e921000000     jmp 415  (0x5f8a193ae3f)
0x5f8a193ae1e   382  e87dcdfdff     call 0x5f8a1917ba0       ;; code: COMPARE_IC, UNINITIALIZED (id = 92)
0x5f8a193ae23   387  a815           test al,0x15
0x5f8a193ae25   389  eb0f           jmp 406  (0x5f8a193ae36)
0x5f8a193ae27   391  493b45c0       REX.W cmpq rax,[r13-0x40]
0x5f8a193ae2b   395  0f842bffffff   jz 188  (0x5f8a193ad5c)
0x5f8a193ae31   401  e909000000     jmp 415  (0x5f8a193ae3f)
0x5f8a193ae36   406  4885c0         REX.W testq rax,rax
0x5f8a193ae39   409  0f8c1dffffff   jl 188  (0x5f8a193ad5c)
0x5f8a193ae3f   415  48b80000000000000000 REX.W movq rax,0x0    ;; debug: statement 646
                                                             ;; debug: statement 651
                                                             ;; debug: position 652
0x5f8a193ae49   425  488945e8       REX.W movq [rbp-0x18],rax
0x5f8a193ae4d   429  e904010000     jmp 694  (0x5f8a193af56)
0x5f8a193ae52   434  48b9b1e41e7367160000 REX.W movq rcx,0x1667731ee4b1    ;; debug: statement 673
                                                             ;; object: 0x1667731ee4b1 <String[4]: AtAu>
0x5f8a193ae5c   444  488b5627       REX.W movq rdx,[rsi+0x27]
0x5f8a193ae60   448  48b80000000007000000 REX.W movq rax,0x700000000
0x5f8a193ae6a   458  e89154feff     call 0x5f8a1920300       ;; code: contextual, LOAD_IC, DEFAULT
0x5f8a193ae6f   463  50             push rax
0x5f8a193ae70   464  49ba8941107367160000 REX.W movq r10,0x166773104189    ;; object: 0x166773104189 <undefined>
0x5f8a193ae7a   474  4152           push r10
0x5f8a193ae7c   476  ff75e0         push [rbp-0x20]          ;; debug: position 678
0x5f8a193ae7f   479  ff75d8         push [rbp-0x28]          ;; debug: position 680
0x5f8a193ae82   482  ff75d0         push [rbp-0x30]          ;; debug: position 682
0x5f8a193ae85   485  48ba0000000005000000 REX.W movq rdx,0x500000000    ;; debug: position 673
0x5f8a193ae8f   495  488b7c2420     REX.W movq rdi,[rsp+0x20]
0x5f8a193ae94   500  e88717feff     call 0x5f8a191c620       ;; code: CALL_IC, DEFAULT
0x5f8a193ae99   505  488b75f8       REX.W movq rsi,[rbp-0x8]
0x5f8a193ae9d   509  4883c408       REX.W addq rsp,0x8
0x5f8a193aea1   513  48b9b1e41e7367160000 REX.W movq rcx,0x1667731ee4b1    ;; debug: statement 690
                                                             ;; object: 0x1667731ee4b1 <String[4]: AtAu>
0x5f8a193aeab   523  488b5627       REX.W movq rdx,[rsi+0x27]
0x5f8a193aeaf   527  48b80000000007000000 REX.W movq rax,0x700000000
0x5f8a193aeb9   537  e84254feff     call 0x5f8a1920300       ;; code: contextual, LOAD_IC, DEFAULT
0x5f8a193aebe   542  50             push rax
0x5f8a193aebf   543  49ba8941107367160000 REX.W movq r10,0x166773104189    ;; object: 0x166773104189 <undefined>
0x5f8a193aec9   553  4152           push r10
0x5f8a193aecb   555  ff75d8         push [rbp-0x28]          ;; debug: position 695
0x5f8a193aece   558  ff75e0         push [rbp-0x20]          ;; debug: position 697
0x5f8a193aed1   561  ff75d0         push [rbp-0x30]          ;; debug: position 699
0x5f8a193aed4   564  48ba0000000009000000 REX.W movq rdx,0x900000000    ;; debug: position 690
0x5f8a193aede   574  488b7c2420     REX.W movq rdi,[rsp+0x20]
0x5f8a193aee3   579  e83817feff     call 0x5f8a191c620       ;; code: CALL_IC, DEFAULT
0x5f8a193aee8   584  488b75f8       REX.W movq rsi,[rbp-0x8]
0x5f8a193aeec   588  4883c408       REX.W addq rsp,0x8
0x5f8a193aef0   592  488b45e8       REX.W movq rax,[rbp-0x18]    ;; debug: statement 664
0x5f8a193aef4   596  a801           test al,0x1
0x5f8a193aef6   598  7314           jnc 620  (0x5f8a193af0c)
0x5f8a193aef8   600  49ba0000000001000000 REX.W movq r10,0x100000000
0x5f8a193af02   610  4903c2         REX.W addq rax,r10
0x5f8a193af05   613  711e           jno 645  (0x5f8a193af25)
0x5f8a193af07   615  492bc2         REX.W subq rax,r10
0x5f8a193af0a   618  eb05           jmp 625  (0x5f8a193af11)
0x5f8a193af0c   620  e8cffcfeff     call 0x5f8a192abe0       ;; code: STUB, ToNumberStub, minor: 0
0x5f8a193af11   625  488bd0         REX.W movq rdx,rax
0x5f8a193af14   628  48b80000000001000000 REX.W movq rax,0x100000000
0x5f8a193af1e   638  e81d7efdff     call 0x5f8a1912d40       ;; code: BINARY_OP_IC, UNINITIALIZED (id = 184)
0x5f8a193af23   643  a82d           test al,0x2d
0x5f8a193af25   645  488945e8       REX.W movq [rbp-0x18],rax
0x5f8a193af29   649  48bb39f21e7367160000 REX.W movq rbx,0x1667731ef239    ;; object: 0x1667731ef239 Cell for 6144
0x5f8a193af33   659  83430bff       addl [rbx+0xb],0xff
0x5f8a193af37   663  791d           jns 694  (0x5f8a193af56)
0x5f8a193af39   665  e8a2b7ffff     call InterruptCheck  (0x5f8a19366e0)    ;; code: BUILTIN
0x5f8a193af3e   670  48bb39f21e7367160000 REX.W movq rbx,0x1667731ef239    ;; object: 0x1667731ef239 Cell for 6144
0x5f8a193af48   680  49ba0000000000180000 REX.W movq r10,0x180000000000
0x5f8a193af52   690  4c895307       REX.W movq [rbx+0x7],r10
0x5f8a193af56   694  ff75e8         push [rbp-0x18]          ;; debug: statement 657
                                                             ;; debug: position 656
0x5f8a193af59   697  48b8000000000a000000 REX.W movq rax,0xa00000000
0x5f8a193af63   707  5a             pop rdx
0x5f8a193af64   708  488bca         REX.W movq rcx,rdx
0x5f8a193af67   711  480bc8         REX.W orq rcx,rax
0x5f8a193af6a   714  f6c101         testb rcx,0x1
0x5f8a193af6d   717  730e           jnc 733  (0x5f8a193af7d)
0x5f8a193af6f   719  483bd0         REX.W cmpq rdx,rax
0x5f8a193af72   722  0f8cdafeffff   jl 434  (0x5f8a193ae52)
0x5f8a193af78   728  e921000000     jmp 766  (0x5f8a193af9e)
0x5f8a193af7d   733  e81eccfdff     call 0x5f8a1917ba0       ;; code: COMPARE_IC, UNINITIALIZED (id = 173)
0x5f8a193af82   738  a815           test al,0x15
0x5f8a193af84   740  eb0f           jmp 757  (0x5f8a193af95)
0x5f8a193af86   742  493b45c0       REX.W cmpq rax,[r13-0x40]
0x5f8a193af8a   746  0f84c2feffff   jz 434  (0x5f8a193ae52)
0x5f8a193af90   752  e909000000     jmp 766  (0x5f8a193af9e)
0x5f8a193af95   757  4885c0         REX.W testq rax,rax
0x5f8a193af98   760  0f8cb4feffff   jl 434  (0x5f8a193ae52)
0x5f8a193af9e   766  48b80000000000000000 REX.W movq rax,0x0    ;; debug: statement 709
                                                             ;; debug: statement 714
                                                             ;; debug: position 715
0x5f8a193afa8   776  488945e8       REX.W movq [rbp-0x18],rax
0x5f8a193afac   780  e99a010000     jmp 1195  (0x5f8a193b14b)
0x5f8a193afb1   785  488b45c0       REX.W movq rax,[rbp-0x40]    ;; debug: statement 735
                                                             ;; debug: position 735
0x5f8a193afb5   789  50             push rax
0x5f8a193afb6   790  ff75e0         push [rbp-0x20]          ;; debug: position 742
0x5f8a193afb9   793  488b45e8       REX.W movq rax,[rbp-0x18]    ;; debug: position 744
0x5f8a193afbd   797  488bc8         REX.W movq rcx,rax
0x5f8a193afc0   800  5a             pop rdx
0x5f8a193afc1   801  48b8000000000f000000 REX.W movq rax,0xf00000000    ;; debug: position 743
0x5f8a193afcb   811  e8d03fffff     call 0x5f8a192efa0       ;; code: KEYED_LOAD_IC, DEFAULT
0x5f8a193afd0   816  50             push rax
0x5f8a193afd1   817  ff75d8         push [rbp-0x28]          ;; debug: position 747
0x5f8a193afd4   820  488b45e8       REX.W movq rax,[rbp-0x18]    ;; debug: position 749
0x5f8a193afd8   824  488bc8         REX.W movq rcx,rax
0x5f8a193afdb   827  5a             pop rdx
0x5f8a193afdc   828  48b80000000011000000 REX.W movq rax,0x1100000000    ;; debug: position 748
0x5f8a193afe6   838  e8b53fffff     call 0x5f8a192efa0       ;; code: KEYED_LOAD_IC, DEFAULT
0x5f8a193afeb   843  5a             pop rdx                  ;; debug: position 746
0x5f8a193afec   844  488bc8         REX.W movq rcx,rax
0x5f8a193afef   847  480bc2         REX.W orq rax,rdx
0x5f8a193aff2   850  a801           test al,0x1
0x5f8a193aff4   852  720c           jc 866  (0x5f8a193b002)
0x5f8a193aff6   854  488bc1         REX.W movq rax,rcx
0x5f8a193aff9   857  e8225dfdff     call 0x5f8a1910d20       ;; code: BINARY_OP_IC, UNINITIALIZED (id = 301)
0x5f8a193affe   862  a80a           test al,0xa
0x5f8a193b000   864  eb22           jmp 900  (0x5f8a193b024)
0x5f8a193b002   866  488bc2         REX.W movq rax,rdx
0x5f8a193b005   869  48c1f820       REX.W sarq rax, 32
0x5f8a193b009   873  480fafc1       REX.W imulq rax,rcx
0x5f8a193b00d   877  0f80e3ffffff   jo 854  (0x5f8a193aff6)
0x5f8a193b013   883  4885c0         REX.W testq rax,rax
0x5f8a193b016   886  750c           jnz 900  (0x5f8a193b024)
0x5f8a193b018   888  4c8bd2         REX.W movq r10,rdx
0x5f8a193b01b   891  4c33d1         REX.W xorq r10,rcx
0x5f8a193b01e   894  0f88d2ffffff   js 854  (0x5f8a193aff6)
0x5f8a193b024   900  5a             pop rdx
0x5f8a193b025   901  488bc8         REX.W movq rcx,rax
0x5f8a193b028   904  480bc2         REX.W orq rax,rdx
0x5f8a193b02b   907  a801           test al,0x1
0x5f8a193b02d   909  720c           jc 923  (0x5f8a193b03b)
0x5f8a193b02f   911  488bc1         REX.W movq rax,rcx
0x5f8a193b032   914  e8097dfdff     call 0x5f8a1912d40       ;; code: BINARY_OP_IC, UNINITIALIZED (id = 269)
0x5f8a193b037   919  a80a           test al,0xa
0x5f8a193b039   921  eb0c           jmp 935  (0x5f8a193b047)
0x5f8a193b03b   923  488bc2         REX.W movq rax,rdx
0x5f8a193b03e   926  4803c1         REX.W addq rax,rcx
0x5f8a193b041   929  0f80e8ffffff   jo 911  (0x5f8a193b02f)
0x5f8a193b047   935  488945c0       REX.W movq [rbp-0x40],rax    ;; debug: position 739
0x5f8a193b04b   939  488b45c8       REX.W movq rax,[rbp-0x38]    ;; debug: statement 757
                                                             ;; debug: position 757
0x5f8a193b04f   943  50             push rax
0x5f8a193b050   944  ff75d8         push [rbp-0x28]          ;; debug: position 764
0x5f8a193b053   947  488b45e8       REX.W movq rax,[rbp-0x18]    ;; debug: position 766
0x5f8a193b057   951  488bc8         REX.W movq rcx,rax
0x5f8a193b05a   954  5a             pop rdx
0x5f8a193b05b   955  48b80000000017000000 REX.W movq rax,0x1700000000    ;; debug: position 765
0x5f8a193b065   965  e8363fffff     call 0x5f8a192efa0       ;; code: KEYED_LOAD_IC, DEFAULT
0x5f8a193b06a   970  50             push rax
0x5f8a193b06b   971  ff75d8         push [rbp-0x28]          ;; debug: position 769
0x5f8a193b06e   974  488b45e8       REX.W movq rax,[rbp-0x18]    ;; debug: position 771
0x5f8a193b072   978  488bc8         REX.W movq rcx,rax
0x5f8a193b075   981  5a             pop rdx
0x5f8a193b076   982  48b80000000019000000 REX.W movq rax,0x1900000000    ;; debug: position 770
0x5f8a193b080   992  e81b3fffff     call 0x5f8a192efa0       ;; code: KEYED_LOAD_IC, DEFAULT
0x5f8a193b085   997  5a             pop rdx                  ;; debug: position 768
0x5f8a193b086   998  488bc8         REX.W movq rcx,rax
0x5f8a193b089  1001  480bc2         REX.W orq rax,rdx
0x5f8a193b08c  1004  a801           test al,0x1
0x5f8a193b08e  1006  720c           jc 1020  (0x5f8a193b09c)
0x5f8a193b090  1008  488bc1         REX.W movq rax,rcx
0x5f8a193b093  1011  e8885cfdff     call 0x5f8a1910d20       ;; code: BINARY_OP_IC, UNINITIALIZED (id = 359)
0x5f8a193b098  1016  a80a           test al,0xa
0x5f8a193b09a  1018  eb22           jmp 1054  (0x5f8a193b0be)
0x5f8a193b09c  1020  488bc2         REX.W movq rax,rdx
0x5f8a193b09f  1023  48c1f820       REX.W sarq rax, 32
0x5f8a193b0a3  1027  480fafc1       REX.W imulq rax,rcx
0x5f8a193b0a7  1031  0f80e3ffffff   jo 1008  (0x5f8a193b090)
0x5f8a193b0ad  1037  4885c0         REX.W testq rax,rax
0x5f8a193b0b0  1040  750c           jnz 1054  (0x5f8a193b0be)
0x5f8a193b0b2  1042  4c8bd2         REX.W movq r10,rdx
0x5f8a193b0b5  1045  4c33d1         REX.W xorq r10,rcx
0x5f8a193b0b8  1048  0f88d2ffffff   js 1008  (0x5f8a193b090)
0x5f8a193b0be  1054  5a             pop rdx
0x5f8a193b0bf  1055  488bc8         REX.W movq rcx,rax
0x5f8a193b0c2  1058  480bc2         REX.W orq rax,rdx
0x5f8a193b0c5  1061  a801           test al,0x1
0x5f8a193b0c7  1063  720c           jc 1077  (0x5f8a193b0d5)
0x5f8a193b0c9  1065  488bc1         REX.W movq rax,rcx
0x5f8a193b0cc  1068  e86f7cfdff     call 0x5f8a1912d40       ;; code: BINARY_OP_IC, UNINITIALIZED (id = 327)
0x5f8a193b0d1  1073  a80a           test al,0xa
0x5f8a193b0d3  1075  eb0c           jmp 1089  (0x5f8a193b0e1)
0x5f8a193b0d5  1077  488bc2         REX.W movq rax,rdx
0x5f8a193b0d8  1080  4803c1         REX.W addq rax,rcx
0x5f8a193b0db  1083  0f80e8ffffff   jo 1065  (0x5f8a193b0c9)
0x5f8a193b0e1  1089  488945c8       REX.W movq [rbp-0x38],rax    ;; debug: position 761
0x5f8a193b0e5  1093  488b45e8       REX.W movq rax,[rbp-0x18]    ;; debug: statement 726
0x5f8a193b0e9  1097  a801           test al,0x1
0x5f8a193b0eb  1099  7314           jnc 1121  (0x5f8a193b101)
0x5f8a193b0ed  1101  49ba0000000001000000 REX.W movq r10,0x100000000
0x5f8a193b0f7  1111  4903c2         REX.W addq rax,r10
0x5f8a193b0fa  1114  711e           jno 1146  (0x5f8a193b11a)
0x5f8a193b0fc  1116  492bc2         REX.W subq rax,r10
0x5f8a193b0ff  1119  eb05           jmp 1126  (0x5f8a193b106)
0x5f8a193b101  1121  e8dafafeff     call 0x5f8a192abe0       ;; code: STUB, ToNumberStub, minor: 0
0x5f8a193b106  1126  488bd0         REX.W movq rdx,rax
0x5f8a193b109  1129  48b80000000001000000 REX.W movq rax,0x100000000
0x5f8a193b113  1139  e8287cfdff     call 0x5f8a1912d40       ;; code: BINARY_OP_IC, UNINITIALIZED (id = 254)
0x5f8a193b118  1144  a82d           test al,0x2d
0x5f8a193b11a  1146  488945e8       REX.W movq [rbp-0x18],rax
0x5f8a193b11e  1150  48bb39f21e7367160000 REX.W movq rbx,0x1667731ef239    ;; object: 0x1667731ef239 Cell for 6144
0x5f8a193b128  1160  83430bfe       addl [rbx+0xb],0xfe
0x5f8a193b12c  1164  791d           jns 1195  (0x5f8a193b14b)
0x5f8a193b12e  1166  e8adb5ffff     call InterruptCheck  (0x5f8a19366e0)    ;; code: BUILTIN
0x5f8a193b133  1171  48bb39f21e7367160000 REX.W movq rbx,0x1667731ef239    ;; object: 0x1667731ef239 Cell for 6144
0x5f8a193b13d  1181  49ba0000000000180000 REX.W movq r10,0x180000000000
0x5f8a193b147  1191  4c895307       REX.W movq [rbx+0x7],r10
0x5f8a193b14b  1195  ff75e8         push [rbp-0x18]          ;; debug: statement 720
                                                             ;; debug: position 719
0x5f8a193b14e  1198  488b4510       REX.W movq rax,[rbp+0x10]    ;; debug: position 721
0x5f8a193b152  1202  5a             pop rdx
0x5f8a193b153  1203  488bca         REX.W movq rcx,rdx
0x5f8a193b156  1206  480bc8         REX.W orq rcx,rax
0x5f8a193b159  1209  f6c101         testb rcx,0x1
0x5f8a193b15c  1212  730e           jnc 1228  (0x5f8a193b16c)
0x5f8a193b15e  1214  483bd0         REX.W cmpq rdx,rax
0x5f8a193b161  1217  0f8c4afeffff   jl 785  (0x5f8a193afb1)
0x5f8a193b167  1223  e921000000     jmp 1261  (0x5f8a193b18d)
0x5f8a193b16c  1228  e82fcafdff     call 0x5f8a1917ba0       ;; code: COMPARE_IC, UNINITIALIZED (id = 243)
0x5f8a193b171  1233  a815           test al,0x15
0x5f8a193b173  1235  eb0f           jmp 1252  (0x5f8a193b184)
0x5f8a193b175  1237  493b45c0       REX.W cmpq rax,[r13-0x40]
0x5f8a193b179  1241  0f8432feffff   jz 785  (0x5f8a193afb1)
0x5f8a193b17f  1247  e909000000     jmp 1261  (0x5f8a193b18d)
0x5f8a193b184  1252  4885c0         REX.W testq rax,rax
0x5f8a193b187  1255  0f8c24feffff   jl 785  (0x5f8a193afb1)
0x5f8a193b18d  1261  48b981251a7367160000 REX.W movq rcx,0x1667731a2581    ;; debug: statement 781
                                                             ;; debug: position 788
                                                             ;; object: 0x1667731a2581 <String[4]: Math>
0x5f8a193b197  1271  488b5627       REX.W movq rdx,[rsi+0x27]
0x5f8a193b19b  1275  48b8000000001d000000 REX.W movq rax,0x1d00000000
0x5f8a193b1a5  1285  e85651feff     call 0x5f8a1920300       ;; code: contextual, LOAD_IC, DEFAULT
0x5f8a193b1aa  1290  50             push rax
0x5f8a193b1ab  1291  488b1424       REX.W movq rdx,[rsp]
0x5f8a193b1af  1295  48b9c147167367160000 REX.W movq rcx,0x1667731647c1    ;; debug: position 792
                                                             ;; object: 0x1667731647c1 <String[4]: sqrt>
0x5f8a193b1b9  1305  48b8000000001f000000 REX.W movq rax,0x1f00000000
0x5f8a193b1c3  1315  e83851feff     call 0x5f8a1920300       ;; code: contextual, LOAD_IC, DEFAULT
0x5f8a193b1c8  1320  ff3424         push [rsp]
0x5f8a193b1cb  1323  4889442408     REX.W movq [rsp+0x8],rax
0x5f8a193b1d0  1328  ff75c0         push [rbp-0x40]          ;; debug: position 798
0x5f8a193b1d3  1331  488b45c8       REX.W movq rax,[rbp-0x38]    ;; debug: position 802
0x5f8a193b1d7  1335  5a             pop rdx                  ;; debug: position 801
0x5f8a193b1d8  1336  e8c361fdff     call 0x5f8a19113a0       ;; code: BINARY_OP_IC, UNINITIALIZED (id = 395)
0x5f8a193b1dd  1341  90             nop
0x5f8a193b1de  1342  50             push rax
0x5f8a193b1df  1343  48ba000000001b000000 REX.W movq rdx,0x1b00000000    ;; debug: position 793
0x5f8a193b1e9  1353  488b7c2410     REX.W movq rdi,[rsp+0x10]
0x5f8a193b1ee  1358  e8cd08feff     call 0x5f8a191bac0       ;; code: CALL_IC, DEFAULT
0x5f8a193b1f3  1363  488b75f8       REX.W movq rsi,[rbp-0x8]
0x5f8a193b1f7  1367  4883c408       REX.W addq rsp,0x8
0x5f8a193b1fb  1371  48bb39f21e7367160000 REX.W movq rbx,0x1667731ef239    ;; object: 0x1667731ef239 Cell for 6144
0x5f8a193b205  1381  83430bf8       addl [rbx+0xb],0xf8
0x5f8a193b209  1385  791f           jns 1418  (0x5f8a193b22a)
0x5f8a193b20b  1387  50             push rax
0x5f8a193b20c  1388  e8cfb4ffff     call InterruptCheck  (0x5f8a19366e0)    ;; code: BUILTIN
0x5f8a193b211  1393  58             pop rax
0x5f8a193b212  1394  48bb39f21e7367160000 REX.W movq rbx,0x1667731ef239    ;; object: 0x1667731ef239 Cell for 6144
0x5f8a193b21c  1404  49ba0000000000180000 REX.W movq r10,0x180000000000
0x5f8a193b226  1414  4c895307       REX.W movq [rbx+0x7],r10
0x5f8a193b22a  1418  c9             leave                    ;; debug: statement 807
0x5f8a193b22b  1419  c21000         ret 0x10
0x5f8a193b22e  1422  498b45a8       REX.W movq rax,[r13-0x58]
0x5f8a193b232  1426  e9c4ffffff     jmp 1371  (0x5f8a193b1fb)
0x5f8a193b237  1431  90             nop

Deoptimization Output Data (deopt points = 0)

Back edges (size = 3)
ast_id  pc_offset  loop_depth
    77        325           1
   158        670           1
   228       1171           1

0x1667731ef3c1: [TypeFeedbackInfo]
 - ic_total_count: 25, ic_with_type_info_count: 0, ic_generic_count: 0

RelocInfo (size = 257)
0x5f8a193aca0  position  (539)
0x5f8a193acba  code target (BUILTIN)  (0x5f8a1936820)
0x5f8a193acbe  statement position  (547)
0x5f8a193acd2  embedded object  (0x1667731ef249 <FixedArray[2]>)
0x5f8a193acdb  code target (STUB)  (0x5f8a19249e0)
0x5f8a193acf7  embedded object  (0x1667731ef269 <FixedArray[2]>)
0x5f8a193ad00  code target (STUB)  (0x5f8a19249e0)
0x5f8a193ad1c  embedded object  (0x1667731ef289 <FixedArray[2]>)
0x5f8a193ad25  code target (STUB)  (0x5f8a19249e0)
0x5f8a193ad49  statement position  (587)
0x5f8a193ad49  statement position  (592)
0x5f8a193ad49  position  (593)
0x5f8a193ad5c  statement position  (613)
0x5f8a193ad5c  position  (613)
0x5f8a193ad5f  position  (615)
0x5f8a193ad6c  position  (618)
0x5f8a193ad6f  code target with id (KEYED_STORE_IC)  (0x5f8a19345e0) (id=114)
0x5f8a193ad73  statement position  (623)
0x5f8a193ad73  position  (623)
0x5f8a193ad76  position  (625)
0x5f8a193ad79  position  (630)
0x5f8a193ad7c  position  (632)
0x5f8a193ad89  position  (635)
0x5f8a193ad8c  code target with id (KEYED_STORE_IC)  (0x5f8a19345e0) (id=143)
0x5f8a193ad90  position  (628)
0x5f8a193ad93  code target with id (KEYED_STORE_IC)  (0x5f8a19345e0) (id=130)
0x5f8a193ad97  statement position  (604)
0x5f8a193adb4  code target (STUB)  (0x5f8a192abe0)
0x5f8a193adc6  code target with id (BINARY_OP_IC)  (0x5f8a1912d40) (id=103)
0x5f8a193add2  embedded object  (0x1667731ef239 Cell for 6144)
0x5f8a193ade1  code target (BUILTIN)  (0x5f8a19366e0)
0x5f8a193ade7  embedded object  (0x1667731ef239 Cell for 6144)
0x5f8a193adfd  statement position  (598)
0x5f8a193adfd  position  (597)
0x5f8a193ae00  position  (599)
0x5f8a193ae1f  code target with id (COMPARE_IC)  (0x5f8a1917ba0) (id=92)
0x5f8a193ae3f  statement position  (646)
0x5f8a193ae3f  statement position  (651)
0x5f8a193ae3f  position  (652)
0x5f8a193ae52  statement position  (673)
0x5f8a193ae54  embedded object  (0x1667731ee4b1 <String[4]: AtAu>)
0x5f8a193ae6b  code target (LOAD_IC)  (0x5f8a1920300)
0x5f8a193ae72  embedded object  (0x166773104189 <undefined>)
0x5f8a193ae7c  position  (678)
0x5f8a193ae7f  position  (680)
0x5f8a193ae82  position  (682)
0x5f8a193ae85  position  (673)
0x5f8a193ae95  code target (CALL_IC)  (0x5f8a191c620)
0x5f8a193aea1  statement position  (690)
0x5f8a193aea3  embedded object  (0x1667731ee4b1 <String[4]: AtAu>)
0x5f8a193aeba  code target (LOAD_IC)  (0x5f8a1920300)
0x5f8a193aec1  embedded object  (0x166773104189 <undefined>)
0x5f8a193aecb  position  (695)
0x5f8a193aece  position  (697)
0x5f8a193aed1  position  (699)
0x5f8a193aed4  position  (690)
0x5f8a193aee4  code target (CALL_IC)  (0x5f8a191c620)
0x5f8a193aef0  statement position  (664)
0x5f8a193af0d  code target (STUB)  (0x5f8a192abe0)
0x5f8a193af1f  code target with id (BINARY_OP_IC)  (0x5f8a1912d40) (id=184)
0x5f8a193af2b  embedded object  (0x1667731ef239 Cell for 6144)
0x5f8a193af3a  code target (BUILTIN)  (0x5f8a19366e0)
0x5f8a193af40  embedded object  (0x1667731ef239 Cell for 6144)
0x5f8a193af56  statement position  (657)
0x5f8a193af56  position  (656)
0x5f8a193af7e  code target with id (COMPARE_IC)  (0x5f8a1917ba0) (id=173)
0x5f8a193af9e  statement position  (709)
0x5f8a193af9e  statement position  (714)
0x5f8a193af9e  position  (715)
0x5f8a193afb1  statement position  (735)
0x5f8a193afb1  position  (735)
0x5f8a193afb6  position  (742)
0x5f8a193afb9  position  (744)
0x5f8a193afc1  position  (743)
0x5f8a193afcc  code target (KEYED_LOAD_IC)  (0x5f8a192efa0)
0x5f8a193afd1  position  (747)
0x5f8a193afd4  position  (749)
0x5f8a193afdc  position  (748)
0x5f8a193afe7  code target (KEYED_LOAD_IC)  (0x5f8a192efa0)
0x5f8a193afeb  position  (746)
0x5f8a193affa  code target with id (BINARY_OP_IC)  (0x5f8a1910d20) (id=301)
0x5f8a193b033  code target with id (BINARY_OP_IC)  (0x5f8a1912d40) (id=269)
0x5f8a193b047  position  (739)
0x5f8a193b04b  statement position  (757)
0x5f8a193b04b  position  (757)
0x5f8a193b050  position  (764)
0x5f8a193b053  position  (766)
0x5f8a193b05b  position  (765)
0x5f8a193b066  code target (KEYED_LOAD_IC)  (0x5f8a192efa0)
0x5f8a193b06b  position  (769)
0x5f8a193b06e  position  (771)
0x5f8a193b076  position  (770)
0x5f8a193b081  code target (KEYED_LOAD_IC)  (0x5f8a192efa0)
0x5f8a193b085  position  (768)
0x5f8a193b094  code target with id (BINARY_OP_IC)  (0x5f8a1910d20) (id=359)
0x5f8a193b0cd  code target with id (BINARY_OP_IC)  (0x5f8a1912d40) (id=327)
0x5f8a193b0e1  position  (761)
0x5f8a193b0e5  statement position  (726)
0x5f8a193b102  code target (STUB)  (0x5f8a192abe0)
0x5f8a193b114  code target with id (BINARY_OP_IC)  (0x5f8a1912d40) (id=254)
0x5f8a193b120  embedded object  (0x1667731ef239 Cell for 6144)
0x5f8a193b12f  code target (BUILTIN)  (0x5f8a19366e0)
0x5f8a193b135  embedded object  (0x1667731ef239 Cell for 6144)
0x5f8a193b14b  statement position  (720)
0x5f8a193b14b  position  (719)
0x5f8a193b14e  position  (721)
0x5f8a193b16d  code target with id (COMPARE_IC)  (0x5f8a1917ba0) (id=243)
0x5f8a193b18d  statement position  (781)
0x5f8a193b18d  position  (788)
0x5f8a193b18f  embedded object  (0x1667731a2581 <String[4]: Math>)
0x5f8a193b1a6  code target (LOAD_IC)  (0x5f8a1920300)
0x5f8a193b1af  position  (792)
0x5f8a193b1b1  embedded object  (0x1667731647c1 <String[4]: sqrt>)
0x5f8a193b1c4  code target (LOAD_IC)  (0x5f8a1920300)
0x5f8a193b1d0  position  (798)
0x5f8a193b1d3  position  (802)
0x5f8a193b1d7  position  (801)
0x5f8a193b1d9  code target with id (BINARY_OP_IC)  (0x5f8a19113a0) (id=395)
0x5f8a193b1df  position  (793)
0x5f8a193b1ef  code target (CALL_IC)  (0x5f8a191bac0)
0x5f8a193b1fd  embedded object  (0x1667731ef239 Cell for 6144)
0x5f8a193b20d  code target (BUILTIN)  (0x5f8a19366e0)
0x5f8a193b214  embedded object  (0x1667731ef239 Cell for 6144)
0x5f8a193b22a  statement position  (807)

--- End code ---
--- Raw source ---
(u,v,w) {
  Au(u,w);
  Atu(w,v);
}


--- Code ---
source_position = 482
kind = FUNCTION
name = AtAu
compiler = full-codegen
Instructions (size = 236)
0x5f8a193b360     0  55             push rbp                 ;; debug: position 482
0x5f8a193b361     1  4889e5         REX.W movq rbp,rsp
0x5f8a193b364     4  56             push rsi
0x5f8a193b365     5  57             push rdi
0x5f8a193b366     6  493ba540090000 REX.W cmpq rsp,[r13+0x940]
0x5f8a193b36d    13  7305           jnc 20  (0x5f8a193b374)
0x5f8a193b36f    15  e8acb4ffff     call StackCheck  (0x5f8a1936820)    ;; code: BUILTIN
0x5f8a193b374    20  48b971e41e7367160000 REX.W movq rcx,0x1667731ee471    ;; debug: statement 494
                                                             ;; object: 0x1667731ee471 <String[2]: Au>
0x5f8a193b37e    30  488b5627       REX.W movq rdx,[rsi+0x27]
0x5f8a193b382    34  48b80000000006000000 REX.W movq rax,0x600000000
0x5f8a193b38c    44  e86f4ffeff     call 0x5f8a1920300       ;; code: contextual, LOAD_IC, DEFAULT
0x5f8a193b391    49  50             push rax
0x5f8a193b392    50  49ba8941107367160000 REX.W movq r10,0x166773104189    ;; object: 0x166773104189 <undefined>
0x5f8a193b39c    60  4152           push r10
0x5f8a193b39e    62  ff7520         push [rbp+0x20]          ;; debug: position 497
0x5f8a193b3a1    65  ff7510         push [rbp+0x10]          ;; debug: position 499
0x5f8a193b3a4    68  48ba0000000004000000 REX.W movq rdx,0x400000000    ;; debug: position 494
0x5f8a193b3ae    78  488b7c2418     REX.W movq rdi,[rsp+0x18]
0x5f8a193b3b3    83  e8086efdff     call 0x5f8a19121c0       ;; code: CALL_IC, DEFAULT
0x5f8a193b3b8    88  488b75f8       REX.W movq rsi,[rbp-0x8]
0x5f8a193b3bc    92  4883c408       REX.W addq rsp,0x8
0x5f8a193b3c0    96  48b991e41e7367160000 REX.W movq rcx,0x1667731ee491    ;; debug: statement 505
                                                             ;; object: 0x1667731ee491 <String[3]: Atu>
0x5f8a193b3ca   106  488b5627       REX.W movq rdx,[rsi+0x27]
0x5f8a193b3ce   110  48b8000000000a000000 REX.W movq rax,0xa00000000
0x5f8a193b3d8   120  e8234ffeff     call 0x5f8a1920300       ;; code: contextual, LOAD_IC, DEFAULT
0x5f8a193b3dd   125  50             push rax
0x5f8a193b3de   126  49ba8941107367160000 REX.W movq r10,0x166773104189    ;; object: 0x166773104189 <undefined>
0x5f8a193b3e8   136  4152           push r10
0x5f8a193b3ea   138  ff7510         push [rbp+0x10]          ;; debug: position 509
0x5f8a193b3ed   141  ff7518         push [rbp+0x18]          ;; debug: position 511
0x5f8a193b3f0   144  48ba0000000008000000 REX.W movq rdx,0x800000000    ;; debug: position 505
0x5f8a193b3fa   154  488b7c2418     REX.W movq rdi,[rsp+0x18]
0x5f8a193b3ff   159  e8bc6dfdff     call 0x5f8a19121c0       ;; code: CALL_IC, DEFAULT
0x5f8a193b404   164  488b75f8       REX.W movq rsi,[rbp-0x8]
0x5f8a193b408   168  4883c408       REX.W addq rsp,0x8
0x5f8a193b40c   172  498b45a8       REX.W movq rax,[r13-0x58]
0x5f8a193b410   176  48bb21f61e7367160000 REX.W movq rbx,0x1667731ef621    ;; object: 0x1667731ef621 Cell for 6144
0x5f8a193b41a   186  83430bd1       addl [rbx+0xb],0xd1
0x5f8a193b41e   190  791f           jns 223  (0x5f8a193b43f)
0x5f8a193b420   192  50             push rax
0x5f8a193b421   193  e8bab2ffff     call InterruptCheck  (0x5f8a19366e0)    ;; code: BUILTIN
0x5f8a193b426   198  58             pop rax
0x5f8a193b427   199  48bb21f61e7367160000 REX.W movq rbx,0x1667731ef621    ;; object: 0x1667731ef621 Cell for 6144
0x5f8a193b431   209  49ba0000000000180000 REX.W movq r10,0x180000000000
0x5f8a193b43b   219  4c895307       REX.W movq [rbx+0x7],r10
0x5f8a193b43f   223  c9             leave                    ;; debug: statement 515
0x5f8a193b440   224  c22000         ret 0x20
0x5f8a193b443   227  0f1f440000     nop

Deoptimization Output Data (deopt points = 0)

Back edges (size = 0)
ast_id  pc_offset  loop_depth

0x1667731ef669: [TypeFeedbackInfo]
 - ic_total_count: 4, ic_with_type_info_count: 0, ic_generic_count: 0

RelocInfo (size = 36)
0x5f8a193b360  position  (482)
0x5f8a193b370  code target (BUILTIN)  (0x5f8a1936820)
0x5f8a193b374  statement position  (494)
0x5f8a193b376  embedded object  (0x1667731ee471 <String[2]: Au>)
0x5f8a193b38d  code target (LOAD_IC)  (0x5f8a1920300)
0x5f8a193b394  embedded object  (0x166773104189 <undefined>)
0x5f8a193b39e  position  (497)
0x5f8a193b3a1  position  (499)
0x5f8a193b3a4  position  (494)
0x5f8a193b3b4  code target (CALL_IC)  (0x5f8a19121c0)
0x5f8a193b3c0  statement position  (505)
0x5f8a193b3c2  embedded object  (0x1667731ee491 <String[3]: Atu>)
0x5f8a193b3d9  code target (LOAD_IC)  (0x5f8a1920300)
0x5f8a193b3e0  embedded object  (0x166773104189 <undefined>)
0x5f8a193b3ea  position  (509)
0x5f8a193b3ed  position  (511)
0x5f8a193b3f0  position  (505)
0x5f8a193b400  code target (CALL_IC)  (0x5f8a19121c0)
0x5f8a193b412  embedded object  (0x1667731ef621 Cell for 6144)
0x5f8a193b422  code target (BUILTIN)  (0x5f8a19366e0)
0x5f8a193b429  embedded object  (0x1667731ef621 Cell for 6144)
0x5f8a193b43f  statement position  (515)

--- End code ---
--- Raw source ---
(u,v) {
  for (var i=0; i<u.length; ++i) {
    var t = 0;
    for (var j=0; j<u.length; ++j)
      t += A(i,j) * u[j];
    v[i] = t;
  }
}


--- Code ---
source_position = 177
kind = FUNCTION
name = Au
compiler = full-codegen
Instructions (size = 780)
0x5f8a193b4c0     0  55             push rbp                 ;; debug: position 177
0x5f8a193b4c1     1  4889e5         REX.W movq rbp,rsp
0x5f8a193b4c4     4  56             push rsi
0x5f8a193b4c5     5  57             push rdi
0x5f8a193b4c6     6  498b55a8       REX.W movq rdx,[r13-0x58]
0x5f8a193b4ca    10  52             push rdx
0x5f8a193b4cb    11  52             push rdx
0x5f8a193b4cc    12  52             push rdx
0x5f8a193b4cd    13  493ba540090000 REX.W cmpq rsp,[r13+0x940]
0x5f8a193b4d4    20  7305           jnc 27  (0x5f8a193b4db)
0x5f8a193b4d6    22  e845b3ffff     call StackCheck  (0x5f8a1936820)    ;; code: BUILTIN
0x5f8a193b4db    27  48b80000000000000000 REX.W movq rax,0x0    ;; debug: statement 187
                                                             ;; debug: statement 192
0x5f8a193b4e5    37  488945e8       REX.W movq [rbp-0x18],rax
0x5f8a193b4e9    41  e927020000     jmp 597  (0x5f8a193b715)
0x5f8a193b4ee    46  48b80000000000000000 REX.W movq rax,0x0    ;; debug: statement 224
0x5f8a193b4f8    56  488945e0       REX.W movq [rbp-0x20],rax
0x5f8a193b4fc    60  48b80000000000000000 REX.W movq rax,0x0    ;; debug: statement 239
                                                             ;; debug: statement 244
0x5f8a193b506    70  488945d8       REX.W movq [rbp-0x28],rax
0x5f8a193b50a    74  e931010000     jmp 384  (0x5f8a193b640)
0x5f8a193b50f    79  488b45e0       REX.W movq rax,[rbp-0x20]    ;; debug: statement 276
                                                             ;; debug: position 276
0x5f8a193b513    83  50             push rax
0x5f8a193b514    84  48b971f0147367160000 REX.W movq rcx,0x16677314f071    ;; debug: position 281
                                                             ;; object: 0x16677314f071 <String[1]: A>
0x5f8a193b51e    94  488b5627       REX.W movq rdx,[rsi+0x27]
0x5f8a193b522    98  48b8000000000a000000 REX.W movq rax,0xa00000000
0x5f8a193b52c   108  e8cf4dfeff     call 0x5f8a1920300       ;; code: contextual, LOAD_IC, DEFAULT
0x5f8a193b531   113  50             push rax
0x5f8a193b532   114  49ba8941107367160000 REX.W movq r10,0x166773104189    ;; object: 0x166773104189 <undefined>
0x5f8a193b53c   124  4152           push r10
0x5f8a193b53e   126  ff75e8         push [rbp-0x18]          ;; debug: position 283
0x5f8a193b541   129  ff75d8         push [rbp-0x28]          ;; debug: position 285
0x5f8a193b544   132  48ba000000000e000000 REX.W movq rdx,0xe00000000    ;; debug: position 281
0x5f8a193b54e   142  488b7c2418     REX.W movq rdi,[rsp+0x18]
0x5f8a193b553   147  e8686cfdff     call 0x5f8a19121c0       ;; code: CALL_IC, DEFAULT
0x5f8a193b558   152  488b75f8       REX.W movq rsi,[rbp-0x8]
0x5f8a193b55c   156  48890424       REX.W movq [rsp],rax
0x5f8a193b560   160  ff7518         push [rbp+0x18]          ;; debug: position 290
0x5f8a193b563   163  488b45d8       REX.W movq rax,[rbp-0x28]    ;; debug: position 292
0x5f8a193b567   167  488bc8         REX.W movq rcx,rax
0x5f8a193b56a   170  5a             pop rdx
0x5f8a193b56b   171  48b80000000010000000 REX.W movq rax,0x1000000000    ;; debug: position 291
0x5f8a193b575   181  e8263affff     call 0x5f8a192efa0       ;; code: KEYED_LOAD_IC, DEFAULT
0x5f8a193b57a   186  5a             pop rdx                  ;; debug: position 288
0x5f8a193b57b   187  488bc8         REX.W movq rcx,rax
0x5f8a193b57e   190  480bc2         REX.W orq rax,rdx
0x5f8a193b581   193  a801           test al,0x1
0x5f8a193b583   195  720c           jc 209  (0x5f8a193b591)
0x5f8a193b585   197  488bc1         REX.W movq rax,rcx
0x5f8a193b588   200  e89357fdff     call 0x5f8a1910d20       ;; code: BINARY_OP_IC, UNINITIALIZED (id = 157)
0x5f8a193b58d   205  a80a           test al,0xa
0x5f8a193b58f   207  eb22           jmp 243  (0x5f8a193b5b3)
0x5f8a193b591   209  488bc2         REX.W movq rax,rdx
0x5f8a193b594   212  48c1f820       REX.W sarq rax, 32
0x5f8a193b598   216  480fafc1       REX.W imulq rax,rcx
0x5f8a193b59c   220  0f80e3ffffff   jo 197  (0x5f8a193b585)
0x5f8a193b5a2   226  4885c0         REX.W testq rax,rax
0x5f8a193b5a5   229  750c           jnz 243  (0x5f8a193b5b3)
0x5f8a193b5a7   231  4c8bd2         REX.W movq r10,rdx
0x5f8a193b5aa   234  4c33d1         REX.W xorq r10,rcx
0x5f8a193b5ad   237  0f88d2ffffff   js 197  (0x5f8a193b585)
0x5f8a193b5b3   243  5a             pop rdx
0x5f8a193b5b4   244  488bc8         REX.W movq rcx,rax
0x5f8a193b5b7   247  480bc2         REX.W orq rax,rdx
0x5f8a193b5ba   250  a801           test al,0x1
0x5f8a193b5bc   252  720c           jc 266  (0x5f8a193b5ca)
0x5f8a193b5be   254  488bc1         REX.W movq rax,rcx
0x5f8a193b5c1   257  e87a77fdff     call 0x5f8a1912d40       ;; code: BINARY_OP_IC, UNINITIALIZED (id = 120)
0x5f8a193b5c6   262  a80a           test al,0xa
0x5f8a193b5c8   264  eb0c           jmp 278  (0x5f8a193b5d6)
0x5f8a193b5ca   266  488bc2         REX.W movq rax,rdx
0x5f8a193b5cd   269  4803c1         REX.W addq rax,rcx
0x5f8a193b5d0   272  0f80e8ffffff   jo 254  (0x5f8a193b5be)
0x5f8a193b5d6   278  488945e0       REX.W movq [rbp-0x20],rax    ;; debug: position 278
0x5f8a193b5da   282  488b45d8       REX.W movq rax,[rbp-0x28]    ;; debug: statement 267
0x5f8a193b5de   286  a801           test al,0x1
0x5f8a193b5e0   288  7314           jnc 310  (0x5f8a193b5f6)
0x5f8a193b5e2   290  49ba0000000001000000 REX.W movq r10,0x100000000
0x5f8a193b5ec   300  4903c2         REX.W addq rax,r10
0x5f8a193b5ef   303  711e           jno 335  (0x5f8a193b60f)
0x5f8a193b5f1   305  492bc2         REX.W subq rax,r10
0x5f8a193b5f4   308  eb05           jmp 315  (0x5f8a193b5fb)
0x5f8a193b5f6   310  e8e5f5feff     call 0x5f8a192abe0       ;; code: STUB, ToNumberStub, minor: 0
0x5f8a193b5fb   315  488bd0         REX.W movq rdx,rax
0x5f8a193b5fe   318  48b80000000001000000 REX.W movq rax,0x100000000
0x5f8a193b608   328  e83377fdff     call 0x5f8a1912d40       ;; code: BINARY_OP_IC, UNINITIALIZED (id = 108)
0x5f8a193b60d   333  a82d           test al,0x2d
0x5f8a193b60f   335  488945d8       REX.W movq [rbp-0x28],rax
0x5f8a193b613   339  48bba1f71e7367160000 REX.W movq rbx,0x1667731ef7a1    ;; object: 0x1667731ef7a1 Cell for 6144
0x5f8a193b61d   349  83430bff       addl [rbx+0xb],0xff
0x5f8a193b621   353  791d           jns 384  (0x5f8a193b640)
0x5f8a193b623   355  e8b8b0ffff     call InterruptCheck  (0x5f8a19366e0)    ;; code: BUILTIN
0x5f8a193b628   360  48bba1f71e7367160000 REX.W movq rbx,0x1667731ef7a1    ;; object: 0x1667731ef7a1 Cell for 6144
0x5f8a193b632   370  49ba0000000000180000 REX.W movq r10,0x180000000000
0x5f8a193b63c   380  4c895307       REX.W movq [rbx+0x7],r10
0x5f8a193b640   384  ff75d8         push [rbp-0x28]          ;; debug: statement 254
                                                             ;; debug: position 253
0x5f8a193b643   387  488b4518       REX.W movq rax,[rbp+0x18]    ;; debug: position 255
0x5f8a193b647   391  488bd0         REX.W movq rdx,rax
0x5f8a193b64a   394  48b9712e197367160000 REX.W movq rcx,0x166773192e71    ;; debug: position 256
                                                             ;; object: 0x166773192e71 <String[6]: length>
0x5f8a193b654   404  48b80000000006000000 REX.W movq rax,0x600000000
0x5f8a193b65e   414  e89d4cfeff     call 0x5f8a1920300       ;; code: contextual, LOAD_IC, DEFAULT
0x5f8a193b663   419  5a             pop rdx
0x5f8a193b664   420  488bca         REX.W movq rcx,rdx
0x5f8a193b667   423  480bc8         REX.W orq rcx,rax
0x5f8a193b66a   426  f6c101         testb rcx,0x1
0x5f8a193b66d   429  730e           jnc 445  (0x5f8a193b67d)
0x5f8a193b66f   431  483bd0         REX.W cmpq rdx,rax
0x5f8a193b672   434  0f8c97feffff   jl 79  (0x5f8a193b50f)
0x5f8a193b678   440  e921000000     jmp 478  (0x5f8a193b69e)
0x5f8a193b67d   445  e81ec5fdff     call 0x5f8a1917ba0       ;; code: COMPARE_IC, UNINITIALIZED (id = 91)
0x5f8a193b682   450  a815           test al,0x15
0x5f8a193b684   452  eb0f           jmp 469  (0x5f8a193b695)
0x5f8a193b686   454  493b45c0       REX.W cmpq rax,[r13-0x40]
0x5f8a193b68a   458  0f847ffeffff   jz 79  (0x5f8a193b50f)
0x5f8a193b690   464  e909000000     jmp 478  (0x5f8a193b69e)
0x5f8a193b695   469  4885c0         REX.W testq rax,rax
0x5f8a193b698   472  0f8c71feffff   jl 79  (0x5f8a193b50f)
0x5f8a193b69e   478  ff7510         push [rbp+0x10]          ;; debug: statement 300
                                                             ;; debug: position 300
0x5f8a193b6a1   481  ff75e8         push [rbp-0x18]          ;; debug: position 302
0x5f8a193b6a4   484  488b45e0       REX.W movq rax,[rbp-0x20]    ;; debug: position 307
0x5f8a193b6a8   488  59             pop rcx                  ;; debug: position 305
0x5f8a193b6a9   489  5a             pop rdx
0x5f8a193b6aa   490  e8318fffff     call KeyedStoreIC_Initialize  (0x5f8a19345e0)    ;; code: KEYED_STORE_IC, UNINITIALIZED (id = 184)
0x5f8a193b6af   495  488b45e8       REX.W movq rax,[rbp-0x18]    ;; debug: statement 215
0x5f8a193b6b3   499  a801           test al,0x1
0x5f8a193b6b5   501  7314           jnc 523  (0x5f8a193b6cb)
0x5f8a193b6b7   503  49ba0000000001000000 REX.W movq r10,0x100000000
0x5f8a193b6c1   513  4903c2         REX.W addq rax,r10
0x5f8a193b6c4   516  711e           jno 548  (0x5f8a193b6e4)
0x5f8a193b6c6   518  492bc2         REX.W subq rax,r10
0x5f8a193b6c9   521  eb05           jmp 528  (0x5f8a193b6d0)
0x5f8a193b6cb   523  e810f5feff     call 0x5f8a192abe0       ;; code: STUB, ToNumberStub, minor: 0
0x5f8a193b6d0   528  488bd0         REX.W movq rdx,rax
0x5f8a193b6d3   531  48b80000000001000000 REX.W movq rax,0x100000000
0x5f8a193b6dd   541  e85e76fdff     call 0x5f8a1912d40       ;; code: BINARY_OP_IC, UNINITIALIZED (id = 50)
0x5f8a193b6e2   546  a82d           test al,0x2d
0x5f8a193b6e4   548  488945e8       REX.W movq [rbp-0x18],rax
0x5f8a193b6e8   552  48bba1f71e7367160000 REX.W movq rbx,0x1667731ef7a1    ;; object: 0x1667731ef7a1 Cell for 6144
0x5f8a193b6f2   562  83430bfe       addl [rbx+0xb],0xfe
0x5f8a193b6f6   566  791d           jns 597  (0x5f8a193b715)
0x5f8a193b6f8   568  e8e3afffff     call InterruptCheck  (0x5f8a19366e0)    ;; code: BUILTIN
0x5f8a193b6fd   573  48bba1f71e7367160000 REX.W movq rbx,0x1667731ef7a1    ;; object: 0x1667731ef7a1 Cell for 6144
0x5f8a193b707   583  49ba0000000000180000 REX.W movq r10,0x180000000000
0x5f8a193b711   593  4c895307       REX.W movq [rbx+0x7],r10
0x5f8a193b715   597  ff75e8         push [rbp-0x18]          ;; debug: statement 202
                                                             ;; debug: position 201
0x5f8a193b718   600  488b4518       REX.W movq rax,[rbp+0x18]    ;; debug: position 203
0x5f8a193b71c   604  488bd0         REX.W movq rdx,rax
0x5f8a193b71f   607  48b9712e197367160000 REX.W movq rcx,0x166773192e71    ;; debug: position 204
                                                             ;; object: 0x166773192e71 <String[6]: length>
0x5f8a193b729   617  48b80000000004000000 REX.W movq rax,0x400000000
0x5f8a193b733   627  e8c84bfeff     call 0x5f8a1920300       ;; code: contextual, LOAD_IC, DEFAULT
0x5f8a193b738   632  5a             pop rdx
0x5f8a193b739   633  488bca         REX.W movq rcx,rdx
0x5f8a193b73c   636  480bc8         REX.W orq rcx,rax
0x5f8a193b73f   639  f6c101         testb rcx,0x1
0x5f8a193b742   642  730e           jnc 658  (0x5f8a193b752)
0x5f8a193b744   644  483bd0         REX.W cmpq rdx,rax
0x5f8a193b747   647  0f8ca1fdffff   jl 46  (0x5f8a193b4ee)
0x5f8a193b74d   653  e921000000     jmp 691  (0x5f8a193b773)
0x5f8a193b752   658  e849c4fdff     call 0x5f8a1917ba0       ;; code: COMPARE_IC, UNINITIALIZED (id = 33)
0x5f8a193b757   663  a815           test al,0x15
0x5f8a193b759   665  eb0f           jmp 682  (0x5f8a193b76a)
0x5f8a193b75b   667  493b45c0       REX.W cmpq rax,[r13-0x40]
0x5f8a193b75f   671  0f8489fdffff   jz 46  (0x5f8a193b4ee)
0x5f8a193b765   677  e909000000     jmp 691  (0x5f8a193b773)
0x5f8a193b76a   682  4885c0         REX.W testq rax,rax
0x5f8a193b76d   685  0f8c7bfdffff   jl 46  (0x5f8a193b4ee)
0x5f8a193b773   691  498b45a8       REX.W movq rax,[r13-0x58]
0x5f8a193b777   695  48bba1f71e7367160000 REX.W movq rbx,0x1667731ef7a1    ;; object: 0x1667731ef7a1 Cell for 6144
0x5f8a193b781   705  83430bfc       addl [rbx+0xb],0xfc
0x5f8a193b785   709  791f           jns 742  (0x5f8a193b7a6)
0x5f8a193b787   711  50             push rax
0x5f8a193b788   712  e853afffff     call InterruptCheck  (0x5f8a19366e0)    ;; code: BUILTIN
0x5f8a193b78d   717  58             pop rax
0x5f8a193b78e   718  48bba1f71e7367160000 REX.W movq rbx,0x1667731ef7a1    ;; object: 0x1667731ef7a1 Cell for 6144
0x5f8a193b798   728  49ba0000000000180000 REX.W movq r10,0x180000000000
0x5f8a193b7a2   738  4c895307       REX.W movq [rbx+0x7],r10
0x5f8a193b7a6   742  c9             leave                    ;; debug: statement 314
0x5f8a193b7a7   743  c21800         ret 0x18
0x5f8a193b7aa   746  660f1f440000   nop

Deoptimization Output Data (deopt points = 0)

Back edges (size = 2)
ast_id  pc_offset  loop_depth
    73        360           2
    15        573           1

0x1667731ef851: [TypeFeedbackInfo]
 - ic_total_count: 12, ic_with_type_info_count: 0, ic_generic_count: 0

RelocInfo (size = 141)
0x5f8a193b4c0  position  (177)
0x5f8a193b4d7  code target (BUILTIN)  (0x5f8a1936820)
0x5f8a193b4db  statement position  (187)
0x5f8a193b4db  statement position  (192)
0x5f8a193b4ee  statement position  (224)
0x5f8a193b4fc  statement position  (239)
0x5f8a193b4fc  statement position  (244)
0x5f8a193b50f  statement position  (276)
0x5f8a193b50f  position  (276)
0x5f8a193b514  position  (281)
0x5f8a193b516  embedded object  (0x16677314f071 <String[1]: A>)
0x5f8a193b52d  code target (LOAD_IC)  (0x5f8a1920300)
0x5f8a193b534  embedded object  (0x166773104189 <undefined>)
0x5f8a193b53e  position  (283)
0x5f8a193b541  position  (285)
0x5f8a193b544  position  (281)
0x5f8a193b554  code target (CALL_IC)  (0x5f8a19121c0)
0x5f8a193b560  position  (290)
0x5f8a193b563  position  (292)
0x5f8a193b56b  position  (291)
0x5f8a193b576  code target (KEYED_LOAD_IC)  (0x5f8a192efa0)
0x5f8a193b57a  position  (288)
0x5f8a193b589  code target with id (BINARY_OP_IC)  (0x5f8a1910d20) (id=157)
0x5f8a193b5c2  code target with id (BINARY_OP_IC)  (0x5f8a1912d40) (id=120)
0x5f8a193b5d6  position  (278)
0x5f8a193b5da  statement position  (267)
0x5f8a193b5f7  code target (STUB)  (0x5f8a192abe0)
0x5f8a193b609  code target with id (BINARY_OP_IC)  (0x5f8a1912d40) (id=108)
0x5f8a193b615  embedded object  (0x1667731ef7a1 Cell for 6144)
0x5f8a193b624  code target (BUILTIN)  (0x5f8a19366e0)
0x5f8a193b62a  embedded object  (0x1667731ef7a1 Cell for 6144)
0x5f8a193b640  statement position  (254)
0x5f8a193b640  position  (253)
0x5f8a193b643  position  (255)
0x5f8a193b64a  position  (256)
0x5f8a193b64c  embedded object  (0x166773192e71 <String[6]: length>)
0x5f8a193b65f  code target (LOAD_IC)  (0x5f8a1920300)
0x5f8a193b67e  code target with id (COMPARE_IC)  (0x5f8a1917ba0) (id=91)
0x5f8a193b69e  statement position  (300)
0x5f8a193b69e  position  (300)
0x5f8a193b6a1  position  (302)
0x5f8a193b6a4  position  (307)
0x5f8a193b6a8  position  (305)
0x5f8a193b6ab  code target with id (KEYED_STORE_IC)  (0x5f8a19345e0) (id=184)
0x5f8a193b6af  statement position  (215)
0x5f8a193b6cc  code target (STUB)  (0x5f8a192abe0)
0x5f8a193b6de  code target with id (BINARY_OP_IC)  (0x5f8a1912d40) (id=50)
0x5f8a193b6ea  embedded object  (0x1667731ef7a1 Cell for 6144)
0x5f8a193b6f9  code target (BUILTIN)  (0x5f8a19366e0)
0x5f8a193b6ff  embedded object  (0x1667731ef7a1 Cell for 6144)
0x5f8a193b715  statement position  (202)
0x5f8a193b715  position  (201)
0x5f8a193b718  position  (203)
0x5f8a193b71f  position  (204)
0x5f8a193b721  embedded object  (0x166773192e71 <String[6]: length>)
0x5f8a193b734  code target (LOAD_IC)  (0x5f8a1920300)
0x5f8a193b753  code target with id (COMPARE_IC)  (0x5f8a1917ba0) (id=33)
0x5f8a193b779  embedded object  (0x1667731ef7a1 Cell for 6144)
0x5f8a193b789  code target (BUILTIN)  (0x5f8a19366e0)
0x5f8a193b790  embedded object  (0x1667731ef7a1 Cell for 6144)
0x5f8a193b7a6  statement position  (314)

--- End code ---
--- Raw source ---
(i,j) {
  return 1/((i+j)*(i+j+1)/2+i+1);
}


--- Code ---
source_position = 121
kind = FUNCTION
name = A
compiler = full-codegen
Instructions (size = 212)
0x5f8a193b840     0  55             push rbp                 ;; debug: position 121
0x5f8a193b841     1  4889e5         REX.W movq rbp,rsp
0x5f8a193b844     4  56             push rsi
0x5f8a193b845     5  57             push rdi
0x5f8a193b846     6  493ba540090000 REX.W cmpq rsp,[r13+0x940]
0x5f8a193b84d    13  7305           jnc 20  (0x5f8a193b854)
0x5f8a193b84f    15  e8ccafffff     call StackCheck  (0x5f8a1936820)    ;; code: BUILTIN
0x5f8a193b854    20  49ba0000000001000000 REX.W movq r10,0x100000000    ;; debug: statement 131
0x5f8a193b85e    30  4152           push r10
0x5f8a193b860    32  ff7518         push [rbp+0x18]          ;; debug: position 142
0x5f8a193b863    35  488b4510       REX.W movq rax,[rbp+0x10]    ;; debug: position 144
0x5f8a193b867    39  5a             pop rdx                  ;; debug: position 143
0x5f8a193b868    40  e8d374fdff     call 0x5f8a1912d40       ;; code: BINARY_OP_IC, UNINITIALIZED (id = 30)
0x5f8a193b86d    45  90             nop
0x5f8a193b86e    46  50             push rax
0x5f8a193b86f    47  ff7518         push [rbp+0x18]          ;; debug: position 148
0x5f8a193b872    50  488b4510       REX.W movq rax,[rbp+0x10]    ;; debug: position 150
0x5f8a193b876    54  5a             pop rdx                  ;; debug: position 149
0x5f8a193b877    55  e8c474fdff     call 0x5f8a1912d40       ;; code: BINARY_OP_IC, UNINITIALIZED (id = 44)
0x5f8a193b87c    60  90             nop
0x5f8a193b87d    61  50             push rax
0x5f8a193b87e    62  48b80000000001000000 REX.W movq rax,0x100000000
0x5f8a193b888    72  5a             pop rdx                  ;; debug: position 151
0x5f8a193b889    73  e8b274fdff     call 0x5f8a1912d40       ;; code: BINARY_OP_IC, UNINITIALIZED (id = 40)
0x5f8a193b88e    78  90             nop
0x5f8a193b88f    79  5a             pop rdx                  ;; debug: position 146
0x5f8a193b890    80  e88b54fdff     call 0x5f8a1910d20       ;; code: BINARY_OP_IC, UNINITIALIZED (id = 26)
0x5f8a193b895    85  90             nop
0x5f8a193b896    86  50             push rax
0x5f8a193b897    87  48b80000000002000000 REX.W movq rax,0x200000000
0x5f8a193b8a1    97  5a             pop rdx                  ;; debug: position 154
0x5f8a193b8a2    98  e8f95afdff     call 0x5f8a19113a0       ;; code: BINARY_OP_IC, UNINITIALIZED (id = 22)
0x5f8a193b8a7   103  90             nop
0x5f8a193b8a8   104  50             push rax
0x5f8a193b8a9   105  488b4518       REX.W movq rax,[rbp+0x18]    ;; debug: position 157
0x5f8a193b8ad   109  5a             pop rdx                  ;; debug: position 156
0x5f8a193b8ae   110  e88d74fdff     call 0x5f8a1912d40       ;; code: BINARY_OP_IC, UNINITIALIZED (id = 18)
0x5f8a193b8b3   115  90             nop
0x5f8a193b8b4   116  50             push rax
0x5f8a193b8b5   117  48b80000000001000000 REX.W movq rax,0x100000000
0x5f8a193b8bf   127  5a             pop rdx                  ;; debug: position 158
0x5f8a193b8c0   128  e87b74fdff     call 0x5f8a1912d40       ;; code: BINARY_OP_IC, UNINITIALIZED (id = 14)
0x5f8a193b8c5   133  90             nop
0x5f8a193b8c6   134  5a             pop rdx                  ;; debug: position 139
0x5f8a193b8c7   135  e8d45afdff     call 0x5f8a19113a0       ;; code: BINARY_OP_IC, UNINITIALIZED (id = 7)
0x5f8a193b8cc   140  90             nop
0x5f8a193b8cd   141  48bbf9f81e7367160000 REX.W movq rbx,0x1667731ef8f9    ;; object: 0x1667731ef8f9 Cell for 6144
0x5f8a193b8d7   151  83430bd1       addl [rbx+0xb],0xd1
0x5f8a193b8db   155  791f           jns 188  (0x5f8a193b8fc)
0x5f8a193b8dd   157  50             push rax
0x5f8a193b8de   158  e8fdadffff     call InterruptCheck  (0x5f8a19366e0)    ;; code: BUILTIN
0x5f8a193b8e3   163  58             pop rax
0x5f8a193b8e4   164  48bbf9f81e7367160000 REX.W movq rbx,0x1667731ef8f9    ;; object: 0x1667731ef8f9 Cell for 6144
0x5f8a193b8ee   174  49ba0000000000180000 REX.W movq r10,0x180000000000
0x5f8a193b8f8   184  4c895307       REX.W movq [rbx+0x7],r10
0x5f8a193b8fc   188  c9             leave                    ;; debug: statement 163
0x5f8a193b8fd   189  c21800         ret 0x18
0x5f8a193b900   192  498b45a8       REX.W movq rax,[r13-0x58]
0x5f8a193b904   196  e9c4ffffff     jmp 141  (0x5f8a193b8cd)
0x5f8a193b909   201  0f1f8000000000 nop

Deoptimization Output Data (deopt points = 0)

Back edges (size = 0)
ast_id  pc_offset  loop_depth

0x1667731ef951: [TypeFeedbackInfo]
 - ic_total_count: 8, ic_with_type_info_count: 0, ic_generic_count: 0

RelocInfo (size = 56)
0x5f8a193b840  position  (121)
0x5f8a193b850  code target (BUILTIN)  (0x5f8a1936820)
0x5f8a193b854  statement position  (131)
0x5f8a193b860  position  (142)
0x5f8a193b863  position  (144)
0x5f8a193b867  position  (143)
0x5f8a193b869  code target with id (BINARY_OP_IC)  (0x5f8a1912d40) (id=30)
0x5f8a193b86f  position  (148)
0x5f8a193b872  position  (150)
0x5f8a193b876  position  (149)
0x5f8a193b878  code target with id (BINARY_OP_IC)  (0x5f8a1912d40) (id=44)
0x5f8a193b888  position  (151)
0x5f8a193b88a  code target with id (BINARY_OP_IC)  (0x5f8a1912d40) (id=40)
0x5f8a193b88f  position  (146)
0x5f8a193b891  code target with id (BINARY_OP_IC)  (0x5f8a1910d20) (id=26)
0x5f8a193b8a1  position  (154)
0x5f8a193b8a3  code target with id (BINARY_OP_IC)  (0x5f8a19113a0) (id=22)
0x5f8a193b8a9  position  (157)
0x5f8a193b8ad  position  (156)
0x5f8a193b8af  code target with id (BINARY_OP_IC)  (0x5f8a1912d40) (id=18)
0x5f8a193b8bf  position  (158)
0x5f8a193b8c1  code target with id (BINARY_OP_IC)  (0x5f8a1912d40) (id=14)
0x5f8a193b8c6  position  (139)
0x5f8a193b8c8  code target with id (BINARY_OP_IC)  (0x5f8a19113a0) (id=7)
0x5f8a193b8cf  embedded object  (0x1667731ef8f9 Cell for 6144)
0x5f8a193b8df  code target (BUILTIN)  (0x5f8a19366e0)
0x5f8a193b8e6  embedded object  (0x1667731ef8f9 Cell for 6144)
0x5f8a193b8fc  statement position  (163)

--- End code ---
--- Raw source ---
(h){
var i=(typeof(this)==='number')?this:%non_number_to_number(this);
if(!(typeof(h)==='number'))h=%non_number_to_number(h);
return %NumberMul(i,h);
}


--- Code ---
source_position = 4476
kind = FUNCTION
name = MUL
compiler = full-codegen
Instructions (size = 316)
0x5f8a193b980     0  55             push rbp                 ;; debug: position 4476
0x5f8a193b981     1  4889e5         REX.W movq rbp,rsp
0x5f8a193b984     4  56             push rsi
0x5f8a193b985     5  57             push rdi
0x5f8a193b986     6  41ff75a8       push [r13-0x58]
0x5f8a193b98a    10  493ba540090000 REX.W cmpq rsp,[r13+0x940]
0x5f8a193b991    17  7305           jnc 24  (0x5f8a193b998)
0x5f8a193b993    19  e888aeffff     call StackCheck  (0x5f8a1936820)    ;; code: BUILTIN
0x5f8a193b998    24  488b4518       REX.W movq rax,[rbp+0x18]    ;; debug: statement 4481
                                                             ;; debug: position 4495
0x5f8a193b99c    28  eb0f           jmp 45  (0x5f8a193b9ad)
0x5f8a193b99e    30  493b45c0       REX.W cmpq rax,[r13-0x40]
0x5f8a193b9a2    34  0f841b000000   jz 67  (0x5f8a193b9c3)
0x5f8a193b9a8    40  e91f000000     jmp 76  (0x5f8a193b9cc)
0x5f8a193b9ad    45  a801           test al,0x1
0x5f8a193b9af    47  0f840e000000   jz 67  (0x5f8a193b9c3)
0x5f8a193b9b5    53  488b40ff       REX.W movq rax,[rax-0x1]
0x5f8a193b9b9    57  493b4508       REX.W cmpq rax,[r13+0x8]
0x5f8a193b9bd    61  0f8509000000   jnz 76  (0x5f8a193b9cc)
0x5f8a193b9c3    67  488b4518       REX.W movq rax,[rbp+0x18]    ;; debug: position 4513
0x5f8a193b9c7    71  e930000000     jmp 124  (0x5f8a193b9fc)
0x5f8a193b9cc    76  41ff75a8       push [r13-0x58]          ;; debug: position 4518
0x5f8a193b9d0    80  488b4627       REX.W movq rax,[rsi+0x27]
0x5f8a193b9d4    84  488b401f       REX.W movq rax,[rax+0x1f]
0x5f8a193b9d8    88  488b80cf020000 REX.W movq rax,[rax+0x2cf]
0x5f8a193b9df    95  ff3424         push [rsp]
0x5f8a193b9e2    98  4889442408     REX.W movq [rsp+0x8],rax
0x5f8a193b9e7   103  ff7518         push [rbp+0x18]          ;; debug: position 4540
0x5f8a193b9ea   106  488b7c2410     REX.W movq rdi,[rsp+0x10]    ;; debug: position 4518
0x5f8a193b9ef   111  e86c40ffff     call 0x5f8a192fa60       ;; code: STUB, CallFunctionStub, minor: 4
0x5f8a193b9f4   116  488b75f8       REX.W movq rsi,[rbp-0x8]
0x5f8a193b9f8   120  4883c408       REX.W addq rsp,0x8
0x5f8a193b9fc   124  488945e8       REX.W movq [rbp-0x18],rax    ;; debug: position 4481
0x5f8a193ba00   128  488b4510       REX.W movq rax,[rbp+0x10]    ;; debug: statement 4547
                                                             ;; debug: position 4559
0x5f8a193ba04   132  eb0f           jmp 149  (0x5f8a193ba15)
0x5f8a193ba06   134  493b45c0       REX.W cmpq rax,[r13-0x40]
0x5f8a193ba0a   138  0f844f000000   jz 223  (0x5f8a193ba5f)
0x5f8a193ba10   144  e916000000     jmp 171  (0x5f8a193ba2b)
0x5f8a193ba15   149  a801           test al,0x1
0x5f8a193ba17   151  0f8442000000   jz 223  (0x5f8a193ba5f)
0x5f8a193ba1d   157  488b40ff       REX.W movq rax,[rax-0x1]
0x5f8a193ba21   161  493b4508       REX.W cmpq rax,[r13+0x8]
0x5f8a193ba25   165  0f8434000000   jz 223  (0x5f8a193ba5f)
0x5f8a193ba2b   171  41ff75a8       push [r13-0x58]          ;; debug: statement 4574
                                                             ;; debug: position 4575
0x5f8a193ba2f   175  488b4627       REX.W movq rax,[rsi+0x27]
0x5f8a193ba33   179  488b401f       REX.W movq rax,[rax+0x1f]
0x5f8a193ba37   183  488b80cf020000 REX.W movq rax,[rax+0x2cf]
0x5f8a193ba3e   190  ff3424         push [rsp]
0x5f8a193ba41   193  4889442408     REX.W movq [rsp+0x8],rax
0x5f8a193ba46   198  ff7510         push [rbp+0x10]          ;; debug: position 4598
0x5f8a193ba49   201  488b7c2410     REX.W movq rdi,[rsp+0x10]    ;; debug: position 4576
0x5f8a193ba4e   206  e80d40ffff     call 0x5f8a192fa60       ;; code: STUB, CallFunctionStub, minor: 4
0x5f8a193ba53   211  488b75f8       REX.W movq rsi,[rbp-0x8]
0x5f8a193ba57   215  4883c408       REX.W addq rsp,0x8
0x5f8a193ba5b   219  48894510       REX.W movq [rbp+0x10],rax    ;; debug: position 4575
0x5f8a193ba5f   223  ff75e8         push [rbp-0x18]          ;; debug: statement 4602
                                                             ;; debug: position 4620
0x5f8a193ba62   226  ff7510         push [rbp+0x10]          ;; debug: position 4622
0x5f8a193ba65   229  b802000000     movl rax,0x2
0x5f8a193ba6a   234  48bbb0d0880001000000 REX.W movq rbx,0x10088d0b0
0x5f8a193ba74   244  e8a7e1fcff     call 0x5f8a1909c20       ;; code: STUB, CEntryStub, minor: 0
0x5f8a193ba79   249  48bbc9f91e7367160000 REX.W movq rbx,0x1667731ef9c9    ;; object: 0x1667731ef9c9 Cell for 6144
0x5f8a193ba83   259  83430bff       addl [rbx+0xb],0xff
0x5f8a193ba87   263  791f           jns 296  (0x5f8a193baa8)
0x5f8a193ba89   265  50             push rax
0x5f8a193ba8a   266  e851acffff     call InterruptCheck  (0x5f8a19366e0)    ;; code: BUILTIN
0x5f8a193ba8f   271  58             pop rax
0x5f8a193ba90   272  48bbc9f91e7367160000 REX.W movq rbx,0x1667731ef9c9    ;; object: 0x1667731ef9c9 Cell for 6144
0x5f8a193ba9a   282  49ba0000000000180000 REX.W movq r10,0x180000000000
0x5f8a193baa4   292  4c895307       REX.W movq [rbx+0x7],r10
0x5f8a193baa8   296  c9             leave                    ;; debug: statement 4626
0x5f8a193baa9   297  c21000         ret 0x10
0x5f8a193baac   300  498b45a8       REX.W movq rax,[r13-0x58]
0x5f8a193bab0   304  e9c4ffffff     jmp 249  (0x5f8a193ba79)
0x5f8a193bab5   309  0f1f00         nop

Deoptimization Output Data (deopt points = 0)

Back edges (size = 0)
ast_id  pc_offset  loop_depth

0x1667731efa29: [TypeFeedbackInfo]
 - ic_total_count: 0, ic_with_type_info_count: 0, ic_generic_count: 0

RelocInfo (size = 57)
0x5f8a193b980  position  (4476)
0x5f8a193b994  code target (BUILTIN)  (0x5f8a1936820)
0x5f8a193b998  statement position  (4481)
0x5f8a193b998  position  (4495)
0x5f8a193b9c3  position  (4513)
0x5f8a193b9cc  position  (4518)
0x5f8a193b9e7  position  (4540)
0x5f8a193b9ea  position  (4518)
0x5f8a193b9f0  code target (STUB)  (0x5f8a192fa60)
0x5f8a193b9fc  position  (4481)
0x5f8a193ba00  statement position  (4547)
0x5f8a193ba00  position  (4559)
0x5f8a193ba2b  statement position  (4574)
0x5f8a193ba2b  position  (4575)
0x5f8a193ba46  position  (4598)
0x5f8a193ba49  position  (4576)
0x5f8a193ba4f  code target (STUB)  (0x5f8a192fa60)
0x5f8a193ba5b  position  (4575)
0x5f8a193ba5f  statement position  (4602)
0x5f8a193ba5f  position  (4620)
0x5f8a193ba62  position  (4622)
0x5f8a193ba75  code target (STUB)  (0x5f8a1909c20)
0x5f8a193ba7b  embedded object  (0x1667731ef9c9 Cell for 6144)
0x5f8a193ba8b  code target (BUILTIN)  (0x5f8a19366e0)
0x5f8a193ba92  embedded object  (0x1667731ef9c9 Cell for 6144)
0x5f8a193baa8  statement position  (4626)

--- End code ---
--- Raw source ---
(h){
var i=(typeof(this)==='number')?this:%non_number_to_number(this);
if(!(typeof(h)==='number'))h=%non_number_to_number(h);
return %NumberDiv(i,h);
}


--- Code ---
source_position = 4779
kind = FUNCTION
name = DIV
compiler = full-codegen
Instructions (size = 316)
0x5f8a193bb20     0  55             push rbp                 ;; debug: position 4779
0x5f8a193bb21     1  4889e5         REX.W movq rbp,rsp
0x5f8a193bb24     4  56             push rsi
0x5f8a193bb25     5  57             push rdi
0x5f8a193bb26     6  41ff75a8       push [r13-0x58]
0x5f8a193bb2a    10  493ba540090000 REX.W cmpq rsp,[r13+0x940]
0x5f8a193bb31    17  7305           jnc 24  (0x5f8a193bb38)
0x5f8a193bb33    19  e8e8acffff     call StackCheck  (0x5f8a1936820)    ;; code: BUILTIN
0x5f8a193bb38    24  488b4518       REX.W movq rax,[rbp+0x18]    ;; debug: statement 4784
                                                             ;; debug: position 4798
0x5f8a193bb3c    28  eb0f           jmp 45  (0x5f8a193bb4d)
0x5f8a193bb3e    30  493b45c0       REX.W cmpq rax,[r13-0x40]
0x5f8a193bb42    34  0f841b000000   jz 67  (0x5f8a193bb63)
0x5f8a193bb48    40  e91f000000     jmp 76  (0x5f8a193bb6c)
0x5f8a193bb4d    45  a801           test al,0x1
0x5f8a193bb4f    47  0f840e000000   jz 67  (0x5f8a193bb63)
0x5f8a193bb55    53  488b40ff       REX.W movq rax,[rax-0x1]
0x5f8a193bb59    57  493b4508       REX.W cmpq rax,[r13+0x8]
0x5f8a193bb5d    61  0f8509000000   jnz 76  (0x5f8a193bb6c)
0x5f8a193bb63    67  488b4518       REX.W movq rax,[rbp+0x18]    ;; debug: position 4816
0x5f8a193bb67    71  e930000000     jmp 124  (0x5f8a193bb9c)
0x5f8a193bb6c    76  41ff75a8       push [r13-0x58]          ;; debug: position 4821
0x5f8a193bb70    80  488b4627       REX.W movq rax,[rsi+0x27]
0x5f8a193bb74    84  488b401f       REX.W movq rax,[rax+0x1f]
0x5f8a193bb78    88  488b80cf020000 REX.W movq rax,[rax+0x2cf]
0x5f8a193bb7f    95  ff3424         push [rsp]
0x5f8a193bb82    98  4889442408     REX.W movq [rsp+0x8],rax
0x5f8a193bb87   103  ff7518         push [rbp+0x18]          ;; debug: position 4843
0x5f8a193bb8a   106  488b7c2410     REX.W movq rdi,[rsp+0x10]    ;; debug: position 4821
0x5f8a193bb8f   111  e8cc3effff     call 0x5f8a192fa60       ;; code: STUB, CallFunctionStub, minor: 4
0x5f8a193bb94   116  488b75f8       REX.W movq rsi,[rbp-0x8]
0x5f8a193bb98   120  4883c408       REX.W addq rsp,0x8
0x5f8a193bb9c   124  488945e8       REX.W movq [rbp-0x18],rax    ;; debug: position 4784
0x5f8a193bba0   128  488b4510       REX.W movq rax,[rbp+0x10]    ;; debug: statement 4850
                                                             ;; debug: position 4862
0x5f8a193bba4   132  eb0f           jmp 149  (0x5f8a193bbb5)
0x5f8a193bba6   134  493b45c0       REX.W cmpq rax,[r13-0x40]
0x5f8a193bbaa   138  0f844f000000   jz 223  (0x5f8a193bbff)
0x5f8a193bbb0   144  e916000000     jmp 171  (0x5f8a193bbcb)
0x5f8a193bbb5   149  a801           test al,0x1
0x5f8a193bbb7   151  0f8442000000   jz 223  (0x5f8a193bbff)
0x5f8a193bbbd   157  488b40ff       REX.W movq rax,[rax-0x1]
0x5f8a193bbc1   161  493b4508       REX.W cmpq rax,[r13+0x8]
0x5f8a193bbc5   165  0f8434000000   jz 223  (0x5f8a193bbff)
0x5f8a193bbcb   171  41ff75a8       push [r13-0x58]          ;; debug: statement 4877
                                                             ;; debug: position 4878
0x5f8a193bbcf   175  488b4627       REX.W movq rax,[rsi+0x27]
0x5f8a193bbd3   179  488b401f       REX.W movq rax,[rax+0x1f]
0x5f8a193bbd7   183  488b80cf020000 REX.W movq rax,[rax+0x2cf]
0x5f8a193bbde   190  ff3424         push [rsp]
0x5f8a193bbe1   193  4889442408     REX.W movq [rsp+0x8],rax
0x5f8a193bbe6   198  ff7510         push [rbp+0x10]          ;; debug: position 4901
0x5f8a193bbe9   201  488b7c2410     REX.W movq rdi,[rsp+0x10]    ;; debug: position 4879
0x5f8a193bbee   206  e86d3effff     call 0x5f8a192fa60       ;; code: STUB, CallFunctionStub, minor: 4
0x5f8a193bbf3   211  488b75f8       REX.W movq rsi,[rbp-0x8]
0x5f8a193bbf7   215  4883c408       REX.W addq rsp,0x8
0x5f8a193bbfb   219  48894510       REX.W movq [rbp+0x10],rax    ;; debug: position 4878
0x5f8a193bbff   223  ff75e8         push [rbp-0x18]          ;; debug: statement 4905
                                                             ;; debug: position 4923
0x5f8a193bc02   226  ff7510         push [rbp+0x10]          ;; debug: position 4925
0x5f8a193bc05   229  b802000000     movl rax,0x2
0x5f8a193bc0a   234  48bb20d4880001000000 REX.W movq rbx,0x10088d420
0x5f8a193bc14   244  e807e0fcff     call 0x5f8a1909c20       ;; code: STUB, CEntryStub, minor: 0
0x5f8a193bc19   249  48bba9fa1e7367160000 REX.W movq rbx,0x1667731efaa9    ;; object: 0x1667731efaa9 Cell for 6144
0x5f8a193bc23   259  83430bff       addl [rbx+0xb],0xff
0x5f8a193bc27   263  791f           jns 296  (0x5f8a193bc48)
0x5f8a193bc29   265  50             push rax
0x5f8a193bc2a   266  e8b1aaffff     call InterruptCheck  (0x5f8a19366e0)    ;; code: BUILTIN
0x5f8a193bc2f   271  58             pop rax
0x5f8a193bc30   272  48bba9fa1e7367160000 REX.W movq rbx,0x1667731efaa9    ;; object: 0x1667731efaa9 Cell for 6144
0x5f8a193bc3a   282  49ba0000000000180000 REX.W movq r10,0x180000000000
0x5f8a193bc44   292  4c895307       REX.W movq [rbx+0x7],r10
0x5f8a193bc48   296  c9             leave                    ;; debug: statement 4929
0x5f8a193bc49   297  c21000         ret 0x10
0x5f8a193bc4c   300  498b45a8       REX.W movq rax,[r13-0x58]
0x5f8a193bc50   304  e9c4ffffff     jmp 249  (0x5f8a193bc19)
0x5f8a193bc55   309  0f1f00         nop

Deoptimization Output Data (deopt points = 0)

Back edges (size = 0)
ast_id  pc_offset  loop_depth

0x1667731efb09: [TypeFeedbackInfo]
 - ic_total_count: 0, ic_with_type_info_count: 0, ic_generic_count: 0

RelocInfo (size = 57)
0x5f8a193bb20  position  (4779)
0x5f8a193bb34  code target (BUILTIN)  (0x5f8a1936820)
0x5f8a193bb38  statement position  (4784)
0x5f8a193bb38  position  (4798)
0x5f8a193bb63  position  (4816)
0x5f8a193bb6c  position  (4821)
0x5f8a193bb87  position  (4843)
0x5f8a193bb8a  position  (4821)
0x5f8a193bb90  code target (STUB)  (0x5f8a192fa60)
0x5f8a193bb9c  position  (4784)
0x5f8a193bba0  statement position  (4850)
0x5f8a193bba0  position  (4862)
0x5f8a193bbcb  statement position  (4877)
0x5f8a193bbcb  position  (4878)
0x5f8a193bbe6  position  (4901)
0x5f8a193bbe9  position  (4879)
0x5f8a193bbef  code target (STUB)  (0x5f8a192fa60)
0x5f8a193bbfb  position  (4878)
0x5f8a193bbff  statement position  (4905)
0x5f8a193bbff  position  (4923)
0x5f8a193bc02  position  (4925)
0x5f8a193bc15  code target (STUB)  (0x5f8a1909c20)
0x5f8a193bc1b  embedded object  (0x1667731efaa9 Cell for 6144)
0x5f8a193bc2b  code target (BUILTIN)  (0x5f8a19366e0)
0x5f8a193bc32  embedded object  (0x1667731efaa9 Cell for 6144)
0x5f8a193bc48  statement position  (4929)

--- End code ---
--- Code ---
kind = HANDLER
major_key = <NoCache>Stub
name = LoadFastElementStub
compiler = crankshaft
Instructions (size = 200)
0x5f8a193bcc0     0  488b7a0f       REX.W movq rdi,[rdx+0xf]
0x5f8a193bcc4     4  448b421b       movl r8,[rdx+0x1b]
0x5f8a193bcc8     8  4c8bc9         REX.W movq r9,rcx
0x5f8a193bccb    11  41f6c101       testb r9,0x1
0x5f8a193bccf    15  0f851c000000   jnz 49  (0x5f8a193bcf1)
0x5f8a193bcd5    21  49c1e920       REX.W shrq r9, 32
0x5f8a193bcd9    25  453bc1         cmpl r8,r9
0x5f8a193bcdc    28  0f865b000000   jna 125  (0x5f8a193bd3d)
0x5f8a193bce2    34  428b44cf13     movl rax,[rdi+r9*8+0x13]
0x5f8a193bce7    39  8bd8           movl rbx,rax
0x5f8a193bce9    41  48c1e320       REX.W shlq rbx, 32
0x5f8a193bced    45  488bc3         REX.W movq rax,rbx
0x5f8a193bcf0    48  c3             ret
0x5f8a193bcf1    49  55             push rbp
0x5f8a193bcf2    50  ff75f8         push [rbp-0x8]
0x5f8a193bcf5    53  49ba0000000006000000 REX.W movq r10,0x600000000
0x5f8a193bcff    63  4152           push r10
0x5f8a193bd01    65  488d6c2410     REX.W leaq rbp,[rsp+0x10]
0x5f8a193bd06    70  4d8b5508       REX.W movq r10,[r13+0x8]
0x5f8a193bd0a    74  4d3951ff       REX.W cmpq [r9-0x1],r10
0x5f8a193bd0e    78  0f8538000000   jnz 140  (0x5f8a193bd4c)
0x5f8a193bd14    84  f2410f104107   movsd xmm0,[r9+0x7]
0x5f8a193bd1a    90  f2440f2cc8     cvttsd2sil r9,xmm0
0x5f8a193bd1f    95  0f57c9         xorps xmm1,xmm1
0x5f8a193bd22    98  f2410f2ac9     cvtsi2sd xmm1,r9
0x5f8a193bd27   103  660f2ec1       ucomisd xmm0,xmm1
0x5f8a193bd2b   107  0f851b000000   jnz 140  (0x5f8a193bd4c)
0x5f8a193bd31   113  0f8a15000000   jpe 140  (0x5f8a193bd4c)
0x5f8a193bd37   119  488be5         REX.W movq rsp,rbp
0x5f8a193bd3a   122  5d             pop rbp
0x5f8a193bd3b   123  eb9c           jmp 25  (0x5f8a193bcd9)
0x5f8a193bd3d   125  49ba006070a1f8050000 REX.W movq r10,0x5f8a1706000
0x5f8a193bd47   135  e805000000     call 145  (0x5f8a193bd51)
0x5f8a193bd4c   140  e8b9a2dcff     call 0x5f8a170600a       ;; lazy deoptimization bailout 1
0x5f8a193bd51   145  4883ec10       REX.W subq rsp,0x10
0x5f8a193bd55   149  ff742410       push [rsp+0x10]
0x5f8a193bd59   153  4152           push r10
0x5f8a193bd5b   155  4c8b55f8       REX.W movq r10,[rbp-0x8]
0x5f8a193bd5f   159  4c89542418     REX.W movq [rsp+0x18],r10
0x5f8a193bd64   164  48896c2420     REX.W movq [rsp+0x20],rbp
0x5f8a193bd69   169  488d6c2420     REX.W leaq rbp,[rsp+0x20]
0x5f8a193bd6e   174  49ba0000000006000000 REX.W movq r10,0x600000000
0x5f8a193bd78   184  4c89542410     REX.W movq [rsp+0x10],r10
0x5f8a193bd7d   189  c3             ret
0x5f8a193bd7e   190  6690           nop


Safepoints (size = 8)

RelocInfo (size = 4)
0x5f8a193bd4d  runtime entry

--- End code ---
--- Raw source ---
(u,v) {
  for (var i=0; i<u.length; ++i) {
    var t = 0;
    for (var j=0; j<u.length; ++j)
      t += A(j,i) * u[j];
    v[i] = t;
  }
}


--- Code ---
source_position = 329
kind = FUNCTION
name = Atu
compiler = full-codegen
Instructions (size = 780)
0x5f8a193bf60     0  55             push rbp                 ;; debug: position 329
0x5f8a193bf61     1  4889e5         REX.W movq rbp,rsp
0x5f8a193bf64     4  56             push rsi
0x5f8a193bf65     5  57             push rdi
0x5f8a193bf66     6  498b55a8       REX.W movq rdx,[r13-0x58]
0x5f8a193bf6a    10  52             push rdx
0x5f8a193bf6b    11  52             push rdx
0x5f8a193bf6c    12  52             push rdx
0x5f8a193bf6d    13  493ba540090000 REX.W cmpq rsp,[r13+0x940]
0x5f8a193bf74    20  7305           jnc 27  (0x5f8a193bf7b)
0x5f8a193bf76    22  e8a5a8ffff     call StackCheck  (0x5f8a1936820)    ;; code: BUILTIN
0x5f8a193bf7b    27  48b80000000000000000 REX.W movq rax,0x0    ;; debug: statement 339
                                                             ;; debug: statement 344
0x5f8a193bf85    37  488945e8       REX.W movq [rbp-0x18],rax
0x5f8a193bf89    41  e927020000     jmp 597  (0x5f8a193c1b5)
0x5f8a193bf8e    46  48b80000000000000000 REX.W movq rax,0x0    ;; debug: statement 376
0x5f8a193bf98    56  488945e0       REX.W movq [rbp-0x20],rax
0x5f8a193bf9c    60  48b80000000000000000 REX.W movq rax,0x0    ;; debug: statement 391
                                                             ;; debug: statement 396
0x5f8a193bfa6    70  488945d8       REX.W movq [rbp-0x28],rax
0x5f8a193bfaa    74  e931010000     jmp 384  (0x5f8a193c0e0)
0x5f8a193bfaf    79  488b45e0       REX.W movq rax,[rbp-0x20]    ;; debug: statement 428
                                                             ;; debug: position 428
0x5f8a193bfb3    83  50             push rax
0x5f8a193bfb4    84  48b971f0147367160000 REX.W movq rcx,0x16677314f071    ;; debug: position 433
                                                             ;; object: 0x16677314f071 <String[1]: A>
0x5f8a193bfbe    94  488b5627       REX.W movq rdx,[rsi+0x27]
0x5f8a193bfc2    98  48b8000000000a000000 REX.W movq rax,0xa00000000
0x5f8a193bfcc   108  e82f43feff     call 0x5f8a1920300       ;; code: contextual, LOAD_IC, DEFAULT
0x5f8a193bfd1   113  50             push rax
0x5f8a193bfd2   114  49ba8941107367160000 REX.W movq r10,0x166773104189    ;; object: 0x166773104189 <undefined>
0x5f8a193bfdc   124  4152           push r10
0x5f8a193bfde   126  ff75d8         push [rbp-0x28]          ;; debug: position 435
0x5f8a193bfe1   129  ff75e8         push [rbp-0x18]          ;; debug: position 437
0x5f8a193bfe4   132  48ba000000000e000000 REX.W movq rdx,0xe00000000    ;; debug: position 433
0x5f8a193bfee   142  488b7c2418     REX.W movq rdi,[rsp+0x18]
0x5f8a193bff3   147  e8c861fdff     call 0x5f8a19121c0       ;; code: CALL_IC, DEFAULT
0x5f8a193bff8   152  488b75f8       REX.W movq rsi,[rbp-0x8]
0x5f8a193bffc   156  48890424       REX.W movq [rsp],rax
0x5f8a193c000   160  ff7518         push [rbp+0x18]          ;; debug: position 442
0x5f8a193c003   163  488b45d8       REX.W movq rax,[rbp-0x28]    ;; debug: position 444
0x5f8a193c007   167  488bc8         REX.W movq rcx,rax
0x5f8a193c00a   170  5a             pop rdx
0x5f8a193c00b   171  48b80000000010000000 REX.W movq rax,0x1000000000    ;; debug: position 443
0x5f8a193c015   181  e8862fffff     call 0x5f8a192efa0       ;; code: KEYED_LOAD_IC, DEFAULT
0x5f8a193c01a   186  5a             pop rdx                  ;; debug: position 440
0x5f8a193c01b   187  488bc8         REX.W movq rcx,rax
0x5f8a193c01e   190  480bc2         REX.W orq rax,rdx
0x5f8a193c021   193  a801           test al,0x1
0x5f8a193c023   195  720c           jc 209  (0x5f8a193c031)
0x5f8a193c025   197  488bc1         REX.W movq rax,rcx
0x5f8a193c028   200  e8f34cfdff     call 0x5f8a1910d20       ;; code: BINARY_OP_IC, UNINITIALIZED (id = 157)
0x5f8a193c02d   205  a80a           test al,0xa
0x5f8a193c02f   207  eb22           jmp 243  (0x5f8a193c053)
0x5f8a193c031   209  488bc2         REX.W movq rax,rdx
0x5f8a193c034   212  48c1f820       REX.W sarq rax, 32
0x5f8a193c038   216  480fafc1       REX.W imulq rax,rcx
0x5f8a193c03c   220  0f80e3ffffff   jo 197  (0x5f8a193c025)
0x5f8a193c042   226  4885c0         REX.W testq rax,rax
0x5f8a193c045   229  750c           jnz 243  (0x5f8a193c053)
0x5f8a193c047   231  4c8bd2         REX.W movq r10,rdx
0x5f8a193c04a   234  4c33d1         REX.W xorq r10,rcx
0x5f8a193c04d   237  0f88d2ffffff   js 197  (0x5f8a193c025)
0x5f8a193c053   243  5a             pop rdx
0x5f8a193c054   244  488bc8         REX.W movq rcx,rax
0x5f8a193c057   247  480bc2         REX.W orq rax,rdx
0x5f8a193c05a   250  a801           test al,0x1
0x5f8a193c05c   252  720c           jc 266  (0x5f8a193c06a)
0x5f8a193c05e   254  488bc1         REX.W movq rax,rcx
0x5f8a193c061   257  e8da6cfdff     call 0x5f8a1912d40       ;; code: BINARY_OP_IC, UNINITIALIZED (id = 120)
0x5f8a193c066   262  a80a           test al,0xa
0x5f8a193c068   264  eb0c           jmp 278  (0x5f8a193c076)
0x5f8a193c06a   266  488bc2         REX.W movq rax,rdx
0x5f8a193c06d   269  4803c1         REX.W addq rax,rcx
0x5f8a193c070   272  0f80e8ffffff   jo 254  (0x5f8a193c05e)
0x5f8a193c076   278  488945e0       REX.W movq [rbp-0x20],rax    ;; debug: position 430
0x5f8a193c07a   282  488b45d8       REX.W movq rax,[rbp-0x28]    ;; debug: statement 419
0x5f8a193c07e   286  a801           test al,0x1
0x5f8a193c080   288  7314           jnc 310  (0x5f8a193c096)
0x5f8a193c082   290  49ba0000000001000000 REX.W movq r10,0x100000000
0x5f8a193c08c   300  4903c2         REX.W addq rax,r10
0x5f8a193c08f   303  711e           jno 335  (0x5f8a193c0af)
0x5f8a193c091   305  492bc2         REX.W subq rax,r10
0x5f8a193c094   308  eb05           jmp 315  (0x5f8a193c09b)
0x5f8a193c096   310  e845ebfeff     call 0x5f8a192abe0       ;; code: STUB, ToNumberStub, minor: 0
0x5f8a193c09b   315  488bd0         REX.W movq rdx,rax
0x5f8a193c09e   318  48b80000000001000000 REX.W movq rax,0x100000000
0x5f8a193c0a8   328  e8936cfdff     call 0x5f8a1912d40       ;; code: BINARY_OP_IC, UNINITIALIZED (id = 108)
0x5f8a193c0ad   333  a82d           test al,0x2d
0x5f8a193c0af   335  488945d8       REX.W movq [rbp-0x28],rax
0x5f8a193c0b3   339  48bb91fd1e7367160000 REX.W movq rbx,0x1667731efd91    ;; object: 0x1667731efd91 Cell for 6144
0x5f8a193c0bd   349  83430bff       addl [rbx+0xb],0xff
0x5f8a193c0c1   353  791d           jns 384  (0x5f8a193c0e0)
0x5f8a193c0c3   355  e818a6ffff     call InterruptCheck  (0x5f8a19366e0)    ;; code: BUILTIN
0x5f8a193c0c8   360  48bb91fd1e7367160000 REX.W movq rbx,0x1667731efd91    ;; object: 0x1667731efd91 Cell for 6144
0x5f8a193c0d2   370  49ba0000000000180000 REX.W movq r10,0x180000000000
0x5f8a193c0dc   380  4c895307       REX.W movq [rbx+0x7],r10
0x5f8a193c0e0   384  ff75d8         push [rbp-0x28]          ;; debug: statement 406
                                                             ;; debug: position 405
0x5f8a193c0e3   387  488b4518       REX.W movq rax,[rbp+0x18]    ;; debug: position 407
0x5f8a193c0e7   391  488bd0         REX.W movq rdx,rax
0x5f8a193c0ea   394  48b9712e197367160000 REX.W movq rcx,0x166773192e71    ;; debug: position 408
                                                             ;; object: 0x166773192e71 <String[6]: length>
0x5f8a193c0f4   404  48b80000000006000000 REX.W movq rax,0x600000000
0x5f8a193c0fe   414  e8fd41feff     call 0x5f8a1920300       ;; code: contextual, LOAD_IC, DEFAULT
0x5f8a193c103   419  5a             pop rdx
0x5f8a193c104   420  488bca         REX.W movq rcx,rdx
0x5f8a193c107   423  480bc8         REX.W orq rcx,rax
0x5f8a193c10a   426  f6c101         testb rcx,0x1
0x5f8a193c10d   429  730e           jnc 445  (0x5f8a193c11d)
0x5f8a193c10f   431  483bd0         REX.W cmpq rdx,rax
0x5f8a193c112   434  0f8c97feffff   jl 79  (0x5f8a193bfaf)
0x5f8a193c118   440  e921000000     jmp 478  (0x5f8a193c13e)
0x5f8a193c11d   445  e87ebafdff     call 0x5f8a1917ba0       ;; code: COMPARE_IC, UNINITIALIZED (id = 91)
0x5f8a193c122   450  a815           test al,0x15
0x5f8a193c124   452  eb0f           jmp 469  (0x5f8a193c135)
0x5f8a193c126   454  493b45c0       REX.W cmpq rax,[r13-0x40]
0x5f8a193c12a   458  0f847ffeffff   jz 79  (0x5f8a193bfaf)
0x5f8a193c130   464  e909000000     jmp 478  (0x5f8a193c13e)
0x5f8a193c135   469  4885c0         REX.W testq rax,rax
0x5f8a193c138   472  0f8c71feffff   jl 79  (0x5f8a193bfaf)
0x5f8a193c13e   478  ff7510         push [rbp+0x10]          ;; debug: statement 452
                                                             ;; debug: position 452
0x5f8a193c141   481  ff75e8         push [rbp-0x18]          ;; debug: position 454
0x5f8a193c144   484  488b45e0       REX.W movq rax,[rbp-0x20]    ;; debug: position 459
0x5f8a193c148   488  59             pop rcx                  ;; debug: position 457
0x5f8a193c149   489  5a             pop rdx
0x5f8a193c14a   490  e89184ffff     call KeyedStoreIC_Initialize  (0x5f8a19345e0)    ;; code: KEYED_STORE_IC, UNINITIALIZED (id = 184)
0x5f8a193c14f   495  488b45e8       REX.W movq rax,[rbp-0x18]    ;; debug: statement 367
0x5f8a193c153   499  a801           test al,0x1
0x5f8a193c155   501  7314           jnc 523  (0x5f8a193c16b)
0x5f8a193c157   503  49ba0000000001000000 REX.W movq r10,0x100000000
0x5f8a193c161   513  4903c2         REX.W addq rax,r10
0x5f8a193c164   516  711e           jno 548  (0x5f8a193c184)
0x5f8a193c166   518  492bc2         REX.W subq rax,r10
0x5f8a193c169   521  eb05           jmp 528  (0x5f8a193c170)
0x5f8a193c16b   523  e870eafeff     call 0x5f8a192abe0       ;; code: STUB, ToNumberStub, minor: 0
0x5f8a193c170   528  488bd0         REX.W movq rdx,rax
0x5f8a193c173   531  48b80000000001000000 REX.W movq rax,0x100000000
0x5f8a193c17d   541  e8be6bfdff     call 0x5f8a1912d40       ;; code: BINARY_OP_IC, UNINITIALIZED (id = 50)
0x5f8a193c182   546  a82d           test al,0x2d
0x5f8a193c184   548  488945e8       REX.W movq [rbp-0x18],rax
0x5f8a193c188   552  48bb91fd1e7367160000 REX.W movq rbx,0x1667731efd91    ;; object: 0x1667731efd91 Cell for 6144
0x5f8a193c192   562  83430bfe       addl [rbx+0xb],0xfe
0x5f8a193c196   566  791d           jns 597  (0x5f8a193c1b5)
0x5f8a193c198   568  e843a5ffff     call InterruptCheck  (0x5f8a19366e0)    ;; code: BUILTIN
0x5f8a193c19d   573  48bb91fd1e7367160000 REX.W movq rbx,0x1667731efd91    ;; object: 0x1667731efd91 Cell for 6144
0x5f8a193c1a7   583  49ba0000000000180000 REX.W movq r10,0x180000000000
0x5f8a193c1b1   593  4c895307       REX.W movq [rbx+0x7],r10
0x5f8a193c1b5   597  ff75e8         push [rbp-0x18]          ;; debug: statement 354
                                                             ;; debug: position 353
0x5f8a193c1b8   600  488b4518       REX.W movq rax,[rbp+0x18]    ;; debug: position 355
0x5f8a193c1bc   604  488bd0         REX.W movq rdx,rax
0x5f8a193c1bf   607  48b9712e197367160000 REX.W movq rcx,0x166773192e71    ;; debug: position 356
                                                             ;; object: 0x166773192e71 <String[6]: length>
0x5f8a193c1c9   617  48b80000000004000000 REX.W movq rax,0x400000000
0x5f8a193c1d3   627  e82841feff     call 0x5f8a1920300       ;; code: contextual, LOAD_IC, DEFAULT
0x5f8a193c1d8   632  5a             pop rdx
0x5f8a193c1d9   633  488bca         REX.W movq rcx,rdx
0x5f8a193c1dc   636  480bc8         REX.W orq rcx,rax
0x5f8a193c1df   639  f6c101         testb rcx,0x1
0x5f8a193c1e2   642  730e           jnc 658  (0x5f8a193c1f2)
0x5f8a193c1e4   644  483bd0         REX.W cmpq rdx,rax
0x5f8a193c1e7   647  0f8ca1fdffff   jl 46  (0x5f8a193bf8e)
0x5f8a193c1ed   653  e921000000     jmp 691  (0x5f8a193c213)
0x5f8a193c1f2   658  e8a9b9fdff     call 0x5f8a1917ba0       ;; code: COMPARE_IC, UNINITIALIZED (id = 33)
0x5f8a193c1f7   663  a815           test al,0x15
0x5f8a193c1f9   665  eb0f           jmp 682  (0x5f8a193c20a)
0x5f8a193c1fb   667  493b45c0       REX.W cmpq rax,[r13-0x40]
0x5f8a193c1ff   671  0f8489fdffff   jz 46  (0x5f8a193bf8e)
0x5f8a193c205   677  e909000000     jmp 691  (0x5f8a193c213)
0x5f8a193c20a   682  4885c0         REX.W testq rax,rax
0x5f8a193c20d   685  0f8c7bfdffff   jl 46  (0x5f8a193bf8e)
0x5f8a193c213   691  498b45a8       REX.W movq rax,[r13-0x58]
0x5f8a193c217   695  48bb91fd1e7367160000 REX.W movq rbx,0x1667731efd91    ;; object: 0x1667731efd91 Cell for 6144
0x5f8a193c221   705  83430bfc       addl [rbx+0xb],0xfc
0x5f8a193c225   709  791f           jns 742  (0x5f8a193c246)
0x5f8a193c227   711  50             push rax
0x5f8a193c228   712  e8b3a4ffff     call InterruptCheck  (0x5f8a19366e0)    ;; code: BUILTIN
0x5f8a193c22d   717  58             pop rax
0x5f8a193c22e   718  48bb91fd1e7367160000 REX.W movq rbx,0x1667731efd91    ;; object: 0x1667731efd91 Cell for 6144
0x5f8a193c238   728  49ba0000000000180000 REX.W movq r10,0x180000000000
0x5f8a193c242   738  4c895307       REX.W movq [rbx+0x7],r10
0x5f8a193c246   742  c9             leave                    ;; debug: statement 466
0x5f8a193c247   743  c21800         ret 0x18
0x5f8a193c24a   746  660f1f440000   nop

Deoptimization Output Data (deopt points = 0)

Back edges (size = 2)
ast_id  pc_offset  loop_depth
    73        360           2
    15        573           1

0x1667731efe41: [TypeFeedbackInfo]
 - ic_total_count: 12, ic_with_type_info_count: 0, ic_generic_count: 0

RelocInfo (size = 141)
0x5f8a193bf60  position  (329)
0x5f8a193bf77  code target (BUILTIN)  (0x5f8a1936820)
0x5f8a193bf7b  statement position  (339)
0x5f8a193bf7b  statement position  (344)
0x5f8a193bf8e  statement position  (376)
0x5f8a193bf9c  statement position  (391)
0x5f8a193bf9c  statement position  (396)
0x5f8a193bfaf  statement position  (428)
0x5f8a193bfaf  position  (428)
0x5f8a193bfb4  position  (433)
0x5f8a193bfb6  embedded object  (0x16677314f071 <String[1]: A>)
0x5f8a193bfcd  code target (LOAD_IC)  (0x5f8a1920300)
0x5f8a193bfd4  embedded object  (0x166773104189 <undefined>)
0x5f8a193bfde  position  (435)
0x5f8a193bfe1  position  (437)
0x5f8a193bfe4  position  (433)
0x5f8a193bff4  code target (CALL_IC)  (0x5f8a19121c0)
0x5f8a193c000  position  (442)
0x5f8a193c003  position  (444)
0x5f8a193c00b  position  (443)
0x5f8a193c016  code target (KEYED_LOAD_IC)  (0x5f8a192efa0)
0x5f8a193c01a  position  (440)
0x5f8a193c029  code target with id (BINARY_OP_IC)  (0x5f8a1910d20) (id=157)
0x5f8a193c062  code target with id (BINARY_OP_IC)  (0x5f8a1912d40) (id=120)
0x5f8a193c076  position  (430)
0x5f8a193c07a  statement position  (419)
0x5f8a193c097  code target (STUB)  (0x5f8a192abe0)
0x5f8a193c0a9  code target with id (BINARY_OP_IC)  (0x5f8a1912d40) (id=108)
0x5f8a193c0b5  embedded object  (0x1667731efd91 Cell for 6144)
0x5f8a193c0c4  code target (BUILTIN)  (0x5f8a19366e0)
0x5f8a193c0ca  embedded object  (0x1667731efd91 Cell for 6144)
0x5f8a193c0e0  statement position  (406)
0x5f8a193c0e0  position  (405)
0x5f8a193c0e3  position  (407)
0x5f8a193c0ea  position  (408)
0x5f8a193c0ec  embedded object  (0x166773192e71 <String[6]: length>)
0x5f8a193c0ff  code target (LOAD_IC)  (0x5f8a1920300)
0x5f8a193c11e  code target with id (COMPARE_IC)  (0x5f8a1917ba0) (id=91)
0x5f8a193c13e  statement position  (452)
0x5f8a193c13e  position  (452)
0x5f8a193c141  position  (454)
0x5f8a193c144  position  (459)
0x5f8a193c148  position  (457)
0x5f8a193c14b  code target with id (KEYED_STORE_IC)  (0x5f8a19345e0) (id=184)
0x5f8a193c14f  statement position  (367)
0x5f8a193c16c  code target (STUB)  (0x5f8a192abe0)
0x5f8a193c17e  code target with id (BINARY_OP_IC)  (0x5f8a1912d40) (id=50)
0x5f8a193c18a  embedded object  (0x1667731efd91 Cell for 6144)
0x5f8a193c199  code target (BUILTIN)  (0x5f8a19366e0)
0x5f8a193c19f  embedded object  (0x1667731efd91 Cell for 6144)
0x5f8a193c1b5  statement position  (354)
0x5f8a193c1b5  position  (353)
0x5f8a193c1b8  position  (355)
0x5f8a193c1bf  position  (356)
0x5f8a193c1c1  embedded object  (0x166773192e71 <String[6]: length>)
0x5f8a193c1d4  code target (LOAD_IC)  (0x5f8a1920300)
0x5f8a193c1f3  code target with id (COMPARE_IC)  (0x5f8a1917ba0) (id=33)
0x5f8a193c219  embedded object  (0x1667731efd91 Cell for 6144)
0x5f8a193c229  code target (BUILTIN)  (0x5f8a19366e0)
0x5f8a193c230  embedded object  (0x1667731efd91 Cell for 6144)
0x5f8a193c246  statement position  (466)

--- End code ---
--- Code ---
kind = HANDLER
major_key = <NoCache>Stub
name = LoadFastElementStub
compiler = crankshaft
Instructions (size = 374)
0x5f8a193c2e0     0  488b7a0f       REX.W movq rdi,[rdx+0xf]
0x5f8a193c2e4     4  448b421b       movl r8,[rdx+0x1b]
0x5f8a193c2e8     8  4c8bc9         REX.W movq r9,rcx
0x5f8a193c2eb    11  41f6c101       testb r9,0x1
0x5f8a193c2ef    15  0f8550000000   jnz 101  (0x5f8a193c345)
0x5f8a193c2f5    21  49c1e920       REX.W shrq r9, 32
0x5f8a193c2f9    25  453bc1         cmpl r8,r9
0x5f8a193c2fc    28  0f8600010000   jna 290  (0x5f8a193c402)
0x5f8a193c302    34  f2420f104ccf0f movsd xmm1,[rdi+r9*8+0xf]
0x5f8a193c309    41  498b9d400c0000 REX.W movq rbx,[r13+0xc40]
0x5f8a193c310    48  488bc3         REX.W movq rax,rbx
0x5f8a193c313    51  4883c010       REX.W addq rax,0x10
0x5f8a193c317    55  0f8277000000   jc 180  (0x5f8a193c394)
0x5f8a193c31d    61  493b85480c0000 REX.W cmpq rax,[r13+0xc48]
0x5f8a193c324    68  0f876a000000   ja 180  (0x5f8a193c394)
0x5f8a193c32a    74  498985400c0000 REX.W movq [r13+0xc40],rax
0x5f8a193c331    81  48ffc3         REX.W incq rbx
0x5f8a193c334    84  4d8b5508       REX.W movq r10,[r13+0x8]
0x5f8a193c338    88  4c8953ff       REX.W movq [rbx-0x1],r10
0x5f8a193c33c    92  f20f114b07     movsd [rbx+0x7],xmm1
0x5f8a193c341    97  488bc3         REX.W movq rax,rbx
0x5f8a193c344   100  c3             ret
0x5f8a193c345   101  55             push rbp
0x5f8a193c346   102  ff75f8         push [rbp-0x8]
0x5f8a193c349   105  49ba0000000006000000 REX.W movq r10,0x600000000
0x5f8a193c353   115  4152           push r10
0x5f8a193c355   117  488d6c2410     REX.W leaq rbp,[rsp+0x10]
0x5f8a193c35a   122  4d8b5508       REX.W movq r10,[r13+0x8]
0x5f8a193c35e   126  4d3951ff       REX.W cmpq [r9-0x1],r10
0x5f8a193c362   130  0f85a9000000   jnz 305  (0x5f8a193c411)
0x5f8a193c368   136  f2410f104107   movsd xmm0,[r9+0x7]
0x5f8a193c36e   142  f2440f2cc8     cvttsd2sil r9,xmm0
0x5f8a193c373   147  0f57c9         xorps xmm1,xmm1
0x5f8a193c376   150  f2410f2ac9     cvtsi2sd xmm1,r9
0x5f8a193c37b   155  660f2ec1       ucomisd xmm0,xmm1
0x5f8a193c37f   159  0f858c000000   jnz 305  (0x5f8a193c411)
0x5f8a193c385   165  0f8a86000000   jpe 305  (0x5f8a193c411)
0x5f8a193c38b   171  488be5         REX.W movq rsp,rbp
0x5f8a193c38e   174  5d             pop rbp
0x5f8a193c38f   175  e965ffffff     jmp 25  (0x5f8a193c2f9)
0x5f8a193c394   180  55             push rbp
0x5f8a193c395   181  ff75f8         push [rbp-0x8]
0x5f8a193c398   184  49ba0000000006000000 REX.W movq r10,0x600000000
0x5f8a193c3a2   194  4152           push r10
0x5f8a193c3a4   196  488d6c2410     REX.W leaq rbp,[rsp+0x10]
0x5f8a193c3a9   201  48bb0000000000000000 REX.W movq rbx,0x0
0x5f8a193c3b3   211  50             push rax
0x5f8a193c3b4   212  51             push rcx
0x5f8a193c3b5   213  52             push rdx
0x5f8a193c3b6   214  53             push rbx
0x5f8a193c3b7   215  56             push rsi
0x5f8a193c3b8   216  57             push rdi
0x5f8a193c3b9   217  4150           push r8
0x5f8a193c3bb   219  4151           push r9
0x5f8a193c3bd   221  4153           push r11
0x5f8a193c3bf   223  4154           push r12
0x5f8a193c3c1   225  4156           push r14
0x5f8a193c3c3   227  4157           push r15
0x5f8a193c3c5   229  488d6424e0     REX.W leaq rsp,[rsp-0x20]
0x5f8a193c3ca   234  488b75f8       REX.W movq rsi,[rbp-0x8]
0x5f8a193c3ce   238  33c0           xorl rax,rax
0x5f8a193c3d0   240  498d9d982988fd REX.W leaq rbx,[r13-0x277d668]
0x5f8a193c3d7   247  e8a49efcff     call 0x5f8a1906280       ;; code: STUB, CEntryStub, minor: 1
0x5f8a193c3dc   252  4c8bd0         REX.W movq r10,rax
0x5f8a193c3df   255  488d642420     REX.W leaq rsp,[rsp+0x20]
0x5f8a193c3e4   260  415f           pop r15
0x5f8a193c3e6   262  415e           pop r14
0x5f8a193c3e8   264  415c           pop r12
0x5f8a193c3ea   266  415b           pop r11
0x5f8a193c3ec   268  4159           pop r9
0x5f8a193c3ee   270  4158           pop r8
0x5f8a193c3f0   272  5f             pop rdi
0x5f8a193c3f1   273  5e             pop rsi
0x5f8a193c3f2   274  5b             pop rbx
0x5f8a193c3f3   275  5a             pop rdx
0x5f8a193c3f4   276  59             pop rcx
0x5f8a193c3f5   277  58             pop rax
0x5f8a193c3f6   278  498bda         REX.W movq rbx,r10
0x5f8a193c3f9   281  488be5         REX.W movq rsp,rbp
0x5f8a193c3fc   284  5d             pop rbp
0x5f8a193c3fd   285  e93affffff     jmp 92  (0x5f8a193c33c)
0x5f8a193c402   290  49ba006070a1f8050000 REX.W movq r10,0x5f8a1706000
0x5f8a193c40c   300  e805000000     call 310  (0x5f8a193c416)
0x5f8a193c411   305  e8f49bdcff     call 0x5f8a170600a       ;; lazy deoptimization bailout 1
0x5f8a193c416   310  4883ec10       REX.W subq rsp,0x10
0x5f8a193c41a   314  ff742410       push [rsp+0x10]
0x5f8a193c41e   318  4152           push r10
0x5f8a193c420   320  4c8b55f8       REX.W movq r10,[rbp-0x8]
0x5f8a193c424   324  4c89542418     REX.W movq [rsp+0x18],r10
0x5f8a193c429   329  48896c2420     REX.W movq [rsp+0x20],rbp
0x5f8a193c42e   334  488d6c2420     REX.W leaq rbp,[rsp+0x20]
0x5f8a193c433   339  49ba0000000006000000 REX.W movq r10,0x600000000
0x5f8a193c43d   349  4c89542410     REX.W movq [rsp+0x10],r10
0x5f8a193c442   354  c3             ret
0x5f8a193c443   355  90             nop


Safepoints (size = 18)
0x5f8a193c3dc   252  00000000 | rbx | rsi (sp -> fp)  <none>

RelocInfo (size = 5)
0x5f8a193c3d8  code target (STUB)  (0x5f8a1906280)
0x5f8a193c412  runtime entry

--- End code ---
--- Code ---
kind = HANDLER
major_key = <NoCache>Stub
name = ElementsTransitionAndStoreStub
compiler = crankshaft
Instructions (size = 675)
0x5f8a193dc20     0  55             push rbp
0x5f8a193dc21     1  4889e5         REX.W movq rbp,rsp
0x5f8a193dc24     4  56             push rsi
0x5f8a193dc25     5  49ba0000000006000000 REX.W movq r10,0x600000000
0x5f8a193dc2f    15  4152           push r10
0x5f8a193dc31    17  4883ec08       REX.W subq rsp,0x8
0x5f8a193dc35    21  f20f110c24     movsd [rsp],xmm1
0x5f8a193dc3a    26  488d7a2f       REX.W leaq rdi,[rdx+0x2f]
0x5f8a193dc3e    30  49ba00000004bf180000 REX.W movq r10,0x18bf04000000
0x5f8a193dc48    40  493bfa         REX.W cmpq rdi,r10
0x5f8a193dc4b    43  0f8c1e000000   jl 79  (0x5f8a193dc6f)
0x5f8a193dc51    49  493bbd400c0000 REX.W cmpq rdi,[r13+0xc40]
0x5f8a193dc58    56  0f8f11000000   jg 79  (0x5f8a193dc6f)
0x5f8a193dc5e    62  4d8b95f0080000 REX.W movq r10,[r13+0x8f0]
0x5f8a193dc65    69  4c3957f0       REX.W cmpq [rdi-0x10],r10
0x5f8a193dc69    73  0f840d020000   jz 604  (0x5f8a193de7c)
0x5f8a193dc6f    79  488b7a0f       REX.W movq rdi,[rdx+0xf]
0x5f8a193dc73    83  49ba3941107367160000 REX.W movq r10,0x166773104139    ;; object: 0x166773104139 <FixedArray[0]>
0x5f8a193dc7d    93  493bfa         REX.W cmpq rdi,r10
0x5f8a193dc80    96  0f84cc000000   jz 306  (0x5f8a193dd52)
0x5f8a193dc86   102  448b470b       movl r8,[rdi+0xb]
0x5f8a193dc8a   106  448b4a1b       movl r9,[rdx+0x1b]
0x5f8a193dc8e   110  4181f8def70100 cmpl r8,0x1f7de
0x5f8a193dc95   117  0f83eb010000   jnc 614  (0x5f8a193de86)
0x5f8a193dc9b   123  458bd8         movl r11,r8
0x5f8a193dc9e   126  49c1e320       REX.W shlq r11, 32
0x5f8a193dca2   130  41c1e003       shll r8, 3
0x5f8a193dca6   134  4183c010       addl r8,0x10
0x5f8a193dcaa   138  4d8bb5400c0000 REX.W movq r14,[r13+0xc40]
0x5f8a193dcb1   145  4d8be0         REX.W movq r12,r8
0x5f8a193dcb4   148  4d03e6         REX.W addq r12,r14
0x5f8a193dcb7   151  0f822e010000   jc 459  (0x5f8a193ddeb)
0x5f8a193dcbd   157  4d3ba5480c0000 REX.W cmpq r12,[r13+0xc48]
0x5f8a193dcc4   164  0f8721010000   ja 459  (0x5f8a193ddeb)
0x5f8a193dcca   170  4d89a5400c0000 REX.W movq [r13+0xc40],r12
0x5f8a193dcd1   177  4983c601       REX.W addq r14,0x1
0x5f8a193dcd5   181  49baa94be0de942f0000 REX.W movq r10,0x2f94dee04ba9    ;; object: 0x2f94dee04ba9 <Map(FAST_HOLEY_ELEMENTS)>
0x5f8a193dcdf   191  4d8956ff       REX.W movq [r14-0x1],r10
0x5f8a193dce3   195  4d895e07       REX.W movq [r14+0x7],r11
0x5f8a193dce7   199  49bafffff7fffffff7ff REX.W movq r10,0xfff7fffffff7ffff
0x5f8a193dcf1   209  66490f6eca     REX.W movq xmm1,r10
0x5f8a193dcf6   214  458b460b       movl r8,[r14+0xb]
0x5f8a193dcfa   218  453bc1         cmpl r8,r9
0x5f8a193dcfd   221  0f8e0d000000   jle 240  (0x5f8a193dd10)
0x5f8a193dd03   227  4183e801       subl r8,0x1
0x5f8a193dd07   231  f2430f114cc60f movsd [r14+r8*8+0xf],xmm1
0x5f8a193dd0e   238  ebea           jmp 218  (0x5f8a193dcfa)
0x5f8a193dd10   240  4183f900       cmpl r9,0x0
0x5f8a193dd14   244  0f8e1a000000   jle 276  (0x5f8a193dd34)
0x5f8a193dd1a   250  4183e901       subl r9,0x1
0x5f8a193dd1e   254  468b44cf13     movl r8,[rdi+r9*8+0x13]
0x5f8a193dd23   259  0f57c9         xorps xmm1,xmm1
0x5f8a193dd26   262  f2410f2ac8     cvtsi2sd xmm1,r8
0x5f8a193dd2b   267  f2430f114cce0f movsd [r14+r9*8+0xf],xmm1
0x5f8a193dd32   274  ebdc           jmp 240  (0x5f8a193dd10)
0x5f8a193dd34   276  4c89720f       REX.W movq [rdx+0xf],r14
0x5f8a193dd38   280  488d7a0f       REX.W leaq rdi,[rdx+0xf]
0x5f8a193dd3c   284  49c7c60000f0ff REX.W movq r14,0xfff00000
0x5f8a193dd43   291  4c23f2         REX.W andq r14,rdx
0x5f8a193dd46   294  41f6460808     testb [r14+0x8],0x8
0x5f8a193dd4b   299  7405           jz 306  (0x5f8a193dd52)
0x5f8a193dd4d   301  e8aee9ffff     call 0x5f8a193c700       ;; code: STUB, RecordWriteStub, minor: 10210
0x5f8a193dd52   306  488bfb         REX.W movq rdi,rbx
0x5f8a193dd55   309  48897aff       REX.W movq [rdx-0x1],rdi
0x5f8a193dd59   313  40f6c701       testb rdi,0x1
0x5f8a193dd5d   317  0f8426000000   jz 361  (0x5f8a193dd89)
0x5f8a193dd63   323  4c8d42ff       REX.W leaq r8,[rdx-0x1]
0x5f8a193dd67   327  4881e70000f0ff REX.W andq rdi,0xfffffffffff00000
0x5f8a193dd6e   334  f6470804       testb [rdi+0x8],0x4
0x5f8a193dd72   338  7415           jz 361  (0x5f8a193dd89)
0x5f8a193dd74   340  48c7c70000f0ff REX.W movq rdi,0xfff00000
0x5f8a193dd7b   347  4823fa         REX.W andq rdi,rdx
0x5f8a193dd7e   350  f6470808       testb [rdi+0x8],0x8
0x5f8a193dd82   354  7405           jz 361  (0x5f8a193dd89)
0x5f8a193dd84   356  e817f4ffff     call 0x5f8a193d1a0       ;; code: STUB, RecordWriteStub, minor: 10354
0x5f8a193dd89   361  488b7a0f       REX.W movq rdi,[rdx+0xf]
0x5f8a193dd8d   365  448b421b       movl r8,[rdx+0x1b]
0x5f8a193dd91   369  4c8bca         REX.W movq r9,rdx
0x5f8a193dd94   372  41f6c101       testb r9,0x1
0x5f8a193dd98   376  0f85a8000000   jnz 550  (0x5f8a193de46)
0x5f8a193dd9e   382  49c1e920       REX.W shrq r9, 32
0x5f8a193dda2   386  453bc1         cmpl r8,r9
0x5f8a193dda5   389  0f86e5000000   jna 624  (0x5f8a193de90)
0x5f8a193ddab   395  a801           test al,0x1
0x5f8a193ddad   397  7415           jz 420  (0x5f8a193ddc4)
0x5f8a193ddaf   399  4d8b5508       REX.W movq r10,[r13+0x8]
0x5f8a193ddb3   403  4c3950ff       REX.W cmpq [rax-0x1],r10
0x5f8a193ddb7   407  f20f104807     movsd xmm1,[rax+0x7]
0x5f8a193ddbc   412  0f85d8000000   jnz 634  (0x5f8a193de9a)
0x5f8a193ddc2   418  eb0f           jmp 435  (0x5f8a193ddd3)
0x5f8a193ddc4   420  4c8bd0         REX.W movq r10,rax
0x5f8a193ddc7   423  49c1ea20       REX.W shrq r10, 32
0x5f8a193ddcb   427  0f57c9         xorps xmm1,xmm1
0x5f8a193ddce   430  f2410f2aca     cvtsi2sd xmm1,r10
0x5f8a193ddd3   435  0f57c0         xorps xmm0,xmm0
0x5f8a193ddd6   438  f20f5cc8       subsd xmm1,xmm0
0x5f8a193ddda   442  f2420f114ccf0f movsd [rdi+r9*8+0xf],xmm1
0x5f8a193dde1   449  f20f100c24     movsd xmm1,[rsp]
0x5f8a193dde6   454  488be5         REX.W movq rsp,rbp
0x5f8a193dde9   457  5d             pop rbp
0x5f8a193ddea   458  c3             ret
0x5f8a193ddeb   459  49be0000000000000000 REX.W movq r14,0x0
0x5f8a193ddf5   469  50             push rax
0x5f8a193ddf6   470  51             push rcx
0x5f8a193ddf7   471  52             push rdx
0x5f8a193ddf8   472  53             push rbx
0x5f8a193ddf9   473  56             push rsi
0x5f8a193ddfa   474  57             push rdi
0x5f8a193ddfb   475  4150           push r8
0x5f8a193ddfd   477  4151           push r9
0x5f8a193ddff   479  4153           push r11
0x5f8a193de01   481  4154           push r12
0x5f8a193de03   483  4156           push r14
0x5f8a193de05   485  4157           push r15
0x5f8a193de07   487  488d6424e0     REX.W leaq rsp,[rsp-0x20]
0x5f8a193de0c   492  49c1e020       REX.W shlq r8, 32
0x5f8a193de10   496  4150           push r8
0x5f8a193de12   498  6a00           push 0x0
0x5f8a193de14   500  b802000000     movl rax,0x2
0x5f8a193de19   505  498d9df86f86fd REX.W leaq rbx,[r13-0x2799008]
0x5f8a193de20   512  e85b84fcff     call 0x5f8a1906280       ;; code: STUB, CEntryStub, minor: 1
0x5f8a193de25   517  4889442428     REX.W movq [rsp+0x28],rax
0x5f8a193de2a   522  488d642420     REX.W leaq rsp,[rsp+0x20]
0x5f8a193de2f   527  415f           pop r15
0x5f8a193de31   529  415e           pop r14
0x5f8a193de33   531  415c           pop r12
0x5f8a193de35   533  415b           pop r11
0x5f8a193de37   535  4159           pop r9
0x5f8a193de39   537  4158           pop r8
0x5f8a193de3b   539  5f             pop rdi
0x5f8a193de3c   540  5e             pop rsi
0x5f8a193de3d   541  5b             pop rbx
0x5f8a193de3e   542  5a             pop rdx
0x5f8a193de3f   543  59             pop rcx
0x5f8a193de40   544  58             pop rax
0x5f8a193de41   545  e98ffeffff     jmp 181  (0x5f8a193dcd5)
0x5f8a193de46   550  4d8b5508       REX.W movq r10,[r13+0x8]
0x5f8a193de4a   554  4d3951ff       REX.W cmpq [r9-0x1],r10
0x5f8a193de4e   558  0f8550000000   jnz 644  (0x5f8a193dea4)
0x5f8a193de54   564  f2410f104107   movsd xmm0,[r9+0x7]
0x5f8a193de5a   570  f2440f2cc8     cvttsd2sil r9,xmm0
0x5f8a193de5f   575  0f57c9         xorps xmm1,xmm1
0x5f8a193de62   578  f2410f2ac9     cvtsi2sd xmm1,r9
0x5f8a193de67   583  660f2ec1       ucomisd xmm0,xmm1
0x5f8a193de6b   587  0f8533000000   jnz 644  (0x5f8a193dea4)
0x5f8a193de71   593  0f8a2d000000   jpe 644  (0x5f8a193dea4)
0x5f8a193de77   599  e926ffffff     jmp 386  (0x5f8a193dda2)
0x5f8a193de7c   604  f20f100c24     movsd xmm1,[rsp]
0x5f8a193de81   609  e87a81dcff     call 0x5f8a1706000       ;; lazy deoptimization bailout 0
0x5f8a193de86   614  f20f100c24     movsd xmm1,[rsp]
0x5f8a193de8b   619  e87a81dcff     call 0x5f8a170600a       ;; lazy deoptimization bailout 1
0x5f8a193de90   624  f20f100c24     movsd xmm1,[rsp]
0x5f8a193de95   629  e87a81dcff     call 0x5f8a1706014       ;; lazy deoptimization bailout 2
0x5f8a193de9a   634  f20f100c24     movsd xmm1,[rsp]
0x5f8a193de9f   639  e87a81dcff     call 0x5f8a170601e       ;; lazy deoptimization bailout 3
0x5f8a193dea4   644  f20f100c24     movsd xmm1,[rsp]
0x5f8a193dea9   649  e87a81dcff     call 0x5f8a1706028       ;; lazy deoptimization bailout 4
0x5f8a193deae   654  6690           nop


Safepoints (size = 19)
0x5f8a193de25   517  0 | rax | rcx | rdx | rbx | rsi | rdi | r14 (sp -> fp)  <none> argc: 2

RelocInfo (size = 25)
0x5f8a193dc75  embedded object  (0x166773104139 <FixedArray[0]>)
0x5f8a193dcd7  embedded object  (0x2f94dee04ba9 <Map(FAST_HOLEY_ELEMENTS)>)
0x5f8a193dd4e  code target (STUB)  (0x5f8a193c700)
0x5f8a193dd85  code target (STUB)  (0x5f8a193d1a0)
0x5f8a193de21  code target (STUB)  (0x5f8a1906280)
0x5f8a193de82  runtime entry
0x5f8a193de8c  runtime entry
0x5f8a193de96  runtime entry
0x5f8a193dea0  runtime entry
0x5f8a193deaa  runtime entry

--- End code ---
--- Raw source ---
(i,j) {
  return 1/((i+j)*(i+j+1)/2+i+1);
}


--- Code ---
source_position = 121
kind = FUNCTION
name = A
compiler = full-codegen
Instructions (size = 212)
0x5f8a193e000     0  55             push rbp                 ;; debug: position 121
0x5f8a193e001     1  4889e5         REX.W movq rbp,rsp
0x5f8a193e004     4  56             push rsi
0x5f8a193e005     5  57             push rdi
0x5f8a193e006     6  493ba540090000 REX.W cmpq rsp,[r13+0x940]
0x5f8a193e00d    13  7305           jnc 20  (0x5f8a193e014)
0x5f8a193e00f    15  e80c88ffff     call StackCheck  (0x5f8a1936820)    ;; code: BUILTIN
0x5f8a193e014    20  49ba0000000001000000 REX.W movq r10,0x100000000    ;; debug: statement 131
0x5f8a193e01e    30  4152           push r10
0x5f8a193e020    32  ff7518         push [rbp+0x18]          ;; debug: position 142
0x5f8a193e023    35  488b4510       REX.W movq rax,[rbp+0x10]    ;; debug: position 144
0x5f8a193e027    39  5a             pop rdx                  ;; debug: position 143
0x5f8a193e028    40  e8134dfdff     call 0x5f8a1912d40       ;; code: BINARY_OP_IC, UNINITIALIZED (id = 30)
0x5f8a193e02d    45  90             nop
0x5f8a193e02e    46  50             push rax
0x5f8a193e02f    47  ff7518         push [rbp+0x18]          ;; debug: position 148
0x5f8a193e032    50  488b4510       REX.W movq rax,[rbp+0x10]    ;; debug: position 150
0x5f8a193e036    54  5a             pop rdx                  ;; debug: position 149
0x5f8a193e037    55  e8044dfdff     call 0x5f8a1912d40       ;; code: BINARY_OP_IC, UNINITIALIZED (id = 44)
0x5f8a193e03c    60  90             nop
0x5f8a193e03d    61  50             push rax
0x5f8a193e03e    62  48b80000000001000000 REX.W movq rax,0x100000000
0x5f8a193e048    72  5a             pop rdx                  ;; debug: position 151
0x5f8a193e049    73  e8f24cfdff     call 0x5f8a1912d40       ;; code: BINARY_OP_IC, UNINITIALIZED (id = 40)
0x5f8a193e04e    78  90             nop
0x5f8a193e04f    79  5a             pop rdx                  ;; debug: position 146
0x5f8a193e050    80  e8cb2cfdff     call 0x5f8a1910d20       ;; code: BINARY_OP_IC, UNINITIALIZED (id = 26)
0x5f8a193e055    85  90             nop
0x5f8a193e056    86  50             push rax
0x5f8a193e057    87  48b80000000002000000 REX.W movq rax,0x200000000
0x5f8a193e061    97  5a             pop rdx                  ;; debug: position 154
0x5f8a193e062    98  e83933fdff     call 0x5f8a19113a0       ;; code: BINARY_OP_IC, UNINITIALIZED (id = 22)
0x5f8a193e067   103  90             nop
0x5f8a193e068   104  50             push rax
0x5f8a193e069   105  488b4518       REX.W movq rax,[rbp+0x18]    ;; debug: position 157
0x5f8a193e06d   109  5a             pop rdx                  ;; debug: position 156
0x5f8a193e06e   110  e8cd4cfdff     call 0x5f8a1912d40       ;; code: BINARY_OP_IC, UNINITIALIZED (id = 18)
0x5f8a193e073   115  90             nop
0x5f8a193e074   116  50             push rax
0x5f8a193e075   117  48b80000000001000000 REX.W movq rax,0x100000000
0x5f8a193e07f   127  5a             pop rdx                  ;; debug: position 158
0x5f8a193e080   128  e8bb4cfdff     call 0x5f8a1912d40       ;; code: BINARY_OP_IC, UNINITIALIZED (id = 14)
0x5f8a193e085   133  90             nop
0x5f8a193e086   134  5a             pop rdx                  ;; debug: position 139
0x5f8a193e087   135  e81433fdff     call 0x5f8a19113a0       ;; code: BINARY_OP_IC, UNINITIALIZED (id = 7)
0x5f8a193e08c   140  90             nop
0x5f8a193e08d   141  48bb89021f7367160000 REX.W movq rbx,0x1667731f0289    ;; object: 0x1667731f0289 Cell for 6144
0x5f8a193e097   151  83430bd1       addl [rbx+0xb],0xd1
0x5f8a193e09b   155  791f           jns 188  (0x5f8a193e0bc)
0x5f8a193e09d   157  50             push rax
0x5f8a193e09e   158  e83d86ffff     call InterruptCheck  (0x5f8a19366e0)    ;; code: BUILTIN
0x5f8a193e0a3   163  58             pop rax
0x5f8a193e0a4   164  48bb89021f7367160000 REX.W movq rbx,0x1667731f0289    ;; object: 0x1667731f0289 Cell for 6144
0x5f8a193e0ae   174  49ba0000000000180000 REX.W movq r10,0x180000000000
0x5f8a193e0b8   184  4c895307       REX.W movq [rbx+0x7],r10
0x5f8a193e0bc   188  c9             leave                    ;; debug: statement 163
0x5f8a193e0bd   189  c21800         ret 0x18
0x5f8a193e0c0   192  498b45a8       REX.W movq rax,[r13-0x58]
0x5f8a193e0c4   196  e9c4ffffff     jmp 141  (0x5f8a193e08d)
0x5f8a193e0c9   201  0f1f8000000000 nop

Deoptimization Output Data (deopt points = 24)
ast id        pc  state
     2         6  NO_REGISTERS
     3         6  NO_REGISTERS
     8        32  NO_REGISTERS
    33        32  NO_REGISTERS
    31        35  NO_REGISTERS
    36        35  NO_REGISTERS
    34        39  TOS_REG
    27        47  NO_REGISTERS
    47        47  NO_REGISTERS
    45        50  NO_REGISTERS
    50        50  NO_REGISTERS
    48        54  TOS_REG
    41        62  NO_REGISTERS
    51        72  TOS_REG
    37        79  TOS_REG
    23        87  NO_REGISTERS
    54        97  TOS_REG
    19       105  NO_REGISTERS
    59       105  NO_REGISTERS
    57       109  TOS_REG
    15       117  NO_REGISTERS
    60       127  TOS_REG
    11       134  TOS_REG
     4       141  TOS_REG

Back edges (size = 0)
ast_id  pc_offset  loop_depth

0x1667731f0471: [TypeFeedbackInfo]
 - ic_total_count: 8, ic_with_type_info_count: 0, ic_generic_count: 0

RelocInfo (size = 56)
0x5f8a193e000  position  (121)
0x5f8a193e010  code target (BUILTIN)  (0x5f8a1936820)
0x5f8a193e014  statement position  (131)
0x5f8a193e020  position  (142)
0x5f8a193e023  position  (144)
0x5f8a193e027  position  (143)
0x5f8a193e029  code target with id (BINARY_OP_IC)  (0x5f8a1912d40) (id=30)
0x5f8a193e02f  position  (148)
0x5f8a193e032  position  (150)
0x5f8a193e036  position  (149)
0x5f8a193e038  code target with id (BINARY_OP_IC)  (0x5f8a1912d40) (id=44)
0x5f8a193e048  position  (151)
0x5f8a193e04a  code target with id (BINARY_OP_IC)  (0x5f8a1912d40) (id=40)
0x5f8a193e04f  position  (146)
0x5f8a193e051  code target with id (BINARY_OP_IC)  (0x5f8a1910d20) (id=26)
0x5f8a193e061  position  (154)
0x5f8a193e063  code target with id (BINARY_OP_IC)  (0x5f8a19113a0) (id=22)
0x5f8a193e069  position  (157)
0x5f8a193e06d  position  (156)
0x5f8a193e06f  code target with id (BINARY_OP_IC)  (0x5f8a1912d40) (id=18)
0x5f8a193e07f  position  (158)
0x5f8a193e081  code target with id (BINARY_OP_IC)  (0x5f8a1912d40) (id=14)
0x5f8a193e086  position  (139)
0x5f8a193e088  code target with id (BINARY_OP_IC)  (0x5f8a19113a0) (id=7)
0x5f8a193e08f  embedded object  (0x1667731f0289 Cell for 6144)
0x5f8a193e09f  code target (BUILTIN)  (0x5f8a19366e0)
0x5f8a193e0a6  embedded object  (0x1667731f0289 Cell for 6144)
0x5f8a193e0bc  statement position  (163)

--- End code ---
--- Raw source ---
(g){
return %_MathSqrt(+g);
}


--- Code ---
source_position = 2520
kind = FUNCTION
name = sqrt
compiler = full-codegen
Instructions (size = 132)
0x5f8a193e140     0  55             push rbp                 ;; debug: position 2520
0x5f8a193e141     1  4889e5         REX.W movq rbp,rsp
0x5f8a193e144     4  56             push rsi
0x5f8a193e145     5  57             push rdi
0x5f8a193e146     6  493ba540090000 REX.W cmpq rsp,[r13+0x940]
0x5f8a193e14d    13  7305           jnc 20  (0x5f8a193e154)
0x5f8a193e14f    15  e8cc86ffff     call StackCheck  (0x5f8a1936820)    ;; code: BUILTIN
0x5f8a193e154    20  ff7510         push [rbp+0x10]          ;; debug: statement 2525
                                                             ;; debug: position 2544
0x5f8a193e157    23  48b80000000001000000 REX.W movq rax,0x100000000
0x5f8a193e161    33  5a             pop rdx                  ;; debug: position 2543
0x5f8a193e162    34  e8b92bfdff     call 0x5f8a1910d20       ;; code: BINARY_OP_IC, UNINITIALIZED (id = 10)
0x5f8a193e167    39  90             nop
0x5f8a193e168    40  50             push rax
0x5f8a193e169    41  b801000000     movl rax,0x1
0x5f8a193e16e    46  48bb40ac880001000000 REX.W movq rbx,0x10088ac40
0x5f8a193e178    56  e8a3bafcff     call 0x5f8a1909c20       ;; code: STUB, CEntryStub, minor: 0
0x5f8a193e17d    61  48bba9041f7367160000 REX.W movq rbx,0x1667731f04a9    ;; object: 0x1667731f04a9 Cell for 6144
0x5f8a193e187    71  83430bd1       addl [rbx+0xb],0xd1
0x5f8a193e18b    75  791f           jns 108  (0x5f8a193e1ac)
0x5f8a193e18d    77  50             push rax
0x5f8a193e18e    78  e84d85ffff     call InterruptCheck  (0x5f8a19366e0)    ;; code: BUILTIN
0x5f8a193e193    83  58             pop rax
0x5f8a193e194    84  48bba9041f7367160000 REX.W movq rbx,0x1667731f04a9    ;; object: 0x1667731f04a9 Cell for 6144
0x5f8a193e19e    94  49ba0000000000180000 REX.W movq r10,0x180000000000
0x5f8a193e1a8   104  4c895307       REX.W movq [rbx+0x7],r10
0x5f8a193e1ac   108  c9             leave                    ;; debug: statement 2548
0x5f8a193e1ad   109  c21000         ret 0x10
0x5f8a193e1b0   112  498b45a8       REX.W movq rax,[r13-0x58]
0x5f8a193e1b4   116  e9c4ffffff     jmp 61  (0x5f8a193e17d)
0x5f8a193e1b9   121  0f1f8000000000 nop

Deoptimization Output Data (deopt points = 0)

Back edges (size = 0)
ast_id  pc_offset  loop_depth

0x1667731f04e1: [TypeFeedbackInfo]
 - ic_total_count: 1, ic_with_type_info_count: 0, ic_generic_count: 0

RelocInfo (size = 21)
0x5f8a193e140  position  (2520)
0x5f8a193e150  code target (BUILTIN)  (0x5f8a1936820)
0x5f8a193e154  statement position  (2525)
0x5f8a193e154  position  (2544)
0x5f8a193e161  position  (2543)
0x5f8a193e163  code target with id (BINARY_OP_IC)  (0x5f8a1910d20) (id=10)
0x5f8a193e179  code target (STUB)  (0x5f8a1909c20)
0x5f8a193e17f  embedded object  (0x1667731f04a9 Cell for 6144)
0x5f8a193e18f  code target (BUILTIN)  (0x5f8a19366e0)
0x5f8a193e196  embedded object  (0x1667731f04a9 Cell for 6144)
0x5f8a193e1ac  statement position  (2548)

--- End code ---
--- Raw source ---
(i,j) {
  return 1/((i+j)*(i+j+1)/2+i+1);
}


--- Optimized code ---
optimization_id = 0
source_position = 121
kind = OPTIMIZED_FUNCTION
name = A
stack_slots = 1
compiler = crankshaft
Instructions (size = 486)
0x5f8a193e240     0  55             push rbp
0x5f8a193e241     1  4889e5         REX.W movq rbp,rsp
0x5f8a193e244     4  56             push rsi
0x5f8a193e245     5  57             push rdi
0x5f8a193e246     6  4883ec08       REX.W subq rsp,0x8
0x5f8a193e24a    10  488b45f8       REX.W movq rax,[rbp-0x8]
0x5f8a193e24e    14  488945e8       REX.W movq [rbp-0x18],rax
0x5f8a193e252    18  488bf0         REX.W movq rsi,rax
0x5f8a193e255    21  493ba540090000 REX.W cmpq rsp,[r13+0x940]
0x5f8a193e25c    28  7305           jnc 35  (0x5f8a193e263)
0x5f8a193e25e    30  e8bd85ffff     call StackCheck  (0x5f8a1936820)    ;; code: BUILTIN
0x5f8a193e263    35  488b4518       REX.W movq rax,[rbp+0x18]
0x5f8a193e267    39  a801           test al,0x1              ;; debug: position 143
0x5f8a193e269    41  0f85b5000000   jnz 228  (0x5f8a193e324)
0x5f8a193e26f    47  48c1e820       REX.W shrq rax, 32
0x5f8a193e273    51  488b5d10       REX.W movq rbx,[rbp+0x10]
0x5f8a193e277    55  f6c301         testb rbx,0x1
0x5f8a193e27a    58  0f85d7000000   jnz 279  (0x5f8a193e357)
0x5f8a193e280    64  48c1eb20       REX.W shrq rbx, 32
0x5f8a193e284    68  03d8           addl rbx,rax
0x5f8a193e286    70  0f8053010000   jo 415  (0x5f8a193e3df)
0x5f8a193e28c    76  488bd3         REX.W movq rdx,rbx
0x5f8a193e28f    79  83c201         addl rdx,0x1             ;; debug: position 151
0x5f8a193e292    82  0f804c010000   jo 420  (0x5f8a193e3e4)
0x5f8a193e298    88  0fafd3         imull rdx,rbx            ;; debug: position 146
0x5f8a193e29b    91  0f8048010000   jo 425  (0x5f8a193e3e9)
0x5f8a193e2a1    97  f6c201         testb rdx,0x1            ;; debug: position 154
0x5f8a193e2a4   100  0f8544010000   jnz 430  (0x5f8a193e3ee)
0x5f8a193e2aa   106  488bda         REX.W movq rbx,rdx
0x5f8a193e2ad   109  c1eb1f         shrl rbx, 31
0x5f8a193e2b0   112  03da           addl rbx,rdx
0x5f8a193e2b2   114  d1fb           sarl rbx, 1
0x5f8a193e2b4   116  03d8           addl rbx,rax             ;; debug: position 156
0x5f8a193e2b6   118  0f8037010000   jo 435  (0x5f8a193e3f3)
0x5f8a193e2bc   124  83c301         addl rbx,0x1             ;; debug: position 158
0x5f8a193e2bf   127  0f8033010000   jo 440  (0x5f8a193e3f8)
0x5f8a193e2c5   133  49ba000000000000f03f REX.W movq r10,0x3ff0000000000000    ;; debug: position 139
0x5f8a193e2cf   143  66490f6eca     REX.W movq xmm1,r10
0x5f8a193e2d4   148  0f57d2         xorps xmm2,xmm2
0x5f8a193e2d7   151  f20f2ad3       cvtsi2sd xmm2,rbx
0x5f8a193e2db   155  c5f35eca       vdivsd xmm1,xmm1,xmm2
0x5f8a193e2df   159  0f28c9         movaps xmm1,xmm1
0x5f8a193e2e2   162  498b9d400c0000 REX.W movq rbx,[r13+0xc40]
0x5f8a193e2e9   169  488bc3         REX.W movq rax,rbx
0x5f8a193e2ec   172  4883c010       REX.W addq rax,0x10
0x5f8a193e2f0   176  0f8294000000   jc 330  (0x5f8a193e38a)
0x5f8a193e2f6   182  493b85480c0000 REX.W cmpq rax,[r13+0xc48]
0x5f8a193e2fd   189  0f8787000000   ja 330  (0x5f8a193e38a)
0x5f8a193e303   195  498985400c0000 REX.W movq [r13+0xc40],rax
0x5f8a193e30a   202  48ffc3         REX.W incq rbx
0x5f8a193e30d   205  4d8b5508       REX.W movq r10,[r13+0x8]
0x5f8a193e311   209  4c8953ff       REX.W movq [rbx-0x1],r10
0x5f8a193e315   213  f20f114b07     movsd [rbx+0x7],xmm1
0x5f8a193e31a   218  488bc3         REX.W movq rax,rbx
0x5f8a193e31d   221  488be5         REX.W movq rsp,rbp
0x5f8a193e320   224  5d             pop rbp
0x5f8a193e321   225  c21800         ret 0x18
0x5f8a193e324   228  4d8b5508       REX.W movq r10,[r13+0x8]    ;; debug: position 143
0x5f8a193e328   232  4c3950ff       REX.W cmpq [rax-0x1],r10
0x5f8a193e32c   236  0f85cb000000   jnz 445  (0x5f8a193e3fd)
0x5f8a193e332   242  f20f104007     movsd xmm0,[rax+0x7]
0x5f8a193e337   247  f20f2cc0       cvttsd2sil rax,xmm0
0x5f8a193e33b   251  0f57c9         xorps xmm1,xmm1
0x5f8a193e33e   254  f20f2ac8       cvtsi2sd xmm1,rax
0x5f8a193e342   258  660f2ec1       ucomisd xmm0,xmm1
0x5f8a193e346   262  0f85b1000000   jnz 445  (0x5f8a193e3fd)
0x5f8a193e34c   268  0f8aab000000   jpe 445  (0x5f8a193e3fd)
0x5f8a193e352   274  e91cffffff     jmp 51  (0x5f8a193e273)
0x5f8a193e357   279  4d8b5508       REX.W movq r10,[r13+0x8]
0x5f8a193e35b   283  4c3953ff       REX.W cmpq [rbx-0x1],r10
0x5f8a193e35f   287  0f859d000000   jnz 450  (0x5f8a193e402)
0x5f8a193e365   293  f20f104307     movsd xmm0,[rbx+0x7]
0x5f8a193e36a   298  f20f2cd8       cvttsd2sil rbx,xmm0
0x5f8a193e36e   302  0f57c9         xorps xmm1,xmm1
0x5f8a193e371   305  f20f2acb       cvtsi2sd xmm1,rbx
0x5f8a193e375   309  660f2ec1       ucomisd xmm0,xmm1
0x5f8a193e379   313  0f8583000000   jnz 450  (0x5f8a193e402)
0x5f8a193e37f   319  0f8a7d000000   jpe 450  (0x5f8a193e402)
0x5f8a193e385   325  e9fafeffff     jmp 68  (0x5f8a193e284)
0x5f8a193e38a   330  48bb0000000000000000 REX.W movq rbx,0x0    ;; debug: position 139
0x5f8a193e394   340  50             push rax
0x5f8a193e395   341  51             push rcx
0x5f8a193e396   342  52             push rdx
0x5f8a193e397   343  53             push rbx
0x5f8a193e398   344  56             push rsi
0x5f8a193e399   345  57             push rdi
0x5f8a193e39a   346  4150           push r8
0x5f8a193e39c   348  4151           push r9
0x5f8a193e39e   350  4153           push r11
0x5f8a193e3a0   352  4154           push r12
0x5f8a193e3a2   354  4156           push r14
0x5f8a193e3a4   356  4157           push r15
0x5f8a193e3a6   358  488d6424e0     REX.W leaq rsp,[rsp-0x20]
0x5f8a193e3ab   363  488b75f8       REX.W movq rsi,[rbp-0x8]
0x5f8a193e3af   367  33c0           xorl rax,rax
0x5f8a193e3b1   369  498d9d982988fd REX.W leaq rbx,[r13-0x277d668]
0x5f8a193e3b8   376  e8c37efcff     call 0x5f8a1906280       ;; code: STUB, CEntryStub, minor: 1
0x5f8a193e3bd   381  4c8bd0         REX.W movq r10,rax
0x5f8a193e3c0   384  488d642420     REX.W leaq rsp,[rsp+0x20]
0x5f8a193e3c5   389  415f           pop r15
0x5f8a193e3c7   391  415e           pop r14
0x5f8a193e3c9   393  415c           pop r12
0x5f8a193e3cb   395  415b           pop r11
0x5f8a193e3cd   397  4159           pop r9
0x5f8a193e3cf   399  4158           pop r8
0x5f8a193e3d1   401  5f             pop rdi
0x5f8a193e3d2   402  5e             pop rsi
0x5f8a193e3d3   403  5b             pop rbx
0x5f8a193e3d4   404  5a             pop rdx
0x5f8a193e3d5   405  59             pop rcx
0x5f8a193e3d6   406  58             pop rax
0x5f8a193e3d7   407  498bda         REX.W movq rbx,r10
0x5f8a193e3da   410  e936ffffff     jmp 213  (0x5f8a193e315)
0x5f8a193e3df   415  e8267cccff     call 0x5f8a160600a       ;; deoptimization bailout 1
0x5f8a193e3e4   420  e82b7cccff     call 0x5f8a1606014       ;; deoptimization bailout 2
0x5f8a193e3e9   425  e8307cccff     call 0x5f8a160601e       ;; deoptimization bailout 3
0x5f8a193e3ee   430  e8357cccff     call 0x5f8a1606028       ;; deoptimization bailout 4
0x5f8a193e3f3   435  e83a7cccff     call 0x5f8a1606032       ;; deoptimization bailout 5
0x5f8a193e3f8   440  e83f7cccff     call 0x5f8a160603c       ;; deoptimization bailout 6
0x5f8a193e3fd   445  e8447cccff     call 0x5f8a1606046       ;; deoptimization bailout 7
0x5f8a193e402   450  e8497cccff     call 0x5f8a1606050       ;; deoptimization bailout 8
0x5f8a193e407   455  90             nop

Inlined functions (count = 0)

Deoptimization Input Data (deopt points = 9)
 index  ast id    argc     pc
     0       3       0     35
     1       3       0     -1
     2       3       0     -1
     3       3       0     -1
     4       3       0     -1
     5       3       0     -1
     6       3       0     -1
     7       3       0     -1
     8       3       0     -1

Safepoints (size = 30)
0x5f8a193e263    35  1 (sp -> fp)       0
0x5f8a193e3bd   381  0 | rbx (sp -> fp)  <none>

RelocInfo (size = 44)
0x5f8a193e25f  code target (BUILTIN)  (0x5f8a1936820)
0x5f8a193e267  position  (143)
0x5f8a193e28f  position  (151)
0x5f8a193e298  position  (146)
0x5f8a193e2a1  position  (154)
0x5f8a193e2b4  position  (156)
0x5f8a193e2bc  position  (158)
0x5f8a193e2c5  position  (139)
0x5f8a193e324  position  (143)
0x5f8a193e38a  position  (139)
0x5f8a193e3b9  code target (STUB)  (0x5f8a1906280)
0x5f8a193e3e0  runtime entry  (deoptimization bailout 1)
0x5f8a193e3e5  runtime entry  (deoptimization bailout 2)
0x5f8a193e3ea  runtime entry  (deoptimization bailout 3)
0x5f8a193e3ef  runtime entry  (deoptimization bailout 4)
0x5f8a193e3f4  runtime entry  (deoptimization bailout 5)
0x5f8a193e3f9  runtime entry  (deoptimization bailout 6)
0x5f8a193e3fe  runtime entry  (deoptimization bailout 7)
0x5f8a193e403  runtime entry  (deoptimization bailout 8)

--- End code ---
--- Code ---
kind = HANDLER
major_key = <NoCache>Stub
name = StoreGlobalStub
compiler = crankshaft
Instructions (size = 192)
0x5f8a193f220     0  48bbe9081f7367160000 REX.W movq rbx,0x1667731f08e9    ;; object: 0x1667731f08e9 WeakCell for 0x166773104311 <Odd Oddball>
0x5f8a193f22a    10  488b5b07       REX.W movq rbx,[rbx+0x7]
0x5f8a193f22e    14  f6c301         testb rbx,0x1
0x5f8a193f231    17  0f8453000000   jz 106  (0x5f8a193f28a)
0x5f8a193f237    23  488b7b0f       REX.W movq rdi,[rbx+0xf]
0x5f8a193f23b    27  49bae941107367160000 REX.W movq r10,0x1667731041e9    ;; object: 0x1667731041e9 <the hole>
0x5f8a193f245    37  493bfa         REX.W cmpq rdi,r10
0x5f8a193f248    40  0f8437000000   jz 101  (0x5f8a193f285)
0x5f8a193f24e    46  488bd0         REX.W movq rdx,rax
0x5f8a193f251    49  4889530f       REX.W movq [rbx+0xf],rdx
0x5f8a193f255    53  f6c201         testb rdx,0x1
0x5f8a193f258    56  0f8426000000   jz 100  (0x5f8a193f284)
0x5f8a193f25e    62  488d4b0f       REX.W leaq rcx,[rbx+0xf]
0x5f8a193f262    66  4881e20000f0ff REX.W andq rdx,0xfffffffffff00000
0x5f8a193f269    73  f6420804       testb [rdx+0x8],0x4
0x5f8a193f26d    77  7415           jz 100  (0x5f8a193f284)
0x5f8a193f26f    79  48c7c20000f0ff REX.W movq rdx,0xfff00000
0x5f8a193f276    86  4823d3         REX.W andq rdx,rbx
0x5f8a193f279    89  f6420808       testb [rdx+0x8],0x8
0x5f8a193f27d    93  7405           jz 100  (0x5f8a193f284)
0x5f8a193f27f    95  e8fcf4ffff     call 0x5f8a193e780       ;; code: STUB, RecordWriteStub, minor: 8483
0x5f8a193f284   100  c3             ret
0x5f8a193f285   101  e90f000000     jmp 121  (0x5f8a193f299)
0x5f8a193f28a   106  49ba006070a1f8050000 REX.W movq r10,0x5f8a1706000
0x5f8a193f294   116  e80f000000     call 136  (0x5f8a193f2a8)
0x5f8a193f299   121  49ba0a6070a1f8050000 REX.W movq r10,0x5f8a170600a
0x5f8a193f2a3   131  e800000000     call 136  (0x5f8a193f2a8)
0x5f8a193f2a8   136  4883ec10       REX.W subq rsp,0x10
0x5f8a193f2ac   140  ff742410       push [rsp+0x10]
0x5f8a193f2b0   144  4152           push r10
0x5f8a193f2b2   146  4c8b55f8       REX.W movq r10,[rbp-0x8]
0x5f8a193f2b6   150  4c89542418     REX.W movq [rsp+0x18],r10
0x5f8a193f2bb   155  48896c2420     REX.W movq [rsp+0x20],rbp
0x5f8a193f2c0   160  488d6c2420     REX.W leaq rbp,[rsp+0x20]
0x5f8a193f2c5   165  49ba0000000006000000 REX.W movq r10,0x600000000
0x5f8a193f2cf   175  4c89542410     REX.W movq [rsp+0x10],r10
0x5f8a193f2d4   180  c3             ret
0x5f8a193f2d5   181  0f1f00         nop


Safepoints (size = 8)

RelocInfo (size = 5)
0x5f8a193f222  embedded object  (0x1667731f08e9 WeakCell for 0x166773104311 <Odd Oddball>)
0x5f8a193f23d  embedded object  (0x1667731041e9 <the hole>)
0x5f8a193f280  code target (STUB)  (0x5f8a193e780)

--- End code ---
--- Code ---
kind = HANDLER
major_key = <NoCache>Stub
name = StoreGlobalStub
compiler = crankshaft
Instructions (size = 168)
0x5f8a193f500     0  48bb490a1f7367160000 REX.W movq rbx,0x1667731f0a49    ;; object: 0x1667731f0a49 WeakCell for 0x166773104311 <Odd Oddball>
0x5f8a193f50a    10  488b5b07       REX.W movq rbx,[rbx+0x7]
0x5f8a193f50e    14  f6c301         testb rbx,0x1
0x5f8a193f511    17  0f842e000000   jz 69  (0x5f8a193f545)
0x5f8a193f517    23  488b7b0f       REX.W movq rdi,[rbx+0xf]
0x5f8a193f51b    27  49bae941107367160000 REX.W movq r10,0x1667731041e9    ;; object: 0x1667731041e9 <the hole>
0x5f8a193f525    37  493bfa         REX.W cmpq rdi,r10
0x5f8a193f528    40  0f8412000000   jz 64  (0x5f8a193f540)
0x5f8a193f52e    46  488bf8         REX.W movq rdi,rax
0x5f8a193f531    49  40f6c701       testb rdi,0x1
0x5f8a193f535    53  0f8519000000   jnz 84  (0x5f8a193f554)
0x5f8a193f53b    59  48897b0f       REX.W movq [rbx+0xf],rdi
0x5f8a193f53f    63  c3             ret
0x5f8a193f540    64  e91e000000     jmp 99  (0x5f8a193f563)
0x5f8a193f545    69  49ba006070a1f8050000 REX.W movq r10,0x5f8a1706000
0x5f8a193f54f    79  e81e000000     call 114  (0x5f8a193f572)
0x5f8a193f554    84  49ba0a6070a1f8050000 REX.W movq r10,0x5f8a170600a
0x5f8a193f55e    94  e80f000000     call 114  (0x5f8a193f572)
0x5f8a193f563    99  49ba146070a1f8050000 REX.W movq r10,0x5f8a1706014
0x5f8a193f56d   109  e800000000     call 114  (0x5f8a193f572)
0x5f8a193f572   114  4883ec10       REX.W subq rsp,0x10
0x5f8a193f576   118  ff742410       push [rsp+0x10]
0x5f8a193f57a   122  4152           push r10
0x5f8a193f57c   124  4c8b55f8       REX.W movq r10,[rbp-0x8]
0x5f8a193f580   128  4c89542418     REX.W movq [rsp+0x18],r10
0x5f8a193f585   133  48896c2420     REX.W movq [rsp+0x20],rbp
0x5f8a193f58a   138  488d6c2420     REX.W leaq rbp,[rsp+0x20]
0x5f8a193f58f   143  49ba0000000006000000 REX.W movq r10,0x600000000
0x5f8a193f599   153  4c89542410     REX.W movq [rsp+0x10],r10
0x5f8a193f59e   158  c3             ret
0x5f8a193f59f   159  90             nop


Safepoints (size = 8)

RelocInfo (size = 2)
0x5f8a193f502  embedded object  (0x1667731f0a49 WeakCell for 0x166773104311 <Odd Oddball>)
0x5f8a193f51d  embedded object  (0x1667731041e9 <the hole>)

--- End code ---
--- Raw source ---
(u,v) {
  for (var i=0; i<u.length; ++i) {
    var t = 0;
    for (var j=0; j<u.length; ++j)
      t += A(j,i) * u[j];
    v[i] = t;
  }
}


--- Code ---
source_position = 329
kind = FUNCTION
name = Atu
compiler = full-codegen
Instructions (size = 780)
0x5f8a193f7e0     0  55             push rbp                 ;; debug: position 329
0x5f8a193f7e1     1  4889e5         REX.W movq rbp,rsp
0x5f8a193f7e4     4  56             push rsi
0x5f8a193f7e5     5  57             push rdi
0x5f8a193f7e6     6  498b55a8       REX.W movq rdx,[r13-0x58]
0x5f8a193f7ea    10  52             push rdx
0x5f8a193f7eb    11  52             push rdx
0x5f8a193f7ec    12  52             push rdx
0x5f8a193f7ed    13  493ba540090000 REX.W cmpq rsp,[r13+0x940]
0x5f8a193f7f4    20  7305           jnc 27  (0x5f8a193f7fb)
0x5f8a193f7f6    22  e82570ffff     call StackCheck  (0x5f8a1936820)    ;; code: BUILTIN
0x5f8a193f7fb    27  48b80000000000000000 REX.W movq rax,0x0    ;; debug: statement 339
                                                             ;; debug: statement 344
0x5f8a193f805    37  488945e8       REX.W movq [rbp-0x18],rax
0x5f8a193f809    41  e927020000     jmp 597  (0x5f8a193fa35)
0x5f8a193f80e    46  48b80000000000000000 REX.W movq rax,0x0    ;; debug: statement 376
0x5f8a193f818    56  488945e0       REX.W movq [rbp-0x20],rax
0x5f8a193f81c    60  48b80000000000000000 REX.W movq rax,0x0    ;; debug: statement 391
                                                             ;; debug: statement 396
0x5f8a193f826    70  488945d8       REX.W movq [rbp-0x28],rax
0x5f8a193f82a    74  e931010000     jmp 384  (0x5f8a193f960)
0x5f8a193f82f    79  488b45e0       REX.W movq rax,[rbp-0x20]    ;; debug: statement 428
                                                             ;; debug: position 428
0x5f8a193f833    83  50             push rax
0x5f8a193f834    84  48b971f0147367160000 REX.W movq rcx,0x16677314f071    ;; debug: position 433
                                                             ;; object: 0x16677314f071 <String[1]: A>
0x5f8a193f83e    94  488b5627       REX.W movq rdx,[rsi+0x27]
0x5f8a193f842    98  48b8000000000a000000 REX.W movq rax,0xa00000000
0x5f8a193f84c   108  e8af0afeff     call 0x5f8a1920300       ;; code: contextual, LOAD_IC, DEFAULT
0x5f8a193f851   113  50             push rax
0x5f8a193f852   114  49ba8941107367160000 REX.W movq r10,0x166773104189    ;; object: 0x166773104189 <undefined>
0x5f8a193f85c   124  4152           push r10
0x5f8a193f85e   126  ff75d8         push [rbp-0x28]          ;; debug: position 435
0x5f8a193f861   129  ff75e8         push [rbp-0x18]          ;; debug: position 437
0x5f8a193f864   132  48ba000000000e000000 REX.W movq rdx,0xe00000000    ;; debug: position 433
0x5f8a193f86e   142  488b7c2418     REX.W movq rdi,[rsp+0x18]
0x5f8a193f873   147  e84829fdff     call 0x5f8a19121c0       ;; code: CALL_IC, DEFAULT
0x5f8a193f878   152  488b75f8       REX.W movq rsi,[rbp-0x8]
0x5f8a193f87c   156  48890424       REX.W movq [rsp],rax
0x5f8a193f880   160  ff7518         push [rbp+0x18]          ;; debug: position 442
0x5f8a193f883   163  488b45d8       REX.W movq rax,[rbp-0x28]    ;; debug: position 444
0x5f8a193f887   167  488bc8         REX.W movq rcx,rax
0x5f8a193f88a   170  5a             pop rdx
0x5f8a193f88b   171  48b80000000010000000 REX.W movq rax,0x1000000000    ;; debug: position 443
0x5f8a193f895   181  e806f7feff     call 0x5f8a192efa0       ;; code: KEYED_LOAD_IC, DEFAULT
0x5f8a193f89a   186  5a             pop rdx                  ;; debug: position 440
0x5f8a193f89b   187  488bc8         REX.W movq rcx,rax
0x5f8a193f89e   190  480bc2         REX.W orq rax,rdx
0x5f8a193f8a1   193  a801           test al,0x1
0x5f8a193f8a3   195  720c           jc 209  (0x5f8a193f8b1)
0x5f8a193f8a5   197  488bc1         REX.W movq rax,rcx
0x5f8a193f8a8   200  e87314fdff     call 0x5f8a1910d20       ;; code: BINARY_OP_IC, UNINITIALIZED (id = 157)
0x5f8a193f8ad   205  a80a           test al,0xa
0x5f8a193f8af   207  eb22           jmp 243  (0x5f8a193f8d3)
0x5f8a193f8b1   209  488bc2         REX.W movq rax,rdx
0x5f8a193f8b4   212  48c1f820       REX.W sarq rax, 32
0x5f8a193f8b8   216  480fafc1       REX.W imulq rax,rcx
0x5f8a193f8bc   220  0f80e3ffffff   jo 197  (0x5f8a193f8a5)
0x5f8a193f8c2   226  4885c0         REX.W testq rax,rax
0x5f8a193f8c5   229  750c           jnz 243  (0x5f8a193f8d3)
0x5f8a193f8c7   231  4c8bd2         REX.W movq r10,rdx
0x5f8a193f8ca   234  4c33d1         REX.W xorq r10,rcx
0x5f8a193f8cd   237  0f88d2ffffff   js 197  (0x5f8a193f8a5)
0x5f8a193f8d3   243  5a             pop rdx
0x5f8a193f8d4   244  488bc8         REX.W movq rcx,rax
0x5f8a193f8d7   247  480bc2         REX.W orq rax,rdx
0x5f8a193f8da   250  a801           test al,0x1
0x5f8a193f8dc   252  720c           jc 266  (0x5f8a193f8ea)
0x5f8a193f8de   254  488bc1         REX.W movq rax,rcx
0x5f8a193f8e1   257  e85a34fdff     call 0x5f8a1912d40       ;; code: BINARY_OP_IC, UNINITIALIZED (id = 120)
0x5f8a193f8e6   262  a80a           test al,0xa
0x5f8a193f8e8   264  eb0c           jmp 278  (0x5f8a193f8f6)
0x5f8a193f8ea   266  488bc2         REX.W movq rax,rdx
0x5f8a193f8ed   269  4803c1         REX.W addq rax,rcx
0x5f8a193f8f0   272  0f80e8ffffff   jo 254  (0x5f8a193f8de)
0x5f8a193f8f6   278  488945e0       REX.W movq [rbp-0x20],rax    ;; debug: position 430
0x5f8a193f8fa   282  488b45d8       REX.W movq rax,[rbp-0x28]    ;; debug: statement 419
0x5f8a193f8fe   286  a801           test al,0x1
0x5f8a193f900   288  7314           jnc 310  (0x5f8a193f916)
0x5f8a193f902   290  49ba0000000001000000 REX.W movq r10,0x100000000
0x5f8a193f90c   300  4903c2         REX.W addq rax,r10
0x5f8a193f90f   303  711e           jno 335  (0x5f8a193f92f)
0x5f8a193f911   305  492bc2         REX.W subq rax,r10
0x5f8a193f914   308  eb05           jmp 315  (0x5f8a193f91b)
0x5f8a193f916   310  e8c5b2feff     call 0x5f8a192abe0       ;; code: STUB, ToNumberStub, minor: 0
0x5f8a193f91b   315  488bd0         REX.W movq rdx,rax
0x5f8a193f91e   318  48b80000000001000000 REX.W movq rax,0x100000000
0x5f8a193f928   328  e81334fdff     call 0x5f8a1912d40       ;; code: BINARY_OP_IC, UNINITIALIZED (id = 108)
0x5f8a193f92d   333  a82d           test al,0x2d
0x5f8a193f92f   335  488945d8       REX.W movq [rbp-0x28],rax
0x5f8a193f933   339  48bb790b1f7367160000 REX.W movq rbx,0x1667731f0b79    ;; object: 0x1667731f0b79 Cell for 6144
0x5f8a193f93d   349  83430bff       addl [rbx+0xb],0xff
0x5f8a193f941   353  791d           jns 384  (0x5f8a193f960)
0x5f8a193f943   355  e8986dffff     call InterruptCheck  (0x5f8a19366e0)    ;; code: BUILTIN
0x5f8a193f948   360  48bb790b1f7367160000 REX.W movq rbx,0x1667731f0b79    ;; object: 0x1667731f0b79 Cell for 6144
0x5f8a193f952   370  49ba0000000000180000 REX.W movq r10,0x180000000000
0x5f8a193f95c   380  4c895307       REX.W movq [rbx+0x7],r10
0x5f8a193f960   384  ff75d8         push [rbp-0x28]          ;; debug: statement 406
                                                             ;; debug: position 405
0x5f8a193f963   387  488b4518       REX.W movq rax,[rbp+0x18]    ;; debug: position 407
0x5f8a193f967   391  488bd0         REX.W movq rdx,rax
0x5f8a193f96a   394  48b9712e197367160000 REX.W movq rcx,0x166773192e71    ;; debug: position 408
                                                             ;; object: 0x166773192e71 <String[6]: length>
0x5f8a193f974   404  48b80000000006000000 REX.W movq rax,0x600000000
0x5f8a193f97e   414  e87d09feff     call 0x5f8a1920300       ;; code: contextual, LOAD_IC, DEFAULT
0x5f8a193f983   419  5a             pop rdx
0x5f8a193f984   420  488bca         REX.W movq rcx,rdx
0x5f8a193f987   423  480bc8         REX.W orq rcx,rax
0x5f8a193f98a   426  f6c101         testb rcx,0x1
0x5f8a193f98d   429  730e           jnc 445  (0x5f8a193f99d)
0x5f8a193f98f   431  483bd0         REX.W cmpq rdx,rax
0x5f8a193f992   434  0f8c97feffff   jl 79  (0x5f8a193f82f)
0x5f8a193f998   440  e921000000     jmp 478  (0x5f8a193f9be)
0x5f8a193f99d   445  e8fe81fdff     call 0x5f8a1917ba0       ;; code: COMPARE_IC, UNINITIALIZED (id = 91)
0x5f8a193f9a2   450  a815           test al,0x15
0x5f8a193f9a4   452  eb0f           jmp 469  (0x5f8a193f9b5)
0x5f8a193f9a6   454  493b45c0       REX.W cmpq rax,[r13-0x40]
0x5f8a193f9aa   458  0f847ffeffff   jz 79  (0x5f8a193f82f)
0x5f8a193f9b0   464  e909000000     jmp 478  (0x5f8a193f9be)
0x5f8a193f9b5   469  4885c0         REX.W testq rax,rax
0x5f8a193f9b8   472  0f8c71feffff   jl 79  (0x5f8a193f82f)
0x5f8a193f9be   478  ff7510         push [rbp+0x10]          ;; debug: statement 452
                                                             ;; debug: position 452
0x5f8a193f9c1   481  ff75e8         push [rbp-0x18]          ;; debug: position 454
0x5f8a193f9c4   484  488b45e0       REX.W movq rax,[rbp-0x20]    ;; debug: position 459
0x5f8a193f9c8   488  59             pop rcx                  ;; debug: position 457
0x5f8a193f9c9   489  5a             pop rdx
0x5f8a193f9ca   490  e8114cffff     call KeyedStoreIC_Initialize  (0x5f8a19345e0)    ;; code: KEYED_STORE_IC, UNINITIALIZED (id = 184)
0x5f8a193f9cf   495  488b45e8       REX.W movq rax,[rbp-0x18]    ;; debug: statement 367
0x5f8a193f9d3   499  a801           test al,0x1
0x5f8a193f9d5   501  7314           jnc 523  (0x5f8a193f9eb)
0x5f8a193f9d7   503  49ba0000000001000000 REX.W movq r10,0x100000000
0x5f8a193f9e1   513  4903c2         REX.W addq rax,r10
0x5f8a193f9e4   516  711e           jno 548  (0x5f8a193fa04)
0x5f8a193f9e6   518  492bc2         REX.W subq rax,r10
0x5f8a193f9e9   521  eb05           jmp 528  (0x5f8a193f9f0)
0x5f8a193f9eb   523  e8f0b1feff     call 0x5f8a192abe0       ;; code: STUB, ToNumberStub, minor: 0
0x5f8a193f9f0   528  488bd0         REX.W movq rdx,rax
0x5f8a193f9f3   531  48b80000000001000000 REX.W movq rax,0x100000000
0x5f8a193f9fd   541  e83e33fdff     call 0x5f8a1912d40       ;; code: BINARY_OP_IC, UNINITIALIZED (id = 50)
0x5f8a193fa02   546  a82d           test al,0x2d
0x5f8a193fa04   548  488945e8       REX.W movq [rbp-0x18],rax
0x5f8a193fa08   552  48bb790b1f7367160000 REX.W movq rbx,0x1667731f0b79    ;; object: 0x1667731f0b79 Cell for 6144
0x5f8a193fa12   562  83430bfe       addl [rbx+0xb],0xfe
0x5f8a193fa16   566  791d           jns 597  (0x5f8a193fa35)
0x5f8a193fa18   568  e8c36cffff     call InterruptCheck  (0x5f8a19366e0)    ;; code: BUILTIN
0x5f8a193fa1d   573  48bb790b1f7367160000 REX.W movq rbx,0x1667731f0b79    ;; object: 0x1667731f0b79 Cell for 6144
0x5f8a193fa27   583  49ba0000000000180000 REX.W movq r10,0x180000000000
0x5f8a193fa31   593  4c895307       REX.W movq [rbx+0x7],r10
0x5f8a193fa35   597  ff75e8         push [rbp-0x18]          ;; debug: statement 354
                                                             ;; debug: position 353
0x5f8a193fa38   600  488b4518       REX.W movq rax,[rbp+0x18]    ;; debug: position 355
0x5f8a193fa3c   604  488bd0         REX.W movq rdx,rax
0x5f8a193fa3f   607  48b9712e197367160000 REX.W movq rcx,0x166773192e71    ;; debug: position 356
                                                             ;; object: 0x166773192e71 <String[6]: length>
0x5f8a193fa49   617  48b80000000004000000 REX.W movq rax,0x400000000
0x5f8a193fa53   627  e8a808feff     call 0x5f8a1920300       ;; code: contextual, LOAD_IC, DEFAULT
0x5f8a193fa58   632  5a             pop rdx
0x5f8a193fa59   633  488bca         REX.W movq rcx,rdx
0x5f8a193fa5c   636  480bc8         REX.W orq rcx,rax
0x5f8a193fa5f   639  f6c101         testb rcx,0x1
0x5f8a193fa62   642  730e           jnc 658  (0x5f8a193fa72)
0x5f8a193fa64   644  483bd0         REX.W cmpq rdx,rax
0x5f8a193fa67   647  0f8ca1fdffff   jl 46  (0x5f8a193f80e)
0x5f8a193fa6d   653  e921000000     jmp 691  (0x5f8a193fa93)
0x5f8a193fa72   658  e82981fdff     call 0x5f8a1917ba0       ;; code: COMPARE_IC, UNINITIALIZED (id = 33)
0x5f8a193fa77   663  a815           test al,0x15
0x5f8a193fa79   665  eb0f           jmp 682  (0x5f8a193fa8a)
0x5f8a193fa7b   667  493b45c0       REX.W cmpq rax,[r13-0x40]
0x5f8a193fa7f   671  0f8489fdffff   jz 46  (0x5f8a193f80e)
0x5f8a193fa85   677  e909000000     jmp 691  (0x5f8a193fa93)
0x5f8a193fa8a   682  4885c0         REX.W testq rax,rax
0x5f8a193fa8d   685  0f8c7bfdffff   jl 46  (0x5f8a193f80e)
0x5f8a193fa93   691  498b45a8       REX.W movq rax,[r13-0x58]
0x5f8a193fa97   695  48bb790b1f7367160000 REX.W movq rbx,0x1667731f0b79    ;; object: 0x1667731f0b79 Cell for 6144
0x5f8a193faa1   705  83430bfc       addl [rbx+0xb],0xfc
0x5f8a193faa5   709  791f           jns 742  (0x5f8a193fac6)
0x5f8a193faa7   711  50             push rax
0x5f8a193faa8   712  e8336cffff     call InterruptCheck  (0x5f8a19366e0)    ;; code: BUILTIN
0x5f8a193faad   717  58             pop rax
0x5f8a193faae   718  48bb790b1f7367160000 REX.W movq rbx,0x1667731f0b79    ;; object: 0x1667731f0b79 Cell for 6144
0x5f8a193fab8   728  49ba0000000000180000 REX.W movq r10,0x180000000000
0x5f8a193fac2   738  4c895307       REX.W movq [rbx+0x7],r10
0x5f8a193fac6   742  c9             leave                    ;; debug: statement 466
0x5f8a193fac7   743  c21800         ret 0x18
0x5f8a193faca   746  660f1f440000   nop

Deoptimization Output Data (deopt points = 81)
ast id        pc  state
     2        13  NO_REGISTERS
     3        13  NO_REGISTERS
    18        27  NO_REGISTERS
    28        37  TOS_REG
    23        41  TOS_REG
    21        41  NO_REGISTERS
    19        41  NO_REGISTERS
    17        46  NO_REGISTERS
    55        46  NO_REGISTERS
    58        46  NO_REGISTERS
    68        56  TOS_REG
    63        60  TOS_REG
    61        60  NO_REGISTERS
    59        60  NO_REGISTERS
    76        60  NO_REGISTERS
    86        70  TOS_REG
    81        74  TOS_REG
    79        74  NO_REGISTERS
    77        74  NO_REGISTERS
    75        79  NO_REGISTERS
   153        79  NO_REGISTERS
   151        83  TOS_REG
   165        84  NO_REGISTERS
   163       114  NO_REGISTERS
   168       126  NO_REGISTERS
   166       129  NO_REGISTERS
   171       129  NO_REGISTERS
   169       132  NO_REGISTERS
   160       152  TOS_REG
   158       160  NO_REGISTERS
   180       160  NO_REGISTERS
   178       163  NO_REGISTERS
   177       163  NO_REGISTERS
   175       167  TOS_REG
   174       186  TOS_REG
   172       186  TOS_REG
   154       243  TOS_REG
   117       278  TOS_REG
   115       282  TOS_REG
   113       282  NO_REGISTERS
    74       282  NO_REGISTERS
   112       282  NO_REGISTERS
   110       286  TOS_REG
   107       315  TOS_REG
   106       339  TOS_REG
   104       339  NO_REGISTERS
    71       384  NO_REGISTERS
    73       384  NO_REGISTERS
    94       384  NO_REGISTERS
    92       387  NO_REGISTERS
   103       387  NO_REGISTERS
   101       391  TOS_REG
    97       419  TOS_REG
    95       419  TOS_REG
    89       454  TOS_REG
    72       478  NO_REGISTERS
   193       478  NO_REGISTERS
   191       481  NO_REGISTERS
   190       481  NO_REGISTERS
   188       484  NO_REGISTERS
   196       484  NO_REGISTERS
   194       488  TOS_REG
   183       495  TOS_REG
   181       495  NO_REGISTERS
    56       495  NO_REGISTERS
    16       495  NO_REGISTERS
    54       495  NO_REGISTERS
    52       499  TOS_REG
    49       528  TOS_REG
    48       552  TOS_REG
    46       552  NO_REGISTERS
    13       597  NO_REGISTERS
    15       597  NO_REGISTERS
    36       597  NO_REGISTERS
    34       600  NO_REGISTERS
    45       600  NO_REGISTERS
    43       604  TOS_REG
    39       632  TOS_REG
    37       632  TOS_REG
    31       667  TOS_REG
    14       691  NO_REGISTERS

Back edges (size = 2)
ast_id  pc_offset  loop_depth
    73        360           2
    15        573           1

0x1667731f1149: [TypeFeedbackInfo]
 - ic_total_count: 12, ic_with_type_info_count: 0, ic_generic_count: 0

RelocInfo (size = 141)
0x5f8a193f7e0  position  (329)
0x5f8a193f7f7  code target (BUILTIN)  (0x5f8a1936820)
0x5f8a193f7fb  statement position  (339)
0x5f8a193f7fb  statement position  (344)
0x5f8a193f80e  statement position  (376)
0x5f8a193f81c  statement position  (391)
0x5f8a193f81c  statement position  (396)
0x5f8a193f82f  statement position  (428)
0x5f8a193f82f  position  (428)
0x5f8a193f834  position  (433)
0x5f8a193f836  embedded object  (0x16677314f071 <String[1]: A>)
0x5f8a193f84d  code target (LOAD_IC)  (0x5f8a1920300)
0x5f8a193f854  embedded object  (0x166773104189 <undefined>)
0x5f8a193f85e  position  (435)
0x5f8a193f861  position  (437)
0x5f8a193f864  position  (433)
0x5f8a193f874  code target (CALL_IC)  (0x5f8a19121c0)
0x5f8a193f880  position  (442)
0x5f8a193f883  position  (444)
0x5f8a193f88b  position  (443)
0x5f8a193f896  code target (KEYED_LOAD_IC)  (0x5f8a192efa0)
0x5f8a193f89a  position  (440)
0x5f8a193f8a9  code target with id (BINARY_OP_IC)  (0x5f8a1910d20) (id=157)
0x5f8a193f8e2  code target with id (BINARY_OP_IC)  (0x5f8a1912d40) (id=120)
0x5f8a193f8f6  position  (430)
0x5f8a193f8fa  statement position  (419)
0x5f8a193f917  code target (STUB)  (0x5f8a192abe0)
0x5f8a193f929  code target with id (BINARY_OP_IC)  (0x5f8a1912d40) (id=108)
0x5f8a193f935  embedded object  (0x1667731f0b79 Cell for 6144)
0x5f8a193f944  code target (BUILTIN)  (0x5f8a19366e0)
0x5f8a193f94a  embedded object  (0x1667731f0b79 Cell for 6144)
0x5f8a193f960  statement position  (406)
0x5f8a193f960  position  (405)
0x5f8a193f963  position  (407)
0x5f8a193f96a  position  (408)
0x5f8a193f96c  embedded object  (0x166773192e71 <String[6]: length>)
0x5f8a193f97f  code target (LOAD_IC)  (0x5f8a1920300)
0x5f8a193f99e  code target with id (COMPARE_IC)  (0x5f8a1917ba0) (id=91)
0x5f8a193f9be  statement position  (452)
0x5f8a193f9be  position  (452)
0x5f8a193f9c1  position  (454)
0x5f8a193f9c4  position  (459)
0x5f8a193f9c8  position  (457)
0x5f8a193f9cb  code target with id (KEYED_STORE_IC)  (0x5f8a19345e0) (id=184)
0x5f8a193f9cf  statement position  (367)
0x5f8a193f9ec  code target (STUB)  (0x5f8a192abe0)
0x5f8a193f9fe  code target with id (BINARY_OP_IC)  (0x5f8a1912d40) (id=50)
0x5f8a193fa0a  embedded object  (0x1667731f0b79 Cell for 6144)
0x5f8a193fa19  code target (BUILTIN)  (0x5f8a19366e0)
0x5f8a193fa1f  embedded object  (0x1667731f0b79 Cell for 6144)
0x5f8a193fa35  statement position  (354)
0x5f8a193fa35  position  (353)
0x5f8a193fa38  position  (355)
0x5f8a193fa3f  position  (356)
0x5f8a193fa41  embedded object  (0x166773192e71 <String[6]: length>)
0x5f8a193fa54  code target (LOAD_IC)  (0x5f8a1920300)
0x5f8a193fa73  code target with id (COMPARE_IC)  (0x5f8a1917ba0) (id=33)
0x5f8a193fa99  embedded object  (0x1667731f0b79 Cell for 6144)
0x5f8a193faa9  code target (BUILTIN)  (0x5f8a19366e0)
0x5f8a193fab0  embedded object  (0x1667731f0b79 Cell for 6144)
0x5f8a193fac6  statement position  (466)

--- End code ---
--- Code ---
kind = STUB
major_key = <NoCache>Stub
name = TransitionElementsKindStub
compiler = crankshaft
Instructions (size = 487)
0x5f8a1941060     0  55             push rbp
0x5f8a1941061     1  4889e5         REX.W movq rbp,rsp
0x5f8a1941064     4  56             push rsi
0x5f8a1941065     5  49ba0000000006000000 REX.W movq r10,0x600000000
0x5f8a194106f    15  4152           push r10
0x5f8a1941071    17  4883ec08       REX.W subq rsp,0x8
0x5f8a1941075    21  f20f110c24     movsd [rsp],xmm1
0x5f8a194107a    26  488d502f       REX.W leaq rdx,[rax+0x2f]
0x5f8a194107e    30  49ba00000004bf180000 REX.W movq r10,0x18bf04000000
0x5f8a1941088    40  493bd2         REX.W cmpq rdx,r10
0x5f8a194108b    43  0f8c1e000000   jl 79  (0x5f8a19410af)
0x5f8a1941091    49  493b95400c0000 REX.W cmpq rdx,[r13+0xc40]
0x5f8a1941098    56  0f8f11000000   jg 79  (0x5f8a19410af)
0x5f8a194109e    62  4d8b95f0080000 REX.W movq r10,[r13+0x8f0]
0x5f8a19410a5    69  4c3952f0       REX.W cmpq [rdx-0x10],r10
0x5f8a19410a9    73  0f846f010000   jz 446  (0x5f8a194121e)
0x5f8a19410af    79  488b500f       REX.W movq rdx,[rax+0xf]
0x5f8a19410b3    83  49ba3941107367160000 REX.W movq r10,0x166773104139    ;; object: 0x166773104139 <FixedArray[0]>
0x5f8a19410bd    93  493bd2         REX.W cmpq rdx,r10
0x5f8a19410c0    96  0f84c1000000   jz 295  (0x5f8a1941187)
0x5f8a19410c6   102  8b4a0b         movl rcx,[rdx+0xb]
0x5f8a19410c9   105  8b781b         movl rdi,[rax+0x1b]
0x5f8a19410cc   108  81f9def70100   cmpl rcx,0x1f7de
0x5f8a19410d2   114  0f8350010000   jnc 456  (0x5f8a1941228)
0x5f8a19410d8   120  448bc1         movl r8,rcx
0x5f8a19410db   123  49c1e020       REX.W shlq r8, 32
0x5f8a19410df   127  c1e103         shll rcx, 3
0x5f8a19410e2   130  83c110         addl rcx,0x10
0x5f8a19410e5   133  4d8b9d400c0000 REX.W movq r11,[r13+0xc40]
0x5f8a19410ec   140  4c8bc9         REX.W movq r9,rcx
0x5f8a19410ef   143  4d03cb         REX.W addq r9,r11
0x5f8a19410f2   146  0f82cc000000   jc 356  (0x5f8a19411c4)
0x5f8a19410f8   152  4d3b8d480c0000 REX.W cmpq r9,[r13+0xc48]
0x5f8a19410ff   159  0f87bf000000   ja 356  (0x5f8a19411c4)
0x5f8a1941105   165  4d898d400c0000 REX.W movq [r13+0xc40],r9
0x5f8a194110c   172  4983c301       REX.W addq r11,0x1
0x5f8a1941110   176  49baa94be0de942f0000 REX.W movq r10,0x2f94dee04ba9    ;; object: 0x2f94dee04ba9 <Map(FAST_HOLEY_ELEMENTS)>
0x5f8a194111a   186  4d8953ff       REX.W movq [r11-0x1],r10
0x5f8a194111e   190  4d894307       REX.W movq [r11+0x7],r8
0x5f8a1941122   194  49bafffff7fffffff7ff REX.W movq r10,0xfff7fffffff7ffff
0x5f8a194112c   204  66490f6eca     REX.W movq xmm1,r10
0x5f8a1941131   209  418b4b0b       movl rcx,[r11+0xb]
0x5f8a1941135   213  3bcf           cmpl rcx,rdi
0x5f8a1941137   215  0f8e0c000000   jle 233  (0x5f8a1941149)
0x5f8a194113d   221  83e901         subl rcx,0x1
0x5f8a1941140   224  f2410f114ccb0f movsd [r11+rcx*8+0xf],xmm1
0x5f8a1941147   231  ebec           jmp 213  (0x5f8a1941135)
0x5f8a1941149   233  83ff00         cmpl rdi,0x0
0x5f8a194114c   236  0f8e17000000   jle 265  (0x5f8a1941169)
0x5f8a1941152   242  83ef01         subl rdi,0x1
0x5f8a1941155   245  8b4cfa13       movl rcx,[rdx+rdi*8+0x13]
0x5f8a1941159   249  0f57c9         xorps xmm1,xmm1
0x5f8a194115c   252  f20f2ac9       cvtsi2sd xmm1,rcx
0x5f8a1941160   256  f2410f114cfb0f movsd [r11+rdi*8+0xf],xmm1
0x5f8a1941167   263  ebe0           jmp 233  (0x5f8a1941149)
0x5f8a1941169   265  4c89580f       REX.W movq [rax+0xf],r11
0x5f8a194116d   269  488d500f       REX.W leaq rdx,[rax+0xf]
0x5f8a1941171   273  49c7c30000f0ff REX.W movq r11,0xfff00000
0x5f8a1941178   280  4c23d8         REX.W andq r11,rax
0x5f8a194117b   283  41f6430808     testb [r11+0x8],0x8
0x5f8a1941180   288  7405           jz 295  (0x5f8a1941187)
0x5f8a1941182   290  e8d9e9ffff     call 0x5f8a193fb60       ;; code: STUB, RecordWriteStub, minor: 8880
0x5f8a1941187   295  488958ff       REX.W movq [rax-0x1],rbx
0x5f8a194118b   299  f6c301         testb rbx,0x1
0x5f8a194118e   302  0f8426000000   jz 346  (0x5f8a19411ba)
0x5f8a1941194   308  488d50ff       REX.W leaq rdx,[rax-0x1]
0x5f8a1941198   312  4881e30000f0ff REX.W andq rbx,0xfffffffffff00000
0x5f8a194119f   319  f6430804       testb [rbx+0x8],0x4
0x5f8a19411a3   323  7415           jz 346  (0x5f8a19411ba)
0x5f8a19411a5   325  48c7c30000f0ff REX.W movq rbx,0xfff00000
0x5f8a19411ac   332  4823d8         REX.W andq rbx,rax
0x5f8a19411af   335  f6430808       testb [rbx+0x8],0x8
0x5f8a19411b3   339  7405           jz 346  (0x5f8a19411ba)
0x5f8a19411b5   341  e826f4ffff     call 0x5f8a19405e0       ;; code: STUB, RecordWriteStub, minor: 8752
0x5f8a19411ba   346  f20f100c24     movsd xmm1,[rsp]
0x5f8a19411bf   351  488be5         REX.W movq rsp,rbp
0x5f8a19411c2   354  5d             pop rbp
0x5f8a19411c3   355  c3             ret
0x5f8a19411c4   356  49bb0000000000000000 REX.W movq r11,0x0
0x5f8a19411ce   366  50             push rax
0x5f8a19411cf   367  51             push rcx
0x5f8a19411d0   368  52             push rdx
0x5f8a19411d1   369  53             push rbx
0x5f8a19411d2   370  56             push rsi
0x5f8a19411d3   371  57             push rdi
0x5f8a19411d4   372  4150           push r8
0x5f8a19411d6   374  4151           push r9
0x5f8a19411d8   376  4153           push r11
0x5f8a19411da   378  4154           push r12
0x5f8a19411dc   380  4156           push r14
0x5f8a19411de   382  4157           push r15
0x5f8a19411e0   384  488d6424e0     REX.W leaq rsp,[rsp-0x20]
0x5f8a19411e5   389  48c1e120       REX.W shlq rcx, 32
0x5f8a19411e9   393  51             push rcx
0x5f8a19411ea   394  6a00           push 0x0
0x5f8a19411ec   396  b802000000     movl rax,0x2
0x5f8a19411f1   401  498d9df86f86fd REX.W leaq rbx,[r13-0x2799008]
0x5f8a19411f8   408  e88350fcff     call 0x5f8a1906280       ;; code: STUB, CEntryStub, minor: 1
0x5f8a19411fd   413  4889442438     REX.W movq [rsp+0x38],rax
0x5f8a1941202   418  488d642420     REX.W leaq rsp,[rsp+0x20]
0x5f8a1941207   423  415f           pop r15
0x5f8a1941209   425  415e           pop r14
0x5f8a194120b   427  415c           pop r12
0x5f8a194120d   429  415b           pop r11
0x5f8a194120f   431  4159           pop r9
0x5f8a1941211   433  4158           pop r8
0x5f8a1941213   435  5f             pop rdi
0x5f8a1941214   436  5e             pop rsi
0x5f8a1941215   437  5b             pop rbx
0x5f8a1941216   438  5a             pop rdx
0x5f8a1941217   439  59             pop rcx
0x5f8a1941218   440  58             pop rax
0x5f8a1941219   441  e9f2feffff     jmp 176  (0x5f8a1941110)
0x5f8a194121e   446  f20f100c24     movsd xmm1,[rsp]
0x5f8a1941223   451  e8d84ddcff     call 0x5f8a1706000       ;; lazy deoptimization bailout 0
0x5f8a1941228   456  f20f100c24     movsd xmm1,[rsp]
0x5f8a194122d   461  e8d84ddcff     call 0x5f8a170600a       ;; lazy deoptimization bailout 1
0x5f8a1941232   466  6690           nop


Safepoints (size = 19)
0x5f8a19411fd   413  0 | rax | rdx | rbx | rsi | r11 (sp -> fp)  <none> argc: 2

RelocInfo (size = 17)
0x5f8a19410b5  embedded object  (0x166773104139 <FixedArray[0]>)
0x5f8a1941112  embedded object  (0x2f94dee04ba9 <Map(FAST_HOLEY_ELEMENTS)>)
0x5f8a1941183  code target (STUB)  (0x5f8a193fb60)
0x5f8a19411b6  code target (STUB)  (0x5f8a19405e0)
0x5f8a19411f9  code target (STUB)  (0x5f8a1906280)
0x5f8a1941224  runtime entry
0x5f8a194122e  runtime entry

--- End code ---
--- Raw source ---
(u,v) {
  for (var i=0; i<u.length; ++i) {
    var t = 0;
    for (var j=0; j<u.length; ++j)
      t += A(j,i) * u[j];
    v[i] = t;
  }
}


--- Optimized code ---
optimization_id = 1
source_position = 329
kind = OPTIMIZED_FUNCTION
name = Atu
stack_slots = 3
compiler = crankshaft
Instructions (size = 724)
0x5f8a19412c0     0  55             push rbp
0x5f8a19412c1     1  4889e5         REX.W movq rbp,rsp
0x5f8a19412c4     4  56             push rsi
0x5f8a19412c5     5  57             push rdi
0x5f8a19412c6     6  4883ec18       REX.W subq rsp,0x18
0x5f8a19412ca    10  488b45f8       REX.W movq rax,[rbp-0x8]
0x5f8a19412ce    14  488945e8       REX.W movq [rbp-0x18],rax
0x5f8a19412d2    18  488bf0         REX.W movq rsi,rax
0x5f8a19412d5    21  493ba540090000 REX.W cmpq rsp,[r13+0x940]
0x5f8a19412dc    28  7305           jnc 35  (0x5f8a19412e3)
0x5f8a19412de    30  e83d55ffff     call StackCheck  (0x5f8a1936820)    ;; code: BUILTIN
0x5f8a19412e3    35  488b5d18       REX.W movq rbx,[rbp+0x18]
0x5f8a19412e7    39  f6c301         testb rbx,0x1            ;; debug: position 354
0x5f8a19412ea    42  0f8433020000   jz 611  (0x5f8a1941523)
0x5f8a19412f0    48  0f57c9         xorps xmm1,xmm1
0x5f8a19412f3    51  f20f114de0     movsd [rbp-0x20],xmm1
0x5f8a19412f8    56  49ba000000000000f03f REX.W movq r10,0x3ff0000000000000    ;; debug: position 139
0x5f8a1941302    66  66490f6ed2     REX.W movq xmm2,r10
0x5f8a1941307    71  f20f1155d8     movsd [rbp-0x28],xmm2
0x5f8a194130c    76  488b5510       REX.W movq rdx,[rbp+0x10]
0x5f8a1941310    80  f6c201         testb rdx,0x1            ;; debug: position 419
0x5f8a1941313    83  0f840f020000   jz 616  (0x5f8a1941528)
0x5f8a1941319    89  488bc2         REX.W movq rax,rdx
0x5f8a194131c    92  488b75e8       REX.W movq rsi,[rbp-0x18]
0x5f8a1941320    96  49ba91abe0de942f0000 REX.W movq r10,0x2f94dee0ab91    ;; object: 0x2f94dee0ab91 <Map(FAST_SMI_ELEMENTS)>
0x5f8a194132a   106  4c3950ff       REX.W cmpq [rax-0x1],r10
0x5f8a194132e   110  0f853d000000   jnz 177  (0x5f8a1941371)
0x5f8a1941334   116  50             push rax
0x5f8a1941335   117  51             push rcx
0x5f8a1941336   118  52             push rdx
0x5f8a1941337   119  53             push rbx
0x5f8a1941338   120  56             push rsi
0x5f8a1941339   121  57             push rdi
0x5f8a194133a   122  4150           push r8
0x5f8a194133c   124  4151           push r9
0x5f8a194133e   126  4153           push r11
0x5f8a1941340   128  4154           push r12
0x5f8a1941342   130  4156           push r14
0x5f8a1941344   132  4157           push r15
0x5f8a1941346   134  488d6424e0     REX.W leaq rsp,[rsp-0x20]
0x5f8a194134b   139  48bb41ace0de942f0000 REX.W movq rbx,0x2f94dee0ac41    ;; object: 0x2f94dee0ac41 <Map(FAST_DOUBLE_ELEMENTS)>
0x5f8a1941355   149  e806fdffff     call 0x5f8a1941060       ;; code: STUB, TransitionElementsKindStub, minor: 65540
0x5f8a194135a   154  488d642420     REX.W leaq rsp,[rsp+0x20]
0x5f8a194135f   159  415f           pop r15
0x5f8a1941361   161  415e           pop r14
0x5f8a1941363   163  415c           pop r12
0x5f8a1941365   165  415b           pop r11
0x5f8a1941367   167  4159           pop r9
0x5f8a1941369   169  4158           pop r8
0x5f8a194136b   171  5f             pop rdi
0x5f8a194136c   172  5e             pop rsi
0x5f8a194136d   173  5b             pop rbx
0x5f8a194136e   174  5a             pop rdx
0x5f8a194136f   175  59             pop rcx
0x5f8a1941370   176  58             pop rax
0x5f8a1941371   177  488b4518       REX.W movq rax,[rbp+0x18]
0x5f8a1941375   181  49ba41ace0de942f0000 REX.W movq r10,0x2f94dee0ac41    ;; debug: position 354
                                                             ;; object: 0x2f94dee0ac41 <Map(FAST_DOUBLE_ELEMENTS)>
0x5f8a194137f   191  4c3950ff       REX.W cmpq [rax-0x1],r10
0x5f8a1941383   195  0f85a4010000   jnz 621  (0x5f8a194152d)
0x5f8a1941389   201  8b581b         movl rbx,[rax+0x1b]
0x5f8a194138c   204  488b500f       REX.W movq rdx,[rax+0xf]    ;; debug: position 139
0x5f8a1941390   208  488b4d10       REX.W movq rcx,[rbp+0x10]
0x5f8a1941394   212  49ba41ace0de942f0000 REX.W movq r10,0x2f94dee0ac41    ;; debug: position 419
                                                             ;; object: 0x2f94dee0ac41 <Map(FAST_DOUBLE_ELEMENTS)>
0x5f8a194139e   222  4c3951ff       REX.W cmpq [rcx-0x1],r10
0x5f8a19413a2   226  0f858a010000   jnz 626  (0x5f8a1941532)
0x5f8a19413a8   232  488b710f       REX.W movq rsi,[rcx+0xf]
0x5f8a19413ac   236  8b791b         movl rdi,[rcx+0x1b]
0x5f8a19413af   239  f20f104dd8     movsd xmm1,[rbp-0x28]
0x5f8a19413b4   244  4533c0         xorl r8,r8
0x5f8a19413b7   247  443bc3         cmpl r8,rbx              ;; debug: position 354
0x5f8a19413ba   250  0f8dc8000000   jge 456  (0x5f8a1941488)
0x5f8a19413c0   256  493ba540090000 REX.W cmpq rsp,[r13+0x940]
0x5f8a19413c7   263  0f82cc000000   jc 473  (0x5f8a1941499)
0x5f8a19413cd   269  f20f1055e0     movsd xmm2,[rbp-0x20]
0x5f8a19413d2   274  4533c9         xorl r9,r9
0x5f8a19413d5   277  443bcb         cmpl r9,rbx              ;; debug: position 406
0x5f8a19413d8   280  0f8d8a000000   jge 424  (0x5f8a1941468)
0x5f8a19413de   286  493ba540090000 REX.W cmpq rsp,[r13+0x940]
0x5f8a19413e5   293  0f82f3000000   jc 542  (0x5f8a19414de)
0x5f8a19413eb   299  4d8bd9         REX.W movq r11,r9
0x5f8a19413ee   302  4503d8         addl r11,r8              ;; debug: position 143
0x5f8a19413f1   305  0f8040010000   jo 631  (0x5f8a1941537)
0x5f8a19413f7   311  4d8be3         REX.W movq r12,r11
0x5f8a19413fa   314  4183c401       addl r12,0x1             ;; debug: position 151
0x5f8a19413fe   318  0f8038010000   jo 636  (0x5f8a194153c)
0x5f8a1941404   324  450fafe3       imull r12,r11            ;; debug: position 146
0x5f8a1941408   328  0f8033010000   jo 641  (0x5f8a1941541)
0x5f8a194140e   334  41f6c401       testb r12,0x1            ;; debug: position 154
0x5f8a1941412   338  0f852e010000   jnz 646  (0x5f8a1941546)
0x5f8a1941418   344  4d89e3         REX.W movq r11,r12
0x5f8a194141b   347  41c1eb1f       shrl r11, 31
0x5f8a194141f   351  4501e3         addl r11,r12
0x5f8a1941422   354  41d1fb         sarl r11, 1
0x5f8a1941425   357  4503d9         addl r11,r9              ;; debug: position 156
0x5f8a1941428   360  0f801d010000   jo 651  (0x5f8a194154b)
0x5f8a194142e   366  4183c301       addl r11,0x1             ;; debug: position 158
0x5f8a1941432   370  0f8018010000   jo 656  (0x5f8a1941550)
0x5f8a1941438   376  0f57db         xorps xmm3,xmm3          ;; debug: position 139
0x5f8a194143b   379  f2410f2adb     cvtsi2sd xmm3,r11
0x5f8a1941440   384  c5f35edb       vdivsd xmm3,xmm1,xmm3
0x5f8a1941444   388  0f28db         movaps xmm3,xmm3
0x5f8a1941447   391  413bd9         cmpl rbx,r9
0x5f8a194144a   394  0f8605010000   jna 661  (0x5f8a1941555)
0x5f8a1941450   400  f2420f1064ca0f movsd xmm4,[rdx+r9*8+0xf]
0x5f8a1941457   407  c5db59db       vmulsd xmm3,xmm4,xmm3    ;; debug: position 440
0x5f8a194145b   411  c5eb58d3       vaddsd xmm2,xmm2,xmm3    ;; debug: position 431
0x5f8a194145f   415  4183c101       addl r9,0x1              ;; debug: position 419
0x5f8a1941463   419  e96dffffff     jmp 277  (0x5f8a19413d5)
0x5f8a1941468   424  413bf8         cmpl rdi,r8
0x5f8a194146b   427  0f86e9000000   jna 666  (0x5f8a194155a)
0x5f8a1941471   433  0f57c0         xorps xmm0,xmm0
0x5f8a1941474   436  f20f5cd0       subsd xmm2,xmm0
0x5f8a1941478   440  f2420f1154c60f movsd [rsi+r8*8+0xf],xmm2
0x5f8a194147f   447  4183c001       addl r8,0x1              ;; debug: position 367
0x5f8a1941483   451  e92fffffff     jmp 247  (0x5f8a19413b7)
0x5f8a1941488   456  48b88941107367160000 REX.W movq rax,0x166773104189    ;; object: 0x166773104189 <undefined>
0x5f8a1941492   466  488be5         REX.W movq rsp,rbp
0x5f8a1941495   469  5d             pop rbp
0x5f8a1941496   470  c21800         ret 0x18
0x5f8a1941499   473  50             push rax                 ;; debug: position 354
0x5f8a194149a   474  51             push rcx
0x5f8a194149b   475  52             push rdx
0x5f8a194149c   476  53             push rbx
0x5f8a194149d   477  56             push rsi
0x5f8a194149e   478  57             push rdi
0x5f8a194149f   479  4150           push r8
0x5f8a19414a1   481  4151           push r9
0x5f8a19414a3   483  4153           push r11
0x5f8a19414a5   485  4154           push r12
0x5f8a19414a7   487  4156           push r14
0x5f8a19414a9   489  4157           push r15
0x5f8a19414ab   491  488d6424e0     REX.W leaq rsp,[rsp-0x20]
0x5f8a19414b0   496  488b75f8       REX.W movq rsi,[rbp-0x8]
0x5f8a19414b4   500  33c0           xorl rax,rax
0x5f8a19414b6   502  498d9d686b86fd REX.W leaq rbx,[r13-0x2799498]
0x5f8a19414bd   509  e8be4dfcff     call 0x5f8a1906280       ;; code: STUB, CEntryStub, minor: 1
0x5f8a19414c2   514  488d642420     REX.W leaq rsp,[rsp+0x20]
0x5f8a19414c7   519  415f           pop r15
0x5f8a19414c9   521  415e           pop r14
0x5f8a19414cb   523  415c           pop r12
0x5f8a19414cd   525  415b           pop r11
0x5f8a19414cf   527  4159           pop r9
0x5f8a19414d1   529  4158           pop r8
0x5f8a19414d3   531  5f             pop rdi
0x5f8a19414d4   532  5e             pop rsi
0x5f8a19414d5   533  5b             pop rbx
0x5f8a19414d6   534  5a             pop rdx
0x5f8a19414d7   535  59             pop rcx
0x5f8a19414d8   536  58             pop rax
0x5f8a19414d9   537  e9effeffff     jmp 269  (0x5f8a19413cd)
0x5f8a19414de   542  50             push rax                 ;; debug: position 406
0x5f8a19414df   543  51             push rcx
0x5f8a19414e0   544  52             push rdx
0x5f8a19414e1   545  53             push rbx
0x5f8a19414e2   546  56             push rsi
0x5f8a19414e3   547  57             push rdi
0x5f8a19414e4   548  4150           push r8
0x5f8a19414e6   550  4151           push r9
0x5f8a19414e8   552  4153           push r11
0x5f8a19414ea   554  4154           push r12
0x5f8a19414ec   556  4156           push r14
0x5f8a19414ee   558  4157           push r15
0x5f8a19414f0   560  488d6424e0     REX.W leaq rsp,[rsp-0x20]
0x5f8a19414f5   565  488b75f8       REX.W movq rsi,[rbp-0x8]
0x5f8a19414f9   569  33c0           xorl rax,rax
0x5f8a19414fb   571  498d9d686b86fd REX.W leaq rbx,[r13-0x2799498]
0x5f8a1941502   578  e8794dfcff     call 0x5f8a1906280       ;; code: STUB, CEntryStub, minor: 1
0x5f8a1941507   583  488d642420     REX.W leaq rsp,[rsp+0x20]
0x5f8a194150c   588  415f           pop r15
0x5f8a194150e   590  415e           pop r14
0x5f8a1941510   592  415c           pop r12
0x5f8a1941512   594  415b           pop r11
0x5f8a1941514   596  4159           pop r9
0x5f8a1941516   598  4158           pop r8
0x5f8a1941518   600  5f             pop rdi
0x5f8a1941519   601  5e             pop rsi
0x5f8a194151a   602  5b             pop rbx
0x5f8a194151b   603  5a             pop rdx
0x5f8a194151c   604  59             pop rcx
0x5f8a194151d   605  58             pop rax
0x5f8a194151e   606  e9c8feffff     jmp 299  (0x5f8a19413eb)
0x5f8a1941523   611  e8e24accff     call 0x5f8a160600a       ;; deoptimization bailout 1
0x5f8a1941528   616  e8e74accff     call 0x5f8a1606014       ;; deoptimization bailout 2
0x5f8a194152d   621  e8f64accff     call 0x5f8a1606028       ;; deoptimization bailout 4
0x5f8a1941532   626  e8fb4accff     call 0x5f8a1606032       ;; deoptimization bailout 5
0x5f8a1941537   631  e8144bccff     call 0x5f8a1606050       ;; deoptimization bailout 8
0x5f8a194153c   636  e8194bccff     call 0x5f8a160605a       ;; deoptimization bailout 9
0x5f8a1941541   641  e81e4bccff     call 0x5f8a1606064       ;; deoptimization bailout 10
0x5f8a1941546   646  e8234bccff     call 0x5f8a160606e       ;; deoptimization bailout 11
0x5f8a194154b   651  e8284bccff     call 0x5f8a1606078       ;; deoptimization bailout 12
0x5f8a1941550   656  e82d4bccff     call 0x5f8a1606082       ;; deoptimization bailout 13
0x5f8a1941555   661  e8324bccff     call 0x5f8a160608c       ;; deoptimization bailout 14
0x5f8a194155a   666  e8374bccff     call 0x5f8a1606096       ;; deoptimization bailout 15
0x5f8a194155f   671  90             nop

Inlined functions (count = 1)
 0x1667731ee689 <SharedFunctionInfo A>

Deoptimization Input Data (deopt points = 16)
 index  ast id    argc     pc
     0       3       0     35
     1      13       0     -1
     2      13       0     -1
     3      13       0    177
     4      13       0     -1
     5      13       0     -1
     6      17       0    269
     7      75       0    299
     8       2       0     -1
     9       2       0     -1
    10       2       0     -1
    11       2       0     -1
    12       2       0     -1
    13       2       0     -1
    14     158       0     -1
    15      72       0     -1

Safepoints (size = 52)
0x5f8a19412e3    35  001 (sp -> fp)       0
0x5f8a194135a   154  001 | rax | rsi (sp -> fp)       3
0x5f8a19414c2   514  001 | rax | rcx | rdx | rsi (sp -> fp)       6
0x5f8a1941507   583  001 | rax | rcx | rdx | rsi (sp -> fp)       7

RelocInfo (size = 123)
0x5f8a19412df  code target (BUILTIN)  (0x5f8a1936820)
0x5f8a19412e7  position  (354)
0x5f8a19412f8  position  (139)
0x5f8a1941310  position  (419)
0x5f8a1941322  embedded object  (0x2f94dee0ab91 <Map(FAST_SMI_ELEMENTS)>)
0x5f8a194134d  embedded object  (0x2f94dee0ac41 <Map(FAST_DOUBLE_ELEMENTS)>)
0x5f8a1941356  code target (STUB)  (0x5f8a1941060)
0x5f8a1941375  position  (354)
0x5f8a1941377  embedded object  (0x2f94dee0ac41 <Map(FAST_DOUBLE_ELEMENTS)>)
0x5f8a194138c  position  (139)
0x5f8a1941394  position  (419)
0x5f8a1941396  embedded object  (0x2f94dee0ac41 <Map(FAST_DOUBLE_ELEMENTS)>)
0x5f8a19413b7  position  (354)
0x5f8a19413d5  position  (406)
0x5f8a19413ee  position  (143)
0x5f8a19413fa  position  (151)
0x5f8a1941404  position  (146)
0x5f8a194140e  position  (154)
0x5f8a1941425  position  (156)
0x5f8a194142e  position  (158)
0x5f8a1941438  position  (139)
0x5f8a1941457  position  (440)
0x5f8a194145b  position  (431)
0x5f8a194145f  position  (419)
0x5f8a194147f  position  (367)
0x5f8a194148a  embedded object  (0x166773104189 <undefined>)
0x5f8a1941499  position  (354)
0x5f8a19414be  code target (STUB)  (0x5f8a1906280)
0x5f8a19414de  position  (406)
0x5f8a1941503  code target (STUB)  (0x5f8a1906280)
0x5f8a1941524  runtime entry  (deoptimization bailout 1)
0x5f8a1941529  runtime entry  (deoptimization bailout 2)
0x5f8a194152e  runtime entry  (deoptimization bailout 4)
0x5f8a1941533  runtime entry  (deoptimization bailout 5)
0x5f8a1941538  runtime entry  (deoptimization bailout 8)
0x5f8a194153d  runtime entry  (deoptimization bailout 9)
0x5f8a1941542  runtime entry  (deoptimization bailout 10)
0x5f8a1941547  runtime entry  (deoptimization bailout 11)
0x5f8a194154c  runtime entry  (deoptimization bailout 12)
0x5f8a1941551  runtime entry  (deoptimization bailout 13)
0x5f8a1941556  runtime entry  (deoptimization bailout 14)
0x5f8a194155b  runtime entry  (deoptimization bailout 15)

--- End code ---
--- Raw source ---
(u,v) {
  for (var i=0; i<u.length; ++i) {
    var t = 0;
    for (var j=0; j<u.length; ++j)
      t += A(i,j) * u[j];
    v[i] = t;
  }
}


--- Code ---
source_position = 177
kind = FUNCTION
name = Au
compiler = full-codegen
Instructions (size = 780)
0x5f8a1941600     0  55             push rbp                 ;; debug: position 177
0x5f8a1941601     1  4889e5         REX.W movq rbp,rsp
0x5f8a1941604     4  56             push rsi
0x5f8a1941605     5  57             push rdi
0x5f8a1941606     6  498b55a8       REX.W movq rdx,[r13-0x58]
0x5f8a194160a    10  52             push rdx
0x5f8a194160b    11  52             push rdx
0x5f8a194160c    12  52             push rdx
0x5f8a194160d    13  493ba540090000 REX.W cmpq rsp,[r13+0x940]
0x5f8a1941614    20  7305           jnc 27  (0x5f8a194161b)
0x5f8a1941616    22  e80552ffff     call StackCheck  (0x5f8a1936820)    ;; code: BUILTIN
0x5f8a194161b    27  48b80000000000000000 REX.W movq rax,0x0    ;; debug: statement 187
                                                             ;; debug: statement 192
0x5f8a1941625    37  488945e8       REX.W movq [rbp-0x18],rax
0x5f8a1941629    41  e927020000     jmp 597  (0x5f8a1941855)
0x5f8a194162e    46  48b80000000000000000 REX.W movq rax,0x0    ;; debug: statement 224
0x5f8a1941638    56  488945e0       REX.W movq [rbp-0x20],rax
0x5f8a194163c    60  48b80000000000000000 REX.W movq rax,0x0    ;; debug: statement 239
                                                             ;; debug: statement 244
0x5f8a1941646    70  488945d8       REX.W movq [rbp-0x28],rax
0x5f8a194164a    74  e931010000     jmp 384  (0x5f8a1941780)
0x5f8a194164f    79  488b45e0       REX.W movq rax,[rbp-0x20]    ;; debug: statement 276
                                                             ;; debug: position 276
0x5f8a1941653    83  50             push rax
0x5f8a1941654    84  48b971f0147367160000 REX.W movq rcx,0x16677314f071    ;; debug: position 281
                                                             ;; object: 0x16677314f071 <String[1]: A>
0x5f8a194165e    94  488b5627       REX.W movq rdx,[rsi+0x27]
0x5f8a1941662    98  48b8000000000a000000 REX.W movq rax,0xa00000000
0x5f8a194166c   108  e88fecfdff     call 0x5f8a1920300       ;; code: contextual, LOAD_IC, DEFAULT
0x5f8a1941671   113  50             push rax
0x5f8a1941672   114  49ba8941107367160000 REX.W movq r10,0x166773104189    ;; object: 0x166773104189 <undefined>
0x5f8a194167c   124  4152           push r10
0x5f8a194167e   126  ff75e8         push [rbp-0x18]          ;; debug: position 283
0x5f8a1941681   129  ff75d8         push [rbp-0x28]          ;; debug: position 285
0x5f8a1941684   132  48ba000000000e000000 REX.W movq rdx,0xe00000000    ;; debug: position 281
0x5f8a194168e   142  488b7c2418     REX.W movq rdi,[rsp+0x18]
0x5f8a1941693   147  e8280bfdff     call 0x5f8a19121c0       ;; code: CALL_IC, DEFAULT
0x5f8a1941698   152  488b75f8       REX.W movq rsi,[rbp-0x8]
0x5f8a194169c   156  48890424       REX.W movq [rsp],rax
0x5f8a19416a0   160  ff7518         push [rbp+0x18]          ;; debug: position 290
0x5f8a19416a3   163  488b45d8       REX.W movq rax,[rbp-0x28]    ;; debug: position 292
0x5f8a19416a7   167  488bc8         REX.W movq rcx,rax
0x5f8a19416aa   170  5a             pop rdx
0x5f8a19416ab   171  48b80000000010000000 REX.W movq rax,0x1000000000    ;; debug: position 291
0x5f8a19416b5   181  e8e6d8feff     call 0x5f8a192efa0       ;; code: KEYED_LOAD_IC, DEFAULT
0x5f8a19416ba   186  5a             pop rdx                  ;; debug: position 288
0x5f8a19416bb   187  488bc8         REX.W movq rcx,rax
0x5f8a19416be   190  480bc2         REX.W orq rax,rdx
0x5f8a19416c1   193  a801           test al,0x1
0x5f8a19416c3   195  720c           jc 209  (0x5f8a19416d1)
0x5f8a19416c5   197  488bc1         REX.W movq rax,rcx
0x5f8a19416c8   200  e853f6fcff     call 0x5f8a1910d20       ;; code: BINARY_OP_IC, UNINITIALIZED (id = 157)
0x5f8a19416cd   205  a80a           test al,0xa
0x5f8a19416cf   207  eb22           jmp 243  (0x5f8a19416f3)
0x5f8a19416d1   209  488bc2         REX.W movq rax,rdx
0x5f8a19416d4   212  48c1f820       REX.W sarq rax, 32
0x5f8a19416d8   216  480fafc1       REX.W imulq rax,rcx
0x5f8a19416dc   220  0f80e3ffffff   jo 197  (0x5f8a19416c5)
0x5f8a19416e2   226  4885c0         REX.W testq rax,rax
0x5f8a19416e5   229  750c           jnz 243  (0x5f8a19416f3)
0x5f8a19416e7   231  4c8bd2         REX.W movq r10,rdx
0x5f8a19416ea   234  4c33d1         REX.W xorq r10,rcx
0x5f8a19416ed   237  0f88d2ffffff   js 197  (0x5f8a19416c5)
0x5f8a19416f3   243  5a             pop rdx
0x5f8a19416f4   244  488bc8         REX.W movq rcx,rax
0x5f8a19416f7   247  480bc2         REX.W orq rax,rdx
0x5f8a19416fa   250  a801           test al,0x1
0x5f8a19416fc   252  720c           jc 266  (0x5f8a194170a)
0x5f8a19416fe   254  488bc1         REX.W movq rax,rcx
0x5f8a1941701   257  e83a16fdff     call 0x5f8a1912d40       ;; code: BINARY_OP_IC, UNINITIALIZED (id = 120)
0x5f8a1941706   262  a80a           test al,0xa
0x5f8a1941708   264  eb0c           jmp 278  (0x5f8a1941716)
0x5f8a194170a   266  488bc2         REX.W movq rax,rdx
0x5f8a194170d   269  4803c1         REX.W addq rax,rcx
0x5f8a1941710   272  0f80e8ffffff   jo 254  (0x5f8a19416fe)
0x5f8a1941716   278  488945e0       REX.W movq [rbp-0x20],rax    ;; debug: position 278
0x5f8a194171a   282  488b45d8       REX.W movq rax,[rbp-0x28]    ;; debug: statement 267
0x5f8a194171e   286  a801           test al,0x1
0x5f8a1941720   288  7314           jnc 310  (0x5f8a1941736)
0x5f8a1941722   290  49ba0000000001000000 REX.W movq r10,0x100000000
0x5f8a194172c   300  4903c2         REX.W addq rax,r10
0x5f8a194172f   303  711e           jno 335  (0x5f8a194174f)
0x5f8a1941731   305  492bc2         REX.W subq rax,r10
0x5f8a1941734   308  eb05           jmp 315  (0x5f8a194173b)
0x5f8a1941736   310  e8a594feff     call 0x5f8a192abe0       ;; code: STUB, ToNumberStub, minor: 0
0x5f8a194173b   315  488bd0         REX.W movq rdx,rax
0x5f8a194173e   318  48b80000000001000000 REX.W movq rax,0x100000000
0x5f8a1941748   328  e8f315fdff     call 0x5f8a1912d40       ;; code: BINARY_OP_IC, UNINITIALIZED (id = 108)
0x5f8a194174d   333  a82d           test al,0x2d
0x5f8a194174f   335  488945d8       REX.W movq [rbp-0x28],rax
0x5f8a1941753   339  48bb011a1f7367160000 REX.W movq rbx,0x1667731f1a01    ;; object: 0x1667731f1a01 Cell for 6144
0x5f8a194175d   349  83430bff       addl [rbx+0xb],0xff
0x5f8a1941761   353  791d           jns 384  (0x5f8a1941780)
0x5f8a1941763   355  e8784fffff     call InterruptCheck  (0x5f8a19366e0)    ;; code: BUILTIN
0x5f8a1941768   360  48bb011a1f7367160000 REX.W movq rbx,0x1667731f1a01    ;; object: 0x1667731f1a01 Cell for 6144
0x5f8a1941772   370  49ba0000000000180000 REX.W movq r10,0x180000000000
0x5f8a194177c   380  4c895307       REX.W movq [rbx+0x7],r10
0x5f8a1941780   384  ff75d8         push [rbp-0x28]          ;; debug: statement 254
                                                             ;; debug: position 253
0x5f8a1941783   387  488b4518       REX.W movq rax,[rbp+0x18]    ;; debug: position 255
0x5f8a1941787   391  488bd0         REX.W movq rdx,rax
0x5f8a194178a   394  48b9712e197367160000 REX.W movq rcx,0x166773192e71    ;; debug: position 256
                                                             ;; object: 0x166773192e71 <String[6]: length>
0x5f8a1941794   404  48b80000000006000000 REX.W movq rax,0x600000000
0x5f8a194179e   414  e85debfdff     call 0x5f8a1920300       ;; code: contextual, LOAD_IC, DEFAULT
0x5f8a19417a3   419  5a             pop rdx
0x5f8a19417a4   420  488bca         REX.W movq rcx,rdx
0x5f8a19417a7   423  480bc8         REX.W orq rcx,rax
0x5f8a19417aa   426  f6c101         testb rcx,0x1
0x5f8a19417ad   429  730e           jnc 445  (0x5f8a19417bd)
0x5f8a19417af   431  483bd0         REX.W cmpq rdx,rax
0x5f8a19417b2   434  0f8c97feffff   jl 79  (0x5f8a194164f)
0x5f8a19417b8   440  e921000000     jmp 478  (0x5f8a19417de)
0x5f8a19417bd   445  e8de63fdff     call 0x5f8a1917ba0       ;; code: COMPARE_IC, UNINITIALIZED (id = 91)
0x5f8a19417c2   450  a815           test al,0x15
0x5f8a19417c4   452  eb0f           jmp 469  (0x5f8a19417d5)
0x5f8a19417c6   454  493b45c0       REX.W cmpq rax,[r13-0x40]
0x5f8a19417ca   458  0f847ffeffff   jz 79  (0x5f8a194164f)
0x5f8a19417d0   464  e909000000     jmp 478  (0x5f8a19417de)
0x5f8a19417d5   469  4885c0         REX.W testq rax,rax
0x5f8a19417d8   472  0f8c71feffff   jl 79  (0x5f8a194164f)
0x5f8a19417de   478  ff7510         push [rbp+0x10]          ;; debug: statement 300
                                                             ;; debug: position 300
0x5f8a19417e1   481  ff75e8         push [rbp-0x18]          ;; debug: position 302
0x5f8a19417e4   484  488b45e0       REX.W movq rax,[rbp-0x20]    ;; debug: position 307
0x5f8a19417e8   488  59             pop rcx                  ;; debug: position 305
0x5f8a19417e9   489  5a             pop rdx
0x5f8a19417ea   490  e8f12dffff     call KeyedStoreIC_Initialize  (0x5f8a19345e0)    ;; code: KEYED_STORE_IC, UNINITIALIZED (id = 184)
0x5f8a19417ef   495  488b45e8       REX.W movq rax,[rbp-0x18]    ;; debug: statement 215
0x5f8a19417f3   499  a801           test al,0x1
0x5f8a19417f5   501  7314           jnc 523  (0x5f8a194180b)
0x5f8a19417f7   503  49ba0000000001000000 REX.W movq r10,0x100000000
0x5f8a1941801   513  4903c2         REX.W addq rax,r10
0x5f8a1941804   516  711e           jno 548  (0x5f8a1941824)
0x5f8a1941806   518  492bc2         REX.W subq rax,r10
0x5f8a1941809   521  eb05           jmp 528  (0x5f8a1941810)
0x5f8a194180b   523  e8d093feff     call 0x5f8a192abe0       ;; code: STUB, ToNumberStub, minor: 0
0x5f8a1941810   528  488bd0         REX.W movq rdx,rax
0x5f8a1941813   531  48b80000000001000000 REX.W movq rax,0x100000000
0x5f8a194181d   541  e81e15fdff     call 0x5f8a1912d40       ;; code: BINARY_OP_IC, UNINITIALIZED (id = 50)
0x5f8a1941822   546  a82d           test al,0x2d
0x5f8a1941824   548  488945e8       REX.W movq [rbp-0x18],rax
0x5f8a1941828   552  48bb011a1f7367160000 REX.W movq rbx,0x1667731f1a01    ;; object: 0x1667731f1a01 Cell for 6144
0x5f8a1941832   562  83430bfe       addl [rbx+0xb],0xfe
0x5f8a1941836   566  791d           jns 597  (0x5f8a1941855)
0x5f8a1941838   568  e8a34effff     call InterruptCheck  (0x5f8a19366e0)    ;; code: BUILTIN
0x5f8a194183d   573  48bb011a1f7367160000 REX.W movq rbx,0x1667731f1a01    ;; object: 0x1667731f1a01 Cell for 6144
0x5f8a1941847   583  49ba0000000000180000 REX.W movq r10,0x180000000000
0x5f8a1941851   593  4c895307       REX.W movq [rbx+0x7],r10
0x5f8a1941855   597  ff75e8         push [rbp-0x18]          ;; debug: statement 202
                                                             ;; debug: position 201
0x5f8a1941858   600  488b4518       REX.W movq rax,[rbp+0x18]    ;; debug: position 203
0x5f8a194185c   604  488bd0         REX.W movq rdx,rax
0x5f8a194185f   607  48b9712e197367160000 REX.W movq rcx,0x166773192e71    ;; debug: position 204
                                                             ;; object: 0x166773192e71 <String[6]: length>
0x5f8a1941869   617  48b80000000004000000 REX.W movq rax,0x400000000
0x5f8a1941873   627  e888eafdff     call 0x5f8a1920300       ;; code: contextual, LOAD_IC, DEFAULT
0x5f8a1941878   632  5a             pop rdx
0x5f8a1941879   633  488bca         REX.W movq rcx,rdx
0x5f8a194187c   636  480bc8         REX.W orq rcx,rax
0x5f8a194187f   639  f6c101         testb rcx,0x1
0x5f8a1941882   642  730e           jnc 658  (0x5f8a1941892)
0x5f8a1941884   644  483bd0         REX.W cmpq rdx,rax
0x5f8a1941887   647  0f8ca1fdffff   jl 46  (0x5f8a194162e)
0x5f8a194188d   653  e921000000     jmp 691  (0x5f8a19418b3)
0x5f8a1941892   658  e80963fdff     call 0x5f8a1917ba0       ;; code: COMPARE_IC, UNINITIALIZED (id = 33)
0x5f8a1941897   663  a815           test al,0x15
0x5f8a1941899   665  eb0f           jmp 682  (0x5f8a19418aa)
0x5f8a194189b   667  493b45c0       REX.W cmpq rax,[r13-0x40]
0x5f8a194189f   671  0f8489fdffff   jz 46  (0x5f8a194162e)
0x5f8a19418a5   677  e909000000     jmp 691  (0x5f8a19418b3)
0x5f8a19418aa   682  4885c0         REX.W testq rax,rax
0x5f8a19418ad   685  0f8c7bfdffff   jl 46  (0x5f8a194162e)
0x5f8a19418b3   691  498b45a8       REX.W movq rax,[r13-0x58]
0x5f8a19418b7   695  48bb011a1f7367160000 REX.W movq rbx,0x1667731f1a01    ;; object: 0x1667731f1a01 Cell for 6144
0x5f8a19418c1   705  83430bfc       addl [rbx+0xb],0xfc
0x5f8a19418c5   709  791f           jns 742  (0x5f8a19418e6)
0x5f8a19418c7   711  50             push rax
0x5f8a19418c8   712  e8134effff     call InterruptCheck  (0x5f8a19366e0)    ;; code: BUILTIN
0x5f8a19418cd   717  58             pop rax
0x5f8a19418ce   718  48bb011a1f7367160000 REX.W movq rbx,0x1667731f1a01    ;; object: 0x1667731f1a01 Cell for 6144
0x5f8a19418d8   728  49ba0000000000180000 REX.W movq r10,0x180000000000
0x5f8a19418e2   738  4c895307       REX.W movq [rbx+0x7],r10
0x5f8a19418e6   742  c9             leave                    ;; debug: statement 314
0x5f8a19418e7   743  c21800         ret 0x18
0x5f8a19418ea   746  660f1f440000   nop

Deoptimization Output Data (deopt points = 81)
ast id        pc  state
     2        13  NO_REGISTERS
     3        13  NO_REGISTERS
    18        27  NO_REGISTERS
    28        37  TOS_REG
    23        41  TOS_REG
    21        41  NO_REGISTERS
    19        41  NO_REGISTERS
    17        46  NO_REGISTERS
    55        46  NO_REGISTERS
    58        46  NO_REGISTERS
    68        56  TOS_REG
    63        60  TOS_REG
    61        60  NO_REGISTERS
    59        60  NO_REGISTERS
    76        60  NO_REGISTERS
    86        70  TOS_REG
    81        74  TOS_REG
    79        74  NO_REGISTERS
    77        74  NO_REGISTERS
    75        79  NO_REGISTERS
   153        79  NO_REGISTERS
   151        83  TOS_REG
   165        84  NO_REGISTERS
   163       114  NO_REGISTERS
   168       126  NO_REGISTERS
   166       129  NO_REGISTERS
   171       129  NO_REGISTERS
   169       132  NO_REGISTERS
   160       152  TOS_REG
   158       160  NO_REGISTERS
   180       160  NO_REGISTERS
   178       163  NO_REGISTERS
   177       163  NO_REGISTERS
   175       167  TOS_REG
   174       186  TOS_REG
   172       186  TOS_REG
   154       243  TOS_REG
   117       278  TOS_REG
   115       282  TOS_REG
   113       282  NO_REGISTERS
    74       282  NO_REGISTERS
   112       282  NO_REGISTERS
   110       286  TOS_REG
   107       315  TOS_REG
   106       339  TOS_REG
   104       339  NO_REGISTERS
    71       384  NO_REGISTERS
    73       384  NO_REGISTERS
    94       384  NO_REGISTERS
    92       387  NO_REGISTERS
   103       387  NO_REGISTERS
   101       391  TOS_REG
    97       419  TOS_REG
    95       419  TOS_REG
    89       454  TOS_REG
    72       478  NO_REGISTERS
   193       478  NO_REGISTERS
   191       481  NO_REGISTERS
   190       481  NO_REGISTERS
   188       484  NO_REGISTERS
   196       484  NO_REGISTERS
   194       488  TOS_REG
   183       495  TOS_REG
   181       495  NO_REGISTERS
    56       495  NO_REGISTERS
    16       495  NO_REGISTERS
    54       495  NO_REGISTERS
    52       499  TOS_REG
    49       528  TOS_REG
    48       552  TOS_REG
    46       552  NO_REGISTERS
    13       597  NO_REGISTERS
    15       597  NO_REGISTERS
    36       597  NO_REGISTERS
    34       600  NO_REGISTERS
    45       600  NO_REGISTERS
    43       604  TOS_REG
    39       632  TOS_REG
    37       632  TOS_REG
    31       667  TOS_REG
    14       691  NO_REGISTERS

Back edges (size = 2)
ast_id  pc_offset  loop_depth
    73        360           2
    15        573           1

0x1667731f1fd1: [TypeFeedbackInfo]
 - ic_total_count: 12, ic_with_type_info_count: 0, ic_generic_count: 0

RelocInfo (size = 141)
0x5f8a1941600  position  (177)
0x5f8a1941617  code target (BUILTIN)  (0x5f8a1936820)
0x5f8a194161b  statement position  (187)
0x5f8a194161b  statement position  (192)
0x5f8a194162e  statement position  (224)
0x5f8a194163c  statement position  (239)
0x5f8a194163c  statement position  (244)
0x5f8a194164f  statement position  (276)
0x5f8a194164f  position  (276)
0x5f8a1941654  position  (281)
0x5f8a1941656  embedded object  (0x16677314f071 <String[1]: A>)
0x5f8a194166d  code target (LOAD_IC)  (0x5f8a1920300)
0x5f8a1941674  embedded object  (0x166773104189 <undefined>)
0x5f8a194167e  position  (283)
0x5f8a1941681  position  (285)
0x5f8a1941684  position  (281)
0x5f8a1941694  code target (CALL_IC)  (0x5f8a19121c0)
0x5f8a19416a0  position  (290)
0x5f8a19416a3  position  (292)
0x5f8a19416ab  position  (291)
0x5f8a19416b6  code target (KEYED_LOAD_IC)  (0x5f8a192efa0)
0x5f8a19416ba  position  (288)
0x5f8a19416c9  code target with id (BINARY_OP_IC)  (0x5f8a1910d20) (id=157)
0x5f8a1941702  code target with id (BINARY_OP_IC)  (0x5f8a1912d40) (id=120)
0x5f8a1941716  position  (278)
0x5f8a194171a  statement position  (267)
0x5f8a1941737  code target (STUB)  (0x5f8a192abe0)
0x5f8a1941749  code target with id (BINARY_OP_IC)  (0x5f8a1912d40) (id=108)
0x5f8a1941755  embedded object  (0x1667731f1a01 Cell for 6144)
0x5f8a1941764  code target (BUILTIN)  (0x5f8a19366e0)
0x5f8a194176a  embedded object  (0x1667731f1a01 Cell for 6144)
0x5f8a1941780  statement position  (254)
0x5f8a1941780  position  (253)
0x5f8a1941783  position  (255)
0x5f8a194178a  position  (256)
0x5f8a194178c  embedded object  (0x166773192e71 <String[6]: length>)
0x5f8a194179f  code target (LOAD_IC)  (0x5f8a1920300)
0x5f8a19417be  code target with id (COMPARE_IC)  (0x5f8a1917ba0) (id=91)
0x5f8a19417de  statement position  (300)
0x5f8a19417de  position  (300)
0x5f8a19417e1  position  (302)
0x5f8a19417e4  position  (307)
0x5f8a19417e8  position  (305)
0x5f8a19417eb  code target with id (KEYED_STORE_IC)  (0x5f8a19345e0) (id=184)
0x5f8a19417ef  statement position  (215)
0x5f8a194180c  code target (STUB)  (0x5f8a192abe0)
0x5f8a194181e  code target with id (BINARY_OP_IC)  (0x5f8a1912d40) (id=50)
0x5f8a194182a  embedded object  (0x1667731f1a01 Cell for 6144)
0x5f8a1941839  code target (BUILTIN)  (0x5f8a19366e0)
0x5f8a194183f  embedded object  (0x1667731f1a01 Cell for 6144)
0x5f8a1941855  statement position  (202)
0x5f8a1941855  position  (201)
0x5f8a1941858  position  (203)
0x5f8a194185f  position  (204)
0x5f8a1941861  embedded object  (0x166773192e71 <String[6]: length>)
0x5f8a1941874  code target (LOAD_IC)  (0x5f8a1920300)
0x5f8a1941893  code target with id (COMPARE_IC)  (0x5f8a1917ba0) (id=33)
0x5f8a19418b9  embedded object  (0x1667731f1a01 Cell for 6144)
0x5f8a19418c9  code target (BUILTIN)  (0x5f8a19366e0)
0x5f8a19418d0  embedded object  (0x1667731f1a01 Cell for 6144)
0x5f8a19418e6  statement position  (314)

--- End code ---
--- Raw source ---
(u,v) {
  for (var i=0; i<u.length; ++i) {
    var t = 0;
    for (var j=0; j<u.length; ++j)
      t += A(i,j) * u[j];
    v[i] = t;
  }
}


--- Optimized code ---
optimization_id = 2
source_position = 177
kind = OPTIMIZED_FUNCTION
name = Au
stack_slots = 1
compiler = crankshaft
Instructions (size = 601)
0x5f8a1941980     0  55             push rbp
0x5f8a1941981     1  4889e5         REX.W movq rbp,rsp
0x5f8a1941984     4  56             push rsi
0x5f8a1941985     5  57             push rdi
0x5f8a1941986     6  4883ec08       REX.W subq rsp,0x8
0x5f8a194198a    10  488b45f8       REX.W movq rax,[rbp-0x8]
0x5f8a194198e    14  488945e8       REX.W movq [rbp-0x18],rax
0x5f8a1941992    18  488bf0         REX.W movq rsi,rax
0x5f8a1941995    21  493ba540090000 REX.W cmpq rsp,[r13+0x940]
0x5f8a194199c    28  7305           jnc 35  (0x5f8a19419a3)
0x5f8a194199e    30  e87d4effff     call StackCheck  (0x5f8a1936820)    ;; code: BUILTIN
0x5f8a19419a3    35  488b4518       REX.W movq rax,[rbp+0x18]
0x5f8a19419a7    39  a801           test al,0x1              ;; debug: position 202
0x5f8a19419a9    41  0f84c2010000   jz 497  (0x5f8a1941b71)
0x5f8a19419af    47  49ba41ace0de942f0000 REX.W movq r10,0x2f94dee0ac41    ;; object: 0x2f94dee0ac41 <Map(FAST_DOUBLE_ELEMENTS)>
0x5f8a19419b9    57  4c3950ff       REX.W cmpq [rax-0x1],r10
0x5f8a19419bd    61  0f85b3010000   jnz 502  (0x5f8a1941b76)
0x5f8a19419c3    67  8b581b         movl rbx,[rax+0x1b]
0x5f8a19419c6    70  0f57c9         xorps xmm1,xmm1
0x5f8a19419c9    73  49ba000000000000f03f REX.W movq r10,0x3ff0000000000000    ;; debug: position 139
0x5f8a19419d3    83  66490f6ed2     REX.W movq xmm2,r10
0x5f8a19419d8    88  488b500f       REX.W movq rdx,[rax+0xf]
0x5f8a19419dc    92  488b4d10       REX.W movq rcx,[rbp+0x10]
0x5f8a19419e0    96  f6c101         testb rcx,0x1            ;; debug: position 267
0x5f8a19419e3    99  0f8492010000   jz 507  (0x5f8a1941b7b)
0x5f8a19419e9   105  49ba41ace0de942f0000 REX.W movq r10,0x2f94dee0ac41    ;; object: 0x2f94dee0ac41 <Map(FAST_DOUBLE_ELEMENTS)>
0x5f8a19419f3   115  4c3951ff       REX.W cmpq [rcx-0x1],r10
0x5f8a19419f7   119  0f8583010000   jnz 512  (0x5f8a1941b80)
0x5f8a19419fd   125  488b710f       REX.W movq rsi,[rcx+0xf]
0x5f8a1941a01   129  8b791b         movl rdi,[rcx+0x1b]
0x5f8a1941a04   132  4533c0         xorl r8,r8
0x5f8a1941a07   135  443bc3         cmpl r8,rbx              ;; debug: position 202
0x5f8a1941a0a   138  0f8dc6000000   jge 342  (0x5f8a1941ad6)
0x5f8a1941a10   144  493ba540090000 REX.W cmpq rsp,[r13+0x940]
0x5f8a1941a17   151  0f82ca000000   jc 359  (0x5f8a1941ae7)
0x5f8a1941a1d   157  0f28d9         movaps xmm3,xmm1
0x5f8a1941a20   160  4533c9         xorl r9,r9
0x5f8a1941a23   163  443bcb         cmpl r9,rbx              ;; debug: position 254
0x5f8a1941a26   166  0f8d8a000000   jge 310  (0x5f8a1941ab6)
0x5f8a1941a2c   172  493ba540090000 REX.W cmpq rsp,[r13+0x940]
0x5f8a1941a33   179  0f82f3000000   jc 428  (0x5f8a1941b2c)
0x5f8a1941a39   185  4d8bd8         REX.W movq r11,r8
0x5f8a1941a3c   188  4503d9         addl r11,r9              ;; debug: position 143
0x5f8a1941a3f   191  0f8040010000   jo 517  (0x5f8a1941b85)
0x5f8a1941a45   197  4d8be3         REX.W movq r12,r11
0x5f8a1941a48   200  4183c401       addl r12,0x1             ;; debug: position 151
0x5f8a1941a4c   204  0f8038010000   jo 522  (0x5f8a1941b8a)
0x5f8a1941a52   210  450fafe3       imull r12,r11            ;; debug: position 146
0x5f8a1941a56   214  0f8033010000   jo 527  (0x5f8a1941b8f)
0x5f8a1941a5c   220  41f6c401       testb r12,0x1            ;; debug: position 154
0x5f8a1941a60   224  0f852e010000   jnz 532  (0x5f8a1941b94)
0x5f8a1941a66   230  4d89e3         REX.W movq r11,r12
0x5f8a1941a69   233  41c1eb1f       shrl r11, 31
0x5f8a1941a6d   237  4501e3         addl r11,r12
0x5f8a1941a70   240  41d1fb         sarl r11, 1
0x5f8a1941a73   243  4503d8         addl r11,r8              ;; debug: position 156
0x5f8a1941a76   246  0f801d010000   jo 537  (0x5f8a1941b99)
0x5f8a1941a7c   252  4183c301       addl r11,0x1             ;; debug: position 158
0x5f8a1941a80   256  0f8018010000   jo 542  (0x5f8a1941b9e)
0x5f8a1941a86   262  0f57e4         xorps xmm4,xmm4          ;; debug: position 139
0x5f8a1941a89   265  f2410f2ae3     cvtsi2sd xmm4,r11
0x5f8a1941a8e   270  c5eb5ee4       vdivsd xmm4,xmm2,xmm4
0x5f8a1941a92   274  0f29e4         movaps xmm4,xmm4
0x5f8a1941a95   277  413bd9         cmpl rbx,r9
0x5f8a1941a98   280  0f8605010000   jna 547  (0x5f8a1941ba3)
0x5f8a1941a9e   286  f2420f106cca0f movsd xmm5,[rdx+r9*8+0xf]
0x5f8a1941aa5   293  c5d359e4       vmulsd xmm4,xmm5,xmm4    ;; debug: position 288
0x5f8a1941aa9   297  c5e358dc       vaddsd xmm3,xmm3,xmm4    ;; debug: position 279
0x5f8a1941aad   301  4183c101       addl r9,0x1              ;; debug: position 267
0x5f8a1941ab1   305  e96dffffff     jmp 163  (0x5f8a1941a23)
0x5f8a1941ab6   310  413bf8         cmpl rdi,r8
0x5f8a1941ab9   313  0f86e9000000   jna 552  (0x5f8a1941ba8)
0x5f8a1941abf   319  0f57c0         xorps xmm0,xmm0
0x5f8a1941ac2   322  f20f5cd8       subsd xmm3,xmm0
0x5f8a1941ac6   326  f2420f115cc60f movsd [rsi+r8*8+0xf],xmm3
0x5f8a1941acd   333  4183c001       addl r8,0x1              ;; debug: position 215
0x5f8a1941ad1   337  e931ffffff     jmp 135  (0x5f8a1941a07)
0x5f8a1941ad6   342  48b88941107367160000 REX.W movq rax,0x166773104189    ;; object: 0x166773104189 <undefined>
0x5f8a1941ae0   352  488be5         REX.W movq rsp,rbp
0x5f8a1941ae3   355  5d             pop rbp
0x5f8a1941ae4   356  c21800         ret 0x18
0x5f8a1941ae7   359  50             push rax                 ;; debug: position 202
0x5f8a1941ae8   360  51             push rcx
0x5f8a1941ae9   361  52             push rdx
0x5f8a1941aea   362  53             push rbx
0x5f8a1941aeb   363  56             push rsi
0x5f8a1941aec   364  57             push rdi
0x5f8a1941aed   365  4150           push r8
0x5f8a1941aef   367  4151           push r9
0x5f8a1941af1   369  4153           push r11
0x5f8a1941af3   371  4154           push r12
0x5f8a1941af5   373  4156           push r14
0x5f8a1941af7   375  4157           push r15
0x5f8a1941af9   377  488d6424e0     REX.W leaq rsp,[rsp-0x20]
0x5f8a1941afe   382  488b75f8       REX.W movq rsi,[rbp-0x8]
0x5f8a1941b02   386  33c0           xorl rax,rax
0x5f8a1941b04   388  498d9d686b86fd REX.W leaq rbx,[r13-0x2799498]
0x5f8a1941b0b   395  e87047fcff     call 0x5f8a1906280       ;; code: STUB, CEntryStub, minor: 1
0x5f8a1941b10   400  488d642420     REX.W leaq rsp,[rsp+0x20]
0x5f8a1941b15   405  415f           pop r15
0x5f8a1941b17   407  415e           pop r14
0x5f8a1941b19   409  415c           pop r12
0x5f8a1941b1b   411  415b           pop r11
0x5f8a1941b1d   413  4159           pop r9
0x5f8a1941b1f   415  4158           pop r8
0x5f8a1941b21   417  5f             pop rdi
0x5f8a1941b22   418  5e             pop rsi
0x5f8a1941b23   419  5b             pop rbx
0x5f8a1941b24   420  5a             pop rdx
0x5f8a1941b25   421  59             pop rcx
0x5f8a1941b26   422  58             pop rax
0x5f8a1941b27   423  e9f1feffff     jmp 157  (0x5f8a1941a1d)
0x5f8a1941b2c   428  50             push rax                 ;; debug: position 254
0x5f8a1941b2d   429  51             push rcx
0x5f8a1941b2e   430  52             push rdx
0x5f8a1941b2f   431  53             push rbx
0x5f8a1941b30   432  56             push rsi
0x5f8a1941b31   433  57             push rdi
0x5f8a1941b32   434  4150           push r8
0x5f8a1941b34   436  4151           push r9
0x5f8a1941b36   438  4153           push r11
0x5f8a1941b38   440  4154           push r12
0x5f8a1941b3a   442  4156           push r14
0x5f8a1941b3c   444  4157           push r15
0x5f8a1941b3e   446  488d6424e0     REX.W leaq rsp,[rsp-0x20]
0x5f8a1941b43   451  488b75f8       REX.W movq rsi,[rbp-0x8]
0x5f8a1941b47   455  33c0           xorl rax,rax
0x5f8a1941b49   457  498d9d686b86fd REX.W leaq rbx,[r13-0x2799498]
0x5f8a1941b50   464  e82b47fcff     call 0x5f8a1906280       ;; code: STUB, CEntryStub, minor: 1
0x5f8a1941b55   469  488d642420     REX.W leaq rsp,[rsp+0x20]
0x5f8a1941b5a   474  415f           pop r15
0x5f8a1941b5c   476  415e           pop r14
0x5f8a1941b5e   478  415c           pop r12
0x5f8a1941b60   480  415b           pop r11
0x5f8a1941b62   482  4159           pop r9
0x5f8a1941b64   484  4158           pop r8
0x5f8a1941b66   486  5f             pop rdi
0x5f8a1941b67   487  5e             pop rsi
0x5f8a1941b68   488  5b             pop rbx
0x5f8a1941b69   489  5a             pop rdx
0x5f8a1941b6a   490  59             pop rcx
0x5f8a1941b6b   491  58             pop rax
0x5f8a1941b6c   492  e9c8feffff     jmp 185  (0x5f8a1941a39)
0x5f8a1941b71   497  e89444ccff     call 0x5f8a160600a       ;; deoptimization bailout 1
0x5f8a1941b76   502  e89944ccff     call 0x5f8a1606014       ;; deoptimization bailout 2
0x5f8a1941b7b   507  e89e44ccff     call 0x5f8a160601e       ;; deoptimization bailout 3
0x5f8a1941b80   512  e8a344ccff     call 0x5f8a1606028       ;; deoptimization bailout 4
0x5f8a1941b85   517  e8bc44ccff     call 0x5f8a1606046       ;; deoptimization bailout 7
0x5f8a1941b8a   522  e8c144ccff     call 0x5f8a1606050       ;; deoptimization bailout 8
0x5f8a1941b8f   527  e8c644ccff     call 0x5f8a160605a       ;; deoptimization bailout 9
0x5f8a1941b94   532  e8cb44ccff     call 0x5f8a1606064       ;; deoptimization bailout 10
0x5f8a1941b99   537  e8d044ccff     call 0x5f8a160606e       ;; deoptimization bailout 11
0x5f8a1941b9e   542  e8d544ccff     call 0x5f8a1606078       ;; deoptimization bailout 12
0x5f8a1941ba3   547  e8da44ccff     call 0x5f8a1606082       ;; deoptimization bailout 13
0x5f8a1941ba8   552  e8df44ccff     call 0x5f8a160608c       ;; deoptimization bailout 14
0x5f8a1941bad   557  0f1f00         nop

Inlined functions (count = 1)
 0x1667731ee689 <SharedFunctionInfo A>

Deoptimization Input Data (deopt points = 15)
 index  ast id    argc     pc
     0       3       0     35
     1      13       0     -1
     2      13       0     -1
     3      13       0     -1
     4      13       0     -1
     5      17       0    157
     6      75       0    185
     7       2       0     -1
     8       2       0     -1
     9       2       0     -1
    10       2       0     -1
    11       2       0     -1
    12       2       0     -1
    13     158       0     -1
    14      72       0     -1

Safepoints (size = 41)
0x5f8a19419a3    35  1 (sp -> fp)       0
0x5f8a1941b10   400  1 | rax | rcx | rdx | rsi (sp -> fp)       5
0x5f8a1941b55   469  1 | rax | rcx | rdx | rsi (sp -> fp)       6

RelocInfo (size = 102)
0x5f8a194199f  code target (BUILTIN)  (0x5f8a1936820)
0x5f8a19419a7  position  (202)
0x5f8a19419b1  embedded object  (0x2f94dee0ac41 <Map(FAST_DOUBLE_ELEMENTS)>)
0x5f8a19419c9  position  (139)
0x5f8a19419e0  position  (267)
0x5f8a19419eb  embedded object  (0x2f94dee0ac41 <Map(FAST_DOUBLE_ELEMENTS)>)
0x5f8a1941a07  position  (202)
0x5f8a1941a23  position  (254)
0x5f8a1941a3c  position  (143)
0x5f8a1941a48  position  (151)
0x5f8a1941a52  position  (146)
0x5f8a1941a5c  position  (154)
0x5f8a1941a73  position  (156)
0x5f8a1941a7c  position  (158)
0x5f8a1941a86  position  (139)
0x5f8a1941aa5  position  (288)
0x5f8a1941aa9  position  (279)
0x5f8a1941aad  position  (267)
0x5f8a1941acd  position  (215)
0x5f8a1941ad8  embedded object  (0x166773104189 <undefined>)
0x5f8a1941ae7  position  (202)
0x5f8a1941b0c  code target (STUB)  (0x5f8a1906280)
0x5f8a1941b2c  position  (254)
0x5f8a1941b51  code target (STUB)  (0x5f8a1906280)
0x5f8a1941b72  runtime entry  (deoptimization bailout 1)
0x5f8a1941b77  runtime entry  (deoptimization bailout 2)
0x5f8a1941b7c  runtime entry  (deoptimization bailout 3)
0x5f8a1941b81  runtime entry  (deoptimization bailout 4)
0x5f8a1941b86  runtime entry  (deoptimization bailout 7)
0x5f8a1941b8b  runtime entry  (deoptimization bailout 8)
0x5f8a1941b90  runtime entry  (deoptimization bailout 9)
0x5f8a1941b95  runtime entry  (deoptimization bailout 10)
0x5f8a1941b9a  runtime entry  (deoptimization bailout 11)
0x5f8a1941b9f  runtime entry  (deoptimization bailout 12)
0x5f8a1941ba4  runtime entry  (deoptimization bailout 13)
0x5f8a1941ba9  runtime entry  (deoptimization bailout 14)

--- End code ---
