--- Raw source ---
// The Great Computer Language Shootout
//  http://shootout.alioth.debian.org
//
//  Contributed by Ian Osgood

var last = 42, A = 3877, C = 29573, M = 139968;

function rand(max) {
  last = (last * A + C) % M;
  return max * last / M;
}

var ALU =
  "GGCCGGGCGCGGTGGCTCACGCCTGTAATCCCAGCACTTTGG" +
  "GAGGCCGAGGCGGGCGGATCACCTGAGGTCAGGAGTTCGAGA" +
  "CCAGCCTGGCCAACATGGTGAAACCCCGTCTCTACTAAAAAT" +
  "ACAAAAATTAGCCGGGCGTGGTGGCGCGCGCCTGTAATCCCA" +
  "GCTACTCGGGAGGCTGAGGCAGGAGAATCGCTTGAACCCGGG" +
  "AGGCGGAGGTTGCAGTGAGCCGAGATCGCGCCACTGCACTCC" +
  "AGCCTGGGCGACAGAGCGAGACTCCGTCTCAAAAA";

var IUB = {
  a:0.27, c:0.12, g:0.12, t:0.27,
  B:0.02, D:0.02, H:0.02, K:0.02,
  M:0.02, N:0.02, R:0.02, S:0.02,
  V:0.02, W:0.02, Y:0.02
}

var HomoSap = {
  a: 0.3029549426680,
  c: 0.1979883004921,
  g: 0.1975473066391,
  t: 0.3015094502008
}

function makeCumulative(table) {
  var last = null;
  for (var c in table) {
    if (last) table[c] += table[last];
    last = c;
  }
}

function fastaRepeat(n, seq) {
  var seqi = 0, lenOut = 60;
  while (n>0) {
    if (n<lenOut) lenOut = n;
    if (seqi + lenOut < seq.length) {
      ret += seq.substring(seqi, seqi+lenOut).length;
      seqi += lenOut;
    } else {
      var s = seq.substring(seqi);
      seqi = lenOut - s.length;
      ret += (s + seq.substring(0, seqi)).length;
    }
    n -= lenOut;
  }
}

function fastaRandom(n, table) {
  var line = new Array(60);
  makeCumulative(table);
  while (n>0) {
    if (n<line.length) line = new Array(n);
    for (var i=0; i<line.length; i++) {
      var r = rand(1);
      for (var c in table) {
        if (r < table[c]) {
          line[i] = c;
          break;
        }
      }
    }
    ret += line.join('').length;
    n -= line.length;
  }
}

var ret = 0;

var count = 7;
fastaRepeat(2*count*100000, ALU);
fastaRandom(3*count*1000, IUB);
fastaRandom(5*count*1000, HomoSap);

var expected = 1456000;

if (ret != expected)
    throw "ERROR: bad result: expected " + expected + " but got " + ret;



--- Code ---
source_position = 0
kind = FUNCTION
compiler = full-codegen
Instructions (size = 1540)
0x257143a700     0  55             push rbp                  ;; debug: position 0
0x257143a701     1  4889e5         REX.W movq rbp,rsp
0x257143a704     4  56             push rsi
0x257143a705     5  57             push rdi
0x257143a706     6  41ff75a8       push [r13-0x58]
0x257143a70a    10  49ba11efee97b5250000 REX.W movq r10,0x25b597eeef11    ;; object: 0x25b597eeef11 <FixedArray[28]>
0x257143a714    20  4152           push r10
0x257143a716    22  6a00           push 0x0
0x257143a718    24  b802000000     movl rax,0x2
0x257143a71d    29  48bb10ac8a0001000000 REX.W movq rbx,0x1008aac10
0x257143a727    39  e8f4f4fcff     call 0x2571409c20         ;; code: STUB, CEntryStub, minor: 0
0x257143a72c    44  493ba540090000 REX.W cmpq rsp,[r13+0x940]
0x257143a733    51  7305           jnc 58  (0x257143a73a)
0x257143a735    53  e8e6c0ffff     call StackCheck  (0x2571436820)    ;; code: BUILTIN
0x257143a73a    58  49ba71e4ee97b5250000 REX.W movq r10,0x25b597eee471    ;; debug: statement 112
                                                             ;; object: 0x25b597eee471 <String[4]: last>
0x257143a744    68  4152           push r10
0x257143a746    70  6a00           push 0x0
0x257143a748    72  49ba000000002a000000 REX.W movq r10,0x2a00000000
0x257143a752    82  4152           push r10
0x257143a754    84  b803000000     movl rax,0x3
0x257143a759    89  48bba0b28a0001000000 REX.W movq rbx,0x1008ab2a0
0x257143a763    99  e8b8f4fcff     call 0x2571409c20         ;; code: STUB, CEntryStub, minor: 0
0x257143a768   104  49ba71f0e497b5250000 REX.W movq r10,0x25b597e4f071    ;; object: 0x25b597e4f071 <String[1]: A>
0x257143a772   114  4152           push r10
0x257143a774   116  6a00           push 0x0
0x257143a776   118  49ba00000000250f0000 REX.W movq r10,0xf2500000000
0x257143a780   128  4152           push r10
0x257143a782   130  b803000000     movl rax,0x3
0x257143a787   135  48bba0b28a0001000000 REX.W movq rbx,0x1008ab2a0
0x257143a791   145  e88af4fcff     call 0x2571409c20         ;; code: STUB, CEntryStub, minor: 0
0x257143a796   150  49bad973e697b5250000 REX.W movq r10,0x25b597e673d9    ;; object: 0x25b597e673d9 <String[1]: C>
0x257143a7a0   160  4152           push r10
0x257143a7a2   162  6a00           push 0x0
0x257143a7a4   164  49ba0000000085730000 REX.W movq r10,0x738500000000
0x257143a7ae   174  4152           push r10
0x257143a7b0   176  b803000000     movl rax,0x3
0x257143a7b5   181  48bba0b28a0001000000 REX.W movq rbx,0x1008ab2a0
0x257143a7bf   191  e85cf4fcff     call 0x2571409c20         ;; code: STUB, CEntryStub, minor: 0
0x257143a7c4   196  49bab9b5e697b5250000 REX.W movq r10,0x25b597e6b5b9    ;; object: 0x25b597e6b5b9 <String[1]: M>
0x257143a7ce   206  4152           push r10
0x257143a7d0   208  6a00           push 0x0
0x257143a7d2   210  49ba00000000a1c108c8 REX.W movq r10,0xc808c1a100000000
0x257143a7dc   220  4152           push r10
0x257143a7de   222  49ba0000000061e30ac8 REX.W movq r10,0xc80ae36100000000
0x257143a7e8   232  4c311424       REX.W xorq [rsp],r10
0x257143a7ec   236  b803000000     movl rax,0x3
0x257143a7f1   241  48bba0b28a0001000000 REX.W movq rbx,0x1008ab2a0
0x257143a7fb   251  e820f4fcff     call 0x2571409c20         ;; code: STUB, CEntryStub, minor: 0
0x257143a800   256  49bab1e4ee97b5250000 REX.W movq r10,0x25b597eee4b1    ;; debug: statement 239
                                                             ;; object: 0x25b597eee4b1 <String[3]: ALU>
0x257143a80a   266  4152           push r10
0x257143a80c   268  6a00           push 0x0
0x257143a80e   270  49bad1e4ee97b5250000 REX.W movq r10,0x25b597eee4d1    ;; object: 0x25b597eee4d1 <String[42]: GGCCGGGCGCGGTGGCTCACGCCTGTAATCCCAGCACTTTGG>
0x257143a818   280  4152           push r10
0x257143a81a   282  48b819e5ee97b5250000 REX.W movq rax,0x25b597eee519    ;; object: 0x25b597eee519 <String[42]: GAGGCCGAGGCGGGCGGATCACCTGAGGTCAGGAGTTCGAGA>
0x257143a824   292  5a             pop rdx                   ;; debug: position 296
0x257143a825   293  e81685fdff     call 0x2571412d40         ;; code: BINARY_OP_IC, UNINITIALIZED (id = 140)
0x257143a82a   298  90             nop
0x257143a82b   299  50             push rax
0x257143a82c   300  48b861e5ee97b5250000 REX.W movq rax,0x25b597eee561    ;; object: 0x25b597eee561 <String[42]: CCAGCCTGGCCAACATGGTGAAACCCCGTCTCTACTAAAAAT>
0x257143a836   310  5a             pop rdx                   ;; debug: position 345
0x257143a837   311  e80485fdff     call 0x2571412d40         ;; code: BINARY_OP_IC, UNINITIALIZED (id = 136)
0x257143a83c   316  90             nop
0x257143a83d   317  50             push rax
0x257143a83e   318  48b8a9e5ee97b5250000 REX.W movq rax,0x25b597eee5a9    ;; object: 0x25b597eee5a9 <String[42]: ACAAAAATTAGCCGGGCGTGGTGGCGCGCGCCTGTAATCCCA>
0x257143a848   328  5a             pop rdx                   ;; debug: position 394
0x257143a849   329  e8f284fdff     call 0x2571412d40         ;; code: BINARY_OP_IC, UNINITIALIZED (id = 132)
0x257143a84e   334  90             nop
0x257143a84f   335  50             push rax
0x257143a850   336  48b8f1e5ee97b5250000 REX.W movq rax,0x25b597eee5f1    ;; object: 0x25b597eee5f1 <String[42]: GCTACTCGGGAGGCTGAGGCAGGAGAATCGCTTGAACCCGGG>
0x257143a85a   346  5a             pop rdx                   ;; debug: position 443
0x257143a85b   347  e8e084fdff     call 0x2571412d40         ;; code: BINARY_OP_IC, UNINITIALIZED (id = 128)
0x257143a860   352  90             nop
0x257143a861   353  50             push rax
0x257143a862   354  48b839e6ee97b5250000 REX.W movq rax,0x25b597eee639    ;; object: 0x25b597eee639 <String[42]: AGGCGGAGGTTGCAGTGAGCCGAGATCGCGCCACTGCACTCC>
0x257143a86c   364  5a             pop rdx                   ;; debug: position 492
0x257143a86d   365  e8ce84fdff     call 0x2571412d40         ;; code: BINARY_OP_IC, UNINITIALIZED (id = 124)
0x257143a872   370  90             nop
0x257143a873   371  50             push rax
0x257143a874   372  48b881e6ee97b5250000 REX.W movq rax,0x25b597eee681    ;; object: 0x25b597eee681 <String[35]: AGCCTGGGCGACAGAGCGAGACTCCGTCTCAAAAA>
0x257143a87e   382  5a             pop rdx                   ;; debug: position 541
0x257143a87f   383  e8bc84fdff     call 0x2571412d40         ;; code: BINARY_OP_IC, UNINITIALIZED (id = 120)
0x257143a884   388  90             nop
0x257143a885   389  50             push rax
0x257143a886   390  b803000000     movl rax,0x3
0x257143a88b   395  48bba0b28a0001000000 REX.W movq rbx,0x1008ab2a0
0x257143a895   405  e886f3fcff     call 0x2571409c20         ;; code: STUB, CEntryStub, minor: 0
0x257143a89a   410  49bac1e6ee97b5250000 REX.W movq r10,0x25b597eee6c1    ;; debug: statement 585
                                                             ;; object: 0x25b597eee6c1 <String[3]: IUB>
0x257143a8a4   420  4152           push r10
0x257143a8a6   422  6a00           push 0x0
0x257143a8a8   424  488b7df0       REX.W movq rdi,[rbp-0x10]
0x257143a8ac   428  ff7737         push [rdi+0x37]
0x257143a8af   431  6a00           push 0x0
0x257143a8b1   433  49baa9e9ee97b5250000 REX.W movq r10,0x25b597eee9a9    ;; object: 0x25b597eee9a9 <FixedArray[30]>
0x257143a8bb   443  4152           push r10
0x257143a8bd   445  49ba0000000001000000 REX.W movq r10,0x100000000
0x257143a8c7   455  4152           push r10
0x257143a8c9   457  b804000000     movl rax,0x4
0x257143a8ce   462  48bbf03b880001000000 REX.W movq rbx,0x100883bf0
0x257143a8d8   472  e843f3fcff     call 0x2571409c20         ;; code: STUB, CEntryStub, minor: 0
0x257143a8dd   477  50             push rax
0x257143a8de   478  b803000000     movl rax,0x3
0x257143a8e3   483  48bba0b28a0001000000 REX.W movq rbx,0x1008ab2a0
0x257143a8ed   493  e82ef3fcff     call 0x2571409c20         ;; code: STUB, CEntryStub, minor: 0
0x257143a8f2   498  49bae1e6ee97b5250000 REX.W movq r10,0x25b597eee6e1    ;; debug: statement 727
                                                             ;; object: 0x25b597eee6e1 <String[7]: HomoSap>
0x257143a8fc   508  4152           push r10
0x257143a8fe   510  6a00           push 0x0
0x257143a900   512  488b7df0       REX.W movq rdi,[rbp-0x10]
0x257143a904   516  ff7737         push [rdi+0x37]
0x257143a907   519  49ba0000000001000000 REX.W movq r10,0x100000000
0x257143a911   529  4152           push r10
0x257143a913   531  49baa9eaee97b5250000 REX.W movq r10,0x25b597eeeaa9    ;; object: 0x25b597eeeaa9 <FixedArray[8]>
0x257143a91d   541  4152           push r10
0x257143a91f   543  49ba0000000001000000 REX.W movq r10,0x100000000
0x257143a929   553  4152           push r10
0x257143a92b   555  b804000000     movl rax,0x4
0x257143a930   560  48bbf03b880001000000 REX.W movq rbx,0x100883bf0
0x257143a93a   570  e8e1f2fcff     call 0x2571409c20         ;; code: STUB, CEntryStub, minor: 0
0x257143a93f   575  50             push rax
0x257143a940   576  b803000000     movl rax,0x3
0x257143a945   581  48bba0b28a0001000000 REX.W movq rbx,0x1008ab2a0
0x257143a94f   591  e8ccf2fcff     call 0x2571409c20         ;; code: STUB, CEntryStub, minor: 0
0x257143a954   596  49bab9e7ee97b5250000 REX.W movq r10,0x25b597eee7b9    ;; debug: statement 1742
                                                             ;; object: 0x25b597eee7b9 <String[3]: ret>
0x257143a95e   606  4152           push r10
0x257143a960   608  6a00           push 0x0
0x257143a962   610  6a00           push 0x0
0x257143a964   612  b803000000     movl rax,0x3
0x257143a969   617  48bba0b28a0001000000 REX.W movq rbx,0x1008ab2a0
0x257143a973   627  e8a8f2fcff     call 0x2571409c20         ;; code: STUB, CEntryStub, minor: 0
0x257143a978   632  49bad9e7ee97b5250000 REX.W movq r10,0x25b597eee7d9    ;; debug: statement 1756
                                                             ;; object: 0x25b597eee7d9 <String[5]: count>
0x257143a982   642  4152           push r10
0x257143a984   644  6a00           push 0x0
0x257143a986   646  49ba0000000007000000 REX.W movq r10,0x700000000
0x257143a990   656  4152           push r10
0x257143a992   658  b803000000     movl rax,0x3
0x257143a997   663  48bba0b28a0001000000 REX.W movq rbx,0x1008ab2a0
0x257143a9a1   673  e87af2fcff     call 0x2571409c20         ;; code: STUB, CEntryStub, minor: 0
0x257143a9a6   678  48b949e7ee97b5250000 REX.W movq rcx,0x25b597eee749    ;; debug: statement 1771
                                                             ;; object: 0x25b597eee749 <String[11]: fastaRepeat>
0x257143a9b0   688  488b5627       REX.W movq rdx,[rsi+0x27]
0x257143a9b4   692  48b80000000017000000 REX.W movq rax,0x1700000000
0x257143a9be   702  e83d59feff     call 0x2571420300         ;; code: contextual, LOAD_IC, DEFAULT
0x257143a9c3   707  50             push rax
0x257143a9c4   708  49ba8941e097b5250000 REX.W movq r10,0x25b597e04189    ;; object: 0x25b597e04189 <undefined>
0x257143a9ce   718  4152           push r10
0x257143a9d0   720  49ba0000000002000000 REX.W movq r10,0x200000000
0x257143a9da   730  4152           push r10
0x257143a9dc   732  48b9d9e7ee97b5250000 REX.W movq rcx,0x25b597eee7d9    ;; debug: position 1785
                                                             ;; object: 0x25b597eee7d9 <String[5]: count>
0x257143a9e6   742  488b5627       REX.W movq rdx,[rsi+0x27]
0x257143a9ea   746  48b8000000001d000000 REX.W movq rax,0x1d00000000
0x257143a9f4   756  e80759feff     call 0x2571420300         ;; code: contextual, LOAD_IC, DEFAULT
0x257143a9f9   761  5a             pop rdx                   ;; debug: position 1784
0x257143a9fa   762  e82163fdff     call 0x2571410d20         ;; code: BINARY_OP_IC, UNINITIALIZED (id = 370)
0x257143a9ff   767  90             nop
0x257143aa00   768  50             push rax
0x257143aa01   769  48b800000000c1650bc8 REX.W movq rax,0xc80b65c100000000
0x257143aa0b   779  49ba0000000061e30ac8 REX.W movq r10,0xc80ae36100000000
0x257143aa15   789  4933c2         REX.W xorq rax,r10
0x257143aa18   792  5a             pop rdx                   ;; debug: position 1790
0x257143aa19   793  e80263fdff     call 0x2571410d20         ;; code: BINARY_OP_IC, UNINITIALIZED (id = 366)
0x257143aa1e   798  90             nop
0x257143aa1f   799  50             push rax
0x257143aa20   800  48b9b1e4ee97b5250000 REX.W movq rcx,0x25b597eee4b1    ;; debug: position 1799
                                                             ;; object: 0x25b597eee4b1 <String[3]: ALU>
0x257143aa2a   810  488b5627       REX.W movq rdx,[rsi+0x27]
0x257143aa2e   814  48b8000000000f000000 REX.W movq rax,0xf00000000
0x257143aa38   824  e8c358feff     call 0x2571420300         ;; code: contextual, LOAD_IC, DEFAULT
0x257143aa3d   829  50             push rax
0x257143aa3e   830  48ba0000000021000000 REX.W movq rdx,0x2100000000    ;; debug: position 1771
0x257143aa48   840  488b7c2418     REX.W movq rdi,[rsp+0x18]
0x257143aa4d   845  e86e77fdff     call 0x25714121c0         ;; code: CALL_IC, DEFAULT
0x257143aa52   850  488b75f8       REX.W movq rsi,[rbp-0x8]
0x257143aa56   854  4883c408       REX.W addq rsp,0x8
0x257143aa5a   858  48b991e7ee97b5250000 REX.W movq rcx,0x25b597eee791    ;; debug: statement 1805
                                                             ;; object: 0x25b597eee791 <String[11]: fastaRandom>
0x257143aa64   868  488b5627       REX.W movq rdx,[rsi+0x27]
0x257143aa68   872  48b80000000019000000 REX.W movq rax,0x1900000000
0x257143aa72   882  e88958feff     call 0x2571420300         ;; code: contextual, LOAD_IC, DEFAULT
0x257143aa77   887  50             push rax
0x257143aa78   888  49ba8941e097b5250000 REX.W movq r10,0x25b597e04189    ;; object: 0x25b597e04189 <undefined>
0x257143aa82   898  4152           push r10
0x257143aa84   900  49ba0000000003000000 REX.W movq r10,0x300000000
0x257143aa8e   910  4152           push r10
0x257143aa90   912  48b9d9e7ee97b5250000 REX.W movq rcx,0x25b597eee7d9    ;; debug: position 1819
                                                             ;; object: 0x25b597eee7d9 <String[5]: count>
0x257143aa9a   922  488b5627       REX.W movq rdx,[rsi+0x27]
0x257143aa9e   926  48b8000000001d000000 REX.W movq rax,0x1d00000000
0x257143aaa8   936  e85358feff     call 0x2571420300         ;; code: contextual, LOAD_IC, DEFAULT
0x257143aaad   941  5a             pop rdx                   ;; debug: position 1818
0x257143aaae   942  e86d62fdff     call 0x2571410d20         ;; code: BINARY_OP_IC, UNINITIALIZED (id = 398)
0x257143aab3   947  90             nop
0x257143aab4   948  50             push rax
0x257143aab5   949  48b800000000e8030000 REX.W movq rax,0x3e800000000
0x257143aabf   959  5a             pop rdx                   ;; debug: position 1824
0x257143aac0   960  e85b62fdff     call 0x2571410d20         ;; code: BINARY_OP_IC, UNINITIALIZED (id = 394)
0x257143aac5   965  90             nop
0x257143aac6   966  50             push rax
0x257143aac7   967  48b9c1e6ee97b5250000 REX.W movq rcx,0x25b597eee6c1    ;; debug: position 1831
                                                             ;; object: 0x25b597eee6c1 <String[3]: IUB>
0x257143aad1   977  488b5627       REX.W movq rdx,[rsi+0x27]
0x257143aad5   981  48b80000000011000000 REX.W movq rax,0x1100000000
0x257143aadf   991  e81c58feff     call 0x2571420300         ;; code: contextual, LOAD_IC, DEFAULT
0x257143aae4   996  50             push rax
0x257143aae5   997  48ba0000000023000000 REX.W movq rdx,0x2300000000    ;; debug: position 1805
0x257143aaef  1007  488b7c2418     REX.W movq rdi,[rsp+0x18]
0x257143aaf4  1012  e8c776fdff     call 0x25714121c0         ;; code: CALL_IC, DEFAULT
0x257143aaf9  1017  488b75f8       REX.W movq rsi,[rbp-0x8]
0x257143aafd  1021  4883c408       REX.W addq rsp,0x8
0x257143ab01  1025  48b991e7ee97b5250000 REX.W movq rcx,0x25b597eee791    ;; debug: statement 1837
                                                             ;; object: 0x25b597eee791 <String[11]: fastaRandom>
0x257143ab0b  1035  488b5627       REX.W movq rdx,[rsi+0x27]
0x257143ab0f  1039  48b80000000019000000 REX.W movq rax,0x1900000000
0x257143ab19  1049  e8e257feff     call 0x2571420300         ;; code: contextual, LOAD_IC, DEFAULT
0x257143ab1e  1054  50             push rax
0x257143ab1f  1055  49ba8941e097b5250000 REX.W movq r10,0x25b597e04189    ;; object: 0x25b597e04189 <undefined>
0x257143ab29  1065  4152           push r10
0x257143ab2b  1067  49ba0000000005000000 REX.W movq r10,0x500000000
0x257143ab35  1077  4152           push r10
0x257143ab37  1079  48b9d9e7ee97b5250000 REX.W movq rcx,0x25b597eee7d9    ;; debug: position 1851
                                                             ;; object: 0x25b597eee7d9 <String[5]: count>
0x257143ab41  1089  488b5627       REX.W movq rdx,[rsi+0x27]
0x257143ab45  1093  48b8000000001d000000 REX.W movq rax,0x1d00000000
0x257143ab4f  1103  e8ac57feff     call 0x2571420300         ;; code: contextual, LOAD_IC, DEFAULT
0x257143ab54  1108  5a             pop rdx                   ;; debug: position 1850
0x257143ab55  1109  e8c661fdff     call 0x2571410d20         ;; code: BINARY_OP_IC, UNINITIALIZED (id = 433)
0x257143ab5a  1114  90             nop
0x257143ab5b  1115  50             push rax
0x257143ab5c  1116  48b800000000e8030000 REX.W movq rax,0x3e800000000
0x257143ab66  1126  5a             pop rdx                   ;; debug: position 1856
0x257143ab67  1127  e8b461fdff     call 0x2571410d20         ;; code: BINARY_OP_IC, UNINITIALIZED (id = 429)
0x257143ab6c  1132  90             nop
0x257143ab6d  1133  50             push rax
0x257143ab6e  1134  48b9e1e6ee97b5250000 REX.W movq rcx,0x25b597eee6e1    ;; debug: position 1863
                                                             ;; object: 0x25b597eee6e1 <String[7]: HomoSap>
0x257143ab78  1144  488b5627       REX.W movq rdx,[rsi+0x27]
0x257143ab7c  1148  48b80000000013000000 REX.W movq rax,0x1300000000
0x257143ab86  1158  e87557feff     call 0x2571420300         ;; code: contextual, LOAD_IC, DEFAULT
0x257143ab8b  1163  50             push rax
0x257143ab8c  1164  48ba0000000025000000 REX.W movq rdx,0x2500000000    ;; debug: position 1837
0x257143ab96  1174  488b7c2418     REX.W movq rdi,[rsp+0x18]
0x257143ab9b  1179  e82076fdff     call 0x25714121c0         ;; code: CALL_IC, DEFAULT
0x257143aba0  1184  488b75f8       REX.W movq rsi,[rbp-0x8]
0x257143aba4  1188  4883c408       REX.W addq rsp,0x8
0x257143aba8  1192  488945e8       REX.W movq [rbp-0x18],rax
0x257143abac  1196  49baf9e7ee97b5250000 REX.W movq r10,0x25b597eee7f9    ;; debug: statement 1874
                                                             ;; object: 0x25b597eee7f9 <String[8]: expected>
0x257143abb6  1206  4152           push r10
0x257143abb8  1208  6a00           push 0x0
0x257143abba  1210  49ba00000000e1d41cc8 REX.W movq r10,0xc81cd4e100000000
0x257143abc4  1220  4152           push r10
0x257143abc6  1222  49ba0000000061e30ac8 REX.W movq r10,0xc80ae36100000000
0x257143abd0  1232  4c311424       REX.W xorq [rsp],r10
0x257143abd4  1236  b803000000     movl rax,0x3
0x257143abd9  1241  48bba0b28a0001000000 REX.W movq rbx,0x1008ab2a0
0x257143abe3  1251  e838f0fcff     call 0x2571409c20         ;; code: STUB, CEntryStub, minor: 0
0x257143abe8  1256  48b9b9e7ee97b5250000 REX.W movq rcx,0x25b597eee7b9    ;; debug: statement 1899
                                                             ;; debug: position 1903
                                                             ;; object: 0x25b597eee7b9 <String[3]: ret>
0x257143abf2  1266  488b5627       REX.W movq rdx,[rsi+0x27]
0x257143abf6  1270  48b8000000001b000000 REX.W movq rax,0x1b00000000
0x257143ac00  1280  e8fb56feff     call 0x2571420300         ;; code: contextual, LOAD_IC, DEFAULT
0x257143ac05  1285  50             push rax
0x257143ac06  1286  48b9f9e7ee97b5250000 REX.W movq rcx,0x25b597eee7f9    ;; debug: position 1910
                                                             ;; object: 0x25b597eee7f9 <String[8]: expected>
0x257143ac10  1296  488b5627       REX.W movq rdx,[rsi+0x27]
0x257143ac14  1300  48b8000000001f000000 REX.W movq rax,0x1f00000000
0x257143ac1e  1310  e8dd56feff     call 0x2571420300         ;; code: contextual, LOAD_IC, DEFAULT
0x257143ac23  1315  5a             pop rdx
0x257143ac24  1316  e83719feff     call 0x257141c560         ;; code: COMPARE_IC, UNINITIALIZED (id = 470)
0x257143ac29  1321  90             nop
0x257143ac2a  1322  eb0f           jmp 1339  (0x257143ac3b)
0x257143ac2c  1324  493b45c0       REX.W cmpq rax,[r13-0x40]
0x257143ac30  1328  0f848a000000   jz 1472  (0x257143acc0)
0x257143ac36  1334  e909000000     jmp 1348  (0x257143ac44)
0x257143ac3b  1339  4885c0         REX.W testq rax,rax
0x257143ac3e  1342  0f847c000000   jz 1472  (0x257143acc0)
0x257143ac44  1348  49ba19e8ee97b5250000 REX.W movq r10,0x25b597eee819    ;; debug: statement 1924
                                                             ;; object: 0x25b597eee819 <String[28]: ERROR: bad result: expected >
0x257143ac4e  1358  4152           push r10
0x257143ac50  1360  48b9f9e7ee97b5250000 REX.W movq rcx,0x25b597eee7f9    ;; debug: position 1963
                                                             ;; object: 0x25b597eee7f9 <String[8]: expected>
0x257143ac5a  1370  488b5627       REX.W movq rdx,[rsi+0x27]
0x257143ac5e  1374  48b8000000001f000000 REX.W movq rax,0x1f00000000
0x257143ac68  1384  e89356feff     call 0x2571420300         ;; code: contextual, LOAD_IC, DEFAULT
0x257143ac6d  1389  5a             pop rdx                   ;; debug: position 1961
0x257143ac6e  1390  e8cd80fdff     call 0x2571412d40         ;; code: BINARY_OP_IC, UNINITIALIZED (id = 490)
0x257143ac73  1395  90             nop
0x257143ac74  1396  50             push rax
0x257143ac75  1397  48b851e8ee97b5250000 REX.W movq rax,0x25b597eee851    ;; object: 0x25b597eee851 <String[9]:  but got >
0x257143ac7f  1407  5a             pop rdx                   ;; debug: position 1972
0x257143ac80  1408  e8bb80fdff     call 0x2571412d40         ;; code: BINARY_OP_IC, UNINITIALIZED (id = 486)
0x257143ac85  1413  90             nop
0x257143ac86  1414  50             push rax
0x257143ac87  1415  48b9b9e7ee97b5250000 REX.W movq rcx,0x25b597eee7b9    ;; debug: position 1988
                                                             ;; object: 0x25b597eee7b9 <String[3]: ret>
0x257143ac91  1425  488b5627       REX.W movq rdx,[rsi+0x27]
0x257143ac95  1429  48b8000000001b000000 REX.W movq rax,0x1b00000000
0x257143ac9f  1439  e85c56feff     call 0x2571420300         ;; code: contextual, LOAD_IC, DEFAULT
0x257143aca4  1444  5a             pop rdx                   ;; debug: position 1986
0x257143aca5  1445  e89680fdff     call 0x2571412d40         ;; code: BINARY_OP_IC, UNINITIALIZED (id = 482)
0x257143acaa  1450  90             nop
0x257143acab  1451  50             push rax
0x257143acac  1452  b801000000     movl rax,0x1              ;; debug: position 1924
0x257143acb1  1457  48bb7098870001000000 REX.W movq rbx,0x100879870
0x257143acbb  1467  e860effcff     call 0x2571409c20         ;; code: STUB, CEntryStub, minor: 0
0x257143acc0  1472  488b45e8       REX.W movq rax,[rbp-0x18]    ;; debug: statement 1994
0x257143acc4  1476  48bb41ecee97b5250000 REX.W movq rbx,0x25b597eeec41    ;; object: 0x25b597eeec41 Cell for 6144
0x257143acce  1486  83430bd1       addl [rbx+0xb],0xd1
0x257143acd2  1490  791f           jns 1523  (0x257143acf3)
0x257143acd4  1492  50             push rax
0x257143acd5  1493  e806baffff     call InterruptCheck  (0x25714366e0)    ;; code: BUILTIN
0x257143acda  1498  58             pop rax
0x257143acdb  1499  48bb41ecee97b5250000 REX.W movq rbx,0x25b597eeec41    ;; object: 0x25b597eeec41 Cell for 6144
0x257143ace5  1509  49ba0000000000180000 REX.W movq r10,0x180000000000
0x257143acef  1519  4c895307       REX.W movq [rbx+0x7],r10
0x257143acf3  1523  c9             leave                     ;; debug: statement 1993
0x257143acf4  1524  c20800         ret 0x8
0x257143acf7  1527  498b45a8       REX.W movq rax,[r13-0x58]
0x257143acfb  1531  e9c4ffffff     jmp 1476  (0x257143acc4)

Deoptimization Output Data (deopt points = 0)

Back edges (size = 0)
ast_id  pc_offset  loop_depth

0x25b597eef129: [TypeFeedbackInfo]
 - ic_total_count: 32, ic_with_type_info_count: 0, ic_generic_count: 0

RelocInfo (size = 280)
0x257143a700  position  (0)
0x257143a70c  embedded object  (0x25b597eeef11 <FixedArray[28]>)
0x257143a728  code target (STUB)  (0x2571409c20)
0x257143a736  code target (BUILTIN)  (0x2571436820)
0x257143a73a  statement position  (112)
0x257143a73c  embedded object  (0x25b597eee471 <String[4]: last>)
0x257143a764  code target (STUB)  (0x2571409c20)
0x257143a76a  embedded object  (0x25b597e4f071 <String[1]: A>)
0x257143a792  code target (STUB)  (0x2571409c20)
0x257143a798  embedded object  (0x25b597e673d9 <String[1]: C>)
0x257143a7c0  code target (STUB)  (0x2571409c20)
0x257143a7c6  embedded object  (0x25b597e6b5b9 <String[1]: M>)
0x257143a7fc  code target (STUB)  (0x2571409c20)
0x257143a800  statement position  (239)
0x257143a802  embedded object  (0x25b597eee4b1 <String[3]: ALU>)
0x257143a810  embedded object  (0x25b597eee4d1 <String[42]: GGCCGGGCGCGGTGGCTCACGCCTGTAATCCCAGCACTTTGG>)
0x257143a81c  embedded object  (0x25b597eee519 <String[42]: GAGGCCGAGGCGGGCGGATCACCTGAGGTCAGGAGTTCGAGA>)
0x257143a824  position  (296)
0x257143a826  code target with id (BINARY_OP_IC)  (0x2571412d40) (id=140)
0x257143a82e  embedded object  (0x25b597eee561 <String[42]: CCAGCCTGGCCAACATGGTGAAACCCCGTCTCTACTAAAAAT>)
0x257143a836  position  (345)
0x257143a838  code target with id (BINARY_OP_IC)  (0x2571412d40) (id=136)
0x257143a840  embedded object  (0x25b597eee5a9 <String[42]: ACAAAAATTAGCCGGGCGTGGTGGCGCGCGCCTGTAATCCCA>)
0x257143a848  position  (394)
0x257143a84a  code target with id (BINARY_OP_IC)  (0x2571412d40) (id=132)
0x257143a852  embedded object  (0x25b597eee5f1 <String[42]: GCTACTCGGGAGGCTGAGGCAGGAGAATCGCTTGAACCCGGG>)
0x257143a85a  position  (443)
0x257143a85c  code target with id (BINARY_OP_IC)  (0x2571412d40) (id=128)
0x257143a864  embedded object  (0x25b597eee639 <String[42]: AGGCGGAGGTTGCAGTGAGCCGAGATCGCGCCACTGCACTCC>)
0x257143a86c  position  (492)
0x257143a86e  code target with id (BINARY_OP_IC)  (0x2571412d40) (id=124)
0x257143a876  embedded object  (0x25b597eee681 <String[35]: AGCCTGGGCGACAGAGCGAGACTCCGTCTCAAAAA>)
0x257143a87e  position  (541)
0x257143a880  code target with id (BINARY_OP_IC)  (0x2571412d40) (id=120)
0x257143a896  code target (STUB)  (0x2571409c20)
0x257143a89a  statement position  (585)
0x257143a89c  embedded object  (0x25b597eee6c1 <String[3]: IUB>)
0x257143a8b3  embedded object  (0x25b597eee9a9 <FixedArray[30]>)
0x257143a8d9  code target (STUB)  (0x2571409c20)
0x257143a8ee  code target (STUB)  (0x2571409c20)
0x257143a8f2  statement position  (727)
0x257143a8f4  embedded object  (0x25b597eee6e1 <String[7]: HomoSap>)
0x257143a915  embedded object  (0x25b597eeeaa9 <FixedArray[8]>)
0x257143a93b  code target (STUB)  (0x2571409c20)
0x257143a950  code target (STUB)  (0x2571409c20)
0x257143a954  statement position  (1742)
0x257143a956  embedded object  (0x25b597eee7b9 <String[3]: ret>)
0x257143a974  code target (STUB)  (0x2571409c20)
0x257143a978  statement position  (1756)
0x257143a97a  embedded object  (0x25b597eee7d9 <String[5]: count>)
0x257143a9a2  code target (STUB)  (0x2571409c20)
0x257143a9a6  statement position  (1771)
0x257143a9a8  embedded object  (0x25b597eee749 <String[11]: fastaRepeat>)
0x257143a9bf  code target (LOAD_IC)  (0x2571420300)
0x257143a9c6  embedded object  (0x25b597e04189 <undefined>)
0x257143a9dc  position  (1785)
0x257143a9de  embedded object  (0x25b597eee7d9 <String[5]: count>)
0x257143a9f5  code target (LOAD_IC)  (0x2571420300)
0x257143a9f9  position  (1784)
0x257143a9fb  code target with id (BINARY_OP_IC)  (0x2571410d20) (id=370)
0x257143aa18  position  (1790)
0x257143aa1a  code target with id (BINARY_OP_IC)  (0x2571410d20) (id=366)
0x257143aa20  position  (1799)
0x257143aa22  embedded object  (0x25b597eee4b1 <String[3]: ALU>)
0x257143aa39  code target (LOAD_IC)  (0x2571420300)
0x257143aa3e  position  (1771)
0x257143aa4e  code target (CALL_IC)  (0x25714121c0)
0x257143aa5a  statement position  (1805)
0x257143aa5c  embedded object  (0x25b597eee791 <String[11]: fastaRandom>)
0x257143aa73  code target (LOAD_IC)  (0x2571420300)
0x257143aa7a  embedded object  (0x25b597e04189 <undefined>)
0x257143aa90  position  (1819)
0x257143aa92  embedded object  (0x25b597eee7d9 <String[5]: count>)
0x257143aaa9  code target (LOAD_IC)  (0x2571420300)
0x257143aaad  position  (1818)
0x257143aaaf  code target with id (BINARY_OP_IC)  (0x2571410d20) (id=398)
0x257143aabf  position  (1824)
0x257143aac1  code target with id (BINARY_OP_IC)  (0x2571410d20) (id=394)
0x257143aac7  position  (1831)
0x257143aac9  embedded object  (0x25b597eee6c1 <String[3]: IUB>)
0x257143aae0  code target (LOAD_IC)  (0x2571420300)
0x257143aae5  position  (1805)
0x257143aaf5  code target (CALL_IC)  (0x25714121c0)
0x257143ab01  statement position  (1837)
0x257143ab03  embedded object  (0x25b597eee791 <String[11]: fastaRandom>)
0x257143ab1a  code target (LOAD_IC)  (0x2571420300)
0x257143ab21  embedded object  (0x25b597e04189 <undefined>)
0x257143ab37  position  (1851)
0x257143ab39  embedded object  (0x25b597eee7d9 <String[5]: count>)
0x257143ab50  code target (LOAD_IC)  (0x2571420300)
0x257143ab54  position  (1850)
0x257143ab56  code target with id (BINARY_OP_IC)  (0x2571410d20) (id=433)
0x257143ab66  position  (1856)
0x257143ab68  code target with id (BINARY_OP_IC)  (0x2571410d20) (id=429)
0x257143ab6e  position  (1863)
0x257143ab70  embedded object  (0x25b597eee6e1 <String[7]: HomoSap>)
0x257143ab87  code target (LOAD_IC)  (0x2571420300)
0x257143ab8c  position  (1837)
0x257143ab9c  code target (CALL_IC)  (0x25714121c0)
0x257143abac  statement position  (1874)
0x257143abae  embedded object  (0x25b597eee7f9 <String[8]: expected>)
0x257143abe4  code target (STUB)  (0x2571409c20)
0x257143abe8  statement position  (1899)
0x257143abe8  position  (1903)
0x257143abea  embedded object  (0x25b597eee7b9 <String[3]: ret>)
0x257143ac01  code target (LOAD_IC)  (0x2571420300)
0x257143ac06  position  (1910)
0x257143ac08  embedded object  (0x25b597eee7f9 <String[8]: expected>)
0x257143ac1f  code target (LOAD_IC)  (0x2571420300)
0x257143ac25  code target with id (COMPARE_IC)  (0x257141c560) (id=470)
0x257143ac44  statement position  (1924)
0x257143ac46  embedded object  (0x25b597eee819 <String[28]: ERROR: bad result: expected >)
0x257143ac50  position  (1963)
0x257143ac52  embedded object  (0x25b597eee7f9 <String[8]: expected>)
0x257143ac69  code target (LOAD_IC)  (0x2571420300)
0x257143ac6d  position  (1961)
0x257143ac6f  code target with id (BINARY_OP_IC)  (0x2571412d40) (id=490)
0x257143ac77  embedded object  (0x25b597eee851 <String[9]:  but got >)
0x257143ac7f  position  (1972)
0x257143ac81  code target with id (BINARY_OP_IC)  (0x2571412d40) (id=486)
0x257143ac87  position  (1988)
0x257143ac89  embedded object  (0x25b597eee7b9 <String[3]: ret>)
0x257143aca0  code target (LOAD_IC)  (0x2571420300)
0x257143aca4  position  (1986)
0x257143aca6  code target with id (BINARY_OP_IC)  (0x2571412d40) (id=482)
0x257143acac  position  (1924)
0x257143acbc  code target (STUB)  (0x2571409c20)
0x257143acc0  statement position  (1994)
0x257143acc6  embedded object  (0x25b597eeec41 Cell for 6144)
0x257143acd6  code target (BUILTIN)  (0x25714366e0)
0x257143acdd  embedded object  (0x25b597eeec41 Cell for 6144)
0x257143acf3  statement position  (1993)

--- End code ---
--- Raw source ---
(h){
var i=(typeof(this)==='number')?this:%non_number_to_number(this);
if(!(typeof(h)==='number'))h=%non_number_to_number(h);
return %NumberMul(i,h);
}


--- Code ---
source_position = 4476
kind = FUNCTION
name = MUL
compiler = full-codegen
Instructions (size = 316)
0x257143b080     0  55             push rbp                  ;; debug: position 4476
0x257143b081     1  4889e5         REX.W movq rbp,rsp
0x257143b084     4  56             push rsi
0x257143b085     5  57             push rdi
0x257143b086     6  41ff75a8       push [r13-0x58]
0x257143b08a    10  493ba540090000 REX.W cmpq rsp,[r13+0x940]
0x257143b091    17  7305           jnc 24  (0x257143b098)
0x257143b093    19  e888b7ffff     call StackCheck  (0x2571436820)    ;; code: BUILTIN
0x257143b098    24  488b4518       REX.W movq rax,[rbp+0x18]    ;; debug: statement 4481
                                                             ;; debug: position 4495
0x257143b09c    28  eb0f           jmp 45  (0x257143b0ad)
0x257143b09e    30  493b45c0       REX.W cmpq rax,[r13-0x40]
0x257143b0a2    34  0f841b000000   jz 67  (0x257143b0c3)
0x257143b0a8    40  e91f000000     jmp 76  (0x257143b0cc)
0x257143b0ad    45  a801           test al,0x1
0x257143b0af    47  0f840e000000   jz 67  (0x257143b0c3)
0x257143b0b5    53  488b40ff       REX.W movq rax,[rax-0x1]
0x257143b0b9    57  493b4508       REX.W cmpq rax,[r13+0x8]
0x257143b0bd    61  0f8509000000   jnz 76  (0x257143b0cc)
0x257143b0c3    67  488b4518       REX.W movq rax,[rbp+0x18]    ;; debug: position 4513
0x257143b0c7    71  e930000000     jmp 124  (0x257143b0fc)
0x257143b0cc    76  41ff75a8       push [r13-0x58]           ;; debug: position 4518
0x257143b0d0    80  488b4627       REX.W movq rax,[rsi+0x27]
0x257143b0d4    84  488b401f       REX.W movq rax,[rax+0x1f]
0x257143b0d8    88  488b80cf020000 REX.W movq rax,[rax+0x2cf]
0x257143b0df    95  ff3424         push [rsp]
0x257143b0e2    98  4889442408     REX.W movq [rsp+0x8],rax
0x257143b0e7   103  ff7518         push [rbp+0x18]           ;; debug: position 4540
0x257143b0ea   106  488b7c2410     REX.W movq rdi,[rsp+0x10]    ;; debug: position 4518
0x257143b0ef   111  e86c49ffff     call 0x257142fa60         ;; code: STUB, CallFunctionStub, minor: 4
0x257143b0f4   116  488b75f8       REX.W movq rsi,[rbp-0x8]
0x257143b0f8   120  4883c408       REX.W addq rsp,0x8
0x257143b0fc   124  488945e8       REX.W movq [rbp-0x18],rax    ;; debug: position 4481
0x257143b100   128  488b4510       REX.W movq rax,[rbp+0x10]    ;; debug: statement 4547
                                                             ;; debug: position 4559
0x257143b104   132  eb0f           jmp 149  (0x257143b115)
0x257143b106   134  493b45c0       REX.W cmpq rax,[r13-0x40]
0x257143b10a   138  0f844f000000   jz 223  (0x257143b15f)
0x257143b110   144  e916000000     jmp 171  (0x257143b12b)
0x257143b115   149  a801           test al,0x1
0x257143b117   151  0f8442000000   jz 223  (0x257143b15f)
0x257143b11d   157  488b40ff       REX.W movq rax,[rax-0x1]
0x257143b121   161  493b4508       REX.W cmpq rax,[r13+0x8]
0x257143b125   165  0f8434000000   jz 223  (0x257143b15f)
0x257143b12b   171  41ff75a8       push [r13-0x58]           ;; debug: statement 4574
                                                             ;; debug: position 4575
0x257143b12f   175  488b4627       REX.W movq rax,[rsi+0x27]
0x257143b133   179  488b401f       REX.W movq rax,[rax+0x1f]
0x257143b137   183  488b80cf020000 REX.W movq rax,[rax+0x2cf]
0x257143b13e   190  ff3424         push [rsp]
0x257143b141   193  4889442408     REX.W movq [rsp+0x8],rax
0x257143b146   198  ff7510         push [rbp+0x10]           ;; debug: position 4598
0x257143b149   201  488b7c2410     REX.W movq rdi,[rsp+0x10]    ;; debug: position 4576
0x257143b14e   206  e80d49ffff     call 0x257142fa60         ;; code: STUB, CallFunctionStub, minor: 4
0x257143b153   211  488b75f8       REX.W movq rsi,[rbp-0x8]
0x257143b157   215  4883c408       REX.W addq rsp,0x8
0x257143b15b   219  48894510       REX.W movq [rbp+0x10],rax    ;; debug: position 4575
0x257143b15f   223  ff75e8         push [rbp-0x18]           ;; debug: statement 4602
                                                             ;; debug: position 4620
0x257143b162   226  ff7510         push [rbp+0x10]           ;; debug: position 4622
0x257143b165   229  b802000000     movl rax,0x2
0x257143b16a   234  48bbb0d0880001000000 REX.W movq rbx,0x10088d0b0
0x257143b174   244  e8a7eafcff     call 0x2571409c20         ;; code: STUB, CEntryStub, minor: 0
0x257143b179   249  48bbe1ffee97b5250000 REX.W movq rbx,0x25b597eeffe1    ;; object: 0x25b597eeffe1 Cell for 6144
0x257143b183   259  83430bff       addl [rbx+0xb],0xff
0x257143b187   263  791f           jns 296  (0x257143b1a8)
0x257143b189   265  50             push rax
0x257143b18a   266  e851b5ffff     call InterruptCheck  (0x25714366e0)    ;; code: BUILTIN
0x257143b18f   271  58             pop rax
0x257143b190   272  48bbe1ffee97b5250000 REX.W movq rbx,0x25b597eeffe1    ;; object: 0x25b597eeffe1 Cell for 6144
0x257143b19a   282  49ba0000000000180000 REX.W movq r10,0x180000000000
0x257143b1a4   292  4c895307       REX.W movq [rbx+0x7],r10
0x257143b1a8   296  c9             leave                     ;; debug: statement 4626
0x257143b1a9   297  c21000         ret 0x10
0x257143b1ac   300  498b45a8       REX.W movq rax,[r13-0x58]
0x257143b1b0   304  e9c4ffffff     jmp 249  (0x257143b179)
0x257143b1b5   309  0f1f00         nop

Deoptimization Output Data (deopt points = 0)

Back edges (size = 0)
ast_id  pc_offset  loop_depth

0x25b597ef0041: [TypeFeedbackInfo]
 - ic_total_count: 0, ic_with_type_info_count: 0, ic_generic_count: 0

RelocInfo (size = 57)
0x257143b080  position  (4476)
0x257143b094  code target (BUILTIN)  (0x2571436820)
0x257143b098  statement position  (4481)
0x257143b098  position  (4495)
0x257143b0c3  position  (4513)
0x257143b0cc  position  (4518)
0x257143b0e7  position  (4540)
0x257143b0ea  position  (4518)
0x257143b0f0  code target (STUB)  (0x257142fa60)
0x257143b0fc  position  (4481)
0x257143b100  statement position  (4547)
0x257143b100  position  (4559)
0x257143b12b  statement position  (4574)
0x257143b12b  position  (4575)
0x257143b146  position  (4598)
0x257143b149  position  (4576)
0x257143b14f  code target (STUB)  (0x257142fa60)
0x257143b15b  position  (4575)
0x257143b15f  statement position  (4602)
0x257143b15f  position  (4620)
0x257143b162  position  (4622)
0x257143b175  code target (STUB)  (0x2571409c20)
0x257143b17b  embedded object  (0x25b597eeffe1 Cell for 6144)
0x257143b18b  code target (BUILTIN)  (0x25714366e0)
0x257143b192  embedded object  (0x25b597eeffe1 Cell for 6144)
0x257143b1a8  statement position  (4626)

--- End code ---
--- Raw source ---
(n, seq) {
  var seqi = 0, lenOut = 60;
  while (n>0) {
    if (n<lenOut) lenOut = n;
    if (seqi + lenOut < seq.length) {
      ret += seq.substring(seqi, seqi+lenOut).length;
      seqi += lenOut;
    } else {
      var s = seq.substring(seqi);
      seqi = lenOut - s.length;
      ret += (s + seq.substring(0, seqi)).length;
    }
    n -= lenOut;
  }
}


--- Code ---
source_position = 990
kind = FUNCTION
name = fastaRepeat
compiler = full-codegen
Instructions (size = 1160)
0x257143b220     0  55             push rbp                  ;; debug: position 990
0x257143b221     1  4889e5         REX.W movq rbp,rsp
0x257143b224     4  56             push rsi
0x257143b225     5  57             push rdi
0x257143b226     6  498b55a8       REX.W movq rdx,[r13-0x58]
0x257143b22a    10  52             push rdx
0x257143b22b    11  52             push rdx
0x257143b22c    12  52             push rdx
0x257143b22d    13  493ba540090000 REX.W cmpq rsp,[r13+0x940]
0x257143b234    20  7305           jnc 27  (0x257143b23b)
0x257143b236    22  e8e5b5ffff     call StackCheck  (0x2571436820)    ;; code: BUILTIN
0x257143b23b    27  48b80000000000000000 REX.W movq rax,0x0    ;; debug: statement 1003
0x257143b245    37  488945e8       REX.W movq [rbp-0x18],rax
0x257143b249    41  48b8000000003c000000 REX.W movq rax,0x3c00000000
0x257143b253    51  488945e0       REX.W movq [rbp-0x20],rax
0x257143b257    55  ff7518         push [rbp+0x18]           ;; debug: statement 1040
                                                             ;; debug: position 1039
0x257143b25a    58  48b80000000000000000 REX.W movq rax,0x0
0x257143b264    68  5a             pop rdx
0x257143b265    69  488bca         REX.W movq rcx,rdx
0x257143b268    72  480bc8         REX.W orq rcx,rax
0x257143b26b    75  f6c101         testb rcx,0x1
0x257143b26e    78  730e           jnc 94  (0x257143b27e)
0x257143b270    80  483bd0         REX.W cmpq rdx,rax
0x257143b273    83  0f8f26000000   jg 127  (0x257143b29f)
0x257143b279    89  e9de030000     jmp 1084  (0x257143b65c)
0x257143b27e    94  e8fd49ffff     call 0x257142fc80         ;; code: COMPARE_IC, UNINITIALIZED (id = 42)
0x257143b283    99  a815           test al,0x15
0x257143b285   101  eb0f           jmp 118  (0x257143b296)
0x257143b287   103  493b45c0       REX.W cmpq rax,[r13-0x40]
0x257143b28b   107  0f840e000000   jz 127  (0x257143b29f)
0x257143b291   113  e9c6030000     jmp 1084  (0x257143b65c)
0x257143b296   118  4885c0         REX.W testq rax,rax
0x257143b299   121  0f8ebd030000   jle 1084  (0x257143b65c)
0x257143b29f   127  ff7518         push [rbp+0x18]           ;; debug: statement 1050
                                                             ;; debug: position 1054
0x257143b2a2   130  488b45e0       REX.W movq rax,[rbp-0x20]    ;; debug: position 1056
0x257143b2a6   134  5a             pop rdx
0x257143b2a7   135  488bca         REX.W movq rcx,rdx
0x257143b2aa   138  480bc8         REX.W orq rcx,rax
0x257143b2ad   141  f6c101         testb rcx,0x1
0x257143b2b0   144  730e           jnc 160  (0x257143b2c0)
0x257143b2b2   146  483bd0         REX.W cmpq rdx,rax
0x257143b2b5   149  0f8c26000000   jl 193  (0x257143b2e1)
0x257143b2bb   155  e929000000     jmp 201  (0x257143b2e9)
0x257143b2c0   160  e8dbc8fdff     call 0x2571417ba0         ;; code: COMPARE_IC, UNINITIALIZED (id = 57)
0x257143b2c5   165  a815           test al,0x15
0x257143b2c7   167  eb0f           jmp 184  (0x257143b2d8)
0x257143b2c9   169  493b45c0       REX.W cmpq rax,[r13-0x40]
0x257143b2cd   173  0f840e000000   jz 193  (0x257143b2e1)
0x257143b2d3   179  e911000000     jmp 201  (0x257143b2e9)
0x257143b2d8   184  4885c0         REX.W testq rax,rax
0x257143b2db   187  0f8d08000000   jge 201  (0x257143b2e9)
0x257143b2e1   193  488b4518       REX.W movq rax,[rbp+0x18]    ;; debug: statement 1064
                                                             ;; debug: position 1073
0x257143b2e5   197  488945e0       REX.W movq [rbp-0x20],rax    ;; debug: position 1071
0x257143b2e9   201  ff75e8         push [rbp-0x18]           ;; debug: statement 1080
                                                             ;; debug: position 1084
0x257143b2ec   204  488b45e0       REX.W movq rax,[rbp-0x20]    ;; debug: position 1091
0x257143b2f0   208  5a             pop rdx                   ;; debug: position 1089
0x257143b2f1   209  488bc8         REX.W movq rcx,rax
0x257143b2f4   212  480bc2         REX.W orq rax,rdx
0x257143b2f7   215  a801           test al,0x1
0x257143b2f9   217  720c           jc 231  (0x257143b307)
0x257143b2fb   219  488bc1         REX.W movq rax,rcx
0x257143b2fe   222  e83d7afdff     call 0x2571412d40         ;; code: BINARY_OP_IC, UNINITIALIZED (id = 83)
0x257143b303   227  a80a           test al,0xa
0x257143b305   229  eb0c           jmp 243  (0x257143b313)
0x257143b307   231  488bc2         REX.W movq rax,rdx
0x257143b30a   234  4803c1         REX.W addq rax,rcx
0x257143b30d   237  0f80e8ffffff   jo 219  (0x257143b2fb)
0x257143b313   243  50             push rax
0x257143b314   244  488b4510       REX.W movq rax,[rbp+0x10]    ;; debug: position 1100
0x257143b318   248  488bd0         REX.W movq rdx,rax
0x257143b31b   251  48b9712ee997b5250000 REX.W movq rcx,0x25b597e92e71    ;; debug: position 1103
                                                             ;; object: 0x25b597e92e71 <String[6]: length>
0x257143b325   261  48b80000000005000000 REX.W movq rax,0x500000000
0x257143b32f   271  e8cc4ffeff     call 0x2571420300         ;; code: contextual, LOAD_IC, DEFAULT
0x257143b334   276  5a             pop rdx
0x257143b335   277  488bca         REX.W movq rcx,rdx
0x257143b338   280  480bc8         REX.W orq rcx,rax
0x257143b33b   283  f6c101         testb rcx,0x1
0x257143b33e   286  730e           jnc 302  (0x257143b34e)
0x257143b340   288  483bd0         REX.W cmpq rdx,rax
0x257143b343   291  0f8c26000000   jl 335  (0x257143b36f)
0x257143b349   297  e938010000     jmp 614  (0x257143b486)
0x257143b34e   302  e84dc8fdff     call 0x2571417ba0         ;; code: COMPARE_IC, UNINITIALIZED (id = 79)
0x257143b353   307  a815           test al,0x15
0x257143b355   309  eb0f           jmp 326  (0x257143b366)
0x257143b357   311  493b45c0       REX.W cmpq rax,[r13-0x40]
0x257143b35b   315  0f840e000000   jz 335  (0x257143b36f)
0x257143b361   321  e920010000     jmp 614  (0x257143b486)
0x257143b366   326  4885c0         REX.W testq rax,rax
0x257143b369   329  0f8d17010000   jge 614  (0x257143b486)
0x257143b36f   335  48b9b9e7ee97b5250000 REX.W movq rcx,0x25b597eee7b9    ;; debug: statement 1120
                                                             ;; debug: position 1120
                                                             ;; object: 0x25b597eee7b9 <String[3]: ret>
0x257143b379   345  488b5627       REX.W movq rdx,[rsi+0x27]
0x257143b37d   349  48b80000000007000000 REX.W movq rax,0x700000000
0x257143b387   359  e8744ffeff     call 0x2571420300         ;; code: contextual, LOAD_IC, DEFAULT
0x257143b38c   364  50             push rax
0x257143b38d   365  ff7510         push [rbp+0x10]           ;; debug: position 1127
0x257143b390   368  488b1424       REX.W movq rdx,[rsp]
0x257143b394   372  48b9d9fbe597b5250000 REX.W movq rcx,0x25b597e5fbd9    ;; debug: position 1130
                                                             ;; object: 0x25b597e5fbd9 <String[9]: substring>
0x257143b39e   382  48b80000000011000000 REX.W movq rax,0x1100000000
0x257143b3a8   392  e8534ffeff     call 0x2571420300         ;; code: contextual, LOAD_IC, DEFAULT
0x257143b3ad   397  ff3424         push [rsp]
0x257143b3b0   400  4889442408     REX.W movq [rsp+0x8],rax
0x257143b3b5   405  ff75e8         push [rbp-0x18]           ;; debug: position 1141
0x257143b3b8   408  ff75e8         push [rbp-0x18]           ;; debug: position 1147
0x257143b3bb   411  488b45e0       REX.W movq rax,[rbp-0x20]    ;; debug: position 1152
0x257143b3bf   415  5a             pop rdx                   ;; debug: position 1151
0x257143b3c0   416  488bc8         REX.W movq rcx,rax
0x257143b3c3   419  480bc2         REX.W orq rax,rdx
0x257143b3c6   422  a801           test al,0x1
0x257143b3c8   424  720c           jc 438  (0x257143b3d6)
0x257143b3ca   426  488bc1         REX.W movq rax,rcx
0x257143b3cd   429  e86e79fdff     call 0x2571412d40         ;; code: BINARY_OP_IC, UNINITIALIZED (id = 175)
0x257143b3d2   434  a80a           test al,0xa
0x257143b3d4   436  eb0c           jmp 450  (0x257143b3e2)
0x257143b3d6   438  488bc2         REX.W movq rax,rdx
0x257143b3d9   441  4803c1         REX.W addq rax,rcx
0x257143b3dc   444  0f80e8ffffff   jo 426  (0x257143b3ca)
0x257143b3e2   450  50             push rax
0x257143b3e3   451  48ba000000000f000000 REX.W movq rdx,0xf00000000    ;; debug: position 1131
0x257143b3ed   461  488b7c2418     REX.W movq rdi,[rsp+0x18]
0x257143b3f2   466  e809b0feff     call 0x2571426400         ;; code: CALL_IC, DEFAULT
0x257143b3f7   471  488b75f8       REX.W movq rsi,[rbp-0x8]
0x257143b3fb   475  4883c408       REX.W addq rsp,0x8
0x257143b3ff   479  488bd0         REX.W movq rdx,rax
0x257143b402   482  48b9712ee997b5250000 REX.W movq rcx,0x25b597e92e71    ;; debug: position 1159
                                                             ;; object: 0x25b597e92e71 <String[6]: length>
0x257143b40c   492  48b80000000013000000 REX.W movq rax,0x1300000000
0x257143b416   502  e8e54efeff     call 0x2571420300         ;; code: contextual, LOAD_IC, DEFAULT
0x257143b41b   507  5a             pop rdx
0x257143b41c   508  488bc8         REX.W movq rcx,rax
0x257143b41f   511  480bc2         REX.W orq rax,rdx
0x257143b422   514  a801           test al,0x1
0x257143b424   516  720c           jc 530  (0x257143b432)
0x257143b426   518  488bc1         REX.W movq rax,rcx
0x257143b429   521  e81279fdff     call 0x2571412d40         ;; code: BINARY_OP_IC, UNINITIALIZED (id = 109)
0x257143b42e   526  a80a           test al,0xa
0x257143b430   528  eb0c           jmp 542  (0x257143b43e)
0x257143b432   530  488bc2         REX.W movq rax,rdx
0x257143b435   533  4803c1         REX.W addq rax,rcx
0x257143b438   536  0f80e8ffffff   jo 518  (0x257143b426)
0x257143b43e   542  48b9b9e7ee97b5250000 REX.W movq rcx,0x25b597eee7b9    ;; debug: position 1124
                                                             ;; object: 0x25b597eee7b9 <String[3]: ret>
0x257143b448   552  488b5627       REX.W movq rdx,[rsi+0x27]
0x257143b44c   556  e8cf6cffff     call 0x2571432120         ;; code: STORE_IC, UNINITIALIZED
0x257143b451   561  488b45e8       REX.W movq rax,[rbp-0x18]    ;; debug: statement 1174
                                                             ;; debug: position 1174
0x257143b455   565  50             push rax
0x257143b456   566  488b45e0       REX.W movq rax,[rbp-0x20]    ;; debug: position 1182
0x257143b45a   570  5a             pop rdx
0x257143b45b   571  488bc8         REX.W movq rcx,rax
0x257143b45e   574  480bc2         REX.W orq rax,rdx
0x257143b461   577  a801           test al,0x1
0x257143b463   579  720c           jc 593  (0x257143b471)
0x257143b465   581  488bc1         REX.W movq rax,rcx
0x257143b468   584  e8d378fdff     call 0x2571412d40         ;; code: BINARY_OP_IC, UNINITIALIZED (id = 189)
0x257143b46d   589  a80a           test al,0xa
0x257143b46f   591  eb0c           jmp 605  (0x257143b47d)
0x257143b471   593  488bc2         REX.W movq rax,rdx
0x257143b474   596  4803c1         REX.W addq rax,rcx
0x257143b477   599  0f80e8ffffff   jo 581  (0x257143b465)
0x257143b47d   605  488945e8       REX.W movq [rbp-0x18],rax    ;; debug: position 1179
0x257143b481   609  e974010000     jmp 986  (0x257143b5fa)
0x257143b486   614  ff7510         push [rbp+0x10]           ;; debug: statement 1209
                                                             ;; debug: position 1217
0x257143b489   617  488b1424       REX.W movq rdx,[rsp]
0x257143b48d   621  48b9d9fbe597b5250000 REX.W movq rcx,0x25b597e5fbd9    ;; debug: position 1220
                                                             ;; object: 0x25b597e5fbd9 <String[9]: substring>
0x257143b497   631  48b80000000017000000 REX.W movq rax,0x1700000000
0x257143b4a1   641  e85a4efeff     call 0x2571420300         ;; code: contextual, LOAD_IC, DEFAULT
0x257143b4a6   646  ff3424         push [rsp]
0x257143b4a9   649  4889442408     REX.W movq [rsp+0x8],rax
0x257143b4ae   654  ff75e8         push [rbp-0x18]           ;; debug: position 1231
0x257143b4b1   657  48ba0000000015000000 REX.W movq rdx,0x1500000000    ;; debug: position 1221
0x257143b4bb   667  488b7c2410     REX.W movq rdi,[rsp+0x10]
0x257143b4c0   672  e8fb05feff     call 0x257141bac0         ;; code: CALL_IC, DEFAULT
0x257143b4c5   677  488b75f8       REX.W movq rsi,[rbp-0x8]
0x257143b4c9   681  4883c408       REX.W addq rsp,0x8
0x257143b4cd   685  488945d8       REX.W movq [rbp-0x28],rax    ;; debug: position 1209
0x257143b4d1   689  ff75e0         push [rbp-0x20]           ;; debug: statement 1244
                                                             ;; debug: position 1251
0x257143b4d4   692  488b45d8       REX.W movq rax,[rbp-0x28]    ;; debug: position 1260
0x257143b4d8   696  488bd0         REX.W movq rdx,rax
0x257143b4db   699  48b9712ee997b5250000 REX.W movq rcx,0x25b597e92e71    ;; debug: position 1261
                                                             ;; object: 0x25b597e92e71 <String[6]: length>
0x257143b4e5   709  48b80000000019000000 REX.W movq rax,0x1900000000
0x257143b4ef   719  e80c4efeff     call 0x2571420300         ;; code: contextual, LOAD_IC, DEFAULT
0x257143b4f4   724  5a             pop rdx                   ;; debug: position 1258
0x257143b4f5   725  488bc8         REX.W movq rcx,rax
0x257143b4f8   728  480bc2         REX.W orq rax,rdx
0x257143b4fb   731  a801           test al,0x1
0x257143b4fd   733  720c           jc 747  (0x257143b50b)
0x257143b4ff   735  488bc1         REX.W movq rax,rcx
0x257143b502   738  e859e7feff     call 0x2571429c60         ;; code: BINARY_OP_IC, UNINITIALIZED (id = 242)
0x257143b507   743  a80a           test al,0xa
0x257143b509   745  eb0c           jmp 759  (0x257143b517)
0x257143b50b   747  488bc2         REX.W movq rax,rdx
0x257143b50e   750  482bc1         REX.W subq rax,rcx
0x257143b511   753  0f80e8ffffff   jo 735  (0x257143b4ff)
0x257143b517   759  488945e8       REX.W movq [rbp-0x18],rax    ;; debug: position 1249
0x257143b51b   763  48b9b9e7ee97b5250000 REX.W movq rcx,0x25b597eee7b9    ;; debug: statement 1276
                                                             ;; debug: position 1276
                                                             ;; object: 0x25b597eee7b9 <String[3]: ret>
0x257143b525   773  488b5627       REX.W movq rdx,[rsi+0x27]
0x257143b529   777  48b80000000007000000 REX.W movq rax,0x700000000
0x257143b533   787  e8c84dfeff     call 0x2571420300         ;; code: contextual, LOAD_IC, DEFAULT
0x257143b538   792  50             push rax
0x257143b539   793  ff75d8         push [rbp-0x28]           ;; debug: position 1284
0x257143b53c   796  ff7510         push [rbp+0x10]           ;; debug: position 1288
0x257143b53f   799  488b1424       REX.W movq rdx,[rsp]
0x257143b543   803  48b9d9fbe597b5250000 REX.W movq rcx,0x25b597e5fbd9    ;; debug: position 1291
                                                             ;; object: 0x25b597e5fbd9 <String[9]: substring>
0x257143b54d   813  48b80000000023000000 REX.W movq rax,0x2300000000
0x257143b557   823  e8a44dfeff     call 0x2571420300         ;; code: contextual, LOAD_IC, DEFAULT
0x257143b55c   828  ff3424         push [rsp]
0x257143b55f   831  4889442408     REX.W movq [rsp+0x8],rax
0x257143b564   836  6a00           push 0x0
0x257143b566   838  ff75e8         push [rbp-0x18]           ;; debug: position 1305
0x257143b569   841  48ba0000000021000000 REX.W movq rdx,0x2100000000    ;; debug: position 1292
0x257143b573   851  488b7c2418     REX.W movq rdi,[rsp+0x18]
0x257143b578   856  e883aefeff     call 0x2571426400         ;; code: CALL_IC, DEFAULT
0x257143b57d   861  488b75f8       REX.W movq rsi,[rbp-0x8]
0x257143b581   865  4883c408       REX.W addq rsp,0x8
0x257143b585   869  5a             pop rdx                   ;; debug: position 1286
0x257143b586   870  488bc8         REX.W movq rcx,rax
0x257143b589   873  480bc2         REX.W orq rax,rdx
0x257143b58c   876  a801           test al,0x1
0x257143b58e   878  720c           jc 892  (0x257143b59c)
0x257143b590   880  488bc1         REX.W movq rax,rcx
0x257143b593   883  e8a877fdff     call 0x2571412d40         ;; code: BINARY_OP_IC, UNINITIALIZED (id = 311)
0x257143b598   888  a80a           test al,0xa
0x257143b59a   890  eb0c           jmp 904  (0x257143b5a8)
0x257143b59c   892  488bc2         REX.W movq rax,rdx
0x257143b59f   895  4803c1         REX.W addq rax,rcx
0x257143b5a2   898  0f80e8ffffff   jo 880  (0x257143b590)
0x257143b5a8   904  488bd0         REX.W movq rdx,rax
0x257143b5ab   907  48b9712ee997b5250000 REX.W movq rcx,0x25b597e92e71    ;; debug: position 1311
                                                             ;; object: 0x25b597e92e71 <String[6]: length>
0x257143b5b5   917  48b80000000025000000 REX.W movq rax,0x2500000000
0x257143b5bf   927  e83c4dfeff     call 0x2571420300         ;; code: contextual, LOAD_IC, DEFAULT
0x257143b5c4   932  5a             pop rdx
0x257143b5c5   933  488bc8         REX.W movq rcx,rax
0x257143b5c8   936  480bc2         REX.W orq rax,rdx
0x257143b5cb   939  a801           test al,0x1
0x257143b5cd   941  720c           jc 955  (0x257143b5db)
0x257143b5cf   943  488bc1         REX.W movq rax,rcx
0x257143b5d2   946  e86977fdff     call 0x2571412d40         ;; code: BINARY_OP_IC, UNINITIALIZED (id = 262)
0x257143b5d7   951  a80a           test al,0xa
0x257143b5d9   953  eb0c           jmp 967  (0x257143b5e7)
0x257143b5db   955  488bc2         REX.W movq rax,rdx
0x257143b5de   958  4803c1         REX.W addq rax,rcx
0x257143b5e1   961  0f80e8ffffff   jo 943  (0x257143b5cf)
0x257143b5e7   967  48b9b9e7ee97b5250000 REX.W movq rcx,0x25b597eee7b9    ;; debug: position 1280
                                                             ;; object: 0x25b597eee7b9 <String[3]: ret>
0x257143b5f1   977  488b5627       REX.W movq rdx,[rsi+0x27]
0x257143b5f5   981  e8266bffff     call 0x2571432120         ;; code: STORE_IC, UNINITIALIZED
0x257143b5fa   986  488b4518       REX.W movq rax,[rbp+0x18]    ;; debug: statement 1330
                                                             ;; debug: position 1330
0x257143b5fe   990  50             push rax
0x257143b5ff   991  488b45e0       REX.W movq rax,[rbp-0x20]    ;; debug: position 1335
0x257143b603   995  5a             pop rdx
0x257143b604   996  488bc8         REX.W movq rcx,rax
0x257143b607   999  480bc2         REX.W orq rax,rdx
0x257143b60a  1002  a801           test al,0x1
0x257143b60c  1004  720c           jc 1018  (0x257143b61a)
0x257143b60e  1006  488bc1         REX.W movq rax,rcx
0x257143b611  1009  e84ae6feff     call 0x2571429c60         ;; code: BINARY_OP_IC, UNINITIALIZED (id = 342)
0x257143b616  1014  a80a           test al,0xa
0x257143b618  1016  eb0c           jmp 1030  (0x257143b626)
0x257143b61a  1018  488bc2         REX.W movq rax,rdx
0x257143b61d  1021  482bc1         REX.W subq rax,rcx
0x257143b620  1024  0f80e8ffffff   jo 1006  (0x257143b60e)
0x257143b626  1030  48894518       REX.W movq [rbp+0x18],rax    ;; debug: position 1332
0x257143b62a  1034  48bb6102ef97b5250000 REX.W movq rbx,0x25b597ef0261    ;; object: 0x25b597ef0261 Cell for 6144
0x257143b634  1044  83430bfb       addl [rbx+0xb],0xfb
0x257143b638  1048  791d           jns 1079  (0x257143b657)
0x257143b63a  1050  e8a1b0ffff     call InterruptCheck  (0x25714366e0)    ;; code: BUILTIN
0x257143b63f  1055  48bb6102ef97b5250000 REX.W movq rbx,0x25b597ef0261    ;; object: 0x25b597ef0261 Cell for 6144
0x257143b649  1065  49ba0000000000180000 REX.W movq r10,0x180000000000
0x257143b653  1075  4c895307       REX.W movq [rbx+0x7],r10
0x257143b657  1079  e9fbfbffff     jmp 55  (0x257143b257)
0x257143b65c  1084  498b45a8       REX.W movq rax,[r13-0x58]
0x257143b660  1088  48bb6102ef97b5250000 REX.W movq rbx,0x25b597ef0261    ;; object: 0x25b597ef0261 Cell for 6144
0x257143b66a  1098  83430bfa       addl [rbx+0xb],0xfa
0x257143b66e  1102  791f           jns 1135  (0x257143b68f)
0x257143b670  1104  50             push rax
0x257143b671  1105  e86ab0ffff     call InterruptCheck  (0x25714366e0)    ;; code: BUILTIN
0x257143b676  1110  58             pop rax
0x257143b677  1111  48bb6102ef97b5250000 REX.W movq rbx,0x25b597ef0261    ;; object: 0x25b597ef0261 Cell for 6144
0x257143b681  1121  49ba0000000000180000 REX.W movq r10,0x180000000000
0x257143b68b  1131  4c895307       REX.W movq [rbx+0x7],r10
0x257143b68f  1135  c9             leave                     ;; debug: statement 1347
0x257143b690  1136  c21800         ret 0x18
0x257143b693  1139  0f1f440000     nop

Deoptimization Output Data (deopt points = 0)

Back edges (size = 1)
ast_id  pc_offset  loop_depth
    38       1055           1

0x25b597ef0369: [TypeFeedbackInfo]
 - ic_total_count: 25, ic_with_type_info_count: 0, ic_generic_count: 0

RelocInfo (size = 226)
0x257143b220  position  (990)
0x257143b237  code target (BUILTIN)  (0x2571436820)
0x257143b23b  statement position  (1003)
0x257143b257  statement position  (1040)
0x257143b257  position  (1039)
0x257143b27f  code target with id (COMPARE_IC)  (0x257142fc80) (id=42)
0x257143b29f  statement position  (1050)
0x257143b29f  position  (1054)
0x257143b2a2  position  (1056)
0x257143b2c1  code target with id (COMPARE_IC)  (0x2571417ba0) (id=57)
0x257143b2e1  statement position  (1064)
0x257143b2e1  position  (1073)
0x257143b2e5  position  (1071)
0x257143b2e9  statement position  (1080)
0x257143b2e9  position  (1084)
0x257143b2ec  position  (1091)
0x257143b2f0  position  (1089)
0x257143b2ff  code target with id (BINARY_OP_IC)  (0x2571412d40) (id=83)
0x257143b314  position  (1100)
0x257143b31b  position  (1103)
0x257143b31d  embedded object  (0x25b597e92e71 <String[6]: length>)
0x257143b330  code target (LOAD_IC)  (0x2571420300)
0x257143b34f  code target with id (COMPARE_IC)  (0x2571417ba0) (id=79)
0x257143b36f  statement position  (1120)
0x257143b36f  position  (1120)
0x257143b371  embedded object  (0x25b597eee7b9 <String[3]: ret>)
0x257143b388  code target (LOAD_IC)  (0x2571420300)
0x257143b38d  position  (1127)
0x257143b394  position  (1130)
0x257143b396  embedded object  (0x25b597e5fbd9 <String[9]: substring>)
0x257143b3a9  code target (LOAD_IC)  (0x2571420300)
0x257143b3b5  position  (1141)
0x257143b3b8  position  (1147)
0x257143b3bb  position  (1152)
0x257143b3bf  position  (1151)
0x257143b3ce  code target with id (BINARY_OP_IC)  (0x2571412d40) (id=175)
0x257143b3e3  position  (1131)
0x257143b3f3  code target (CALL_IC)  (0x2571426400)
0x257143b402  position  (1159)
0x257143b404  embedded object  (0x25b597e92e71 <String[6]: length>)
0x257143b417  code target (LOAD_IC)  (0x2571420300)
0x257143b42a  code target with id (BINARY_OP_IC)  (0x2571412d40) (id=109)
0x257143b43e  position  (1124)
0x257143b440  embedded object  (0x25b597eee7b9 <String[3]: ret>)
0x257143b44d  code target (STORE_IC)  (0x2571432120)
0x257143b451  statement position  (1174)
0x257143b451  position  (1174)
0x257143b456  position  (1182)
0x257143b469  code target with id (BINARY_OP_IC)  (0x2571412d40) (id=189)
0x257143b47d  position  (1179)
0x257143b486  statement position  (1209)
0x257143b486  position  (1217)
0x257143b48d  position  (1220)
0x257143b48f  embedded object  (0x25b597e5fbd9 <String[9]: substring>)
0x257143b4a2  code target (LOAD_IC)  (0x2571420300)
0x257143b4ae  position  (1231)
0x257143b4b1  position  (1221)
0x257143b4c1  code target (CALL_IC)  (0x257141bac0)
0x257143b4cd  position  (1209)
0x257143b4d1  statement position  (1244)
0x257143b4d1  position  (1251)
0x257143b4d4  position  (1260)
0x257143b4db  position  (1261)
0x257143b4dd  embedded object  (0x25b597e92e71 <String[6]: length>)
0x257143b4f0  code target (LOAD_IC)  (0x2571420300)
0x257143b4f4  position  (1258)
0x257143b503  code target with id (BINARY_OP_IC)  (0x2571429c60) (id=242)
0x257143b517  position  (1249)
0x257143b51b  statement position  (1276)
0x257143b51b  position  (1276)
0x257143b51d  embedded object  (0x25b597eee7b9 <String[3]: ret>)
0x257143b534  code target (LOAD_IC)  (0x2571420300)
0x257143b539  position  (1284)
0x257143b53c  position  (1288)
0x257143b543  position  (1291)
0x257143b545  embedded object  (0x25b597e5fbd9 <String[9]: substring>)
0x257143b558  code target (LOAD_IC)  (0x2571420300)
0x257143b566  position  (1305)
0x257143b569  position  (1292)
0x257143b579  code target (CALL_IC)  (0x2571426400)
0x257143b585  position  (1286)
0x257143b594  code target with id (BINARY_OP_IC)  (0x2571412d40) (id=311)
0x257143b5ab  position  (1311)
0x257143b5ad  embedded object  (0x25b597e92e71 <String[6]: length>)
0x257143b5c0  code target (LOAD_IC)  (0x2571420300)
0x257143b5d3  code target with id (BINARY_OP_IC)  (0x2571412d40) (id=262)
0x257143b5e7  position  (1280)
0x257143b5e9  embedded object  (0x25b597eee7b9 <String[3]: ret>)
0x257143b5f6  code target (STORE_IC)  (0x2571432120)
0x257143b5fa  statement position  (1330)
0x257143b5fa  position  (1330)
0x257143b5ff  position  (1335)
0x257143b612  code target with id (BINARY_OP_IC)  (0x2571429c60) (id=342)
0x257143b626  position  (1332)
0x257143b62c  embedded object  (0x25b597ef0261 Cell for 6144)
0x257143b63b  code target (BUILTIN)  (0x25714366e0)
0x257143b641  embedded object  (0x25b597ef0261 Cell for 6144)
0x257143b662  embedded object  (0x25b597ef0261 Cell for 6144)
0x257143b672  code target (BUILTIN)  (0x25714366e0)
0x257143b679  embedded object  (0x25b597ef0261 Cell for 6144)
0x257143b68f  statement position  (1347)

--- End code ---
--- Raw source ---
(V,W){
if((%IS_VAR(this)===null)||(this===(void 0)))throw MakeTypeError(15,"String.prototype.subString");
var K=((typeof(%IS_VAR(this))==='string')?this:$nonStringToString(this));
var ax=K.length;
var ay=(%_IsSmi(%IS_VAR(V))?V:%NumberToInteger(o(V)));
if(ay<0){
ay=0;
}else if(ay>ax){
ay=ax;
}
var az=ax;
if(!(W===(void 0))){
az=(%_IsSmi(%IS_VAR(W))?W:%NumberToInteger(o(W)));
if(az>ax){
az=ax;
}else{
if(az<0)az=0;
if(ay>az){
var aK=az;
az=ay;
ay=aK;
}
}
}
return %_SubString(K,ay,az);
}


--- Code ---
source_position = 10317
kind = FUNCTION
name = substring
compiler = full-codegen
Instructions (size = 1004)
0x257143b800     0  55             push rbp                  ;; debug: position 10317
0x257143b801     1  4889e5         REX.W movq rbp,rsp
0x257143b804     4  56             push rsi
0x257143b805     5  57             push rdi
0x257143b806     6  498b55a8       REX.W movq rdx,[r13-0x58]
0x257143b80a    10  52             push rdx
0x257143b80b    11  52             push rdx
0x257143b80c    12  52             push rdx
0x257143b80d    13  52             push rdx
0x257143b80e    14  52             push rdx
0x257143b80f    15  493ba540090000 REX.W cmpq rsp,[r13+0x940]
0x257143b816    22  7305           jnc 29  (0x257143b81d)
0x257143b818    24  e803b0ffff     call StackCheck  (0x2571436820)    ;; code: BUILTIN
0x257143b81d    29  488b4520       REX.W movq rax,[rbp+0x20]    ;; debug: statement 10324
                                                             ;; debug: position 10336
0x257143b821    33  eb0f           jmp 50  (0x257143b832)
0x257143b823    35  493b45c0       REX.W cmpq rax,[r13-0x40]
0x257143b827    39  0f842e000000   jz 91  (0x257143b85b)
0x257143b82d    45  e90a000000     jmp 60  (0x257143b83c)
0x257143b832    50  493b45b8       REX.W cmpq rax,[r13-0x48]
0x257143b836    54  0f841f000000   jz 91  (0x257143b85b)
0x257143b83c    60  488b4520       REX.W movq rax,[rbp+0x20]    ;; debug: position 10352
0x257143b840    64  eb0f           jmp 81  (0x257143b851)
0x257143b842    66  493b45c0       REX.W cmpq rax,[r13-0x40]
0x257143b846    70  0f840f000000   jz 91  (0x257143b85b)
0x257143b84c    76  e97c000000     jmp 205  (0x257143b8cd)
0x257143b851    81  493b45a8       REX.W cmpq rax,[r13-0x58]
0x257143b855    85  0f8572000000   jnz 205  (0x257143b8cd)
0x257143b85b    91  48b9e956e897b5250000 REX.W movq rcx,0x25b597e856e9    ;; debug: statement 10369
                                                             ;; debug: position 10375
                                                             ;; object: 0x25b597e856e9 <String[13]: MakeTypeError>
0x257143b865   101  488b5627       REX.W movq rdx,[rsi+0x27]
0x257143b869   105  48b80000000006000000 REX.W movq rax,0x600000000
0x257143b873   115  e8884afeff     call 0x2571420300         ;; code: contextual, LOAD_IC, DEFAULT
0x257143b878   120  50             push rax
0x257143b879   121  49ba8941e097b5250000 REX.W movq r10,0x25b597e04189    ;; object: 0x25b597e04189 <undefined>
0x257143b883   131  4152           push r10
0x257143b885   133  49ba000000000f000000 REX.W movq r10,0xf00000000
0x257143b88f   143  4152           push r10
0x257143b891   145  49ba2904ef97b5250000 REX.W movq r10,0x25b597ef0429    ;; object: 0x25b597ef0429 <String[26]: String.prototype.subString>
0x257143b89b   155  4152           push r10
0x257143b89d   157  48ba0000000004000000 REX.W movq rdx,0x400000000
0x257143b8a7   167  488b7c2418     REX.W movq rdi,[rsp+0x18]
0x257143b8ac   172  e80f69fdff     call 0x25714121c0         ;; code: CALL_IC, DEFAULT
0x257143b8b1   177  488b75f8       REX.W movq rsi,[rbp-0x8]
0x257143b8b5   181  48890424       REX.W movq [rsp],rax
0x257143b8b9   185  b801000000     movl rax,0x1              ;; debug: position 10369
0x257143b8be   190  48bb7098870001000000 REX.W movq rbx,0x100879870
0x257143b8c8   200  e853e3fcff     call 0x2571409c20         ;; code: STUB, CEntryStub, minor: 0
0x257143b8cd   205  488b4520       REX.W movq rax,[rbp+0x20]    ;; debug: statement 10423
                                                             ;; debug: position 10446
0x257143b8d1   209  eb0f           jmp 226  (0x257143b8e2)
0x257143b8d3   211  493b45c0       REX.W cmpq rax,[r13-0x40]
0x257143b8d7   215  0f841b000000   jz 248  (0x257143b8f8)
0x257143b8dd   221  e91f000000     jmp 257  (0x257143b901)
0x257143b8e2   226  a801           test al,0x1
0x257143b8e4   228  0f8417000000   jz 257  (0x257143b901)
0x257143b8ea   234  488b50ff       REX.W movq rdx,[rax-0x1]
0x257143b8ee   238  807a0b80       cmpb [rdx+0xb],0x80
0x257143b8f2   242  0f8309000000   jnc 257  (0x257143b901)
0x257143b8f8   248  488b4520       REX.W movq rax,[rbp+0x20]    ;; debug: position 10465
0x257143b8fc   252  e949000000     jmp 330  (0x257143b94a)
0x257143b901   257  48b9b1a1e997b5250000 REX.W movq rcx,0x25b597e9a1b1    ;; debug: position 10470
                                                             ;; object: 0x25b597e9a1b1 <String[18]: $nonStringToString>
0x257143b90b   267  488b5627       REX.W movq rdx,[rsi+0x27]
0x257143b90f   271  48b8000000000a000000 REX.W movq rax,0xa00000000
0x257143b919   281  e8e249feff     call 0x2571420300         ;; code: contextual, LOAD_IC, DEFAULT
0x257143b91e   286  50             push rax
0x257143b91f   287  49ba8941e097b5250000 REX.W movq r10,0x25b597e04189    ;; object: 0x25b597e04189 <undefined>
0x257143b929   297  4152           push r10
0x257143b92b   299  ff7520         push [rbp+0x20]           ;; debug: position 10489
0x257143b92e   302  48ba0000000008000000 REX.W movq rdx,0x800000000    ;; debug: position 10470
0x257143b938   312  488b7c2410     REX.W movq rdi,[rsp+0x10]
0x257143b93d   317  e87e69fdff     call 0x25714122c0         ;; code: CALL_IC, DEFAULT
0x257143b942   322  488b75f8       REX.W movq rsi,[rbp-0x8]
0x257143b946   326  4883c408       REX.W addq rsp,0x8
0x257143b94a   330  488945e8       REX.W movq [rbp-0x18],rax    ;; debug: position 10423
0x257143b94e   334  488b45e8       REX.W movq rax,[rbp-0x18]    ;; debug: statement 10497
                                                             ;; debug: position 10504
0x257143b952   338  488bd0         REX.W movq rdx,rax
0x257143b955   341  48b9712ee997b5250000 REX.W movq rcx,0x25b597e92e71    ;; debug: position 10505
                                                             ;; object: 0x25b597e92e71 <String[6]: length>
0x257143b95f   351  48b8000000000c000000 REX.W movq rax,0xc00000000
0x257143b969   361  e89249feff     call 0x2571420300         ;; code: contextual, LOAD_IC, DEFAULT
0x257143b96e   366  488945e0       REX.W movq [rbp-0x20],rax    ;; debug: position 10497
0x257143b972   370  488b4518       REX.W movq rax,[rbp+0x18]    ;; debug: statement 10514
                                                             ;; debug: position 10538
0x257143b976   374  eb0f           jmp 391  (0x257143b987)
0x257143b978   376  493b45c0       REX.W cmpq rax,[r13-0x40]
0x257143b97c   380  0f8412000000   jz 404  (0x257143b994)
0x257143b982   386  e916000000     jmp 413  (0x257143b99d)
0x257143b987   391  a801           test al,0x1
0x257143b989   393  0f8405000000   jz 404  (0x257143b994)
0x257143b98f   399  e909000000     jmp 413  (0x257143b99d)
0x257143b994   404  488b4518       REX.W movq rax,[rbp+0x18]    ;; debug: position 10542
0x257143b998   408  e940000000     jmp 477  (0x257143b9dd)
0x257143b99d   413  488bc6         REX.W movq rax,rsi        ;; debug: position 10561
0x257143b9a0   416  ffb087000000   push [rax+0x87]
0x257143b9a6   422  41ff75a8       push [r13-0x58]
0x257143b9aa   426  ff7518         push [rbp+0x18]           ;; debug: position 10563
0x257143b9ad   429  48ba000000000e000000 REX.W movq rdx,0xe00000000    ;; debug: position 10561
0x257143b9b7   439  488b7c2410     REX.W movq rdi,[rsp+0x10]
0x257143b9bc   444  e8ff68fdff     call 0x25714122c0         ;; code: CALL_IC, DEFAULT
0x257143b9c1   449  488b75f8       REX.W movq rsi,[rbp-0x8]
0x257143b9c5   453  48890424       REX.W movq [rsp],rax
0x257143b9c9   457  b801000000     movl rax,0x1
0x257143b9ce   462  48bba0c7880001000000 REX.W movq rbx,0x10088c7a0
0x257143b9d8   472  e843e2fcff     call 0x2571409c20         ;; code: STUB, CEntryStub, minor: 0
0x257143b9dd   477  488945d8       REX.W movq [rbp-0x28],rax    ;; debug: position 10514
0x257143b9e1   481  ff75d8         push [rbp-0x28]           ;; debug: statement 10569
                                                             ;; debug: position 10572
0x257143b9e4   484  48b80000000000000000 REX.W movq rax,0x0
0x257143b9ee   494  5a             pop rdx
0x257143b9ef   495  e8acc1fdff     call 0x2571417ba0         ;; code: COMPARE_IC, UNINITIALIZED (id = 166)
0x257143b9f4   500  90             nop
0x257143b9f5   501  eb0f           jmp 518  (0x257143ba06)
0x257143b9f7   503  493b45c0       REX.W cmpq rax,[r13-0x40]
0x257143b9fb   507  0f840e000000   jz 527  (0x257143ba0f)
0x257143ba01   513  e91c000000     jmp 546  (0x257143ba22)
0x257143ba06   518  4885c0         REX.W testq rax,rax
0x257143ba09   521  0f8d13000000   jge 546  (0x257143ba22)
0x257143ba0f   527  48b80000000000000000 REX.W movq rax,0x0    ;; debug: statement 10579
                                                             ;; debug: position 10581
0x257143ba19   537  488945d8       REX.W movq [rbp-0x28],rax
0x257143ba1d   541  e930000000     jmp 594  (0x257143ba52)
0x257143ba22   546  ff75d8         push [rbp-0x28]           ;; debug: statement 10591
                                                             ;; debug: position 10594
0x257143ba25   549  488b45e0       REX.W movq rax,[rbp-0x20]    ;; debug: position 10597
0x257143ba29   553  5a             pop rdx
0x257143ba2a   554  e85142ffff     call 0x257142fc80         ;; code: COMPARE_IC, UNINITIALIZED (id = 191)
0x257143ba2f   559  90             nop
0x257143ba30   560  eb0f           jmp 577  (0x257143ba41)
0x257143ba32   562  493b45c0       REX.W cmpq rax,[r13-0x40]
0x257143ba36   566  0f840e000000   jz 586  (0x257143ba4a)
0x257143ba3c   572  e911000000     jmp 594  (0x257143ba52)
0x257143ba41   577  4885c0         REX.W testq rax,rax
0x257143ba44   580  0f8e08000000   jle 594  (0x257143ba52)
0x257143ba4a   586  488b45e0       REX.W movq rax,[rbp-0x20]    ;; debug: statement 10602
                                                             ;; debug: position 10605
0x257143ba4e   590  488945d8       REX.W movq [rbp-0x28],rax    ;; debug: position 10604
0x257143ba52   594  488b45e0       REX.W movq rax,[rbp-0x20]    ;; debug: statement 10611
                                                             ;; debug: position 10618
0x257143ba56   598  488945d0       REX.W movq [rbp-0x30],rax    ;; debug: position 10611
0x257143ba5a   602  488b4510       REX.W movq rax,[rbp+0x10]    ;; debug: statement 10622
                                                             ;; debug: position 10627
0x257143ba5e   606  eb0f           jmp 623  (0x257143ba6f)
0x257143ba60   608  493b45c0       REX.W cmpq rax,[r13-0x40]
0x257143ba64   612  0f842f010000   jz 921  (0x257143bb99)
0x257143ba6a   618  e90a000000     jmp 633  (0x257143ba79)
0x257143ba6f   623  493b45a8       REX.W cmpq rax,[r13-0x58]
0x257143ba73   627  0f8420010000   jz 921  (0x257143bb99)
0x257143ba79   633  488b4510       REX.W movq rax,[rbp+0x10]    ;; debug: statement 10643
                                                             ;; debug: position 10663
0x257143ba7d   637  eb0f           jmp 654  (0x257143ba8e)
0x257143ba7f   639  493b45c0       REX.W cmpq rax,[r13-0x40]
0x257143ba83   643  0f8412000000   jz 667  (0x257143ba9b)
0x257143ba89   649  e916000000     jmp 676  (0x257143baa4)
0x257143ba8e   654  a801           test al,0x1
0x257143ba90   656  0f8405000000   jz 667  (0x257143ba9b)
0x257143ba96   662  e909000000     jmp 676  (0x257143baa4)
0x257143ba9b   667  488b4510       REX.W movq rax,[rbp+0x10]    ;; debug: position 10667
0x257143ba9f   671  e940000000     jmp 740  (0x257143bae4)
0x257143baa4   676  488bc6         REX.W movq rax,rsi        ;; debug: position 10686
0x257143baa7   679  ffb087000000   push [rax+0x87]
0x257143baad   685  41ff75a8       push [r13-0x58]
0x257143bab1   689  ff7510         push [rbp+0x10]           ;; debug: position 10688
0x257143bab4   692  48ba0000000010000000 REX.W movq rdx,0x1000000000    ;; debug: position 10686
0x257143babe   702  488b7c2410     REX.W movq rdi,[rsp+0x10]
0x257143bac3   707  e8f867fdff     call 0x25714122c0         ;; code: CALL_IC, DEFAULT
0x257143bac8   712  488b75f8       REX.W movq rsi,[rbp-0x8]
0x257143bacc   716  48890424       REX.W movq [rsp],rax
0x257143bad0   720  b801000000     movl rax,0x1
0x257143bad5   725  48bba0c7880001000000 REX.W movq rbx,0x10088c7a0
0x257143badf   735  e83ce1fcff     call 0x2571409c20         ;; code: STUB, CEntryStub, minor: 0
0x257143bae4   740  488945d0       REX.W movq [rbp-0x30],rax    ;; debug: position 10645
0x257143bae8   744  ff75d0         push [rbp-0x30]           ;; debug: statement 10694
                                                             ;; debug: position 10697
0x257143baeb   747  488b45e0       REX.W movq rax,[rbp-0x20]    ;; debug: position 10700
0x257143baef   751  5a             pop rdx
0x257143baf0   752  e88b41ffff     call 0x257142fc80         ;; code: COMPARE_IC, UNINITIALIZED (id = 286)
0x257143baf5   757  90             nop
0x257143baf6   758  eb0f           jmp 775  (0x257143bb07)
0x257143baf8   760  493b45c0       REX.W cmpq rax,[r13-0x40]
0x257143bafc   764  0f840e000000   jz 784  (0x257143bb10)
0x257143bb02   770  e916000000     jmp 797  (0x257143bb1d)
0x257143bb07   775  4885c0         REX.W testq rax,rax
0x257143bb0a   778  0f8e0d000000   jle 797  (0x257143bb1d)
0x257143bb10   784  488b45e0       REX.W movq rax,[rbp-0x20]    ;; debug: statement 10705
                                                             ;; debug: position 10708
0x257143bb14   788  488945d0       REX.W movq [rbp-0x30],rax    ;; debug: position 10707
0x257143bb18   792  e97c000000     jmp 921  (0x257143bb99)
0x257143bb1d   797  ff75d0         push [rbp-0x30]           ;; debug: statement 10719
                                                             ;; debug: position 10722
0x257143bb20   800  48b80000000000000000 REX.W movq rax,0x0
0x257143bb2a   810  5a             pop rdx
0x257143bb2b   811  e870c0fdff     call 0x2571417ba0         ;; code: COMPARE_IC, UNINITIALIZED (id = 314)
0x257143bb30   816  90             nop
0x257143bb31   817  eb0f           jmp 834  (0x257143bb42)
0x257143bb33   819  493b45c0       REX.W cmpq rax,[r13-0x40]
0x257143bb37   823  0f840e000000   jz 843  (0x257143bb4b)
0x257143bb3d   829  e917000000     jmp 857  (0x257143bb59)
0x257143bb42   834  4885c0         REX.W testq rax,rax
0x257143bb45   837  0f8d0e000000   jge 857  (0x257143bb59)
0x257143bb4b   843  48b80000000000000000 REX.W movq rax,0x0    ;; debug: statement 10727
                                                             ;; debug: position 10729
0x257143bb55   853  488945d0       REX.W movq [rbp-0x30],rax
0x257143bb59   857  ff75d8         push [rbp-0x28]           ;; debug: statement 10733
                                                             ;; debug: position 10736
0x257143bb5c   860  488b45d0       REX.W movq rax,[rbp-0x30]    ;; debug: position 10739
0x257143bb60   864  5a             pop rdx
0x257143bb61   865  e81a41ffff     call 0x257142fc80         ;; code: COMPARE_IC, UNINITIALIZED (id = 336)
0x257143bb66   870  90             nop
0x257143bb67   871  eb0f           jmp 888  (0x257143bb78)
0x257143bb69   873  493b45c0       REX.W cmpq rax,[r13-0x40]
0x257143bb6d   877  0f840e000000   jz 897  (0x257143bb81)
0x257143bb73   883  e921000000     jmp 921  (0x257143bb99)
0x257143bb78   888  4885c0         REX.W testq rax,rax
0x257143bb7b   891  0f8e18000000   jle 921  (0x257143bb99)
0x257143bb81   897  488b45d0       REX.W movq rax,[rbp-0x30]    ;; debug: statement 10744
                                                             ;; debug: position 10751
0x257143bb85   901  488945c8       REX.W movq [rbp-0x38],rax    ;; debug: position 10744
0x257143bb89   905  488b45d8       REX.W movq rax,[rbp-0x28]    ;; debug: statement 10755
                                                             ;; debug: position 10758
0x257143bb8d   909  488945d0       REX.W movq [rbp-0x30],rax    ;; debug: position 10757
0x257143bb91   913  488b45c8       REX.W movq rax,[rbp-0x38]    ;; debug: statement 10762
                                                             ;; debug: position 10765
0x257143bb95   917  488945d8       REX.W movq [rbp-0x28],rax    ;; debug: position 10764
0x257143bb99   921  ff75e8         push [rbp-0x18]           ;; debug: statement 10775
                                                             ;; debug: position 10794
0x257143bb9c   924  ff75d8         push [rbp-0x28]           ;; debug: position 10796
0x257143bb9f   927  ff75d0         push [rbp-0x30]           ;; debug: position 10799
0x257143bba2   930  e8b926ffff     call 0x257142e260         ;; code: STUB, SubStringStub, minor: 0
0x257143bba7   935  48bb8105ef97b5250000 REX.W movq rbx,0x25b597ef0581    ;; object: 0x25b597ef0581 Cell for 6144
0x257143bbb1   945  83430bd1       addl [rbx+0xb],0xd1
0x257143bbb5   949  791f           jns 982  (0x257143bbd6)
0x257143bbb7   951  50             push rax
0x257143bbb8   952  e823abffff     call InterruptCheck  (0x25714366e0)    ;; code: BUILTIN
0x257143bbbd   957  58             pop rax
0x257143bbbe   958  48bb8105ef97b5250000 REX.W movq rbx,0x25b597ef0581    ;; object: 0x25b597ef0581 Cell for 6144
0x257143bbc8   968  49ba0000000000180000 REX.W movq r10,0x180000000000
0x257143bbd2   978  4c895307       REX.W movq [rbx+0x7],r10
0x257143bbd6   982  c9             leave                     ;; debug: statement 10804
0x257143bbd7   983  c21800         ret 0x18
0x257143bbda   986  498b45a8       REX.W movq rax,[r13-0x58]
0x257143bbde   990  e9c4ffffff     jmp 935  (0x257143bba7)
0x257143bbe3   995  0f1f440000     nop

Deoptimization Output Data (deopt points = 0)

Back edges (size = 0)
ast_id  pc_offset  loop_depth

0x25b597ef0681: [TypeFeedbackInfo]
 - ic_total_count: 12, ic_with_type_info_count: 0, ic_generic_count: 0

RelocInfo (size = 219)
0x257143b800  position  (10317)
0x257143b819  code target (BUILTIN)  (0x2571436820)
0x257143b81d  statement position  (10324)
0x257143b81d  position  (10336)
0x257143b83c  position  (10352)
0x257143b85b  statement position  (10369)
0x257143b85b  position  (10375)
0x257143b85d  embedded object  (0x25b597e856e9 <String[13]: MakeTypeError>)
0x257143b874  code target (LOAD_IC)  (0x2571420300)
0x257143b87b  embedded object  (0x25b597e04189 <undefined>)
0x257143b893  embedded object  (0x25b597ef0429 <String[26]: String.prototype.subString>)
0x257143b8ad  code target (CALL_IC)  (0x25714121c0)
0x257143b8b9  position  (10369)
0x257143b8c9  code target (STUB)  (0x2571409c20)
0x257143b8cd  statement position  (10423)
0x257143b8cd  position  (10446)
0x257143b8f8  position  (10465)
0x257143b901  position  (10470)
0x257143b903  embedded object  (0x25b597e9a1b1 <String[18]: $nonStringToString>)
0x257143b91a  code target (LOAD_IC)  (0x2571420300)
0x257143b921  embedded object  (0x25b597e04189 <undefined>)
0x257143b92b  position  (10489)
0x257143b92e  position  (10470)
0x257143b93e  code target (CALL_IC)  (0x25714122c0)
0x257143b94a  position  (10423)
0x257143b94e  statement position  (10497)
0x257143b94e  position  (10504)
0x257143b955  position  (10505)
0x257143b957  embedded object  (0x25b597e92e71 <String[6]: length>)
0x257143b96a  code target (LOAD_IC)  (0x2571420300)
0x257143b96e  position  (10497)
0x257143b972  statement position  (10514)
0x257143b972  position  (10538)
0x257143b994  position  (10542)
0x257143b99d  position  (10561)
0x257143b9aa  position  (10563)
0x257143b9ad  position  (10561)
0x257143b9bd  code target (CALL_IC)  (0x25714122c0)
0x257143b9d9  code target (STUB)  (0x2571409c20)
0x257143b9dd  position  (10514)
0x257143b9e1  statement position  (10569)
0x257143b9e1  position  (10572)
0x257143b9f0  code target with id (COMPARE_IC)  (0x2571417ba0) (id=166)
0x257143ba0f  statement position  (10579)
0x257143ba0f  position  (10581)
0x257143ba22  statement position  (10591)
0x257143ba22  position  (10594)
0x257143ba25  position  (10597)
0x257143ba2b  code target with id (COMPARE_IC)  (0x257142fc80) (id=191)
0x257143ba4a  statement position  (10602)
0x257143ba4a  position  (10605)
0x257143ba4e  position  (10604)
0x257143ba52  statement position  (10611)
0x257143ba52  position  (10618)
0x257143ba56  position  (10611)
0x257143ba5a  statement position  (10622)
0x257143ba5a  position  (10627)
0x257143ba79  statement position  (10643)
0x257143ba79  position  (10663)
0x257143ba9b  position  (10667)
0x257143baa4  position  (10686)
0x257143bab1  position  (10688)
0x257143bab4  position  (10686)
0x257143bac4  code target (CALL_IC)  (0x25714122c0)
0x257143bae0  code target (STUB)  (0x2571409c20)
0x257143bae4  position  (10645)
0x257143bae8  statement position  (10694)
0x257143bae8  position  (10697)
0x257143baeb  position  (10700)
0x257143baf1  code target with id (COMPARE_IC)  (0x257142fc80) (id=286)
0x257143bb10  statement position  (10705)
0x257143bb10  position  (10708)
0x257143bb14  position  (10707)
0x257143bb1d  statement position  (10719)
0x257143bb1d  position  (10722)
0x257143bb2c  code target with id (COMPARE_IC)  (0x2571417ba0) (id=314)
0x257143bb4b  statement position  (10727)
0x257143bb4b  position  (10729)
0x257143bb59  statement position  (10733)
0x257143bb59  position  (10736)
0x257143bb5c  position  (10739)
0x257143bb62  code target with id (COMPARE_IC)  (0x257142fc80) (id=336)
0x257143bb81  statement position  (10744)
0x257143bb81  position  (10751)
0x257143bb85  position  (10744)
0x257143bb89  statement position  (10755)
0x257143bb89  position  (10758)
0x257143bb8d  position  (10757)
0x257143bb91  statement position  (10762)
0x257143bb91  position  (10765)
0x257143bb95  position  (10764)
0x257143bb99  statement position  (10775)
0x257143bb99  position  (10794)
0x257143bb9c  position  (10796)
0x257143bb9f  position  (10799)
0x257143bba3  code target (STUB)  (0x257142e260)
0x257143bba9  embedded object  (0x25b597ef0581 Cell for 6144)
0x257143bbb9  code target (BUILTIN)  (0x25714366e0)
0x257143bbc0  embedded object  (0x25b597ef0581 Cell for 6144)
0x257143bbd6  statement position  (10804)

--- End code ---
--- Raw source ---
(h){
var i=(typeof(this)==='number')?this:%non_number_to_number(this);
if(!(typeof(h)==='number'))h=%non_number_to_number(h);
return %NumberSub(i,h);
}


--- Code ---
source_position = 4173
kind = FUNCTION
name = SUB
compiler = full-codegen
Instructions (size = 316)
0x257143bc60     0  55             push rbp                  ;; debug: position 4173
0x257143bc61     1  4889e5         REX.W movq rbp,rsp
0x257143bc64     4  56             push rsi
0x257143bc65     5  57             push rdi
0x257143bc66     6  41ff75a8       push [r13-0x58]
0x257143bc6a    10  493ba540090000 REX.W cmpq rsp,[r13+0x940]
0x257143bc71    17  7305           jnc 24  (0x257143bc78)
0x257143bc73    19  e8a8abffff     call StackCheck  (0x2571436820)    ;; code: BUILTIN
0x257143bc78    24  488b4518       REX.W movq rax,[rbp+0x18]    ;; debug: statement 4178
                                                             ;; debug: position 4192
0x257143bc7c    28  eb0f           jmp 45  (0x257143bc8d)
0x257143bc7e    30  493b45c0       REX.W cmpq rax,[r13-0x40]
0x257143bc82    34  0f841b000000   jz 67  (0x257143bca3)
0x257143bc88    40  e91f000000     jmp 76  (0x257143bcac)
0x257143bc8d    45  a801           test al,0x1
0x257143bc8f    47  0f840e000000   jz 67  (0x257143bca3)
0x257143bc95    53  488b40ff       REX.W movq rax,[rax-0x1]
0x257143bc99    57  493b4508       REX.W cmpq rax,[r13+0x8]
0x257143bc9d    61  0f8509000000   jnz 76  (0x257143bcac)
0x257143bca3    67  488b4518       REX.W movq rax,[rbp+0x18]    ;; debug: position 4210
0x257143bca7    71  e930000000     jmp 124  (0x257143bcdc)
0x257143bcac    76  41ff75a8       push [r13-0x58]           ;; debug: position 4215
0x257143bcb0    80  488b4627       REX.W movq rax,[rsi+0x27]
0x257143bcb4    84  488b401f       REX.W movq rax,[rax+0x1f]
0x257143bcb8    88  488b80cf020000 REX.W movq rax,[rax+0x2cf]
0x257143bcbf    95  ff3424         push [rsp]
0x257143bcc2    98  4889442408     REX.W movq [rsp+0x8],rax
0x257143bcc7   103  ff7518         push [rbp+0x18]           ;; debug: position 4237
0x257143bcca   106  488b7c2410     REX.W movq rdi,[rsp+0x10]    ;; debug: position 4215
0x257143bccf   111  e88c3dffff     call 0x257142fa60         ;; code: STUB, CallFunctionStub, minor: 4
0x257143bcd4   116  488b75f8       REX.W movq rsi,[rbp-0x8]
0x257143bcd8   120  4883c408       REX.W addq rsp,0x8
0x257143bcdc   124  488945e8       REX.W movq [rbp-0x18],rax    ;; debug: position 4178
0x257143bce0   128  488b4510       REX.W movq rax,[rbp+0x10]    ;; debug: statement 4244
                                                             ;; debug: position 4256
0x257143bce4   132  eb0f           jmp 149  (0x257143bcf5)
0x257143bce6   134  493b45c0       REX.W cmpq rax,[r13-0x40]
0x257143bcea   138  0f844f000000   jz 223  (0x257143bd3f)
0x257143bcf0   144  e916000000     jmp 171  (0x257143bd0b)
0x257143bcf5   149  a801           test al,0x1
0x257143bcf7   151  0f8442000000   jz 223  (0x257143bd3f)
0x257143bcfd   157  488b40ff       REX.W movq rax,[rax-0x1]
0x257143bd01   161  493b4508       REX.W cmpq rax,[r13+0x8]
0x257143bd05   165  0f8434000000   jz 223  (0x257143bd3f)
0x257143bd0b   171  41ff75a8       push [r13-0x58]           ;; debug: statement 4271
                                                             ;; debug: position 4272
0x257143bd0f   175  488b4627       REX.W movq rax,[rsi+0x27]
0x257143bd13   179  488b401f       REX.W movq rax,[rax+0x1f]
0x257143bd17   183  488b80cf020000 REX.W movq rax,[rax+0x2cf]
0x257143bd1e   190  ff3424         push [rsp]
0x257143bd21   193  4889442408     REX.W movq [rsp+0x8],rax
0x257143bd26   198  ff7510         push [rbp+0x10]           ;; debug: position 4295
0x257143bd29   201  488b7c2410     REX.W movq rdi,[rsp+0x10]    ;; debug: position 4273
0x257143bd2e   206  e82d3dffff     call 0x257142fa60         ;; code: STUB, CallFunctionStub, minor: 4
0x257143bd33   211  488b75f8       REX.W movq rsi,[rbp-0x8]
0x257143bd37   215  4883c408       REX.W addq rsp,0x8
0x257143bd3b   219  48894510       REX.W movq [rbp+0x10],rax    ;; debug: position 4272
0x257143bd3f   223  ff75e8         push [rbp-0x18]           ;; debug: statement 4299
                                                             ;; debug: position 4317
0x257143bd42   226  ff7510         push [rbp+0x10]           ;; debug: position 4319
0x257143bd45   229  b802000000     movl rax,0x2
0x257143bd4a   234  48bbe0ce880001000000 REX.W movq rbx,0x10088cee0
0x257143bd54   244  e8c7defcff     call 0x2571409c20         ;; code: STUB, CEntryStub, minor: 0
0x257143bd59   249  48bb2907ef97b5250000 REX.W movq rbx,0x25b597ef0729    ;; object: 0x25b597ef0729 Cell for 6144
0x257143bd63   259  83430bff       addl [rbx+0xb],0xff
0x257143bd67   263  791f           jns 296  (0x257143bd88)
0x257143bd69   265  50             push rax
0x257143bd6a   266  e871a9ffff     call InterruptCheck  (0x25714366e0)    ;; code: BUILTIN
0x257143bd6f   271  58             pop rax
0x257143bd70   272  48bb2907ef97b5250000 REX.W movq rbx,0x25b597ef0729    ;; object: 0x25b597ef0729 Cell for 6144
0x257143bd7a   282  49ba0000000000180000 REX.W movq r10,0x180000000000
0x257143bd84   292  4c895307       REX.W movq [rbx+0x7],r10
0x257143bd88   296  c9             leave                     ;; debug: statement 4323
0x257143bd89   297  c21000         ret 0x10
0x257143bd8c   300  498b45a8       REX.W movq rax,[r13-0x58]
0x257143bd90   304  e9c4ffffff     jmp 249  (0x257143bd59)
0x257143bd95   309  0f1f00         nop

Deoptimization Output Data (deopt points = 0)

Back edges (size = 0)
ast_id  pc_offset  loop_depth

0x25b597ef0789: [TypeFeedbackInfo]
 - ic_total_count: 0, ic_with_type_info_count: 0, ic_generic_count: 0

RelocInfo (size = 57)
0x257143bc60  position  (4173)
0x257143bc74  code target (BUILTIN)  (0x2571436820)
0x257143bc78  statement position  (4178)
0x257143bc78  position  (4192)
0x257143bca3  position  (4210)
0x257143bcac  position  (4215)
0x257143bcc7  position  (4237)
0x257143bcca  position  (4215)
0x257143bcd0  code target (STUB)  (0x257142fa60)
0x257143bcdc  position  (4178)
0x257143bce0  statement position  (4244)
0x257143bce0  position  (4256)
0x257143bd0b  statement position  (4271)
0x257143bd0b  position  (4272)
0x257143bd26  position  (4295)
0x257143bd29  position  (4273)
0x257143bd2f  code target (STUB)  (0x257142fa60)
0x257143bd3b  position  (4272)
0x257143bd3f  statement position  (4299)
0x257143bd3f  position  (4317)
0x257143bd42  position  (4319)
0x257143bd55  code target (STUB)  (0x2571409c20)
0x257143bd5b  embedded object  (0x25b597ef0729 Cell for 6144)
0x257143bd6b  code target (BUILTIN)  (0x25714366e0)
0x257143bd72  embedded object  (0x25b597ef0729 Cell for 6144)
0x257143bd88  statement position  (4323)

--- End code ---
--- Code ---
kind = HANDLER
major_key = <NoCache>Stub
name = LoadFieldStub
compiler = crankshaft
Instructions (size = 16)
0x257143be00     0  488b420f       REX.W movq rax,[rdx+0xf]
0x257143be04     4  c3             ret
0x257143be05     5  0f1f00         nop


Safepoints (size = 8)

RelocInfo (size = 0)

--- End code ---
--- Code ---
kind = HANDLER
major_key = <NoCache>Stub
name = StoreGlobalStub
compiler = crankshaft
Instructions (size = 168)
0x257143c000     0  48bb4109ef97b5250000 REX.W movq rbx,0x25b597ef0941    ;; object: 0x25b597ef0941 WeakCell for 0x25b597e04311 <Odd Oddball>
0x257143c00a    10  488b5b07       REX.W movq rbx,[rbx+0x7]
0x257143c00e    14  f6c301         testb rbx,0x1
0x257143c011    17  0f842e000000   jz 69  (0x257143c045)
0x257143c017    23  488b7b0f       REX.W movq rdi,[rbx+0xf]
0x257143c01b    27  49bae941e097b5250000 REX.W movq r10,0x25b597e041e9    ;; object: 0x25b597e041e9 <the hole>
0x257143c025    37  493bfa         REX.W cmpq rdi,r10
0x257143c028    40  0f8412000000   jz 64  (0x257143c040)
0x257143c02e    46  488bf8         REX.W movq rdi,rax
0x257143c031    49  40f6c701       testb rdi,0x1
0x257143c035    53  0f8519000000   jnz 84  (0x257143c054)
0x257143c03b    59  48897b0f       REX.W movq [rbx+0xf],rdi
0x257143c03f    63  c3             ret
0x257143c040    64  e91e000000     jmp 99  (0x257143c063)
0x257143c045    69  49ba0060207125000000 REX.W movq r10,0x2571206000
0x257143c04f    79  e81e000000     call 114  (0x257143c072)
0x257143c054    84  49ba0a60207125000000 REX.W movq r10,0x257120600a
0x257143c05e    94  e80f000000     call 114  (0x257143c072)
0x257143c063    99  49ba1460207125000000 REX.W movq r10,0x2571206014
0x257143c06d   109  e800000000     call 114  (0x257143c072)
0x257143c072   114  4883ec10       REX.W subq rsp,0x10
0x257143c076   118  ff742410       push [rsp+0x10]
0x257143c07a   122  4152           push r10
0x257143c07c   124  4c8b55f8       REX.W movq r10,[rbp-0x8]
0x257143c080   128  4c89542418     REX.W movq [rsp+0x18],r10
0x257143c085   133  48896c2420     REX.W movq [rsp+0x20],rbp
0x257143c08a   138  488d6c2420     REX.W leaq rbp,[rsp+0x20]
0x257143c08f   143  49ba0000000006000000 REX.W movq r10,0x600000000
0x257143c099   153  4c89542410     REX.W movq [rsp+0x10],r10
0x257143c09e   158  c3             ret
0x257143c09f   159  90             nop


Safepoints (size = 8)

RelocInfo (size = 2)
0x257143c002  embedded object  (0x25b597ef0941 WeakCell for 0x25b597e04311 <Odd Oddball>)
0x257143c01d  embedded object  (0x25b597e041e9 <the hole>)

--- End code ---
--- Raw source ---
(V,W){
if((%IS_VAR(this)===null)||(this===(void 0)))throw MakeTypeError(15,"String.prototype.subString");
var K=((typeof(%IS_VAR(this))==='string')?this:$nonStringToString(this));
var ax=K.length;
var ay=(%_IsSmi(%IS_VAR(V))?V:%NumberToInteger(o(V)));
if(ay<0){
ay=0;
}else if(ay>ax){
ay=ax;
}
var az=ax;
if(!(W===(void 0))){
az=(%_IsSmi(%IS_VAR(W))?W:%NumberToInteger(o(W)));
if(az>ax){
az=ax;
}else{
if(az<0)az=0;
if(ay>az){
var aK=az;
az=ay;
ay=aK;
}
}
}
return %_SubString(K,ay,az);
}


--- Code ---
source_position = 10317
kind = FUNCTION
name = substring
compiler = full-codegen
Instructions (size = 1004)
0x257143c360     0  55             push rbp                  ;; debug: position 10317
0x257143c361     1  4889e5         REX.W movq rbp,rsp
0x257143c364     4  56             push rsi
0x257143c365     5  57             push rdi
0x257143c366     6  498b55a8       REX.W movq rdx,[r13-0x58]
0x257143c36a    10  52             push rdx
0x257143c36b    11  52             push rdx
0x257143c36c    12  52             push rdx
0x257143c36d    13  52             push rdx
0x257143c36e    14  52             push rdx
0x257143c36f    15  493ba540090000 REX.W cmpq rsp,[r13+0x940]
0x257143c376    22  7305           jnc 29  (0x257143c37d)
0x257143c378    24  e8a3a4ffff     call StackCheck  (0x2571436820)    ;; code: BUILTIN
0x257143c37d    29  488b4520       REX.W movq rax,[rbp+0x20]    ;; debug: statement 10324
                                                             ;; debug: position 10336
0x257143c381    33  eb0f           jmp 50  (0x257143c392)
0x257143c383    35  493b45c0       REX.W cmpq rax,[r13-0x40]
0x257143c387    39  0f842e000000   jz 91  (0x257143c3bb)
0x257143c38d    45  e90a000000     jmp 60  (0x257143c39c)
0x257143c392    50  493b45b8       REX.W cmpq rax,[r13-0x48]
0x257143c396    54  0f841f000000   jz 91  (0x257143c3bb)
0x257143c39c    60  488b4520       REX.W movq rax,[rbp+0x20]    ;; debug: position 10352
0x257143c3a0    64  eb0f           jmp 81  (0x257143c3b1)
0x257143c3a2    66  493b45c0       REX.W cmpq rax,[r13-0x40]
0x257143c3a6    70  0f840f000000   jz 91  (0x257143c3bb)
0x257143c3ac    76  e97c000000     jmp 205  (0x257143c42d)
0x257143c3b1    81  493b45a8       REX.W cmpq rax,[r13-0x58]
0x257143c3b5    85  0f8572000000   jnz 205  (0x257143c42d)
0x257143c3bb    91  48b9e956e897b5250000 REX.W movq rcx,0x25b597e856e9    ;; debug: statement 10369
                                                             ;; debug: position 10375
                                                             ;; object: 0x25b597e856e9 <String[13]: MakeTypeError>
0x257143c3c5   101  488b5627       REX.W movq rdx,[rsi+0x27]
0x257143c3c9   105  48b80000000006000000 REX.W movq rax,0x600000000
0x257143c3d3   115  e8283ffeff     call 0x2571420300         ;; code: contextual, LOAD_IC, DEFAULT
0x257143c3d8   120  50             push rax
0x257143c3d9   121  49ba8941e097b5250000 REX.W movq r10,0x25b597e04189    ;; object: 0x25b597e04189 <undefined>
0x257143c3e3   131  4152           push r10
0x257143c3e5   133  49ba000000000f000000 REX.W movq r10,0xf00000000
0x257143c3ef   143  4152           push r10
0x257143c3f1   145  49ba2904ef97b5250000 REX.W movq r10,0x25b597ef0429    ;; object: 0x25b597ef0429 <String[26]: String.prototype.subString>
0x257143c3fb   155  4152           push r10
0x257143c3fd   157  48ba0000000004000000 REX.W movq rdx,0x400000000
0x257143c407   167  488b7c2418     REX.W movq rdi,[rsp+0x18]
0x257143c40c   172  e8af5dfdff     call 0x25714121c0         ;; code: CALL_IC, DEFAULT
0x257143c411   177  488b75f8       REX.W movq rsi,[rbp-0x8]
0x257143c415   181  48890424       REX.W movq [rsp],rax
0x257143c419   185  b801000000     movl rax,0x1              ;; debug: position 10369
0x257143c41e   190  48bb7098870001000000 REX.W movq rbx,0x100879870
0x257143c428   200  e8f3d7fcff     call 0x2571409c20         ;; code: STUB, CEntryStub, minor: 0
0x257143c42d   205  488b4520       REX.W movq rax,[rbp+0x20]    ;; debug: statement 10423
                                                             ;; debug: position 10446
0x257143c431   209  eb0f           jmp 226  (0x257143c442)
0x257143c433   211  493b45c0       REX.W cmpq rax,[r13-0x40]
0x257143c437   215  0f841b000000   jz 248  (0x257143c458)
0x257143c43d   221  e91f000000     jmp 257  (0x257143c461)
0x257143c442   226  a801           test al,0x1
0x257143c444   228  0f8417000000   jz 257  (0x257143c461)
0x257143c44a   234  488b50ff       REX.W movq rdx,[rax-0x1]
0x257143c44e   238  807a0b80       cmpb [rdx+0xb],0x80
0x257143c452   242  0f8309000000   jnc 257  (0x257143c461)
0x257143c458   248  488b4520       REX.W movq rax,[rbp+0x20]    ;; debug: position 10465
0x257143c45c   252  e949000000     jmp 330  (0x257143c4aa)
0x257143c461   257  48b9b1a1e997b5250000 REX.W movq rcx,0x25b597e9a1b1    ;; debug: position 10470
                                                             ;; object: 0x25b597e9a1b1 <String[18]: $nonStringToString>
0x257143c46b   267  488b5627       REX.W movq rdx,[rsi+0x27]
0x257143c46f   271  48b8000000000a000000 REX.W movq rax,0xa00000000
0x257143c479   281  e8823efeff     call 0x2571420300         ;; code: contextual, LOAD_IC, DEFAULT
0x257143c47e   286  50             push rax
0x257143c47f   287  49ba8941e097b5250000 REX.W movq r10,0x25b597e04189    ;; object: 0x25b597e04189 <undefined>
0x257143c489   297  4152           push r10
0x257143c48b   299  ff7520         push [rbp+0x20]           ;; debug: position 10489
0x257143c48e   302  48ba0000000008000000 REX.W movq rdx,0x800000000    ;; debug: position 10470
0x257143c498   312  488b7c2410     REX.W movq rdi,[rsp+0x10]
0x257143c49d   317  e81e5efdff     call 0x25714122c0         ;; code: CALL_IC, DEFAULT
0x257143c4a2   322  488b75f8       REX.W movq rsi,[rbp-0x8]
0x257143c4a6   326  4883c408       REX.W addq rsp,0x8
0x257143c4aa   330  488945e8       REX.W movq [rbp-0x18],rax    ;; debug: position 10423
0x257143c4ae   334  488b45e8       REX.W movq rax,[rbp-0x18]    ;; debug: statement 10497
                                                             ;; debug: position 10504
0x257143c4b2   338  488bd0         REX.W movq rdx,rax
0x257143c4b5   341  48b9712ee997b5250000 REX.W movq rcx,0x25b597e92e71    ;; debug: position 10505
                                                             ;; object: 0x25b597e92e71 <String[6]: length>
0x257143c4bf   351  48b8000000000c000000 REX.W movq rax,0xc00000000
0x257143c4c9   361  e8323efeff     call 0x2571420300         ;; code: contextual, LOAD_IC, DEFAULT
0x257143c4ce   366  488945e0       REX.W movq [rbp-0x20],rax    ;; debug: position 10497
0x257143c4d2   370  488b4518       REX.W movq rax,[rbp+0x18]    ;; debug: statement 10514
                                                             ;; debug: position 10538
0x257143c4d6   374  eb0f           jmp 391  (0x257143c4e7)
0x257143c4d8   376  493b45c0       REX.W cmpq rax,[r13-0x40]
0x257143c4dc   380  0f8412000000   jz 404  (0x257143c4f4)
0x257143c4e2   386  e916000000     jmp 413  (0x257143c4fd)
0x257143c4e7   391  a801           test al,0x1
0x257143c4e9   393  0f8405000000   jz 404  (0x257143c4f4)
0x257143c4ef   399  e909000000     jmp 413  (0x257143c4fd)
0x257143c4f4   404  488b4518       REX.W movq rax,[rbp+0x18]    ;; debug: position 10542
0x257143c4f8   408  e940000000     jmp 477  (0x257143c53d)
0x257143c4fd   413  488bc6         REX.W movq rax,rsi        ;; debug: position 10561
0x257143c500   416  ffb087000000   push [rax+0x87]
0x257143c506   422  41ff75a8       push [r13-0x58]
0x257143c50a   426  ff7518         push [rbp+0x18]           ;; debug: position 10563
0x257143c50d   429  48ba000000000e000000 REX.W movq rdx,0xe00000000    ;; debug: position 10561
0x257143c517   439  488b7c2410     REX.W movq rdi,[rsp+0x10]
0x257143c51c   444  e89f5dfdff     call 0x25714122c0         ;; code: CALL_IC, DEFAULT
0x257143c521   449  488b75f8       REX.W movq rsi,[rbp-0x8]
0x257143c525   453  48890424       REX.W movq [rsp],rax
0x257143c529   457  b801000000     movl rax,0x1
0x257143c52e   462  48bba0c7880001000000 REX.W movq rbx,0x10088c7a0
0x257143c538   472  e8e3d6fcff     call 0x2571409c20         ;; code: STUB, CEntryStub, minor: 0
0x257143c53d   477  488945d8       REX.W movq [rbp-0x28],rax    ;; debug: position 10514
0x257143c541   481  ff75d8         push [rbp-0x28]           ;; debug: statement 10569
                                                             ;; debug: position 10572
0x257143c544   484  48b80000000000000000 REX.W movq rax,0x0
0x257143c54e   494  5a             pop rdx
0x257143c54f   495  e84cb6fdff     call 0x2571417ba0         ;; code: COMPARE_IC, UNINITIALIZED (id = 166)
0x257143c554   500  90             nop
0x257143c555   501  eb0f           jmp 518  (0x257143c566)
0x257143c557   503  493b45c0       REX.W cmpq rax,[r13-0x40]
0x257143c55b   507  0f840e000000   jz 527  (0x257143c56f)
0x257143c561   513  e91c000000     jmp 546  (0x257143c582)
0x257143c566   518  4885c0         REX.W testq rax,rax
0x257143c569   521  0f8d13000000   jge 546  (0x257143c582)
0x257143c56f   527  48b80000000000000000 REX.W movq rax,0x0    ;; debug: statement 10579
                                                             ;; debug: position 10581
0x257143c579   537  488945d8       REX.W movq [rbp-0x28],rax
0x257143c57d   541  e930000000     jmp 594  (0x257143c5b2)
0x257143c582   546  ff75d8         push [rbp-0x28]           ;; debug: statement 10591
                                                             ;; debug: position 10594
0x257143c585   549  488b45e0       REX.W movq rax,[rbp-0x20]    ;; debug: position 10597
0x257143c589   553  5a             pop rdx
0x257143c58a   554  e8f136ffff     call 0x257142fc80         ;; code: COMPARE_IC, UNINITIALIZED (id = 191)
0x257143c58f   559  90             nop
0x257143c590   560  eb0f           jmp 577  (0x257143c5a1)
0x257143c592   562  493b45c0       REX.W cmpq rax,[r13-0x40]
0x257143c596   566  0f840e000000   jz 586  (0x257143c5aa)
0x257143c59c   572  e911000000     jmp 594  (0x257143c5b2)
0x257143c5a1   577  4885c0         REX.W testq rax,rax
0x257143c5a4   580  0f8e08000000   jle 594  (0x257143c5b2)
0x257143c5aa   586  488b45e0       REX.W movq rax,[rbp-0x20]    ;; debug: statement 10602
                                                             ;; debug: position 10605
0x257143c5ae   590  488945d8       REX.W movq [rbp-0x28],rax    ;; debug: position 10604
0x257143c5b2   594  488b45e0       REX.W movq rax,[rbp-0x20]    ;; debug: statement 10611
                                                             ;; debug: position 10618
0x257143c5b6   598  488945d0       REX.W movq [rbp-0x30],rax    ;; debug: position 10611
0x257143c5ba   602  488b4510       REX.W movq rax,[rbp+0x10]    ;; debug: statement 10622
                                                             ;; debug: position 10627
0x257143c5be   606  eb0f           jmp 623  (0x257143c5cf)
0x257143c5c0   608  493b45c0       REX.W cmpq rax,[r13-0x40]
0x257143c5c4   612  0f842f010000   jz 921  (0x257143c6f9)
0x257143c5ca   618  e90a000000     jmp 633  (0x257143c5d9)
0x257143c5cf   623  493b45a8       REX.W cmpq rax,[r13-0x58]
0x257143c5d3   627  0f8420010000   jz 921  (0x257143c6f9)
0x257143c5d9   633  488b4510       REX.W movq rax,[rbp+0x10]    ;; debug: statement 10643
                                                             ;; debug: position 10663
0x257143c5dd   637  eb0f           jmp 654  (0x257143c5ee)
0x257143c5df   639  493b45c0       REX.W cmpq rax,[r13-0x40]
0x257143c5e3   643  0f8412000000   jz 667  (0x257143c5fb)
0x257143c5e9   649  e916000000     jmp 676  (0x257143c604)
0x257143c5ee   654  a801           test al,0x1
0x257143c5f0   656  0f8405000000   jz 667  (0x257143c5fb)
0x257143c5f6   662  e909000000     jmp 676  (0x257143c604)
0x257143c5fb   667  488b4510       REX.W movq rax,[rbp+0x10]    ;; debug: position 10667
0x257143c5ff   671  e940000000     jmp 740  (0x257143c644)
0x257143c604   676  488bc6         REX.W movq rax,rsi        ;; debug: position 10686
0x257143c607   679  ffb087000000   push [rax+0x87]
0x257143c60d   685  41ff75a8       push [r13-0x58]
0x257143c611   689  ff7510         push [rbp+0x10]           ;; debug: position 10688
0x257143c614   692  48ba0000000010000000 REX.W movq rdx,0x1000000000    ;; debug: position 10686
0x257143c61e   702  488b7c2410     REX.W movq rdi,[rsp+0x10]
0x257143c623   707  e8985cfdff     call 0x25714122c0         ;; code: CALL_IC, DEFAULT
0x257143c628   712  488b75f8       REX.W movq rsi,[rbp-0x8]
0x257143c62c   716  48890424       REX.W movq [rsp],rax
0x257143c630   720  b801000000     movl rax,0x1
0x257143c635   725  48bba0c7880001000000 REX.W movq rbx,0x10088c7a0
0x257143c63f   735  e8dcd5fcff     call 0x2571409c20         ;; code: STUB, CEntryStub, minor: 0
0x257143c644   740  488945d0       REX.W movq [rbp-0x30],rax    ;; debug: position 10645
0x257143c648   744  ff75d0         push [rbp-0x30]           ;; debug: statement 10694
                                                             ;; debug: position 10697
0x257143c64b   747  488b45e0       REX.W movq rax,[rbp-0x20]    ;; debug: position 10700
0x257143c64f   751  5a             pop rdx
0x257143c650   752  e82b36ffff     call 0x257142fc80         ;; code: COMPARE_IC, UNINITIALIZED (id = 286)
0x257143c655   757  90             nop
0x257143c656   758  eb0f           jmp 775  (0x257143c667)
0x257143c658   760  493b45c0       REX.W cmpq rax,[r13-0x40]
0x257143c65c   764  0f840e000000   jz 784  (0x257143c670)
0x257143c662   770  e916000000     jmp 797  (0x257143c67d)
0x257143c667   775  4885c0         REX.W testq rax,rax
0x257143c66a   778  0f8e0d000000   jle 797  (0x257143c67d)
0x257143c670   784  488b45e0       REX.W movq rax,[rbp-0x20]    ;; debug: statement 10705
                                                             ;; debug: position 10708
0x257143c674   788  488945d0       REX.W movq [rbp-0x30],rax    ;; debug: position 10707
0x257143c678   792  e97c000000     jmp 921  (0x257143c6f9)
0x257143c67d   797  ff75d0         push [rbp-0x30]           ;; debug: statement 10719
                                                             ;; debug: position 10722
0x257143c680   800  48b80000000000000000 REX.W movq rax,0x0
0x257143c68a   810  5a             pop rdx
0x257143c68b   811  e810b5fdff     call 0x2571417ba0         ;; code: COMPARE_IC, UNINITIALIZED (id = 314)
0x257143c690   816  90             nop
0x257143c691   817  eb0f           jmp 834  (0x257143c6a2)
0x257143c693   819  493b45c0       REX.W cmpq rax,[r13-0x40]
0x257143c697   823  0f840e000000   jz 843  (0x257143c6ab)
0x257143c69d   829  e917000000     jmp 857  (0x257143c6b9)
0x257143c6a2   834  4885c0         REX.W testq rax,rax
0x257143c6a5   837  0f8d0e000000   jge 857  (0x257143c6b9)
0x257143c6ab   843  48b80000000000000000 REX.W movq rax,0x0    ;; debug: statement 10727
                                                             ;; debug: position 10729
0x257143c6b5   853  488945d0       REX.W movq [rbp-0x30],rax
0x257143c6b9   857  ff75d8         push [rbp-0x28]           ;; debug: statement 10733
                                                             ;; debug: position 10736
0x257143c6bc   860  488b45d0       REX.W movq rax,[rbp-0x30]    ;; debug: position 10739
0x257143c6c0   864  5a             pop rdx
0x257143c6c1   865  e8ba35ffff     call 0x257142fc80         ;; code: COMPARE_IC, UNINITIALIZED (id = 336)
0x257143c6c6   870  90             nop
0x257143c6c7   871  eb0f           jmp 888  (0x257143c6d8)
0x257143c6c9   873  493b45c0       REX.W cmpq rax,[r13-0x40]
0x257143c6cd   877  0f840e000000   jz 897  (0x257143c6e1)
0x257143c6d3   883  e921000000     jmp 921  (0x257143c6f9)
0x257143c6d8   888  4885c0         REX.W testq rax,rax
0x257143c6db   891  0f8e18000000   jle 921  (0x257143c6f9)
0x257143c6e1   897  488b45d0       REX.W movq rax,[rbp-0x30]    ;; debug: statement 10744
                                                             ;; debug: position 10751
0x257143c6e5   901  488945c8       REX.W movq [rbp-0x38],rax    ;; debug: position 10744
0x257143c6e9   905  488b45d8       REX.W movq rax,[rbp-0x28]    ;; debug: statement 10755
                                                             ;; debug: position 10758
0x257143c6ed   909  488945d0       REX.W movq [rbp-0x30],rax    ;; debug: position 10757
0x257143c6f1   913  488b45c8       REX.W movq rax,[rbp-0x38]    ;; debug: statement 10762
                                                             ;; debug: position 10765
0x257143c6f5   917  488945d8       REX.W movq [rbp-0x28],rax    ;; debug: position 10764
0x257143c6f9   921  ff75e8         push [rbp-0x18]           ;; debug: statement 10775
                                                             ;; debug: position 10794
0x257143c6fc   924  ff75d8         push [rbp-0x28]           ;; debug: position 10796
0x257143c6ff   927  ff75d0         push [rbp-0x30]           ;; debug: position 10799
0x257143c702   930  e8591bffff     call 0x257142e260         ;; code: STUB, SubStringStub, minor: 0
0x257143c707   935  48bb090bef97b5250000 REX.W movq rbx,0x25b597ef0b09    ;; object: 0x25b597ef0b09 Cell for 6144
0x257143c711   945  83430bd1       addl [rbx+0xb],0xd1
0x257143c715   949  791f           jns 982  (0x257143c736)
0x257143c717   951  50             push rax
0x257143c718   952  e8c39fffff     call InterruptCheck  (0x25714366e0)    ;; code: BUILTIN
0x257143c71d   957  58             pop rax
0x257143c71e   958  48bb090bef97b5250000 REX.W movq rbx,0x25b597ef0b09    ;; object: 0x25b597ef0b09 Cell for 6144
0x257143c728   968  49ba0000000000180000 REX.W movq r10,0x180000000000
0x257143c732   978  4c895307       REX.W movq [rbx+0x7],r10
0x257143c736   982  c9             leave                     ;; debug: statement 10804
0x257143c737   983  c21800         ret 0x18
0x257143c73a   986  498b45a8       REX.W movq rax,[r13-0x58]
0x257143c73e   990  e9c4ffffff     jmp 935  (0x257143c707)
0x257143c743   995  0f1f440000     nop

Deoptimization Output Data (deopt points = 180)
ast id        pc  state
     2        15  NO_REGISTERS
     3        15  NO_REGISTERS
    31        29  NO_REGISTERS
    29        33  TOS_REG
    26        35  TOS_REG
    24        60  NO_REGISTERS
    40        60  NO_REGISTERS
    38        64  TOS_REG
    35        66  TOS_REG
    20        91  NO_REGISTERS
    57        91  NO_REGISTERS
    55       121  NO_REGISTERS
    58       145  NO_REGISTERS
    61       157  NO_REGISTERS
    52       177  TOS_REG
    50       185  NO_REGISTERS
    48       205  NO_REGISTERS
    21       205  NO_REGISTERS
    19       205  NO_REGISTERS
    64       205  NO_REGISTERS
    87       205  NO_REGISTERS
    85       209  TOS_REG
    78       211  TOS_REG
    76       248  NO_REGISTERS
    93       248  NO_REGISTERS
    91       252  TOS_REG
    77       257  NO_REGISTERS
   101       257  NO_REGISTERS
    99       287  NO_REGISTERS
   104       299  NO_REGISTERS
   102       302  NO_REGISTERS
    96       322  TOS_REG
    94       330  TOS_REG
    74       330  TOS_REG
    69       334  TOS_REG
    67       334  NO_REGISTERS
    65       334  NO_REGISTERS
   105       334  NO_REGISTERS
   123       334  NO_REGISTERS
   121       338  TOS_REG
   117       366  TOS_REG
   115       366  TOS_REG
   110       370  TOS_REG
   108       370  NO_REGISTERS
   106       370  NO_REGISTERS
   124       370  NO_REGISTERS
   143       370  NO_REGISTERS
   141       374  TOS_REG
   138       376  TOS_REG
   136       404  NO_REGISTERS
   146       404  NO_REGISTERS
   144       408  TOS_REG
   137       413  NO_REGISTERS
   157       413  NO_REGISTERS
   155       422  NO_REGISTERS
   160       426  NO_REGISTERS
   158       429  NO_REGISTERS
   152       449  TOS_REG
   150       457  NO_REGISTERS
   149       457  NO_REGISTERS
   147       477  TOS_REG
   134       477  TOS_REG
   129       481  TOS_REG
   127       481  NO_REGISTERS
   125       481  NO_REGISTERS
   169       481  NO_REGISTERS
   167       484  NO_REGISTERS
   170       494  TOS_REG
   164       503  TOS_REG
   162       527  NO_REGISTERS
   173       527  NO_REGISTERS
   183       537  TOS_REG
   178       541  TOS_REG
   176       541  NO_REGISTERS
   174       541  NO_REGISTERS
   163       546  NO_REGISTERS
   194       546  NO_REGISTERS
   192       549  NO_REGISTERS
   197       549  NO_REGISTERS
   195       553  TOS_REG
   189       562  TOS_REG
   187       586  NO_REGISTERS
   198       586  NO_REGISTERS
   210       586  NO_REGISTERS
   208       590  TOS_REG
   203       594  TOS_REG
   201       594  NO_REGISTERS
   199       594  NO_REGISTERS
   188       594  NO_REGISTERS
   186       594  NO_REGISTERS
   161       594  NO_REGISTERS
   211       594  NO_REGISTERS
   223       594  NO_REGISTERS
   221       598  TOS_REG
   216       602  TOS_REG
   214       602  NO_REGISTERS
   212       602  NO_REGISTERS
   236       602  NO_REGISTERS
   234       606  TOS_REG
   231       608  TOS_REG
   225       633  NO_REGISTERS
   244       633  NO_REGISTERS
   263       633  NO_REGISTERS
   261       637  TOS_REG
   258       639  TOS_REG
   256       667  NO_REGISTERS
   266       667  NO_REGISTERS
   264       671  TOS_REG
   257       676  NO_REGISTERS
   277       676  NO_REGISTERS
   275       685  NO_REGISTERS
   280       689  NO_REGISTERS
   278       692  NO_REGISTERS
   272       712  TOS_REG
   270       720  NO_REGISTERS
   269       720  NO_REGISTERS
   267       740  TOS_REG
   254       740  TOS_REG
   249       744  TOS_REG
   247       744  NO_REGISTERS
   289       744  NO_REGISTERS
   287       747  NO_REGISTERS
   292       747  NO_REGISTERS
   290       751  TOS_REG
   284       760  TOS_REG
   282       784  NO_REGISTERS
   293       784  NO_REGISTERS
   305       784  NO_REGISTERS
   303       788  TOS_REG
   298       792  TOS_REG
   296       792  NO_REGISTERS
   294       792  NO_REGISTERS
   283       797  NO_REGISTERS
   306       797  NO_REGISTERS
   317       797  NO_REGISTERS
   315       800  NO_REGISTERS
   318       810  TOS_REG
   312       819  TOS_REG
   310       843  NO_REGISTERS
   328       853  TOS_REG
   323       857  TOS_REG
   321       857  NO_REGISTERS
   311       857  NO_REGISTERS
   309       857  NO_REGISTERS
   339       857  NO_REGISTERS
   337       860  NO_REGISTERS
   342       860  NO_REGISTERS
   340       864  TOS_REG
   334       873  TOS_REG
   332       897  NO_REGISTERS
   343       897  NO_REGISTERS
   346       897  NO_REGISTERS
   358       897  NO_REGISTERS
   356       901  TOS_REG
   351       905  TOS_REG
   349       905  NO_REGISTERS
   347       905  NO_REGISTERS
   368       905  NO_REGISTERS
   366       909  TOS_REG
   361       913  TOS_REG
   359       913  NO_REGISTERS
   378       913  NO_REGISTERS
   376       917  TOS_REG
   371       921  TOS_REG
   369       921  NO_REGISTERS
   344       921  NO_REGISTERS
   333       921  NO_REGISTERS
   331       921  NO_REGISTERS
   307       921  NO_REGISTERS
   281       921  NO_REGISTERS
   245       921  NO_REGISTERS
   226       921  NO_REGISTERS
   224       921  NO_REGISTERS
   384       921  NO_REGISTERS
   382       924  NO_REGISTERS
   387       924  NO_REGISTERS
   385       927  NO_REGISTERS
   390       927  NO_REGISTERS
   388       930  NO_REGISTERS
   379       935  TOS_REG

Back edges (size = 0)
ast_id  pc_offset  loop_depth

0x25b597ef1759: [TypeFeedbackInfo]
 - ic_total_count: 12, ic_with_type_info_count: 0, ic_generic_count: 0

RelocInfo (size = 219)
0x257143c360  position  (10317)
0x257143c379  code target (BUILTIN)  (0x2571436820)
0x257143c37d  statement position  (10324)
0x257143c37d  position  (10336)
0x257143c39c  position  (10352)
0x257143c3bb  statement position  (10369)
0x257143c3bb  position  (10375)
0x257143c3bd  embedded object  (0x25b597e856e9 <String[13]: MakeTypeError>)
0x257143c3d4  code target (LOAD_IC)  (0x2571420300)
0x257143c3db  embedded object  (0x25b597e04189 <undefined>)
0x257143c3f3  embedded object  (0x25b597ef0429 <String[26]: String.prototype.subString>)
0x257143c40d  code target (CALL_IC)  (0x25714121c0)
0x257143c419  position  (10369)
0x257143c429  code target (STUB)  (0x2571409c20)
0x257143c42d  statement position  (10423)
0x257143c42d  position  (10446)
0x257143c458  position  (10465)
0x257143c461  position  (10470)
0x257143c463  embedded object  (0x25b597e9a1b1 <String[18]: $nonStringToString>)
0x257143c47a  code target (LOAD_IC)  (0x2571420300)
0x257143c481  embedded object  (0x25b597e04189 <undefined>)
0x257143c48b  position  (10489)
0x257143c48e  position  (10470)
0x257143c49e  code target (CALL_IC)  (0x25714122c0)
0x257143c4aa  position  (10423)
0x257143c4ae  statement position  (10497)
0x257143c4ae  position  (10504)
0x257143c4b5  position  (10505)
0x257143c4b7  embedded object  (0x25b597e92e71 <String[6]: length>)
0x257143c4ca  code target (LOAD_IC)  (0x2571420300)
0x257143c4ce  position  (10497)
0x257143c4d2  statement position  (10514)
0x257143c4d2  position  (10538)
0x257143c4f4  position  (10542)
0x257143c4fd  position  (10561)
0x257143c50a  position  (10563)
0x257143c50d  position  (10561)
0x257143c51d  code target (CALL_IC)  (0x25714122c0)
0x257143c539  code target (STUB)  (0x2571409c20)
0x257143c53d  position  (10514)
0x257143c541  statement position  (10569)
0x257143c541  position  (10572)
0x257143c550  code target with id (COMPARE_IC)  (0x2571417ba0) (id=166)
0x257143c56f  statement position  (10579)
0x257143c56f  position  (10581)
0x257143c582  statement position  (10591)
0x257143c582  position  (10594)
0x257143c585  position  (10597)
0x257143c58b  code target with id (COMPARE_IC)  (0x257142fc80) (id=191)
0x257143c5aa  statement position  (10602)
0x257143c5aa  position  (10605)
0x257143c5ae  position  (10604)
0x257143c5b2  statement position  (10611)
0x257143c5b2  position  (10618)
0x257143c5b6  position  (10611)
0x257143c5ba  statement position  (10622)
0x257143c5ba  position  (10627)
0x257143c5d9  statement position  (10643)
0x257143c5d9  position  (10663)
0x257143c5fb  position  (10667)
0x257143c604  position  (10686)
0x257143c611  position  (10688)
0x257143c614  position  (10686)
0x257143c624  code target (CALL_IC)  (0x25714122c0)
0x257143c640  code target (STUB)  (0x2571409c20)
0x257143c644  position  (10645)
0x257143c648  statement position  (10694)
0x257143c648  position  (10697)
0x257143c64b  position  (10700)
0x257143c651  code target with id (COMPARE_IC)  (0x257142fc80) (id=286)
0x257143c670  statement position  (10705)
0x257143c670  position  (10708)
0x257143c674  position  (10707)
0x257143c67d  statement position  (10719)
0x257143c67d  position  (10722)
0x257143c68c  code target with id (COMPARE_IC)  (0x2571417ba0) (id=314)
0x257143c6ab  statement position  (10727)
0x257143c6ab  position  (10729)
0x257143c6b9  statement position  (10733)
0x257143c6b9  position  (10736)
0x257143c6bc  position  (10739)
0x257143c6c2  code target with id (COMPARE_IC)  (0x257142fc80) (id=336)
0x257143c6e1  statement position  (10744)
0x257143c6e1  position  (10751)
0x257143c6e5  position  (10744)
0x257143c6e9  statement position  (10755)
0x257143c6e9  position  (10758)
0x257143c6ed  position  (10757)
0x257143c6f1  statement position  (10762)
0x257143c6f1  position  (10765)
0x257143c6f5  position  (10764)
0x257143c6f9  statement position  (10775)
0x257143c6f9  position  (10794)
0x257143c6fc  position  (10796)
0x257143c6ff  position  (10799)
0x257143c703  code target (STUB)  (0x257142e260)
0x257143c709  embedded object  (0x25b597ef0b09 Cell for 6144)
0x257143c719  code target (BUILTIN)  (0x25714366e0)
0x257143c720  embedded object  (0x25b597ef0b09 Cell for 6144)
0x257143c736  statement position  (10804)

--- End code ---
--- Raw source ---
(n, seq) {
  var seqi = 0, lenOut = 60;
  while (n>0) {
    if (n<lenOut) lenOut = n;
    if (seqi + lenOut < seq.length) {
      ret += seq.substring(seqi, seqi+lenOut).length;
      seqi += lenOut;
    } else {
      var s = seq.substring(seqi);
      seqi = lenOut - s.length;
      ret += (s + seq.substring(0, seqi)).length;
    }
    n -= lenOut;
  }
}


--- Code ---
source_position = 990
kind = FUNCTION
name = fastaRepeat
compiler = full-codegen
Instructions (size = 1160)
0x257143c7c0     0  55             push rbp                  ;; debug: position 990
0x257143c7c1     1  4889e5         REX.W movq rbp,rsp
0x257143c7c4     4  56             push rsi
0x257143c7c5     5  57             push rdi
0x257143c7c6     6  498b55a8       REX.W movq rdx,[r13-0x58]
0x257143c7ca    10  52             push rdx
0x257143c7cb    11  52             push rdx
0x257143c7cc    12  52             push rdx
0x257143c7cd    13  493ba540090000 REX.W cmpq rsp,[r13+0x940]
0x257143c7d4    20  7305           jnc 27  (0x257143c7db)
0x257143c7d6    22  e845a0ffff     call StackCheck  (0x2571436820)    ;; code: BUILTIN
0x257143c7db    27  48b80000000000000000 REX.W movq rax,0x0    ;; debug: statement 1003
0x257143c7e5    37  488945e8       REX.W movq [rbp-0x18],rax
0x257143c7e9    41  48b8000000003c000000 REX.W movq rax,0x3c00000000
0x257143c7f3    51  488945e0       REX.W movq [rbp-0x20],rax
0x257143c7f7    55  ff7518         push [rbp+0x18]           ;; debug: statement 1040
                                                             ;; debug: position 1039
0x257143c7fa    58  48b80000000000000000 REX.W movq rax,0x0
0x257143c804    68  5a             pop rdx
0x257143c805    69  488bca         REX.W movq rcx,rdx
0x257143c808    72  480bc8         REX.W orq rcx,rax
0x257143c80b    75  f6c101         testb rcx,0x1
0x257143c80e    78  730e           jnc 94  (0x257143c81e)
0x257143c810    80  483bd0         REX.W cmpq rdx,rax
0x257143c813    83  0f8f26000000   jg 127  (0x257143c83f)
0x257143c819    89  e9de030000     jmp 1084  (0x257143cbfc)
0x257143c81e    94  e85d34ffff     call 0x257142fc80         ;; code: COMPARE_IC, UNINITIALIZED (id = 42)
0x257143c823    99  a815           test al,0x15
0x257143c825   101  eb0f           jmp 118  (0x257143c836)
0x257143c827   103  493b45c0       REX.W cmpq rax,[r13-0x40]
0x257143c82b   107  0f840e000000   jz 127  (0x257143c83f)
0x257143c831   113  e9c6030000     jmp 1084  (0x257143cbfc)
0x257143c836   118  4885c0         REX.W testq rax,rax
0x257143c839   121  0f8ebd030000   jle 1084  (0x257143cbfc)
0x257143c83f   127  ff7518         push [rbp+0x18]           ;; debug: statement 1050
                                                             ;; debug: position 1054
0x257143c842   130  488b45e0       REX.W movq rax,[rbp-0x20]    ;; debug: position 1056
0x257143c846   134  5a             pop rdx
0x257143c847   135  488bca         REX.W movq rcx,rdx
0x257143c84a   138  480bc8         REX.W orq rcx,rax
0x257143c84d   141  f6c101         testb rcx,0x1
0x257143c850   144  730e           jnc 160  (0x257143c860)
0x257143c852   146  483bd0         REX.W cmpq rdx,rax
0x257143c855   149  0f8c26000000   jl 193  (0x257143c881)
0x257143c85b   155  e929000000     jmp 201  (0x257143c889)
0x257143c860   160  e83bb3fdff     call 0x2571417ba0         ;; code: COMPARE_IC, UNINITIALIZED (id = 57)
0x257143c865   165  a815           test al,0x15
0x257143c867   167  eb0f           jmp 184  (0x257143c878)
0x257143c869   169  493b45c0       REX.W cmpq rax,[r13-0x40]
0x257143c86d   173  0f840e000000   jz 193  (0x257143c881)
0x257143c873   179  e911000000     jmp 201  (0x257143c889)
0x257143c878   184  4885c0         REX.W testq rax,rax
0x257143c87b   187  0f8d08000000   jge 201  (0x257143c889)
0x257143c881   193  488b4518       REX.W movq rax,[rbp+0x18]    ;; debug: statement 1064
                                                             ;; debug: position 1073
0x257143c885   197  488945e0       REX.W movq [rbp-0x20],rax    ;; debug: position 1071
0x257143c889   201  ff75e8         push [rbp-0x18]           ;; debug: statement 1080
                                                             ;; debug: position 1084
0x257143c88c   204  488b45e0       REX.W movq rax,[rbp-0x20]    ;; debug: position 1091
0x257143c890   208  5a             pop rdx                   ;; debug: position 1089
0x257143c891   209  488bc8         REX.W movq rcx,rax
0x257143c894   212  480bc2         REX.W orq rax,rdx
0x257143c897   215  a801           test al,0x1
0x257143c899   217  720c           jc 231  (0x257143c8a7)
0x257143c89b   219  488bc1         REX.W movq rax,rcx
0x257143c89e   222  e89d64fdff     call 0x2571412d40         ;; code: BINARY_OP_IC, UNINITIALIZED (id = 83)
0x257143c8a3   227  a80a           test al,0xa
0x257143c8a5   229  eb0c           jmp 243  (0x257143c8b3)
0x257143c8a7   231  488bc2         REX.W movq rax,rdx
0x257143c8aa   234  4803c1         REX.W addq rax,rcx
0x257143c8ad   237  0f80e8ffffff   jo 219  (0x257143c89b)
0x257143c8b3   243  50             push rax
0x257143c8b4   244  488b4510       REX.W movq rax,[rbp+0x10]    ;; debug: position 1100
0x257143c8b8   248  488bd0         REX.W movq rdx,rax
0x257143c8bb   251  48b9712ee997b5250000 REX.W movq rcx,0x25b597e92e71    ;; debug: position 1103
                                                             ;; object: 0x25b597e92e71 <String[6]: length>
0x257143c8c5   261  48b80000000005000000 REX.W movq rax,0x500000000
0x257143c8cf   271  e82c3afeff     call 0x2571420300         ;; code: contextual, LOAD_IC, DEFAULT
0x257143c8d4   276  5a             pop rdx
0x257143c8d5   277  488bca         REX.W movq rcx,rdx
0x257143c8d8   280  480bc8         REX.W orq rcx,rax
0x257143c8db   283  f6c101         testb rcx,0x1
0x257143c8de   286  730e           jnc 302  (0x257143c8ee)
0x257143c8e0   288  483bd0         REX.W cmpq rdx,rax
0x257143c8e3   291  0f8c26000000   jl 335  (0x257143c90f)
0x257143c8e9   297  e938010000     jmp 614  (0x257143ca26)
0x257143c8ee   302  e8adb2fdff     call 0x2571417ba0         ;; code: COMPARE_IC, UNINITIALIZED (id = 79)
0x257143c8f3   307  a815           test al,0x15
0x257143c8f5   309  eb0f           jmp 326  (0x257143c906)
0x257143c8f7   311  493b45c0       REX.W cmpq rax,[r13-0x40]
0x257143c8fb   315  0f840e000000   jz 335  (0x257143c90f)
0x257143c901   321  e920010000     jmp 614  (0x257143ca26)
0x257143c906   326  4885c0         REX.W testq rax,rax
0x257143c909   329  0f8d17010000   jge 614  (0x257143ca26)
0x257143c90f   335  48b9b9e7ee97b5250000 REX.W movq rcx,0x25b597eee7b9    ;; debug: statement 1120
                                                             ;; debug: position 1120
                                                             ;; object: 0x25b597eee7b9 <String[3]: ret>
0x257143c919   345  488b5627       REX.W movq rdx,[rsi+0x27]
0x257143c91d   349  48b80000000007000000 REX.W movq rax,0x700000000
0x257143c927   359  e8d439feff     call 0x2571420300         ;; code: contextual, LOAD_IC, DEFAULT
0x257143c92c   364  50             push rax
0x257143c92d   365  ff7510         push [rbp+0x10]           ;; debug: position 1127
0x257143c930   368  488b1424       REX.W movq rdx,[rsp]
0x257143c934   372  48b9d9fbe597b5250000 REX.W movq rcx,0x25b597e5fbd9    ;; debug: position 1130
                                                             ;; object: 0x25b597e5fbd9 <String[9]: substring>
0x257143c93e   382  48b80000000011000000 REX.W movq rax,0x1100000000
0x257143c948   392  e8b339feff     call 0x2571420300         ;; code: contextual, LOAD_IC, DEFAULT
0x257143c94d   397  ff3424         push [rsp]
0x257143c950   400  4889442408     REX.W movq [rsp+0x8],rax
0x257143c955   405  ff75e8         push [rbp-0x18]           ;; debug: position 1141
0x257143c958   408  ff75e8         push [rbp-0x18]           ;; debug: position 1147
0x257143c95b   411  488b45e0       REX.W movq rax,[rbp-0x20]    ;; debug: position 1152
0x257143c95f   415  5a             pop rdx                   ;; debug: position 1151
0x257143c960   416  488bc8         REX.W movq rcx,rax
0x257143c963   419  480bc2         REX.W orq rax,rdx
0x257143c966   422  a801           test al,0x1
0x257143c968   424  720c           jc 438  (0x257143c976)
0x257143c96a   426  488bc1         REX.W movq rax,rcx
0x257143c96d   429  e8ce63fdff     call 0x2571412d40         ;; code: BINARY_OP_IC, UNINITIALIZED (id = 175)
0x257143c972   434  a80a           test al,0xa
0x257143c974   436  eb0c           jmp 450  (0x257143c982)
0x257143c976   438  488bc2         REX.W movq rax,rdx
0x257143c979   441  4803c1         REX.W addq rax,rcx
0x257143c97c   444  0f80e8ffffff   jo 426  (0x257143c96a)
0x257143c982   450  50             push rax
0x257143c983   451  48ba000000000f000000 REX.W movq rdx,0xf00000000    ;; debug: position 1131
0x257143c98d   461  488b7c2418     REX.W movq rdi,[rsp+0x18]
0x257143c992   466  e8699afeff     call 0x2571426400         ;; code: CALL_IC, DEFAULT
0x257143c997   471  488b75f8       REX.W movq rsi,[rbp-0x8]
0x257143c99b   475  4883c408       REX.W addq rsp,0x8
0x257143c99f   479  488bd0         REX.W movq rdx,rax
0x257143c9a2   482  48b9712ee997b5250000 REX.W movq rcx,0x25b597e92e71    ;; debug: position 1159
                                                             ;; object: 0x25b597e92e71 <String[6]: length>
0x257143c9ac   492  48b80000000013000000 REX.W movq rax,0x1300000000
0x257143c9b6   502  e84539feff     call 0x2571420300         ;; code: contextual, LOAD_IC, DEFAULT
0x257143c9bb   507  5a             pop rdx
0x257143c9bc   508  488bc8         REX.W movq rcx,rax
0x257143c9bf   511  480bc2         REX.W orq rax,rdx
0x257143c9c2   514  a801           test al,0x1
0x257143c9c4   516  720c           jc 530  (0x257143c9d2)
0x257143c9c6   518  488bc1         REX.W movq rax,rcx
0x257143c9c9   521  e87263fdff     call 0x2571412d40         ;; code: BINARY_OP_IC, UNINITIALIZED (id = 109)
0x257143c9ce   526  a80a           test al,0xa
0x257143c9d0   528  eb0c           jmp 542  (0x257143c9de)
0x257143c9d2   530  488bc2         REX.W movq rax,rdx
0x257143c9d5   533  4803c1         REX.W addq rax,rcx
0x257143c9d8   536  0f80e8ffffff   jo 518  (0x257143c9c6)
0x257143c9de   542  48b9b9e7ee97b5250000 REX.W movq rcx,0x25b597eee7b9    ;; debug: position 1124
                                                             ;; object: 0x25b597eee7b9 <String[3]: ret>
0x257143c9e8   552  488b5627       REX.W movq rdx,[rsi+0x27]
0x257143c9ec   556  e82f57ffff     call 0x2571432120         ;; code: STORE_IC, UNINITIALIZED
0x257143c9f1   561  488b45e8       REX.W movq rax,[rbp-0x18]    ;; debug: statement 1174
                                                             ;; debug: position 1174
0x257143c9f5   565  50             push rax
0x257143c9f6   566  488b45e0       REX.W movq rax,[rbp-0x20]    ;; debug: position 1182
0x257143c9fa   570  5a             pop rdx
0x257143c9fb   571  488bc8         REX.W movq rcx,rax
0x257143c9fe   574  480bc2         REX.W orq rax,rdx
0x257143ca01   577  a801           test al,0x1
0x257143ca03   579  720c           jc 593  (0x257143ca11)
0x257143ca05   581  488bc1         REX.W movq rax,rcx
0x257143ca08   584  e83363fdff     call 0x2571412d40         ;; code: BINARY_OP_IC, UNINITIALIZED (id = 189)
0x257143ca0d   589  a80a           test al,0xa
0x257143ca0f   591  eb0c           jmp 605  (0x257143ca1d)
0x257143ca11   593  488bc2         REX.W movq rax,rdx
0x257143ca14   596  4803c1         REX.W addq rax,rcx
0x257143ca17   599  0f80e8ffffff   jo 581  (0x257143ca05)
0x257143ca1d   605  488945e8       REX.W movq [rbp-0x18],rax    ;; debug: position 1179
0x257143ca21   609  e974010000     jmp 986  (0x257143cb9a)
0x257143ca26   614  ff7510         push [rbp+0x10]           ;; debug: statement 1209
                                                             ;; debug: position 1217
0x257143ca29   617  488b1424       REX.W movq rdx,[rsp]
0x257143ca2d   621  48b9d9fbe597b5250000 REX.W movq rcx,0x25b597e5fbd9    ;; debug: position 1220
                                                             ;; object: 0x25b597e5fbd9 <String[9]: substring>
0x257143ca37   631  48b80000000017000000 REX.W movq rax,0x1700000000
0x257143ca41   641  e8ba38feff     call 0x2571420300         ;; code: contextual, LOAD_IC, DEFAULT
0x257143ca46   646  ff3424         push [rsp]
0x257143ca49   649  4889442408     REX.W movq [rsp+0x8],rax
0x257143ca4e   654  ff75e8         push [rbp-0x18]           ;; debug: position 1231
0x257143ca51   657  48ba0000000015000000 REX.W movq rdx,0x1500000000    ;; debug: position 1221
0x257143ca5b   667  488b7c2410     REX.W movq rdi,[rsp+0x10]
0x257143ca60   672  e85bf0fdff     call 0x257141bac0         ;; code: CALL_IC, DEFAULT
0x257143ca65   677  488b75f8       REX.W movq rsi,[rbp-0x8]
0x257143ca69   681  4883c408       REX.W addq rsp,0x8
0x257143ca6d   685  488945d8       REX.W movq [rbp-0x28],rax    ;; debug: position 1209
0x257143ca71   689  ff75e0         push [rbp-0x20]           ;; debug: statement 1244
                                                             ;; debug: position 1251
0x257143ca74   692  488b45d8       REX.W movq rax,[rbp-0x28]    ;; debug: position 1260
0x257143ca78   696  488bd0         REX.W movq rdx,rax
0x257143ca7b   699  48b9712ee997b5250000 REX.W movq rcx,0x25b597e92e71    ;; debug: position 1261
                                                             ;; object: 0x25b597e92e71 <String[6]: length>
0x257143ca85   709  48b80000000019000000 REX.W movq rax,0x1900000000
0x257143ca8f   719  e86c38feff     call 0x2571420300         ;; code: contextual, LOAD_IC, DEFAULT
0x257143ca94   724  5a             pop rdx                   ;; debug: position 1258
0x257143ca95   725  488bc8         REX.W movq rcx,rax
0x257143ca98   728  480bc2         REX.W orq rax,rdx
0x257143ca9b   731  a801           test al,0x1
0x257143ca9d   733  720c           jc 747  (0x257143caab)
0x257143ca9f   735  488bc1         REX.W movq rax,rcx
0x257143caa2   738  e8b9d1feff     call 0x2571429c60         ;; code: BINARY_OP_IC, UNINITIALIZED (id = 242)
0x257143caa7   743  a80a           test al,0xa
0x257143caa9   745  eb0c           jmp 759  (0x257143cab7)
0x257143caab   747  488bc2         REX.W movq rax,rdx
0x257143caae   750  482bc1         REX.W subq rax,rcx
0x257143cab1   753  0f80e8ffffff   jo 735  (0x257143ca9f)
0x257143cab7   759  488945e8       REX.W movq [rbp-0x18],rax    ;; debug: position 1249
0x257143cabb   763  48b9b9e7ee97b5250000 REX.W movq rcx,0x25b597eee7b9    ;; debug: statement 1276
                                                             ;; debug: position 1276
                                                             ;; object: 0x25b597eee7b9 <String[3]: ret>
0x257143cac5   773  488b5627       REX.W movq rdx,[rsi+0x27]
0x257143cac9   777  48b80000000007000000 REX.W movq rax,0x700000000
0x257143cad3   787  e82838feff     call 0x2571420300         ;; code: contextual, LOAD_IC, DEFAULT
0x257143cad8   792  50             push rax
0x257143cad9   793  ff75d8         push [rbp-0x28]           ;; debug: position 1284
0x257143cadc   796  ff7510         push [rbp+0x10]           ;; debug: position 1288
0x257143cadf   799  488b1424       REX.W movq rdx,[rsp]
0x257143cae3   803  48b9d9fbe597b5250000 REX.W movq rcx,0x25b597e5fbd9    ;; debug: position 1291
                                                             ;; object: 0x25b597e5fbd9 <String[9]: substring>
0x257143caed   813  48b80000000023000000 REX.W movq rax,0x2300000000
0x257143caf7   823  e80438feff     call 0x2571420300         ;; code: contextual, LOAD_IC, DEFAULT
0x257143cafc   828  ff3424         push [rsp]
0x257143caff   831  4889442408     REX.W movq [rsp+0x8],rax
0x257143cb04   836  6a00           push 0x0
0x257143cb06   838  ff75e8         push [rbp-0x18]           ;; debug: position 1305
0x257143cb09   841  48ba0000000021000000 REX.W movq rdx,0x2100000000    ;; debug: position 1292
0x257143cb13   851  488b7c2418     REX.W movq rdi,[rsp+0x18]
0x257143cb18   856  e8e398feff     call 0x2571426400         ;; code: CALL_IC, DEFAULT
0x257143cb1d   861  488b75f8       REX.W movq rsi,[rbp-0x8]
0x257143cb21   865  4883c408       REX.W addq rsp,0x8
0x257143cb25   869  5a             pop rdx                   ;; debug: position 1286
0x257143cb26   870  488bc8         REX.W movq rcx,rax
0x257143cb29   873  480bc2         REX.W orq rax,rdx
0x257143cb2c   876  a801           test al,0x1
0x257143cb2e   878  720c           jc 892  (0x257143cb3c)
0x257143cb30   880  488bc1         REX.W movq rax,rcx
0x257143cb33   883  e80862fdff     call 0x2571412d40         ;; code: BINARY_OP_IC, UNINITIALIZED (id = 311)
0x257143cb38   888  a80a           test al,0xa
0x257143cb3a   890  eb0c           jmp 904  (0x257143cb48)
0x257143cb3c   892  488bc2         REX.W movq rax,rdx
0x257143cb3f   895  4803c1         REX.W addq rax,rcx
0x257143cb42   898  0f80e8ffffff   jo 880  (0x257143cb30)
0x257143cb48   904  488bd0         REX.W movq rdx,rax
0x257143cb4b   907  48b9712ee997b5250000 REX.W movq rcx,0x25b597e92e71    ;; debug: position 1311
                                                             ;; object: 0x25b597e92e71 <String[6]: length>
0x257143cb55   917  48b80000000025000000 REX.W movq rax,0x2500000000
0x257143cb5f   927  e89c37feff     call 0x2571420300         ;; code: contextual, LOAD_IC, DEFAULT
0x257143cb64   932  5a             pop rdx
0x257143cb65   933  488bc8         REX.W movq rcx,rax
0x257143cb68   936  480bc2         REX.W orq rax,rdx
0x257143cb6b   939  a801           test al,0x1
0x257143cb6d   941  720c           jc 955  (0x257143cb7b)
0x257143cb6f   943  488bc1         REX.W movq rax,rcx
0x257143cb72   946  e8c961fdff     call 0x2571412d40         ;; code: BINARY_OP_IC, UNINITIALIZED (id = 262)
0x257143cb77   951  a80a           test al,0xa
0x257143cb79   953  eb0c           jmp 967  (0x257143cb87)
0x257143cb7b   955  488bc2         REX.W movq rax,rdx
0x257143cb7e   958  4803c1         REX.W addq rax,rcx
0x257143cb81   961  0f80e8ffffff   jo 943  (0x257143cb6f)
0x257143cb87   967  48b9b9e7ee97b5250000 REX.W movq rcx,0x25b597eee7b9    ;; debug: position 1280
                                                             ;; object: 0x25b597eee7b9 <String[3]: ret>
0x257143cb91   977  488b5627       REX.W movq rdx,[rsi+0x27]
0x257143cb95   981  e88655ffff     call 0x2571432120         ;; code: STORE_IC, UNINITIALIZED
0x257143cb9a   986  488b4518       REX.W movq rax,[rbp+0x18]    ;; debug: statement 1330
                                                             ;; debug: position 1330
0x257143cb9e   990  50             push rax
0x257143cb9f   991  488b45e0       REX.W movq rax,[rbp-0x20]    ;; debug: position 1335
0x257143cba3   995  5a             pop rdx
0x257143cba4   996  488bc8         REX.W movq rcx,rax
0x257143cba7   999  480bc2         REX.W orq rax,rdx
0x257143cbaa  1002  a801           test al,0x1
0x257143cbac  1004  720c           jc 1018  (0x257143cbba)
0x257143cbae  1006  488bc1         REX.W movq rax,rcx
0x257143cbb1  1009  e8aad0feff     call 0x2571429c60         ;; code: BINARY_OP_IC, UNINITIALIZED (id = 342)
0x257143cbb6  1014  a80a           test al,0xa
0x257143cbb8  1016  eb0c           jmp 1030  (0x257143cbc6)
0x257143cbba  1018  488bc2         REX.W movq rax,rdx
0x257143cbbd  1021  482bc1         REX.W subq rax,rcx
0x257143cbc0  1024  0f80e8ffffff   jo 1006  (0x257143cbae)
0x257143cbc6  1030  48894518       REX.W movq [rbp+0x18],rax    ;; debug: position 1332
0x257143cbca  1034  48bb2918ef97b5250000 REX.W movq rbx,0x25b597ef1829    ;; object: 0x25b597ef1829 Cell for 6144
0x257143cbd4  1044  83430bfb       addl [rbx+0xb],0xfb
0x257143cbd8  1048  791d           jns 1079  (0x257143cbf7)
0x257143cbda  1050  e8019bffff     call InterruptCheck  (0x25714366e0)    ;; code: BUILTIN
0x257143cbdf  1055  48bb2918ef97b5250000 REX.W movq rbx,0x25b597ef1829    ;; object: 0x25b597ef1829 Cell for 6144
0x257143cbe9  1065  49ba0000000000180000 REX.W movq r10,0x180000000000
0x257143cbf3  1075  4c895307       REX.W movq [rbx+0x7],r10
0x257143cbf7  1079  e9fbfbffff     jmp 55  (0x257143c7f7)
0x257143cbfc  1084  498b45a8       REX.W movq rax,[r13-0x58]
0x257143cc00  1088  48bb2918ef97b5250000 REX.W movq rbx,0x25b597ef1829    ;; object: 0x25b597ef1829 Cell for 6144
0x257143cc0a  1098  83430bfa       addl [rbx+0xb],0xfa
0x257143cc0e  1102  791f           jns 1135  (0x257143cc2f)
0x257143cc10  1104  50             push rax
0x257143cc11  1105  e8ca9affff     call InterruptCheck  (0x25714366e0)    ;; code: BUILTIN
0x257143cc16  1110  58             pop rax
0x257143cc17  1111  48bb2918ef97b5250000 REX.W movq rbx,0x25b597ef1829    ;; object: 0x25b597ef1829 Cell for 6144
0x257143cc21  1121  49ba0000000000180000 REX.W movq r10,0x180000000000
0x257143cc2b  1131  4c895307       REX.W movq [rbx+0x7],r10
0x257143cc2f  1135  c9             leave                     ;; debug: statement 1347
0x257143cc30  1136  c21800         ret 0x18
0x257143cc33  1139  0f1f440000     nop

Deoptimization Output Data (deopt points = 120)
ast id        pc  state
     2        13  NO_REGISTERS
     3        13  NO_REGISTERS
    13        27  NO_REGISTERS
    23        37  TOS_REG
    18        41  TOS_REG
    16        41  NO_REGISTERS
    33        51  TOS_REG
    28        55  TOS_REG
    26        55  NO_REGISTERS
    14        55  NO_REGISTERS
    45        55  NO_REGISTERS
    43        58  NO_REGISTERS
    46        68  TOS_REG
    40       103  TOS_REG
    39       127  NO_REGISTERS
    49       127  NO_REGISTERS
    60       127  NO_REGISTERS
    58       130  NO_REGISTERS
    63       130  NO_REGISTERS
    61       134  TOS_REG
    55       169  TOS_REG
    53       193  NO_REGISTERS
    73       193  NO_REGISTERS
    71       197  TOS_REG
    66       201  TOS_REG
    64       201  NO_REGISTERS
    54       201  NO_REGISTERS
    52       201  NO_REGISTERS
    86       201  NO_REGISTERS
    84       204  NO_REGISTERS
    89       204  NO_REGISTERS
    87       208  TOS_REG
    80       244  NO_REGISTERS
    98       244  NO_REGISTERS
    96       248  TOS_REG
    92       276  TOS_REG
    90       276  TOS_REG
    77       311  TOS_REG
    75       335  NO_REGISTERS
    99       335  NO_REGISTERS
   148       335  NO_REGISTERS
   146       364  TOS_REG
   168       365  NO_REGISTERS
   166       368  NO_REGISTERS
   162       397  TOS_REG
   171       405  NO_REGISTERS
   169       408  NO_REGISTERS
   178       408  NO_REGISTERS
   176       411  NO_REGISTERS
   181       411  NO_REGISTERS
   179       415  TOS_REG
   172       451  NO_REGISTERS
   157       471  TOS_REG
   155       479  TOS_REG
   151       507  TOS_REG
   149       507  TOS_REG
   106       542  TOS_REG
   104       561  TOS_REG
   102       561  NO_REGISTERS
   198       561  NO_REGISTERS
   196       565  TOS_REG
   201       566  NO_REGISTERS
   199       570  TOS_REG
   186       605  TOS_REG
   184       609  TOS_REG
   182       609  NO_REGISTERS
   100       609  NO_REGISTERS
    76       614  NO_REGISTERS
   202       614  NO_REGISTERS
   205       614  NO_REGISTERS
   228       614  NO_REGISTERS
   226       617  NO_REGISTERS
   222       646  TOS_REG
   231       654  NO_REGISTERS
   229       657  NO_REGISTERS
   217       677  TOS_REG
   215       685  TOS_REG
   210       689  TOS_REG
   208       689  NO_REGISTERS
   206       689  NO_REGISTERS
   245       689  NO_REGISTERS
   243       692  NO_REGISTERS
   254       692  NO_REGISTERS
   252       696  TOS_REG
   248       724  TOS_REG
   246       724  TOS_REG
   239       759  TOS_REG
   234       763  TOS_REG
   232       763  NO_REGISTERS
   301       763  NO_REGISTERS
   299       792  TOS_REG
   314       793  NO_REGISTERS
   312       796  NO_REGISTERS
   328       796  NO_REGISTERS
   326       799  NO_REGISTERS
   322       828  TOS_REG
   329       838  NO_REGISTERS
   334       838  NO_REGISTERS
   332       841  NO_REGISTERS
   317       861  TOS_REG
   315       869  TOS_REG
   308       904  TOS_REG
   304       932  TOS_REG
   302       932  TOS_REG
   259       967  TOS_REG
   257       986  TOS_REG
   255       986  NO_REGISTERS
   203       986  NO_REGISTERS
    74       986  NO_REGISTERS
   351       986  NO_REGISTERS
   349       990  TOS_REG
   354       991  NO_REGISTERS
   352       995  TOS_REG
   339      1030  TOS_REG
   337      1034  TOS_REG
   335      1034  NO_REGISTERS
    50      1034  NO_REGISTERS
    36      1079  NO_REGISTERS
    38      1079  NO_REGISTERS
    37      1084  NO_REGISTERS

Back edges (size = 1)
ast_id  pc_offset  loop_depth
    38       1055           1

0x25b597ef20c1: [TypeFeedbackInfo]
 - ic_total_count: 25, ic_with_type_info_count: 0, ic_generic_count: 0

RelocInfo (size = 226)
0x257143c7c0  position  (990)
0x257143c7d7  code target (BUILTIN)  (0x2571436820)
0x257143c7db  statement position  (1003)
0x257143c7f7  statement position  (1040)
0x257143c7f7  position  (1039)
0x257143c81f  code target with id (COMPARE_IC)  (0x257142fc80) (id=42)
0x257143c83f  statement position  (1050)
0x257143c83f  position  (1054)
0x257143c842  position  (1056)
0x257143c861  code target with id (COMPARE_IC)  (0x2571417ba0) (id=57)
0x257143c881  statement position  (1064)
0x257143c881  position  (1073)
0x257143c885  position  (1071)
0x257143c889  statement position  (1080)
0x257143c889  position  (1084)
0x257143c88c  position  (1091)
0x257143c890  position  (1089)
0x257143c89f  code target with id (BINARY_OP_IC)  (0x2571412d40) (id=83)
0x257143c8b4  position  (1100)
0x257143c8bb  position  (1103)
0x257143c8bd  embedded object  (0x25b597e92e71 <String[6]: length>)
0x257143c8d0  code target (LOAD_IC)  (0x2571420300)
0x257143c8ef  code target with id (COMPARE_IC)  (0x2571417ba0) (id=79)
0x257143c90f  statement position  (1120)
0x257143c90f  position  (1120)
0x257143c911  embedded object  (0x25b597eee7b9 <String[3]: ret>)
0x257143c928  code target (LOAD_IC)  (0x2571420300)
0x257143c92d  position  (1127)
0x257143c934  position  (1130)
0x257143c936  embedded object  (0x25b597e5fbd9 <String[9]: substring>)
0x257143c949  code target (LOAD_IC)  (0x2571420300)
0x257143c955  position  (1141)
0x257143c958  position  (1147)
0x257143c95b  position  (1152)
0x257143c95f  position  (1151)
0x257143c96e  code target with id (BINARY_OP_IC)  (0x2571412d40) (id=175)
0x257143c983  position  (1131)
0x257143c993  code target (CALL_IC)  (0x2571426400)
0x257143c9a2  position  (1159)
0x257143c9a4  embedded object  (0x25b597e92e71 <String[6]: length>)
0x257143c9b7  code target (LOAD_IC)  (0x2571420300)
0x257143c9ca  code target with id (BINARY_OP_IC)  (0x2571412d40) (id=109)
0x257143c9de  position  (1124)
0x257143c9e0  embedded object  (0x25b597eee7b9 <String[3]: ret>)
0x257143c9ed  code target (STORE_IC)  (0x2571432120)
0x257143c9f1  statement position  (1174)
0x257143c9f1  position  (1174)
0x257143c9f6  position  (1182)
0x257143ca09  code target with id (BINARY_OP_IC)  (0x2571412d40) (id=189)
0x257143ca1d  position  (1179)
0x257143ca26  statement position  (1209)
0x257143ca26  position  (1217)
0x257143ca2d  position  (1220)
0x257143ca2f  embedded object  (0x25b597e5fbd9 <String[9]: substring>)
0x257143ca42  code target (LOAD_IC)  (0x2571420300)
0x257143ca4e  position  (1231)
0x257143ca51  position  (1221)
0x257143ca61  code target (CALL_IC)  (0x257141bac0)
0x257143ca6d  position  (1209)
0x257143ca71  statement position  (1244)
0x257143ca71  position  (1251)
0x257143ca74  position  (1260)
0x257143ca7b  position  (1261)
0x257143ca7d  embedded object  (0x25b597e92e71 <String[6]: length>)
0x257143ca90  code target (LOAD_IC)  (0x2571420300)
0x257143ca94  position  (1258)
0x257143caa3  code target with id (BINARY_OP_IC)  (0x2571429c60) (id=242)
0x257143cab7  position  (1249)
0x257143cabb  statement position  (1276)
0x257143cabb  position  (1276)
0x257143cabd  embedded object  (0x25b597eee7b9 <String[3]: ret>)
0x257143cad4  code target (LOAD_IC)  (0x2571420300)
0x257143cad9  position  (1284)
0x257143cadc  position  (1288)
0x257143cae3  position  (1291)
0x257143cae5  embedded object  (0x25b597e5fbd9 <String[9]: substring>)
0x257143caf8  code target (LOAD_IC)  (0x2571420300)
0x257143cb06  position  (1305)
0x257143cb09  position  (1292)
0x257143cb19  code target (CALL_IC)  (0x2571426400)
0x257143cb25  position  (1286)
0x257143cb34  code target with id (BINARY_OP_IC)  (0x2571412d40) (id=311)
0x257143cb4b  position  (1311)
0x257143cb4d  embedded object  (0x25b597e92e71 <String[6]: length>)
0x257143cb60  code target (LOAD_IC)  (0x2571420300)
0x257143cb73  code target with id (BINARY_OP_IC)  (0x2571412d40) (id=262)
0x257143cb87  position  (1280)
0x257143cb89  embedded object  (0x25b597eee7b9 <String[3]: ret>)
0x257143cb96  code target (STORE_IC)  (0x2571432120)
0x257143cb9a  statement position  (1330)
0x257143cb9a  position  (1330)
0x257143cb9f  position  (1335)
0x257143cbb2  code target with id (BINARY_OP_IC)  (0x2571429c60) (id=342)
0x257143cbc6  position  (1332)
0x257143cbcc  embedded object  (0x25b597ef1829 Cell for 6144)
0x257143cbdb  code target (BUILTIN)  (0x25714366e0)
0x257143cbe1  embedded object  (0x25b597ef1829 Cell for 6144)
0x257143cc02  embedded object  (0x25b597ef1829 Cell for 6144)
0x257143cc12  code target (BUILTIN)  (0x25714366e0)
0x257143cc19  embedded object  (0x25b597ef1829 Cell for 6144)
0x257143cc2f  statement position  (1347)

--- End code ---
--- Code ---
kind = STUB
major_key = <NoCache>Stub
name = StringAddStub
compiler = crankshaft
Instructions (size = 869)
0x257143ccc0     0  55             push rbp
0x257143ccc1     1  4889e5         REX.W movq rbp,rsp
0x257143ccc4     4  56             push rsi
0x257143ccc5     5  49ba0000000006000000 REX.W movq r10,0x600000000
0x257143cccf    15  4152           push r10
0x257143ccd1    17  4883ec18       REX.W subq rsp,0x18
0x257143ccd5    21  488955e8       REX.W movq [rbp-0x18],rdx
0x257143ccd9    25  488bda         REX.W movq rbx,rdx
0x257143ccdc    28  488945e0       REX.W movq [rbp-0x20],rax
0x257143cce0    32  488975d8       REX.W movq [rbp-0x28],rsi
0x257143cce4    36  488bd6         REX.W movq rdx,rsi
0x257143cce7    39  8b4b13         movl rcx,[rbx+0x13]
0x257143ccea    42  8b7013         movl rsi,[rax+0x13]
0x257143cced    45  83f900         cmpl rcx,0x0
0x257143ccf0    48  0f842e020000   jz 612  (0x257143cf24)
0x257143ccf6    54  83fe00         cmpl rsi,0x0
0x257143ccf9    57  0f841d020000   jz 604  (0x257143cf1c)
0x257143ccff    63  8d3c31         leal rdi,[rcx+rsi*1]
0x257143cd02    66  81fff1ffff0f   cmpl rdi,0xffffff1
0x257143cd08    72  0f83e8020000   jnc 822  (0x257143cff6)
0x257143cd0e    78  83ff0d         cmpl rdi,0xd
0x257143cd11    81  0f8d65010000   jge 444  (0x257143ce7c)
0x257143cd17    87  4c8b43ff       REX.W movq r8,[rbx-0x1]
0x257143cd1b    91  450fb6400b     movzxbl r8,[r8+0xb]
0x257143cd20    96  4c8b48ff       REX.W movq r9,[rax-0x1]
0x257143cd24   100  450fb6490b     movzxbl r9,[r9+0xb]
0x257143cd29   105  4d8bd8         REX.W movq r11,r8
0x257143cd2c   108  450bd9         orl r11,r9
0x257143cd2f   111  4533c1         xorl r8,r9
0x257143cd32   114  4183e004       andl r8,0x4
0x257143cd36   118  4183f800       cmpl r8,0x0
0x257143cd3a   122  0f8511000000   jnz 145  (0x257143cd51)
0x257143cd40   128  4d8bc3         REX.W movq r8,r11
0x257143cd43   131  4183e003       andl r8,0x3
0x257143cd47   135  4183f800       cmpl r8,0x0
0x257143cd4b   139  0f841b000000   jz 172  (0x257143cd6c)
0x257143cd51   145  53             push rbx
0x257143cd52   146  50             push rax
0x257143cd53   147  488bf2         REX.W movq rsi,rdx
0x257143cd56   150  b802000000     movl rax,0x2
0x257143cd5b   155  498d9db81f8efd REX.W leaq rbx,[r13-0x271e048]
0x257143cd62   162  e81995fcff     call 0x2571406280         ;; code: STUB, CEntryStub, minor: 1
0x257143cd67   167  e9be010000     jmp 618  (0x257143cf2a)
0x257143cd6c   172  4183e304       andl r11,0x4
0x257143cd70   176  4183fb00       cmpl r11,0x0
0x257143cd74   180  0f8517000000   jnz 209  (0x257143cd91)
0x257143cd7a   186  488bc7         REX.W movq rax,rdi
0x257143cd7d   189  d1e0           shll rax, 1
0x257143cd7f   191  488bd8         REX.W movq rbx,rax
0x257143cd82   194  48b8714f301cf9160000 REX.W movq rax,0x16f91c304f71    ;; object: 0x16f91c304f71 <Map(FAST_HOLEY_ELEMENTS)>
0x257143cd8c   204  e90d000000     jmp 222  (0x257143cd9e)
0x257143cd91   209  488bdf         REX.W movq rbx,rdi
0x257143cd94   212  48b8594c301cf9160000 REX.W movq rax,0x16f91c304c59    ;; object: 0x16f91c304c59 <Map(FAST_HOLEY_ELEMENTS)>
0x257143cd9e   222  83c31f         addl rbx,0x1f
0x257143cda1   225  83e3f8         andl rbx,0xf8
0x257143cda4   228  4d8b85400c0000 REX.W movq r8,[r13+0xc40]
0x257143cdab   235  488bd3         REX.W movq rdx,rbx
0x257143cdae   238  4903d0         REX.W addq rdx,r8
0x257143cdb1   241  0f827c010000   jc 627  (0x257143cf33)
0x257143cdb7   247  493b95480c0000 REX.W cmpq rdx,[r13+0xc48]
0x257143cdbe   254  0f876f010000   ja 627  (0x257143cf33)
0x257143cdc4   260  498995400c0000 REX.W movq [r13+0xc40],rdx
0x257143cdcb   267  4983c001       REX.W addq r8,0x1
0x257143cdcf   271  498940ff       REX.W movq [r8-0x1],rax
0x257143cdd3   275  41c7400703000000 movl [r8+0x7],0x3
0x257143cddb   283  8bdf           movl rbx,rdi
0x257143cddd   285  48c1e320       REX.W shlq rbx, 32
0x257143cde1   289  4989580f       REX.W movq [r8+0xf],rbx
0x257143cde5   293  49ba714f301cf9160000 REX.W movq r10,0x16f91c304f71    ;; object: 0x16f91c304f71 <Map(FAST_HOLEY_ELEMENTS)>
0x257143cdef   303  493bc2         REX.W cmpq rax,r10
0x257143cdf2   306  0f843d000000   jz 373  (0x257143ce35)
0x257143cdf8   312  488b5de8       REX.W movq rbx,[rbp-0x18]
0x257143cdfc   316  33c0           xorl rax,rax
0x257143cdfe   318  3bc1           cmpl rax,rcx
0x257143ce00   320  0f8d0f000000   jge 341  (0x257143ce15)
0x257143ce06   326  0fb6540317     movzxbl rdx,[rbx+rax*1+0x17]
0x257143ce0b   331  4188540017     movb [r8+rax*1+0x17],dl
0x257143ce10   336  83c001         addl rax,0x1
0x257143ce13   339  ebe9           jmp 318  (0x257143cdfe)
0x257143ce15   341  488b55e0       REX.W movq rdx,[rbp-0x20]
0x257143ce19   345  33c0           xorl rax,rax
0x257143ce1b   347  3bc6           cmpl rax,rsi
0x257143ce1d   349  0f8d51000000   jge 436  (0x257143ce74)
0x257143ce23   355  0fb65c0217     movzxbl rbx,[rdx+rax*1+0x17]
0x257143ce28   360  8d3c01         leal rdi,[rcx+rax*1]
0x257143ce2b   363  41885c3817     movb [r8+rdi*1+0x17],bl
0x257143ce30   368  83c001         addl rax,0x1
0x257143ce33   371  ebe6           jmp 347  (0x257143ce1b)
0x257143ce35   373  488b5de8       REX.W movq rbx,[rbp-0x18]
0x257143ce39   377  488b55e0       REX.W movq rdx,[rbp-0x20]
0x257143ce3d   381  33c0           xorl rax,rax
0x257143ce3f   383  3bc1           cmpl rax,rcx
0x257143ce41   385  0f8d10000000   jge 407  (0x257143ce57)
0x257143ce47   391  0fb77c4317     movzxwl rdi,[rbx+rax*2+0x17]
0x257143ce4c   396  6641897c4017   movw [r8+rax*2+0x17],rdi
0x257143ce52   402  83c001         addl rax,0x1
0x257143ce55   405  ebe8           jmp 383  (0x257143ce3f)
0x257143ce57   407  33c0           xorl rax,rax
0x257143ce59   409  3bc6           cmpl rax,rsi
0x257143ce5b   411  0f8d13000000   jge 436  (0x257143ce74)
0x257143ce61   417  0fb75c4217     movzxwl rbx,[rdx+rax*2+0x17]
0x257143ce66   422  8d3c01         leal rdi,[rcx+rax*1]
0x257143ce69   425  6641895c7817   movw [r8+rdi*2+0x17],rbx
0x257143ce6f   431  83c001         addl rax,0x1
0x257143ce72   434  ebe5           jmp 409  (0x257143ce59)
0x257143ce74   436  498bc0         REX.W movq rax,r8
0x257143ce77   439  e9ae000000     jmp 618  (0x257143cf2a)
0x257143ce7c   444  488bd0         REX.W movq rdx,rax
0x257143ce7f   447  488b43ff       REX.W movq rax,[rbx-0x1]
0x257143ce83   451  0fb6400b       movzxbl rax,[rax+0xb]
0x257143ce87   455  488b4aff       REX.W movq rcx,[rdx-0x1]
0x257143ce8b   459  0fb6490b       movzxbl rcx,[rcx+0xb]
0x257143ce8f   463  4d8b85400c0000 REX.W movq r8,[r13+0xc40]
0x257143ce96   470  498bf0         REX.W movq rsi,r8
0x257143ce99   473  4883c628       REX.W addq rsi,0x28
0x257143ce9d   477  0f82ee000000   jc 721  (0x257143cf91)
0x257143cea3   483  493bb5480c0000 REX.W cmpq rsi,[r13+0xc48]
0x257143ceaa   490  0f87e1000000   ja 721  (0x257143cf91)
0x257143ceb0   496  4989b5400c0000 REX.W movq [r13+0xc40],rsi
0x257143ceb7   503  49ffc0         REX.W incq r8
0x257143ceba   506  488bf0         REX.W movq rsi,rax
0x257143cebd   509  23f1           andl rsi,rcx
0x257143cebf   511  33c1           xorl rax,rcx
0x257143cec1   513  83e60c         andl rsi,0xc
0x257143cec4   516  83fe00         cmpl rsi,0x0
0x257143cec7   519  0f851f000000   jnz 556  (0x257143ceec)
0x257143cecd   525  83e00c         andl rax,0xc
0x257143ced0   528  83f80c         cmpl rax,0xc
0x257143ced3   531  0f8413000000   jz 556  (0x257143ceec)
0x257143ced9   537  49ba2150301cf9160000 REX.W movq r10,0x16f91c305021    ;; object: 0x16f91c305021 <Map(FAST_HOLEY_ELEMENTS)>
0x257143cee3   547  4d8950ff       REX.W movq [r8-0x1],r10
0x257143cee7   551  e90e000000     jmp 570  (0x257143cefa)
0x257143ceec   556  49bac94f301cf9160000 REX.W movq r10,0x16f91c304fc9    ;; object: 0x16f91c304fc9 <Map(FAST_HOLEY_ELEMENTS)>
0x257143cef6   566  4d8950ff       REX.W movq [r8-0x1],r10
0x257143cefa   570  41c7400703000000 movl [r8+0x7],0x3
0x257143cf02   578  8bc7           movl rax,rdi
0x257143cf04   580  48c1e020       REX.W shlq rax, 32
0x257143cf08   584  4989400f       REX.W movq [r8+0xf],rax
0x257143cf0c   588  49895817       REX.W movq [r8+0x17],rbx
0x257143cf10   592  4989501f       REX.W movq [r8+0x1f],rdx
0x257143cf14   596  498bc0         REX.W movq rax,r8
0x257143cf17   599  e90e000000     jmp 618  (0x257143cf2a)
0x257143cf1c   604  488bc3         REX.W movq rax,rbx
0x257143cf1f   607  e906000000     jmp 618  (0x257143cf2a)
0x257143cf24   612  488bd0         REX.W movq rdx,rax
0x257143cf27   615  488bc2         REX.W movq rax,rdx
0x257143cf2a   618  488b75d8       REX.W movq rsi,[rbp-0x28]
0x257143cf2e   622  488be5         REX.W movq rsp,rbp
0x257143cf31   625  5d             pop rbp
0x257143cf32   626  c3             ret
0x257143cf33   627  49b80000000000000000 REX.W movq r8,0x0
0x257143cf3d   637  50             push rax
0x257143cf3e   638  51             push rcx
0x257143cf3f   639  52             push rdx
0x257143cf40   640  53             push rbx
0x257143cf41   641  56             push rsi
0x257143cf42   642  57             push rdi
0x257143cf43   643  4150           push r8
0x257143cf45   645  4151           push r9
0x257143cf47   647  4153           push r11
0x257143cf49   649  4154           push r12
0x257143cf4b   651  4156           push r14
0x257143cf4d   653  4157           push r15
0x257143cf4f   655  488d6424e0     REX.W leaq rsp,[rsp-0x20]
0x257143cf54   660  48c1e320       REX.W shlq rbx, 32
0x257143cf58   664  53             push rbx
0x257143cf59   665  6a00           push 0x0
0x257143cf5b   667  488b75d8       REX.W movq rsi,[rbp-0x28]
0x257143cf5f   671  b802000000     movl rax,0x2
0x257143cf64   676  498d9df86f87fd REX.W leaq rbx,[r13-0x2789008]
0x257143cf6b   683  e81093fcff     call 0x2571406280         ;; code: STUB, CEntryStub, minor: 1
0x257143cf70   688  4889442448     REX.W movq [rsp+0x48],rax
0x257143cf75   693  488d642420     REX.W leaq rsp,[rsp+0x20]
0x257143cf7a   698  415f           pop r15
0x257143cf7c   700  415e           pop r14
0x257143cf7e   702  415c           pop r12
0x257143cf80   704  415b           pop r11
0x257143cf82   706  4159           pop r9
0x257143cf84   708  4158           pop r8
0x257143cf86   710  5f             pop rdi
0x257143cf87   711  5e             pop rsi
0x257143cf88   712  5b             pop rbx
0x257143cf89   713  5a             pop rdx
0x257143cf8a   714  59             pop rcx
0x257143cf8b   715  58             pop rax
0x257143cf8c   716  e93efeffff     jmp 271  (0x257143cdcf)
0x257143cf91   721  49b80000000000000000 REX.W movq r8,0x0
0x257143cf9b   731  50             push rax
0x257143cf9c   732  51             push rcx
0x257143cf9d   733  52             push rdx
0x257143cf9e   734  53             push rbx
0x257143cf9f   735  56             push rsi
0x257143cfa0   736  57             push rdi
0x257143cfa1   737  4150           push r8
0x257143cfa3   739  4151           push r9
0x257143cfa5   741  4153           push r11
0x257143cfa7   743  4154           push r12
0x257143cfa9   745  4156           push r14
0x257143cfab   747  4157           push r15
0x257143cfad   749  488d6424e0     REX.W leaq rsp,[rsp-0x20]
0x257143cfb2   754  49ba0000000028000000 REX.W movq r10,0x2800000000
0x257143cfbc   764  4152           push r10
0x257143cfbe   766  6a00           push 0x0
0x257143cfc0   768  488b75d8       REX.W movq rsi,[rbp-0x28]
0x257143cfc4   772  b802000000     movl rax,0x2
0x257143cfc9   777  498d9df86f87fd REX.W leaq rbx,[r13-0x2789008]
0x257143cfd0   784  e8ab92fcff     call 0x2571406280         ;; code: STUB, CEntryStub, minor: 1
0x257143cfd5   789  4889442448     REX.W movq [rsp+0x48],rax
0x257143cfda   794  488d642420     REX.W leaq rsp,[rsp+0x20]
0x257143cfdf   799  415f           pop r15
0x257143cfe1   801  415e           pop r14
0x257143cfe3   803  415c           pop r12
0x257143cfe5   805  415b           pop r11
0x257143cfe7   807  4159           pop r9
0x257143cfe9   809  4158           pop r8
0x257143cfeb   811  5f             pop rdi
0x257143cfec   812  5e             pop rsi
0x257143cfed   813  5b             pop rbx
0x257143cfee   814  5a             pop rdx
0x257143cfef   815  59             pop rcx
0x257143cff0   816  58             pop rax
0x257143cff1   817  e9c4feffff     jmp 506  (0x257143ceba)
0x257143cff6   822  e80590dcff     call 0x2571206000         ;; lazy deoptimization bailout 0
0x257143cffb   827  90             nop


Safepoints (size = 41)
0x257143cd67   167  111 (sp -> fp)       1
0x257143cf70   688  111 | rax | r8 (sp -> fp)  <none> argc: 2
0x257143cfd5   789  111 | rdx | rbx | r8 (sp -> fp)  <none> argc: 2

RelocInfo (size = 20)
0x257143cd63  code target (STUB)  (0x2571406280)
0x257143cd84  embedded object  (0x16f91c304f71 <Map(FAST_HOLEY_ELEMENTS)>)
0x257143cd96  embedded object  (0x16f91c304c59 <Map(FAST_HOLEY_ELEMENTS)>)
0x257143cde7  embedded object  (0x16f91c304f71 <Map(FAST_HOLEY_ELEMENTS)>)
0x257143cedb  embedded object  (0x16f91c305021 <Map(FAST_HOLEY_ELEMENTS)>)
0x257143ceee  embedded object  (0x16f91c304fc9 <Map(FAST_HOLEY_ELEMENTS)>)
0x257143cf6c  code target (STUB)  (0x2571406280)
0x257143cfd1  code target (STUB)  (0x2571406280)
0x257143cff7  runtime entry

--- End code ---
--- Raw source ---
(n, seq) {
  var seqi = 0, lenOut = 60;
  while (n>0) {
    if (n<lenOut) lenOut = n;
    if (seqi + lenOut < seq.length) {
      ret += seq.substring(seqi, seqi+lenOut).length;
      seqi += lenOut;
    } else {
      var s = seq.substring(seqi);
      seqi = lenOut - s.length;
      ret += (s + seq.substring(0, seqi)).length;
    }
    n -= lenOut;
  }
}


--- Optimized code ---
optimization_id = 1
source_position = 990
kind = OPTIMIZED_FUNCTION
name = fastaRepeat
stack_slots = 18
compiler = crankshaft
Instructions (size = 1178)
0x257143d0a0     0  55             push rbp
0x257143d0a1     1  4889e5         REX.W movq rbp,rsp
0x257143d0a4     4  56             push rsi
0x257143d0a5     5  57             push rdi
0x257143d0a6     6  4881ec90000000 REX.W subq rsp,0x90
0x257143d0ad    13  488b45f8       REX.W movq rax,[rbp-0x8]
0x257143d0b1    17  488945d0       REX.W movq [rbp-0x30],rax
0x257143d0b5    21  488bf0         REX.W movq rsi,rax
0x257143d0b8    24  493ba540090000 REX.W cmpq rsp,[r13+0x940]
0x257143d0bf    31  7305           jnc 38  (0x257143d0c6)
0x257143d0c1    33  e85a97ffff     call StackCheck  (0x2571436820)    ;; code: BUILTIN
0x257143d0c6    38  e933000000     jmp 94  (0x257143d0fe)
0x257143d0cb    43  4883ec78       REX.W subq rsp,0x78
0x257143d0cf    47  488b75f8       REX.W movq rsi,[rbp-0x8]
0x257143d0d3    51  488b45e8       REX.W movq rax,[rbp-0x18]
0x257143d0d7    55  a801           test al,0x1
0x257143d0d9    57  0f8598020000   jnz 727  (0x257143d377)
0x257143d0df    63  48c1e820       REX.W shrq rax, 32
0x257143d0e3    67  4c8b4520       REX.W movq r8,[rbp+0x20]
0x257143d0e7    71  488bd6         REX.W movq rdx,rsi
0x257143d0ea    74  488b7518       REX.W movq rsi,[rbp+0x18]
0x257143d0ee    78  488b4d10       REX.W movq rcx,[rbp+0x10]
0x257143d0f2    82  488bd8         REX.W movq rbx,rax
0x257143d0f5    85  488b45e0       REX.W movq rax,[rbp-0x20]
0x257143d0f9    89  e91c000000     jmp 122  (0x257143d11a)
0x257143d0fe    94  4c8b4520       REX.W movq r8,[rbp+0x20]
0x257143d102    98  488b7518       REX.W movq rsi,[rbp+0x18]
0x257143d106   102  488b4d10       REX.W movq rcx,[rbp+0x10]
0x257143d10a   106  488b55d0       REX.W movq rdx,[rbp-0x30]
0x257143d10e   110  33db           xorl rbx,rbx
0x257143d110   112  48b8000000003c000000 REX.W movq rax,0x3c00000000
0x257143d11a   122  4c8945b8       REX.W movq [rbp-0x48],r8
0x257143d11e   126  48894dc0       REX.W movq [rbp-0x40],rcx
0x257143d122   130  488955c8       REX.W movq [rbp-0x38],rdx
0x257143d126   134  f6c101         testb rcx,0x1             ;; debug: position 1089
0x257143d129   137  0f8459030000   jz 1000  (0x257143d488)
0x257143d12f   143  4c8b51ff       REX.W movq r10,[rcx-0x1]
0x257143d133   147  41f6420b80     testb [r10+0xb],0x80
0x257143d138   152  0f854f030000   jnz 1005  (0x257143d48d)
0x257143d13e   158  4c8bce         REX.W movq r9,rsi         ;; debug: position 1221
0x257143d141   161  4c894db0       REX.W movq [rbp-0x50],r9    ;; debug: position 1040
0x257143d145   165  48899d70ffffff REX.W movq [rbp-0x90],rbx
0x257143d14c   172  4d8bd9         REX.W movq r11,r9
0x257143d14f   175  41f6c301       testb r11,0x1
0x257143d153   179  0f8566020000   jnz 799  (0x257143d3bf)
0x257143d159   185  49c1eb20       REX.W shrq r11, 32
0x257143d15d   189  4c895d98       REX.W movq [rbp-0x68],r11
0x257143d161   193  4183fb00       cmpl r11,0x0
0x257143d165   197  0f8efb010000   jle 710  (0x257143d366)
0x257143d16b   203  493ba540090000 REX.W cmpq rsp,[r13+0x940]
0x257143d172   210  0f827d020000   jc 853  (0x257143d3f5)
0x257143d178   216  498bf1         REX.W movq rsi,r9
0x257143d17b   219  40f6c601       testb rsi,0x1             ;; debug: position 1055
0x257143d17f   223  0f850d030000   jnz 1010  (0x257143d492)
0x257143d185   229  488bf8         REX.W movq rdi,rax
0x257143d188   232  40f6c701       testb rdi,0x1
0x257143d18c   236  0f8505030000   jnz 1015  (0x257143d497)
0x257143d192   242  483bf7         REX.W cmpq rsi,rdi
0x257143d195   245  0f8c08000000   jl 259  (0x257143d1a3)
0x257143d19b   251  4c8be0         REX.W movq r12,rax
0x257143d19e   254  e903000000     jmp 262  (0x257143d1a6)
0x257143d1a3   259  4d8be1         REX.W movq r12,r9
0x257143d1a6   262  4c8965a8       REX.W movq [rbp-0x58],r12    ;; debug: position 1098
0x257143d1aa   266  4d89e6         REX.W movq r14,r12
0x257143d1ad   269  41f6c601       testb r14,0x1             ;; debug: position 1089
0x257143d1b1   273  0f8583020000   jnz 922  (0x257143d43a)
0x257143d1b7   279  49c1ee20       REX.W shrq r14, 32
0x257143d1bb   283  4c8975a0       REX.W movq [rbp-0x60],r14
0x257143d1bf   287  488bc3         REX.W movq rax,rbx
0x257143d1c2   290  4103c6         addl rax,r14
0x257143d1c5   293  0f80d1020000   jo 1020  (0x257143d49c)
0x257143d1cb   299  48898560ffffff REX.W movq [rbp-0xa0],rax
0x257143d1d2   306  8b7113         movl rsi,[rcx+0x13]
0x257143d1d5   309  3bc6           cmpl rax,rsi
0x257143d1d7   311  0f8ce6000000   jl 547  (0x257143d2c3)
0x257143d1dd   317  48bf49deec97b5250000 REX.W movq rdi,0x25b597ecde49    ;; debug: position 1221
                                                             ;; object: 0x25b597ecde49 <JS Function substring (SharedFunctionInfo 0x25b597e5fb41)>
0x257143d1e7   327  488b772f       REX.W movq rsi,[rdi+0x2f]
0x257143d1eb   331  8bc3           movl rax,rbx
0x257143d1ed   333  48c1e020       REX.W shlq rax, 32
0x257143d1f1   337  51             push rcx
0x257143d1f2   338  50             push rax
0x257143d1f3   339  48bf49deec97b5250000 REX.W movq rdi,0x25b597ecde49    ;; object: 0x25b597ecde49 <JS Function substring (SharedFunctionInfo 0x25b597e5fb41)>
0x257143d1fd   349  b801000000     movl rax,0x1
0x257143d202   354  bb02000000     movl rbx,0x2
0x257143d207   359  e874c8fcff     call ArgumentsAdaptorTrampoline  (0x2571409a80)    ;; code: BUILTIN
0x257143d20c   364  48894590       REX.W movq [rbp-0x70],rax
0x257143d210   368  a801           test al,0x1
0x257143d212   370  0f8489020000   jz 1025  (0x257143d4a1)
0x257143d218   376  4c8b50ff       REX.W movq r10,[rax-0x1]
0x257143d21c   380  41f6420b80     testb [r10+0xb],0x80
0x257143d221   385  0f857f020000   jnz 1030  (0x257143d4a6)
0x257143d227   391  8b5813         movl rbx,[rax+0x13]
0x257143d22a   394  488b55a0       REX.W movq rdx,[rbp-0x60]
0x257143d22e   398  2bd3           subl rdx,rbx              ;; debug: position 1258
0x257143d230   400  0f8075020000   jo 1035  (0x257143d4ab)
0x257143d236   406  48895588       REX.W movq [rbp-0x78],rdx
0x257143d23a   410  48b9b1f6ee97b5250000 REX.W movq rcx,0x25b597eef6b1    ;; object: 0x25b597eef6b1 PropertyCell for 295020 (data, dictionary_index: 198, attrs: [WE_])
0x257143d244   420  8b5913         movl rbx,[rcx+0x13]
0x257143d247   423  48895d80       REX.W movq [rbp-0x80],rbx
0x257143d24b   427  8bca           movl rcx,rdx              ;; debug: position 1292
0x257143d24d   429  48c1e120       REX.W shlq rcx, 32
0x257143d251   433  ff75c0         push [rbp-0x40]
0x257143d254   436  6a00           push 0x0
0x257143d256   438  51             push rcx
0x257143d257   439  48bf49deec97b5250000 REX.W movq rdi,0x25b597ecde49    ;; debug: position 1221
                                                             ;; object: 0x25b597ecde49 <JS Function substring (SharedFunctionInfo 0x25b597e5fb41)>
0x257143d261   449  488b772f       REX.W movq rsi,[rdi+0x2f]    ;; debug: position 1292
0x257143d265   453  ff5717         call [rdi+0x17]
0x257143d268   456  48898578ffffff REX.W movq [rbp-0x88],rax
0x257143d26f   463  488bd8         REX.W movq rbx,rax
0x257143d272   466  f6c301         testb rbx,0x1             ;; debug: position 1286
0x257143d275   469  0f8435020000   jz 1040  (0x257143d4b0)
0x257143d27b   475  4c8b53ff       REX.W movq r10,[rbx-0x1]
0x257143d27f   479  41f6420b80     testb [r10+0xb],0x80
0x257143d284   484  0f852b020000   jnz 1045  (0x257143d4b5)
0x257143d28a   490  488b75c8       REX.W movq rsi,[rbp-0x38]
0x257143d28e   494  488b5590       REX.W movq rdx,[rbp-0x70]
0x257143d292   498  488bc3         REX.W movq rax,rbx
0x257143d295   501  e826faffff     call 0x257143ccc0         ;; code: STUB, StringAddStub, minor: 0
0x257143d29a   506  8b4013         movl rax,[rax+0x13]
0x257143d29d   509  034580         addl rax,[rbp-0x80]       ;; debug: position 1281
0x257143d2a0   512  0f8014020000   jo 1050  (0x257143d4ba)
0x257143d2a6   518  8bd8           movl rbx,rax
0x257143d2a8   520  48c1e320       REX.W shlq rbx, 32
0x257143d2ac   524  48b9b1f6ee97b5250000 REX.W movq rcx,0x25b597eef6b1    ;; debug: position 1258
                                                             ;; object: 0x25b597eef6b1 PropertyCell for 295020 (data, dictionary_index: 198, attrs: [WE_])
0x257143d2b6   534  4889590f       REX.W movq [rcx+0xf],rbx    ;; debug: position 1281
0x257143d2ba   538  488b4588       REX.W movq rax,[rbp-0x78]
0x257143d2be   542  e977000000     jmp 666  (0x257143d33a)
0x257143d2c3   547  48b9b1f6ee97b5250000 REX.W movq rcx,0x25b597eef6b1    ;; debug: position 1258
                                                             ;; object: 0x25b597eef6b1 PropertyCell for 295020 (data, dictionary_index: 198, attrs: [WE_])
0x257143d2cd   557  8b5113         movl rdx,[rcx+0x13]       ;; debug: position 1089
0x257143d2d0   560  48899568ffffff REX.W movq [rbp-0x98],rdx
0x257143d2d7   567  8bcb           movl rcx,rbx              ;; debug: position 1151
0x257143d2d9   569  48c1e120       REX.W shlq rcx, 32
0x257143d2dd   573  8bf0           movl rsi,rax
0x257143d2df   575  48c1e620       REX.W shlq rsi, 32
0x257143d2e3   579  ff75c0         push [rbp-0x40]
0x257143d2e6   582  51             push rcx
0x257143d2e7   583  56             push rsi
0x257143d2e8   584  48bf49deec97b5250000 REX.W movq rdi,0x25b597ecde49    ;; debug: position 1221
                                                             ;; object: 0x25b597ecde49 <JS Function substring (SharedFunctionInfo 0x25b597e5fb41)>
0x257143d2f2   594  488b772f       REX.W movq rsi,[rdi+0x2f]    ;; debug: position 1151
0x257143d2f6   598  ff5717         call [rdi+0x17]
0x257143d2f9   601  a801           test al,0x1
0x257143d2fb   603  0f84be010000   jz 1055  (0x257143d4bf)
0x257143d301   609  4c8b50ff       REX.W movq r10,[rax-0x1]
0x257143d305   613  41f6420b80     testb [r10+0xb],0x80
0x257143d30a   618  0f85b4010000   jnz 1060  (0x257143d4c4)
0x257143d310   624  8b5813         movl rbx,[rax+0x13]
0x257143d313   627  039d68ffffff   addl rbx,[rbp-0x98]       ;; debug: position 1125
0x257143d319   633  0f80aa010000   jo 1065  (0x257143d4c9)
0x257143d31f   639  8bc3           movl rax,rbx
0x257143d321   641  48c1e020       REX.W shlq rax, 32
0x257143d325   645  48b9b1f6ee97b5250000 REX.W movq rcx,0x25b597eef6b1    ;; debug: position 1258
                                                             ;; object: 0x25b597eef6b1 PropertyCell for 295020 (data, dictionary_index: 198, attrs: [WE_])
0x257143d32f   655  4889410f       REX.W movq [rcx+0xf],rax    ;; debug: position 1125
0x257143d333   659  488b8560ffffff REX.W movq rax,[rbp-0xa0]    ;; debug: position 1281
0x257143d33a   666  488b5d98       REX.W movq rbx,[rbp-0x68]
0x257143d33e   670  2b5da0         subl rbx,[rbp-0x60]       ;; debug: position 1333
0x257143d341   673  0f8087010000   jo 1070  (0x257143d4ce)
0x257143d347   679  448bcb         movl r9,rbx               ;; debug: position 1040
0x257143d34a   682  49c1e120       REX.W shlq r9, 32
0x257143d34e   686  488bd8         REX.W movq rbx,rax        ;; debug: position 1333
0x257143d351   689  488b45a8       REX.W movq rax,[rbp-0x58]
0x257143d355   693  4c8b45b8       REX.W movq r8,[rbp-0x48]
0x257143d359   697  488b4dc0       REX.W movq rcx,[rbp-0x40]
0x257143d35d   701  488b55c8       REX.W movq rdx,[rbp-0x38]
0x257143d361   705  e9dbfdffff     jmp 161  (0x257143d141)
0x257143d366   710  48b88941e097b5250000 REX.W movq rax,0x25b597e04189    ;; object: 0x25b597e04189 <undefined>
0x257143d370   720  488be5         REX.W movq rsp,rbp
0x257143d373   723  5d             pop rbp
0x257143d374   724  c21800         ret 0x18
0x257143d377   727  4d8b5508       REX.W movq r10,[r13+0x8]
0x257143d37b   731  4c3950ff       REX.W cmpq [rax-0x1],r10
0x257143d37f   735  0f854e010000   jnz 1075  (0x257143d4d3)
0x257143d385   741  f20f104007     movsd xmm0,[rax+0x7]
0x257143d38a   746  f20f2cc0       cvttsd2sil rax,xmm0
0x257143d38e   750  0f57c9         xorps xmm1,xmm1
0x257143d391   753  f20f2ac8       cvtsi2sd xmm1,rax
0x257143d395   757  660f2ec1       ucomisd xmm0,xmm1
0x257143d399   761  0f8534010000   jnz 1075  (0x257143d4d3)
0x257143d39f   767  0f8a2e010000   jpe 1075  (0x257143d4d3)
0x257143d3a5   773  85c0           testl rax,rax
0x257143d3a7   775  0f8536fdffff   jnz 67  (0x257143d0e3)
0x257143d3ad   781  660f50c0       movmskpd rax,xmm0
0x257143d3b1   785  83e001         andl rax,0x1
0x257143d3b4   788  0f8519010000   jnz 1075  (0x257143d4d3)
0x257143d3ba   794  e924fdffff     jmp 67  (0x257143d0e3)
0x257143d3bf   799  4d8b5508       REX.W movq r10,[r13+0x8]    ;; debug: position 1040
0x257143d3c3   803  4d3953ff       REX.W cmpq [r11-0x1],r10
0x257143d3c7   807  0f850b010000   jnz 1080  (0x257143d4d8)
0x257143d3cd   813  f2410f104307   movsd xmm0,[r11+0x7]
0x257143d3d3   819  f2440f2cd8     cvttsd2sil r11,xmm0
0x257143d3d8   824  0f57c9         xorps xmm1,xmm1
0x257143d3db   827  f2410f2acb     cvtsi2sd xmm1,r11
0x257143d3e0   832  660f2ec1       ucomisd xmm0,xmm1
0x257143d3e4   836  0f85ee000000   jnz 1080  (0x257143d4d8)
0x257143d3ea   842  0f8ae8000000   jpe 1080  (0x257143d4d8)
0x257143d3f0   848  e968fdffff     jmp 189  (0x257143d15d)
0x257143d3f5   853  50             push rax
0x257143d3f6   854  51             push rcx
0x257143d3f7   855  52             push rdx
0x257143d3f8   856  53             push rbx
0x257143d3f9   857  56             push rsi
0x257143d3fa   858  57             push rdi
0x257143d3fb   859  4150           push r8
0x257143d3fd   861  4151           push r9
0x257143d3ff   863  4153           push r11
0x257143d401   865  4154           push r12
0x257143d403   867  4156           push r14
0x257143d405   869  4157           push r15
0x257143d407   871  488d6424e0     REX.W leaq rsp,[rsp-0x20]
0x257143d40c   876  488b75f8       REX.W movq rsi,[rbp-0x8]
0x257143d410   880  33c0           xorl rax,rax
0x257143d412   882  498d9d686b87fd REX.W leaq rbx,[r13-0x2789498]
0x257143d419   889  e8628efcff     call 0x2571406280         ;; code: STUB, CEntryStub, minor: 1
0x257143d41e   894  488d642420     REX.W leaq rsp,[rsp+0x20]
0x257143d423   899  415f           pop r15
0x257143d425   901  415e           pop r14
0x257143d427   903  415c           pop r12
0x257143d429   905  415b           pop r11
0x257143d42b   907  4159           pop r9
0x257143d42d   909  4158           pop r8
0x257143d42f   911  5f             pop rdi
0x257143d430   912  5e             pop rsi
0x257143d431   913  5b             pop rbx
0x257143d432   914  5a             pop rdx
0x257143d433   915  59             pop rcx
0x257143d434   916  58             pop rax
0x257143d435   917  e93efdffff     jmp 216  (0x257143d178)
0x257143d43a   922  4d8b5508       REX.W movq r10,[r13+0x8]    ;; debug: position 1089
0x257143d43e   926  4d3956ff       REX.W cmpq [r14-0x1],r10
0x257143d442   930  0f8595000000   jnz 1085  (0x257143d4dd)
0x257143d448   936  f2410f104607   movsd xmm0,[r14+0x7]
0x257143d44e   942  f2440f2cf0     cvttsd2sil r14,xmm0
0x257143d453   947  0f57c9         xorps xmm1,xmm1
0x257143d456   950  f2410f2ace     cvtsi2sd xmm1,r14
0x257143d45b   955  660f2ec1       ucomisd xmm0,xmm1
0x257143d45f   959  0f8578000000   jnz 1085  (0x257143d4dd)
0x257143d465   965  0f8a72000000   jpe 1085  (0x257143d4dd)
0x257143d46b   971  4585f6         testl r14,r14
0x257143d46e   974  0f8547fdffff   jnz 283  (0x257143d1bb)
0x257143d474   980  66440f50f0     movmskpd r14,xmm0
0x257143d479   985  4183e601       andl r14,0x1
0x257143d47d   989  0f855a000000   jnz 1085  (0x257143d4dd)
0x257143d483   995  e933fdffff     jmp 283  (0x257143d1bb)
0x257143d488  1000  e8878bccff     call 0x2571106014         ;; deoptimization bailout 2
0x257143d48d  1005  e88c8bccff     call 0x257110601e         ;; deoptimization bailout 3
0x257143d492  1010  e89b8bccff     call 0x2571106032         ;; deoptimization bailout 5
0x257143d497  1015  e8a08bccff     call 0x257110603c         ;; deoptimization bailout 6
0x257143d49c  1020  e8a58bccff     call 0x2571106046         ;; deoptimization bailout 7
0x257143d4a1  1025  e8b48bccff     call 0x257110605a         ;; deoptimization bailout 9
0x257143d4a6  1030  e8b98bccff     call 0x2571106064         ;; deoptimization bailout 10
0x257143d4ab  1035  e8be8bccff     call 0x257110606e         ;; deoptimization bailout 11
0x257143d4b0  1040  e8cd8bccff     call 0x2571106082         ;; deoptimization bailout 13
0x257143d4b5  1045  e8d28bccff     call 0x257110608c         ;; deoptimization bailout 14
0x257143d4ba  1050  e8e18bccff     call 0x25711060a0         ;; deoptimization bailout 16
0x257143d4bf  1055  e8f08bccff     call 0x25711060b4         ;; deoptimization bailout 18
0x257143d4c4  1060  e8f58bccff     call 0x25711060be         ;; deoptimization bailout 19
0x257143d4c9  1065  e8fa8bccff     call 0x25711060c8         ;; deoptimization bailout 20
0x257143d4ce  1070  e8ff8bccff     call 0x25711060d2         ;; deoptimization bailout 21
0x257143d4d3  1075  e8048cccff     call 0x25711060dc         ;; deoptimization bailout 22
0x257143d4d8  1080  e8098cccff     call 0x25711060e6         ;; deoptimization bailout 23
0x257143d4dd  1085  e80e8cccff     call 0x25711060f0         ;; deoptimization bailout 24
0x257143d4e2  1090  6690           nop

Inlined functions (count = 0)

Deoptimization Input Data (deopt points = 25)
 index  ast id    argc     pc
     0       3       0     38
     1      38       0     -1
     2      36       0     -1
     3      36       0     -1
     4      39       0    216
     5      39       0     -1
     6      39       0     -1
     7      52       0     -1
     8     215       0    368
     9     215       0     -1
    10     215       0     -1
    11     215       0     -1
    12     315       0    466
    13     315       0     -1
    14     315       0     -1
    15     315       0    506
    16     315       0     -1
    17     155       0    601
    18     155       0     -1
    19     155       0     -1
    20     155       0     -1
    21      74       0     -1
    22      36       0     -1
    23      36       0     -1
    24      52       0     -1

Safepoints (size = 86)
0x257143d0c6    38  000000000000001000 (sp -> fp)       0
0x257143d20c   364  000000000111110000 (sp -> fp)       8
0x257143d268   456  000000100111110000 (sp -> fp)      12
0x257143d29a   506  000100100111110000 (sp -> fp)      15
0x257143d2f9   601  000000000111110000 (sp -> fp)      17
0x257143d41e   894  000000000011110000 | rax | rcx | rdx | r8 | r9 (sp -> fp)       4

RelocInfo (size = 199)
0x257143d0c2  code target (BUILTIN)  (0x2571436820)
0x257143d126  position  (1089)
0x257143d13e  position  (1221)
0x257143d141  position  (1040)
0x257143d17b  position  (1055)
0x257143d1a6  position  (1098)
0x257143d1ad  position  (1089)
0x257143d1dd  position  (1221)
0x257143d1df  embedded object  (0x25b597ecde49 <JS Function substring (SharedFunctionInfo 0x25b597e5fb41)>)
0x257143d1f5  embedded object  (0x25b597ecde49 <JS Function substring (SharedFunctionInfo 0x25b597e5fb41)>)
0x257143d208  code target (BUILTIN)  (0x2571409a80)
0x257143d22e  position  (1258)
0x257143d23c  embedded object  (0x25b597eef6b1 PropertyCell for 295020 (data, dictionary_index: 198, attrs: [WE_]))
0x257143d24b  position  (1292)
0x257143d257  position  (1221)
0x257143d259  embedded object  (0x25b597ecde49 <JS Function substring (SharedFunctionInfo 0x25b597e5fb41)>)
0x257143d261  position  (1292)
0x257143d272  position  (1286)
0x257143d296  code target (STUB)  (0x257143ccc0)
0x257143d29d  position  (1281)
0x257143d2ac  position  (1258)
0x257143d2ae  embedded object  (0x25b597eef6b1 PropertyCell for 295020 (data, dictionary_index: 198, attrs: [WE_]))
0x257143d2b6  position  (1281)
0x257143d2c3  position  (1258)
0x257143d2c5  embedded object  (0x25b597eef6b1 PropertyCell for 295020 (data, dictionary_index: 198, attrs: [WE_]))
0x257143d2cd  position  (1089)
0x257143d2d7  position  (1151)
0x257143d2e8  position  (1221)
0x257143d2ea  embedded object  (0x25b597ecde49 <JS Function substring (SharedFunctionInfo 0x25b597e5fb41)>)
0x257143d2f2  position  (1151)
0x257143d313  position  (1125)
0x257143d325  position  (1258)
0x257143d327  embedded object  (0x25b597eef6b1 PropertyCell for 295020 (data, dictionary_index: 198, attrs: [WE_]))
0x257143d32f  position  (1125)
0x257143d333  position  (1281)
0x257143d33e  position  (1333)
0x257143d347  position  (1040)
0x257143d34e  position  (1333)
0x257143d368  embedded object  (0x25b597e04189 <undefined>)
0x257143d3bf  position  (1040)
0x257143d41a  code target (STUB)  (0x2571406280)
0x257143d43a  position  (1089)
0x257143d489  runtime entry  (deoptimization bailout 2)
0x257143d48e  runtime entry  (deoptimization bailout 3)
0x257143d493  runtime entry  (deoptimization bailout 5)
0x257143d498  runtime entry  (deoptimization bailout 6)
0x257143d49d  runtime entry  (deoptimization bailout 7)
0x257143d4a2  runtime entry  (deoptimization bailout 9)
0x257143d4a7  runtime entry  (deoptimization bailout 10)
0x257143d4ac  runtime entry  (deoptimization bailout 11)
0x257143d4b1  runtime entry  (deoptimization bailout 13)
0x257143d4b6  runtime entry  (deoptimization bailout 14)
0x257143d4bb  runtime entry  (deoptimization bailout 16)
0x257143d4c0  runtime entry  (deoptimization bailout 18)
0x257143d4c5  runtime entry  (deoptimization bailout 19)
0x257143d4ca  runtime entry  (deoptimization bailout 20)
0x257143d4cf  runtime entry  (deoptimization bailout 21)
0x257143d4d4  runtime entry  (deoptimization bailout 22)
0x257143d4d9  runtime entry  (deoptimization bailout 23)
0x257143d4de  runtime entry  (deoptimization bailout 24)

--- End code ---
--- Raw source ---
(V,W){
if((%IS_VAR(this)===null)||(this===(void 0)))throw MakeTypeError(15,"String.prototype.subString");
var K=((typeof(%IS_VAR(this))==='string')?this:$nonStringToString(this));
var ax=K.length;
var ay=(%_IsSmi(%IS_VAR(V))?V:%NumberToInteger(o(V)));
if(ay<0){
ay=0;
}else if(ay>ax){
ay=ax;
}
var az=ax;
if(!(W===(void 0))){
az=(%_IsSmi(%IS_VAR(W))?W:%NumberToInteger(o(W)));
if(az>ax){
az=ax;
}else{
if(az<0)az=0;
if(ay>az){
var aK=az;
az=ay;
ay=aK;
}
}
}
return %_SubString(K,ay,az);
}


--- Optimized code ---
optimization_id = 0
source_position = 10317
kind = OPTIMIZED_FUNCTION
name = substring
stack_slots = 4
compiler = crankshaft
Instructions (size = 1183)
0x257143d5a0     0  55             push rbp
0x257143d5a1     1  4889e5         REX.W movq rbp,rsp
0x257143d5a4     4  56             push rsi
0x257143d5a5     5  57             push rdi
0x257143d5a6     6  4883ec20       REX.W subq rsp,0x20
0x257143d5aa    10  488b45f8       REX.W movq rax,[rbp-0x8]
0x257143d5ae    14  488945e8       REX.W movq [rbp-0x18],rax
0x257143d5b2    18  488bf0         REX.W movq rsi,rax
0x257143d5b5    21  493ba540090000 REX.W cmpq rsp,[r13+0x940]
0x257143d5bc    28  7305           jnc 35  (0x257143d5c3)
0x257143d5be    30  e85d92ffff     call StackCheck  (0x2571436820)    ;; code: BUILTIN
0x257143d5c3    35  488b4520       REX.W movq rax,[rbp+0x20]    ;; debug: position 10341
0x257143d5c7    39  49ba0141e097b5250000 REX.W movq r10,0x25b597e04101    ;; object: 0x25b597e04101 <null>
0x257143d5d1    49  493bc2         REX.W cmpq rax,r10
0x257143d5d4    52  0f8440020000   jz 634  (0x257143d81a)
0x257143d5da    58  49ba8941e097b5250000 REX.W movq r10,0x25b597e04189    ;; debug: position 10356
                                                             ;; object: 0x25b597e04189 <undefined>
0x257143d5e4    68  493bc2         REX.W cmpq rax,r10
0x257143d5e7    71  0f842d020000   jz 634  (0x257143d81a)
0x257143d5ed    77  488bd8         REX.W movq rbx,rax        ;; debug: position 10452
0x257143d5f0    80  f6c301         testb rbx,0x1
0x257143d5f3    83  740e           jz 99  (0x257143d603)
0x257143d5f5    85  488b5bff       REX.W movq rbx,[rbx-0x1]
0x257143d5f9    89  807b0b80       cmpb [rbx+0xb],0x80
0x257143d5fd    93  0f8226000000   jc 137  (0x257143d629)
0x257143d603    99  49ba802aef97b5250000 REX.W movq r10,0x25b597ef2a80    ;; debug: position 10470
                                                             ;; property cell
0x257143d60d   109  4d8b12         REX.W movq r10,[r10]
0x257143d610   112  4152           push r10
0x257143d612   114  50             push rax
0x257143d613   115  48bf4915ed97b5250000 REX.W movq rdi,0x25b597ed1549    ;; object: 0x25b597ed1549 <JS Function NonStringToString (SharedFunctionInfo 0x25b597e4f599)>
0x257143d61d   125  488b772f       REX.W movq rsi,[rdi+0x2f]
0x257143d621   129  ff5717         call [rdi+0x17]
0x257143d624   132  e904000000     jmp 141  (0x257143d62d)
0x257143d629   137  488b4520       REX.W movq rax,[rbp+0x20]
0x257143d62d   141  488945e0       REX.W movq [rbp-0x20],rax
0x257143d631   145  a801           test al,0x1
0x257143d633   147  0f847a030000   jz 1043  (0x257143d9b3)
0x257143d639   153  4c8b50ff       REX.W movq r10,[rax-0x1]
0x257143d63d   157  41f6420b80     testb [r10+0xb],0x80
0x257143d642   162  0f8570030000   jnz 1048  (0x257143d9b8)
0x257143d648   168  8b5813         movl rbx,[rax+0x13]
0x257143d64b   171  48895dd8       REX.W movq [rbp-0x28],rbx
0x257143d64f   175  488b5518       REX.W movq rdx,[rbp+0x18]
0x257143d653   179  f6c201         testb rdx,0x1
0x257143d656   182  0f846a000000   jz 294  (0x257143d6c6)
0x257143d65c   188  488b4de8       REX.W movq rcx,[rbp-0x18]    ;; debug: position 10561
0x257143d660   192  488bb987000000 REX.W movq rdi,[rcx+0x87]
0x257143d667   199  49ba8941e097b5250000 REX.W movq r10,0x25b597e04189    ;; object: 0x25b597e04189 <undefined>
0x257143d671   209  4152           push r10
0x257143d673   211  52             push rdx
0x257143d674   212  488bf1         REX.W movq rsi,rcx
0x257143d677   215  48bbe104ef97b5250000 REX.W movq rbx,0x25b597ef04e1    ;; object: 0x25b597ef04e1 <FixedArray[18]>
0x257143d681   225  48ba000000000e000000 REX.W movq rdx,0xe00000000
0x257143d68b   235  e8b04cfdff     call 0x2571412340         ;; code: CALL_IC, DEFAULT
0x257143d690   240  50             push rax
0x257143d691   241  488b75e8       REX.W movq rsi,[rbp-0x18]
0x257143d695   245  0f1f840000000000 nop
0x257143d69d   253  b801000000     movl rax,0x1
0x257143d6a2   258  498d9de88488fd REX.W leaq rbx,[r13-0x2777b18]
0x257143d6a9   265  e872c5fcff     call 0x2571409c20         ;; code: STUB, CEntryStub, minor: 0
0x257143d6ae   270  488bd8         REX.W movq rbx,rax
0x257143d6b1   273  f6c301         testb rbx,0x1
0x257143d6b4   276  0f85d9010000   jnz 755  (0x257143d893)
0x257143d6ba   282  48c1eb20       REX.W shrq rbx, 32
0x257143d6be   286  488bc3         REX.W movq rax,rbx
0x257143d6c1   289  e910000000     jmp 310  (0x257143d6d6)
0x257143d6c6   294  488b4518       REX.W movq rax,[rbp+0x18]
0x257143d6ca   298  a801           test al,0x1
0x257143d6cc   300  0f8509020000   jnz 827  (0x257143d8db)
0x257143d6d2   306  48c1e820       REX.W shrq rax, 32
0x257143d6d6   310  83f800         cmpl rax,0x0              ;; debug: position 10574
0x257143d6d9   313  0f8c12000000   jl 337  (0x257143d6f1)
0x257143d6df   319  3b45d8         cmpl rax,[rbp-0x28]       ;; debug: position 10596
0x257143d6e2   322  0f8e0b000000   jle 339  (0x257143d6f3)
0x257143d6e8   328  488b45d8       REX.W movq rax,[rbp-0x28]
0x257143d6ec   332  e902000000     jmp 339  (0x257143d6f3)
0x257143d6f1   337  33c0           xorl rax,rax              ;; debug: position 10596
0x257143d6f3   339  488945d0       REX.W movq [rbp-0x30],rax
0x257143d6f7   343  488b5d10       REX.W movq rbx,[rbp+0x10]    ;; debug: position 10628
0x257143d6fb   347  49ba8941e097b5250000 REX.W movq r10,0x25b597e04189    ;; object: 0x25b597e04189 <undefined>
0x257143d705   357  493bda         REX.W cmpq rbx,r10
0x257143d708   360  0f84e4000000   jz 594  (0x257143d7f2)
0x257143d70e   366  f6c301         testb rbx,0x1
0x257143d711   369  0f846a000000   jz 481  (0x257143d781)
0x257143d717   375  488b55e8       REX.W movq rdx,[rbp-0x18]    ;; debug: position 10686
0x257143d71b   379  488bba87000000 REX.W movq rdi,[rdx+0x87]
0x257143d722   386  49ba8941e097b5250000 REX.W movq r10,0x25b597e04189    ;; object: 0x25b597e04189 <undefined>
0x257143d72c   396  4152           push r10
0x257143d72e   398  53             push rbx
0x257143d72f   399  488bf2         REX.W movq rsi,rdx
0x257143d732   402  48bbe104ef97b5250000 REX.W movq rbx,0x25b597ef04e1    ;; object: 0x25b597ef04e1 <FixedArray[18]>
0x257143d73c   412  48ba0000000010000000 REX.W movq rdx,0x1000000000
0x257143d746   422  e8f54bfdff     call 0x2571412340         ;; code: CALL_IC, DEFAULT
0x257143d74b   427  50             push rax
0x257143d74c   428  488b75e8       REX.W movq rsi,[rbp-0x18]
0x257143d750   432  0f1f840000000000 nop
0x257143d758   440  b801000000     movl rax,0x1
0x257143d75d   445  498d9de88488fd REX.W leaq rbx,[r13-0x2777b18]
0x257143d764   452  e8b7c4fcff     call 0x2571409c20         ;; code: STUB, CEntryStub, minor: 0
0x257143d769   457  488bd8         REX.W movq rbx,rax
0x257143d76c   460  f6c301         testb rbx,0x1
0x257143d76f   463  0f85ae010000   jnz 899  (0x257143d923)
0x257143d775   469  48c1eb20       REX.W shrq rbx, 32
0x257143d779   473  488bc3         REX.W movq rax,rbx
0x257143d77c   476  e910000000     jmp 497  (0x257143d791)
0x257143d781   481  488b4510       REX.W movq rax,[rbp+0x10]
0x257143d785   485  a801           test al,0x1
0x257143d787   487  0f85de010000   jnz 971  (0x257143d96b)
0x257143d78d   493  48c1e820       REX.W shrq rax, 32
0x257143d791   497  3b45d8         cmpl rax,[rbp-0x28]       ;; debug: position 10699
0x257143d794   500  0f8f3f000000   jg 569  (0x257143d7d9)
0x257143d79a   506  83f800         cmpl rax,0x0              ;; debug: position 10724
0x257143d79d   509  0f8d02000000   jge 517  (0x257143d7a5)
0x257143d7a3   515  33c0           xorl rax,rax
0x257143d7a5   517  488b5dd0       REX.W movq rbx,[rbp-0x30]    ;; debug: position 10738
0x257143d7a9   521  3bd8           cmpl rbx,rax
0x257143d7ab   523  0f8f14000000   jg 549  (0x257143d7c5)
0x257143d7b1   529  8bd3           movl rdx,rbx
0x257143d7b3   531  48c1e220       REX.W shlq rdx, 32
0x257143d7b7   535  8bd8           movl rbx,rax
0x257143d7b9   537  48c1e320       REX.W shlq rbx, 32
0x257143d7bd   541  4887da         REX.W xchgq rbx,rdx
0x257143d7c0   544  e90c000000     jmp 561  (0x257143d7d1)
0x257143d7c5   549  8bd3           movl rdx,rbx
0x257143d7c7   551  48c1e220       REX.W shlq rdx, 32
0x257143d7cb   555  8bd8           movl rbx,rax
0x257143d7cd   557  48c1e320       REX.W shlq rbx, 32
0x257143d7d1   561  488bc3         REX.W movq rax,rbx
0x257143d7d4   564  e92c000000     jmp 613  (0x257143d805)
0x257143d7d9   569  488b5dd0       REX.W movq rbx,[rbp-0x30]    ;; debug: position 10699
0x257143d7dd   573  488b45d8       REX.W movq rax,[rbp-0x28]
0x257143d7e1   577  8bd0           movl rdx,rax              ;; debug: position 10738
0x257143d7e3   579  48c1e220       REX.W shlq rdx, 32
0x257143d7e7   583  8bc3           movl rax,rbx
0x257143d7e9   585  48c1e020       REX.W shlq rax, 32
0x257143d7ed   589  e913000000     jmp 613  (0x257143d805)
0x257143d7f2   594  488bd8         REX.W movq rbx,rax        ;; debug: position 10628
0x257143d7f5   597  488b45d8       REX.W movq rax,[rbp-0x28]
0x257143d7f9   601  8bd0           movl rdx,rax              ;; debug: position 10738
0x257143d7fb   603  48c1e220       REX.W shlq rdx, 32
0x257143d7ff   607  8bc3           movl rax,rbx
0x257143d801   609  48c1e020       REX.W shlq rax, 32
0x257143d805   613  ff75e0         push [rbp-0x20]
0x257143d808   616  50             push rax
0x257143d809   617  52             push rdx
0x257143d80a   618  488b75e8       REX.W movq rsi,[rbp-0x18]
0x257143d80e   622  e84d0affff     call 0x257142e260         ;; code: STUB, SubStringStub, minor: 0
0x257143d813   627  488be5         REX.W movq rsp,rbp
0x257143d816   630  5d             pop rbp
0x257143d817   631  c21800         ret 0x18
0x257143d81a   634  49ba902aef97b5250000 REX.W movq r10,0x25b597ef2a90    ;; debug: position 10375
                                                             ;; property cell
0x257143d824   644  4d8b12         REX.W movq r10,[r10]
0x257143d827   647  4152           push r10
0x257143d829   649  49ba000000000f000000 REX.W movq r10,0xf00000000
0x257143d833   659  4152           push r10
0x257143d835   661  49ba2904ef97b5250000 REX.W movq r10,0x25b597ef0429    ;; object: 0x25b597ef0429 <String[26]: String.prototype.subString>
0x257143d83f   671  4152           push r10
0x257143d841   673  48bf8920ed97b5250000 REX.W movq rdi,0x25b597ed2089    ;; object: 0x25b597ed2089 <JS Function MakeTypeError (SharedFunctionInfo 0x25b597e85651)>
0x257143d84b   683  488b772f       REX.W movq rsi,[rdi+0x2f]
0x257143d84f   687  48bf8920ed97b5250000 REX.W movq rdi,0x25b597ed2089    ;; object: 0x25b597ed2089 <JS Function MakeTypeError (SharedFunctionInfo 0x25b597e85651)>
0x257143d859   697  b802000000     movl rax,0x2
0x257143d85e   702  bb04000000     movl rbx,0x4
0x257143d863   707  e818c2fcff     call ArgumentsAdaptorTrampoline  (0x2571409a80)    ;; code: BUILTIN
0x257143d868   712  50             push rax                  ;; debug: position 10369
0x257143d869   713  488b75e8       REX.W movq rsi,[rbp-0x18]
0x257143d86d   717  0f1f840000000000 nop
0x257143d875   725  b801000000     movl rax,0x1
0x257143d87a   730  498d9db85587fd REX.W leaq rbx,[r13-0x278aa48]
0x257143d881   737  e89ac3fcff     call 0x2571409c20         ;; code: STUB, CEntryStub, minor: 0
0x257143d886   742  6666660f1f840000000000 nop
0x257143d891   753  6690           nop
0x257143d893   755  4d8b5508       REX.W movq r10,[r13+0x8]    ;; debug: position 10561
0x257143d897   759  4c3953ff       REX.W cmpq [rbx-0x1],r10
0x257143d89b   763  0f851c010000   jnz 1053  (0x257143d9bd)
0x257143d8a1   769  f20f104307     movsd xmm0,[rbx+0x7]
0x257143d8a6   774  f20f2cd8       cvttsd2sil rbx,xmm0
0x257143d8aa   778  0f57c9         xorps xmm1,xmm1
0x257143d8ad   781  f20f2acb       cvtsi2sd xmm1,rbx
0x257143d8b1   785  660f2ec1       ucomisd xmm0,xmm1
0x257143d8b5   789  0f8502010000   jnz 1053  (0x257143d9bd)
0x257143d8bb   795  0f8afc000000   jpe 1053  (0x257143d9bd)
0x257143d8c1   801  85db           testl rbx,rbx
0x257143d8c3   803  0f85f5fdffff   jnz 286  (0x257143d6be)
0x257143d8c9   809  660f50d8       movmskpd rbx,xmm0
0x257143d8cd   813  83e301         andl rbx,0x1
0x257143d8d0   816  0f85e7000000   jnz 1053  (0x257143d9bd)
0x257143d8d6   822  e9e3fdffff     jmp 286  (0x257143d6be)
0x257143d8db   827  4d8b5508       REX.W movq r10,[r13+0x8]
0x257143d8df   831  4c3950ff       REX.W cmpq [rax-0x1],r10
0x257143d8e3   835  0f85d9000000   jnz 1058  (0x257143d9c2)
0x257143d8e9   841  f20f104007     movsd xmm0,[rax+0x7]
0x257143d8ee   846  f20f2cc0       cvttsd2sil rax,xmm0
0x257143d8f2   850  0f57c9         xorps xmm1,xmm1
0x257143d8f5   853  f20f2ac8       cvtsi2sd xmm1,rax
0x257143d8f9   857  660f2ec1       ucomisd xmm0,xmm1
0x257143d8fd   861  0f85bf000000   jnz 1058  (0x257143d9c2)
0x257143d903   867  0f8ab9000000   jpe 1058  (0x257143d9c2)
0x257143d909   873  85c0           testl rax,rax
0x257143d90b   875  0f85c5fdffff   jnz 310  (0x257143d6d6)
0x257143d911   881  660f50c0       movmskpd rax,xmm0
0x257143d915   885  83e001         andl rax,0x1
0x257143d918   888  0f85a4000000   jnz 1058  (0x257143d9c2)
0x257143d91e   894  e9b3fdffff     jmp 310  (0x257143d6d6)
0x257143d923   899  4d8b5508       REX.W movq r10,[r13+0x8]    ;; debug: position 10686
0x257143d927   903  4c3953ff       REX.W cmpq [rbx-0x1],r10
0x257143d92b   907  0f8596000000   jnz 1063  (0x257143d9c7)
0x257143d931   913  f20f104307     movsd xmm0,[rbx+0x7]
0x257143d936   918  f20f2cd8       cvttsd2sil rbx,xmm0
0x257143d93a   922  0f57c9         xorps xmm1,xmm1
0x257143d93d   925  f20f2acb       cvtsi2sd xmm1,rbx
0x257143d941   929  660f2ec1       ucomisd xmm0,xmm1
0x257143d945   933  0f857c000000   jnz 1063  (0x257143d9c7)
0x257143d94b   939  0f8a76000000   jpe 1063  (0x257143d9c7)
0x257143d951   945  85db           testl rbx,rbx
0x257143d953   947  0f8520feffff   jnz 473  (0x257143d779)
0x257143d959   953  660f50d8       movmskpd rbx,xmm0
0x257143d95d   957  83e301         andl rbx,0x1
0x257143d960   960  0f8561000000   jnz 1063  (0x257143d9c7)
0x257143d966   966  e90efeffff     jmp 473  (0x257143d779)
0x257143d96b   971  4d8b5508       REX.W movq r10,[r13+0x8]
0x257143d96f   975  4c3950ff       REX.W cmpq [rax-0x1],r10
0x257143d973   979  0f8553000000   jnz 1068  (0x257143d9cc)
0x257143d979   985  f20f104007     movsd xmm0,[rax+0x7]
0x257143d97e   990  f20f2cc0       cvttsd2sil rax,xmm0
0x257143d982   994  0f57c9         xorps xmm1,xmm1
0x257143d985   997  f20f2ac8       cvtsi2sd xmm1,rax
0x257143d989  1001  660f2ec1       ucomisd xmm0,xmm1
0x257143d98d  1005  0f8539000000   jnz 1068  (0x257143d9cc)
0x257143d993  1011  0f8a33000000   jpe 1068  (0x257143d9cc)
0x257143d999  1017  85c0           testl rax,rax
0x257143d99b  1019  0f85f0fdffff   jnz 497  (0x257143d791)
0x257143d9a1  1025  660f50c0       movmskpd rax,xmm0
0x257143d9a5  1029  83e001         andl rax,0x1
0x257143d9a8  1032  0f851e000000   jnz 1068  (0x257143d9cc)
0x257143d9ae  1038  e9defdffff     jmp 497  (0x257143d791)
0x257143d9b3  1043  e85c86ccff     call 0x2571106014         ;; deoptimization bailout 2
0x257143d9b8  1048  e86186ccff     call 0x257110601e         ;; deoptimization bailout 3
0x257143d9bd  1053  e8ac86ccff     call 0x257110606e         ;; deoptimization bailout 11
0x257143d9c2  1058  e8b186ccff     call 0x2571106078         ;; deoptimization bailout 12
0x257143d9c7  1063  e8b686ccff     call 0x2571106082         ;; deoptimization bailout 13
0x257143d9cc  1068  e8bb86ccff     call 0x257110608c         ;; deoptimization bailout 14
0x257143d9d1  1073  0f1f00         nop

Inlined functions (count = 0)

Deoptimization Input Data (deopt points = 15)
 index  ast id    argc     pc
     0       3       0     35
     1      94       0    132
     2      74       0     -1
     3      74       0     -1
     4     150       0    240
     5     147       0    270
     6     270       0    427
     7     267       0    457
     8     379       0    627
     9      50       0    712
    10      48       0    742
    11     134       0     -1
    12     134       0     -1
    13     254       0     -1
    14     254       0     -1

Safepoints (size = 107)
0x257143d5c3    35  0001 (sp -> fp)       0
0x257143d624   132  0001 (sp -> fp)       1
0x257143d690   240  0011 (sp -> fp)       4
0x257143d6ae   270  0011 (sp -> fp)       5
0x257143d74b   427  0011 (sp -> fp)       6
0x257143d769   457  0011 (sp -> fp)       7
0x257143d813   627  0001 (sp -> fp)       8
0x257143d868   712  0001 (sp -> fp)       9
0x257143d886   742  0001 (sp -> fp)      10

RelocInfo (size = 131)
0x257143d5bf  code target (BUILTIN)  (0x2571436820)
0x257143d5c3  position  (10341)
0x257143d5c9  embedded object  (0x25b597e04101 <null>)
0x257143d5da  position  (10356)
0x257143d5dc  embedded object  (0x25b597e04189 <undefined>)
0x257143d5ed  position  (10452)
0x257143d603  position  (10470)
0x257143d605  property cell
0x257143d615  embedded object  (0x25b597ed1549 <JS Function NonStringToString (SharedFunctionInfo 0x25b597e4f599)>)
0x257143d65c  position  (10561)
0x257143d669  embedded object  (0x25b597e04189 <undefined>)
0x257143d679  embedded object  (0x25b597ef04e1 <FixedArray[18]>)
0x257143d68c  code target (CALL_IC)  (0x2571412340)
0x257143d6aa  code target (STUB)  (0x2571409c20)
0x257143d6d6  position  (10574)
0x257143d6df  position  (10596)
0x257143d6f1  position  (10596)
0x257143d6f7  position  (10628)
0x257143d6fd  embedded object  (0x25b597e04189 <undefined>)
0x257143d717  position  (10686)
0x257143d724  embedded object  (0x25b597e04189 <undefined>)
0x257143d734  embedded object  (0x25b597ef04e1 <FixedArray[18]>)
0x257143d747  code target (CALL_IC)  (0x2571412340)
0x257143d765  code target (STUB)  (0x2571409c20)
0x257143d791  position  (10699)
0x257143d79a  position  (10724)
0x257143d7a5  position  (10738)
0x257143d7d9  position  (10699)
0x257143d7e1  position  (10738)
0x257143d7f2  position  (10628)
0x257143d7f9  position  (10738)
0x257143d80f  code target (STUB)  (0x257142e260)
0x257143d81a  position  (10375)
0x257143d81c  property cell
0x257143d837  embedded object  (0x25b597ef0429 <String[26]: String.prototype.subString>)
0x257143d843  embedded object  (0x25b597ed2089 <JS Function MakeTypeError (SharedFunctionInfo 0x25b597e85651)>)
0x257143d851  embedded object  (0x25b597ed2089 <JS Function MakeTypeError (SharedFunctionInfo 0x25b597e85651)>)
0x257143d864  code target (BUILTIN)  (0x2571409a80)
0x257143d868  position  (10369)
0x257143d882  code target (STUB)  (0x2571409c20)
0x257143d893  position  (10561)
0x257143d923  position  (10686)
0x257143d9b4  runtime entry  (deoptimization bailout 2)
0x257143d9b9  runtime entry  (deoptimization bailout 3)
0x257143d9be  runtime entry  (deoptimization bailout 11)
0x257143d9c3  runtime entry  (deoptimization bailout 12)
0x257143d9c8  runtime entry  (deoptimization bailout 13)
0x257143d9cd  runtime entry  (deoptimization bailout 14)

--- End code ---
--- Raw source ---
(n, table) {
  var line = new Array(60);
  makeCumulative(table);
  while (n>0) {
    if (n<line.length) line = new Array(n);
    for (var i=0; i<line.length; i++) {
      var r = rand(1);
      for (var c in table) {
        if (r < table[c]) {
          line[i] = c;
          break;
        }
      }
    }
    ret += line.join('').length;
    n -= line.length;
  }
}


--- Code ---
source_position = 1370
kind = FUNCTION
name = fastaRandom
compiler = full-codegen
Instructions (size = 1752)
0x257143db60     0  55             push rbp                  ;; debug: position 1370
0x257143db61     1  4889e5         REX.W movq rbp,rsp
0x257143db64     4  56             push rsi
0x257143db65     5  57             push rdi
0x257143db66     6  498b55a8       REX.W movq rdx,[r13-0x58]
0x257143db6a    10  52             push rdx
0x257143db6b    11  52             push rdx
0x257143db6c    12  52             push rdx
0x257143db6d    13  52             push rdx
0x257143db6e    14  52             push rdx
0x257143db6f    15  493ba540090000 REX.W cmpq rsp,[r13+0x940]
0x257143db76    22  7305           jnc 29  (0x257143db7d)
0x257143db78    24  e8a38cffff     call StackCheck  (0x2571436820)    ;; code: BUILTIN
0x257143db7d    29  48b91146e997b5250000 REX.W movq rcx,0x25b597e94611    ;; debug: statement 1385
                                                             ;; debug: position 1400
                                                             ;; object: 0x25b597e94611 <String[5]: Array>
0x257143db87    39  488b5627       REX.W movq rdx,[rsi+0x27]
0x257143db8b    43  48b80000000008000000 REX.W movq rax,0x800000000
0x257143db95    53  e86627feff     call 0x2571420300         ;; code: contextual, LOAD_IC, DEFAULT
0x257143db9a    58  50             push rax
0x257143db9b    59  49ba000000003c000000 REX.W movq r10,0x3c00000000
0x257143dba5    69  4152           push r10
0x257143dba7    71  b801000000     movl rax,0x1              ;; debug: position 1396
0x257143dbac    76  488b7c2408     REX.W movq rdi,[rsp+0x8]
0x257143dbb1    81  48bba131ef97b5250000 REX.W movq rbx,0x25b597ef31a1    ;; object: 0x25b597ef31a1 <FixedArray[42]>
0x257143dbbb    91  48ba0000000005000000 REX.W movq rdx,0x500000000
0x257143dbc5   101  e836a3fdff     call 0x2571417f00         ;; code: constructor, STUB, CallConstructStub, minor: 1
0x257143dbca   106  488945e0       REX.W movq [rbp-0x20],rax    ;; debug: position 1385
0x257143dbce   110  48b901e7ee97b5250000 REX.W movq rcx,0x25b597eee701    ;; debug: statement 1413
                                                             ;; object: 0x25b597eee701 <String[14]: makeCumulative>
0x257143dbd8   120  488b5627       REX.W movq rdx,[rsi+0x27]
0x257143dbdc   124  48b8000000000c000000 REX.W movq rax,0xc00000000
0x257143dbe6   134  e81527feff     call 0x2571420300         ;; code: contextual, LOAD_IC, DEFAULT
0x257143dbeb   139  50             push rax
0x257143dbec   140  49ba8941e097b5250000 REX.W movq r10,0x25b597e04189    ;; object: 0x25b597e04189 <undefined>
0x257143dbf6   150  4152           push r10
0x257143dbf8   152  ff7510         push [rbp+0x10]           ;; debug: position 1428
0x257143dbfb   155  48ba000000000a000000 REX.W movq rdx,0xa00000000    ;; debug: position 1413
0x257143dc05   165  488b7c2410     REX.W movq rdi,[rsp+0x10]
0x257143dc0a   170  e8b146fdff     call 0x25714122c0         ;; code: CALL_IC, DEFAULT
0x257143dc0f   175  488b75f8       REX.W movq rsi,[rbp-0x8]
0x257143dc13   179  4883c408       REX.W addq rsp,0x8
0x257143dc17   183  ff7518         push [rbp+0x18]           ;; debug: statement 1446
                                                             ;; debug: position 1445
0x257143dc1a   186  48b80000000000000000 REX.W movq rax,0x0
0x257143dc24   196  5a             pop rdx
0x257143dc25   197  488bca         REX.W movq rcx,rdx
0x257143dc28   200  480bc8         REX.W orq rcx,rax
0x257143dc2b   203  f6c101         testb rcx,0x1
0x257143dc2e   206  730e           jnc 222  (0x257143dc3e)
0x257143dc30   208  483bd0         REX.W cmpq rdx,rax
0x257143dc33   211  0f8f26000000   jg 255  (0x257143dc5f)
0x257143dc39   217  e998050000     jmp 1654  (0x257143e1d6)
0x257143dc3e   222  e83d20ffff     call 0x257142fc80         ;; code: COMPARE_IC, UNINITIALIZED (id = 52)
0x257143dc43   227  a815           test al,0x15
0x257143dc45   229  eb0f           jmp 246  (0x257143dc56)
0x257143dc47   231  493b45c0       REX.W cmpq rax,[r13-0x40]
0x257143dc4b   235  0f840e000000   jz 255  (0x257143dc5f)
0x257143dc51   241  e980050000     jmp 1654  (0x257143e1d6)
0x257143dc56   246  4885c0         REX.W testq rax,rax
0x257143dc59   249  0f8e77050000   jle 1654  (0x257143e1d6)
0x257143dc5f   255  ff7518         push [rbp+0x18]           ;; debug: statement 1456
                                                             ;; debug: position 1460
0x257143dc62   258  488b45e0       REX.W movq rax,[rbp-0x20]    ;; debug: position 1462
0x257143dc66   262  488bd0         REX.W movq rdx,rax
0x257143dc69   265  48b9712ee997b5250000 REX.W movq rcx,0x25b597e92e71    ;; debug: position 1466
                                                             ;; object: 0x25b597e92e71 <String[6]: length>
0x257143dc73   275  48b8000000000e000000 REX.W movq rax,0xe00000000
0x257143dc7d   285  e87e26feff     call 0x2571420300         ;; code: contextual, LOAD_IC, DEFAULT
0x257143dc82   290  5a             pop rdx
0x257143dc83   291  488bca         REX.W movq rcx,rdx
0x257143dc86   294  480bc8         REX.W orq rcx,rax
0x257143dc89   297  f6c101         testb rcx,0x1
0x257143dc8c   300  730e           jnc 316  (0x257143dc9c)
0x257143dc8e   302  483bd0         REX.W cmpq rdx,rax
0x257143dc91   305  0f8c26000000   jl 349  (0x257143dcbd)
0x257143dc97   311  e969000000     jmp 421  (0x257143dd05)
0x257143dc9c   316  e8ff9efdff     call 0x2571417ba0         ;; code: COMPARE_IC, UNINITIALIZED (id = 67)
0x257143dca1   321  a815           test al,0x15
0x257143dca3   323  eb0f           jmp 340  (0x257143dcb4)
0x257143dca5   325  493b45c0       REX.W cmpq rax,[r13-0x40]
0x257143dca9   329  0f840e000000   jz 349  (0x257143dcbd)
0x257143dcaf   335  e951000000     jmp 421  (0x257143dd05)
0x257143dcb4   340  4885c0         REX.W testq rax,rax
0x257143dcb7   343  0f8d48000000   jge 421  (0x257143dd05)
0x257143dcbd   349  48b91146e997b5250000 REX.W movq rcx,0x25b597e94611    ;; debug: statement 1475
                                                             ;; debug: position 1486
                                                             ;; object: 0x25b597e94611 <String[5]: Array>
0x257143dcc7   359  488b5627       REX.W movq rdx,[rsi+0x27]
0x257143dccb   363  48b80000000008000000 REX.W movq rax,0x800000000
0x257143dcd5   373  e82626feff     call 0x2571420300         ;; code: contextual, LOAD_IC, DEFAULT
0x257143dcda   378  50             push rax
0x257143dcdb   379  ff7518         push [rbp+0x18]           ;; debug: position 1492
0x257143dcde   382  b801000000     movl rax,0x1              ;; debug: position 1482
0x257143dce3   387  488b7c2408     REX.W movq rdi,[rsp+0x8]
0x257143dce8   392  48bba131ef97b5250000 REX.W movq rbx,0x25b597ef31a1    ;; object: 0x25b597ef31a1 <FixedArray[42]>
0x257143dcf2   402  48ba0000000006000000 REX.W movq rdx,0x600000000
0x257143dcfc   412  e8ffa1fdff     call 0x2571417f00         ;; code: constructor, STUB, CallConstructStub, minor: 1
0x257143dd01   417  488945e0       REX.W movq [rbp-0x20],rax    ;; debug: position 1480
0x257143dd05   421  48b80000000000000000 REX.W movq rax,0x0    ;; debug: statement 1500
                                                             ;; debug: statement 1505
0x257143dd0f   431  488945d8       REX.W movq [rbp-0x28],rax
0x257143dd13   435  e922030000     jmp 1242  (0x257143e03a)
0x257143dd18   440  48b991e4ee97b5250000 REX.W movq rcx,0x25b597eee491    ;; debug: statement 1542
                                                             ;; debug: position 1550
                                                             ;; object: 0x25b597eee491 <String[4]: rand>
0x257143dd22   450  488b5627       REX.W movq rdx,[rsi+0x27]
0x257143dd26   454  48b80000000014000000 REX.W movq rax,0x1400000000
0x257143dd30   464  e8cb25feff     call 0x2571420300         ;; code: contextual, LOAD_IC, DEFAULT
0x257143dd35   469  50             push rax
0x257143dd36   470  49ba8941e097b5250000 REX.W movq r10,0x25b597e04189    ;; object: 0x25b597e04189 <undefined>
0x257143dd40   480  4152           push r10
0x257143dd42   482  49ba0000000001000000 REX.W movq r10,0x100000000
0x257143dd4c   492  4152           push r10
0x257143dd4e   494  48ba0000000012000000 REX.W movq rdx,0x1200000000
0x257143dd58   504  488b7c2410     REX.W movq rdi,[rsp+0x10]
0x257143dd5d   509  e85e45fdff     call 0x25714122c0         ;; code: CALL_IC, DEFAULT
0x257143dd62   514  488b75f8       REX.W movq rsi,[rbp-0x8]
0x257143dd66   518  4883c408       REX.W addq rsp,0x8
0x257143dd6a   522  488945d0       REX.W movq [rbp-0x30],rax    ;; debug: position 1542
0x257143dd6e   526  488b4510       REX.W movq rax,[rbp+0x10]    ;; debug: statement 1565
                                                             ;; debug: statement 1579
0x257143dd72   530  493b45a8       REX.W cmpq rax,[r13-0x58]
0x257143dd76   534  0f8458020000   jz 1140  (0x257143dfd4)
0x257143dd7c   540  498b7db8       REX.W movq rdi,[r13-0x48]
0x257143dd80   544  483bc7         REX.W cmpq rax,rdi
0x257143dd83   547  0f844b020000   jz 1140  (0x257143dfd4)
0x257143dd89   553  a801           test al,0x1
0x257143dd8b   555  740a           jz 567  (0x257143dd97)
0x257143dd8d   557  488b48ff       REX.W movq rcx,[rax-0x1]
0x257143dd91   561  80790bb2       cmpb [rcx+0xb],0xb2
0x257143dd95   565  7305           jnc 572  (0x257143dd9c)
0x257143dd97   567  e8a464fdff     call 0x2571414240         ;; code: STUB, ToObjectStub, minor: 0
0x257143dd9c   572  50             push rax
0x257143dd9d   573  488b48ff       REX.W movq rcx,[rax-0x1]
0x257143dda1   577  80790bb3       cmpb [rcx+0xb],0xb3
0x257143dda5   581  0f867b000000   jna 710  (0x257143de26)
0x257143ddab   587  4d8b85b8000000 REX.W movq r8,[r13+0xb8]
0x257143ddb2   594  488bc8         REX.W movq rcx,rax
0x257143ddb5   597  488b59ff       REX.W movq rbx,[rcx-0x1]
0x257143ddb9   601  8b530f         movl rdx,[rbx+0xf]
0x257143ddbc   604  81e2ff030000   andl rdx,0x3ff
0x257143ddc2   610  48c1e220       REX.W shlq rdx, 32
0x257143ddc6   614  49ba00000000ff030000 REX.W movq r10,0x3ff00000000
0x257143ddd0   624  493bd2         REX.W cmpq rdx,r10
0x257143ddd3   627  0f844d000000   jz 710  (0x257143de26)
0x257143ddd9   633  e91a000000     jmp 664  (0x257143ddf8)
0x257143ddde   638  488b59ff       REX.W movq rbx,[rcx-0x1]
0x257143dde2   642  8b530f         movl rdx,[rbx+0xf]
0x257143dde5   645  81e2ff030000   andl rdx,0x3ff
0x257143ddeb   651  48c1e220       REX.W shlq rdx, 32
0x257143ddef   655  4885d2         REX.W testq rdx,rdx
0x257143ddf2   658  0f852e000000   jnz 710  (0x257143de26)
0x257143ddf8   664  4c3b410f       REX.W cmpq r8,[rcx+0xf]
0x257143ddfc   668  0f8411000000   jz 691  (0x257143de13)
0x257143de02   674  4d8b95b8030000 REX.W movq r10,[r13+0x3b8]
0x257143de09   681  4c3b510f       REX.W cmpq r10,[rcx+0xf]
0x257143de0d   685  0f8513000000   jnz 710  (0x257143de26)
0x257143de13   691  488b4b17       REX.W movq rcx,[rbx+0x17]
0x257143de17   695  483bcf         REX.W cmpq rcx,rdi
0x257143de1a   698  0f85beffffff   jnz 638  (0x257143ddde)
0x257143de20   704  488b40ff       REX.W movq rax,[rax-0x1]
0x257143de24   708  eb23           jmp 745  (0x257143de49)
0x257143de26   710  50             push rax
0x257143de27   711  b801000000     movl rax,0x1
0x257143de2c   716  48bbb04f890001000000 REX.W movq rbx,0x100894fb0
0x257143de36   726  e8e5bdfcff     call 0x2571409c20         ;; code: STUB, CEntryStub, minor: 0
0x257143de3b   731  4d8b5500       REX.W movq r10,[r13+0x0]
0x257143de3f   735  4c3950ff       REX.W cmpq [rax-0x1],r10
0x257143de43   739  0f8535000000   jnz 798  (0x257143de7e)
0x257143de49   745  8b500f         movl rdx,[rax+0xf]
0x257143de4c   748  81e2ff030000   andl rdx,0x3ff
0x257143de52   754  48c1e220       REX.W shlq rdx, 32
0x257143de56   758  4885d2         REX.W testq rdx,rdx
0x257143de59   761  0f8416000000   jz 789  (0x257143de75)
0x257143de5f   767  488b482f       REX.W movq rcx,[rax+0x2f]
0x257143de63   771  488b4917       REX.W movq rcx,[rcx+0x17]
0x257143de67   775  488b490f       REX.W movq rcx,[rcx+0xf]
0x257143de6b   779  50             push rax
0x257143de6c   780  51             push rcx
0x257143de6d   781  52             push rdx
0x257143de6e   782  6a00           push 0x0
0x257143de70   784  e950000000     jmp 869  (0x257143dec5)
0x257143de75   789  4883c408       REX.W addq rsp,0x8
0x257143de79   793  e956010000     jmp 1140  (0x257143dfd4)
0x257143de7e   798  48bba131ef97b5250000 REX.W movq rbx,0x25b597ef31a1    ;; object: 0x25b597ef31a1 <FixedArray[42]>
0x257143de88   808  49ba39dae097b5250000 REX.W movq r10,0x25b597e0da39    ;; object: 0x25b597e0da39 <Symbol: 156400422 <String[18]: megamorphic_symbol>>
0x257143de92   818  4c895347       REX.W movq [rbx+0x47],r10
0x257143de96   822  48bb0000000001000000 REX.W movq rbx,0x100000000
0x257143dea0   832  488b0c24       REX.W movq rcx,[rsp]
0x257143dea4   836  488b49ff       REX.W movq rcx,[rcx-0x1]
0x257143dea8   840  80790bb3       cmpb [rcx+0xb],0xb3
0x257143deac   844  0f870a000000   ja 860  (0x257143debc)
0x257143deb2   850  48bb0000000000000000 REX.W movq rbx,0x0
0x257143debc   860  53             push rbx
0x257143debd   861  50             push rax
0x257143debe   862  488b4007       REX.W movq rax,[rax+0x7]
0x257143dec2   866  50             push rax
0x257143dec3   867  6a00           push 0x0
0x257143dec5   869  488b0424       REX.W movq rax,[rsp]      ;; debug: statement 1574
0x257143dec9   873  483b442408     REX.W cmpq rax,[rsp+0x8]
0x257143dece   878  0f83fc000000   jnc 1136  (0x257143dfd0)
0x257143ded4   884  488b5c2410     REX.W movq rbx,[rsp+0x10]
0x257143ded9   889  48c1f81d       REX.W sarq rax, 29
0x257143dedd   893  488b5c030f     REX.W movq rbx,[rbx+rax*1+0xf]
0x257143dee2   898  488b542418     REX.W movq rdx,[rsp+0x18]
0x257143dee7   903  488b4c2420     REX.W movq rcx,[rsp+0x20]
0x257143deec   908  483b51ff       REX.W cmpq rdx,[rcx-0x1]
0x257143def0   912  7428           jz 954  (0x257143df1a)
0x257143def2   914  4885d2         REX.W testq rdx,rdx
0x257143def5   917  7423           jz 954  (0x257143df1a)
0x257143def7   919  51             push rcx
0x257143def8   920  53             push rbx
0x257143def9   921  b802000000     movl rax,0x2
0x257143defe   926  48bbc090860001000000 REX.W movq rbx,0x1008690c0
0x257143df08   936  e813bdfcff     call 0x2571409c20         ;; code: STUB, CEntryStub, minor: 0
0x257143df0d   941  493b45a8       REX.W cmpq rax,[r13-0x58]
0x257143df11   945  0f8482000000   jz 1081  (0x257143df99)
0x257143df17   951  488bd8         REX.W movq rbx,rax
0x257143df1a   954  488bc3         REX.W movq rax,rbx
0x257143df1d   957  488945e8       REX.W movq [rbp-0x18],rax
0x257143df21   961  488b45e8       REX.W movq rax,[rbp-0x18]
0x257143df25   965  488945c8       REX.W movq [rbp-0x38],rax
0x257143df29   969  ff75d0         push [rbp-0x30]           ;; debug: statement 1596
                                                             ;; debug: position 1600
0x257143df2c   972  ff7510         push [rbp+0x10]           ;; debug: position 1604
0x257143df2f   975  488b45c8       REX.W movq rax,[rbp-0x38]    ;; debug: position 1610
0x257143df33   979  488bc8         REX.W movq rcx,rax
0x257143df36   982  5a             pop rdx
0x257143df37   983  48b80000000016000000 REX.W movq rax,0x1600000000    ;; debug: position 1609
0x257143df41   993  e85a10ffff     call 0x257142efa0         ;; code: KEYED_LOAD_IC, DEFAULT
0x257143df46   998  5a             pop rdx
0x257143df47   999  488bca         REX.W movq rcx,rdx
0x257143df4a  1002  480bc8         REX.W orq rcx,rax
0x257143df4d  1005  f6c101         testb rcx,0x1
0x257143df50  1008  730e           jnc 1024  (0x257143df60)
0x257143df52  1010  483bd0         REX.W cmpq rdx,rax
0x257143df55  1013  0f8c26000000   jl 1057  (0x257143df81)
0x257143df5b  1019  e939000000     jmp 1081  (0x257143df99)
0x257143df60  1024  e83b9cfdff     call 0x2571417ba0         ;; code: COMPARE_IC, UNINITIALIZED (id = 201)
0x257143df65  1029  a815           test al,0x15
0x257143df67  1031  eb0f           jmp 1048  (0x257143df78)
0x257143df69  1033  493b45c0       REX.W cmpq rax,[r13-0x40]
0x257143df6d  1037  0f840e000000   jz 1057  (0x257143df81)
0x257143df73  1043  e921000000     jmp 1081  (0x257143df99)
0x257143df78  1048  4885c0         REX.W testq rax,rax
0x257143df7b  1051  0f8d18000000   jge 1081  (0x257143df99)
0x257143df81  1057  ff75e0         push [rbp-0x20]           ;; debug: statement 1626
                                                             ;; debug: position 1626
0x257143df84  1060  ff75d8         push [rbp-0x28]           ;; debug: position 1631
0x257143df87  1063  488b45c8       REX.W movq rax,[rbp-0x38]    ;; debug: position 1636
0x257143df8b  1067  59             pop rcx                   ;; debug: position 1634
0x257143df8c  1068  5a             pop rdx
0x257143df8d  1069  e84e66ffff     call KeyedStoreIC_Initialize  (0x25714345e0)    ;; code: KEYED_STORE_IC, UNINITIALIZED (id = 220)
0x257143df92  1074  33c0           xorl rax,rax              ;; debug: statement 1649
0x257143df94  1076  e937000000     jmp 1136  (0x257143dfd0)
0x257143df99  1081  8344240401     addl [rsp+0x4],0x1
0x257143df9e  1086  48bb0133ef97b5250000 REX.W movq rbx,0x25b597ef3301    ;; object: 0x25b597ef3301 Cell for 6144
0x257143dfa8  1096  83430bff       addl [rbx+0xb],0xff
0x257143dfac  1100  791d           jns 1131  (0x257143dfcb)
0x257143dfae  1102  e82d87ffff     call InterruptCheck  (0x25714366e0)    ;; code: BUILTIN
0x257143dfb3  1107  48bb0133ef97b5250000 REX.W movq rbx,0x25b597ef3301    ;; object: 0x25b597ef3301 Cell for 6144
0x257143dfbd  1117  49ba0000000000180000 REX.W movq r10,0x180000000000
0x257143dfc7  1127  4c895307       REX.W movq [rbx+0x7],r10
0x257143dfcb  1131  e9f5feffff     jmp 869  (0x257143dec5)
0x257143dfd0  1136  4883c428       REX.W addq rsp,0x28
0x257143dfd4  1140  488b45d8       REX.W movq rax,[rbp-0x28]    ;; debug: statement 1530
                                                             ;; debug: position 1529
0x257143dfd8  1144  a801           test al,0x1
0x257143dfda  1146  7314           jnc 1168  (0x257143dff0)
0x257143dfdc  1148  49ba0000000001000000 REX.W movq r10,0x100000000
0x257143dfe6  1158  4903c2         REX.W addq rax,r10
0x257143dfe9  1161  711e           jno 1193  (0x257143e009)
0x257143dfeb  1163  492bc2         REX.W subq rax,r10
0x257143dfee  1166  eb05           jmp 1173  (0x257143dff5)
0x257143dff0  1168  e8ebcbfeff     call 0x257142abe0         ;; code: STUB, ToNumberStub, minor: 0
0x257143dff5  1173  488bd0         REX.W movq rdx,rax        ;; debug: position 1530
0x257143dff8  1176  48b80000000001000000 REX.W movq rax,0x100000000
0x257143e002  1186  e8394dfdff     call 0x2571412d40         ;; code: BINARY_OP_IC, UNINITIALIZED (id = 133)
0x257143e007  1191  a82d           test al,0x2d
0x257143e009  1193  488945d8       REX.W movq [rbp-0x28],rax
0x257143e00d  1197  48bb0133ef97b5250000 REX.W movq rbx,0x25b597ef3301    ;; object: 0x25b597ef3301 Cell for 6144
0x257143e017  1207  83430bfc       addl [rbx+0xb],0xfc
0x257143e01b  1211  791d           jns 1242  (0x257143e03a)
0x257143e01d  1213  e8be86ffff     call InterruptCheck  (0x25714366e0)    ;; code: BUILTIN
0x257143e022  1218  48bb0133ef97b5250000 REX.W movq rbx,0x25b597ef3301    ;; object: 0x25b597ef3301 Cell for 6144
0x257143e02c  1228  49ba0000000000180000 REX.W movq r10,0x180000000000
0x257143e036  1238  4c895307       REX.W movq [rbx+0x7],r10
0x257143e03a  1242  ff75d8         push [rbp-0x28]           ;; debug: statement 1515
                                                             ;; debug: position 1514
0x257143e03d  1245  488b45e0       REX.W movq rax,[rbp-0x20]    ;; debug: position 1516
0x257143e041  1249  488bd0         REX.W movq rdx,rax
0x257143e044  1252  48b9712ee997b5250000 REX.W movq rcx,0x25b597e92e71    ;; debug: position 1520
                                                             ;; object: 0x25b597e92e71 <String[6]: length>
0x257143e04e  1262  48b80000000010000000 REX.W movq rax,0x1000000000
0x257143e058  1272  e8a322feff     call 0x2571420300         ;; code: contextual, LOAD_IC, DEFAULT
0x257143e05d  1277  5a             pop rdx
0x257143e05e  1278  488bca         REX.W movq rcx,rdx
0x257143e061  1281  480bc8         REX.W orq rcx,rax
0x257143e064  1284  f6c101         testb rcx,0x1
0x257143e067  1287  730e           jnc 1303  (0x257143e077)
0x257143e069  1289  483bd0         REX.W cmpq rdx,rax
0x257143e06c  1292  0f8ca6fcffff   jl 440  (0x257143dd18)
0x257143e072  1298  e921000000     jmp 1336  (0x257143e098)
0x257143e077  1303  e8249bfdff     call 0x2571417ba0         ;; code: COMPARE_IC, UNINITIALIZED (id = 116)
0x257143e07c  1308  a815           test al,0x15
0x257143e07e  1310  eb0f           jmp 1327  (0x257143e08f)
0x257143e080  1312  493b45c0       REX.W cmpq rax,[r13-0x40]
0x257143e084  1316  0f848efcffff   jz 440  (0x257143dd18)
0x257143e08a  1322  e909000000     jmp 1336  (0x257143e098)
0x257143e08f  1327  4885c0         REX.W testq rax,rax
0x257143e092  1330  0f8c80fcffff   jl 440  (0x257143dd18)
0x257143e098  1336  48b9b9e7ee97b5250000 REX.W movq rcx,0x25b597eee7b9    ;; debug: statement 1684
                                                             ;; debug: position 1684
                                                             ;; object: 0x25b597eee7b9 <String[3]: ret>
0x257143e0a2  1346  488b5627       REX.W movq rdx,[rsi+0x27]
0x257143e0a6  1350  48b80000000018000000 REX.W movq rax,0x1800000000
0x257143e0b0  1360  e84b22feff     call 0x2571420300         ;; code: contextual, LOAD_IC, DEFAULT
0x257143e0b5  1365  50             push rax
0x257143e0b6  1366  ff75e0         push [rbp-0x20]           ;; debug: position 1691
0x257143e0b9  1369  488b1424       REX.W movq rdx,[rsp]
0x257143e0bd  1373  48b959b6e597b5250000 REX.W movq rcx,0x25b597e5b659    ;; debug: position 1695
                                                             ;; object: 0x25b597e5b659 <String[4]: join>
0x257143e0c7  1383  48b80000000022000000 REX.W movq rax,0x2200000000
0x257143e0d1  1393  e82a22feff     call 0x2571420300         ;; code: contextual, LOAD_IC, DEFAULT
0x257143e0d6  1398  ff3424         push [rsp]
0x257143e0d9  1401  4889442408     REX.W movq [rsp+0x8],rax
0x257143e0de  1406  49bae142e097b5250000 REX.W movq r10,0x25b597e042e1    ;; object: 0x25b597e042e1 <String[0]: >
0x257143e0e8  1416  4152           push r10
0x257143e0ea  1418  48ba0000000020000000 REX.W movq rdx,0x2000000000    ;; debug: position 1696
0x257143e0f4  1428  488b7c2410     REX.W movq rdi,[rsp+0x10]
0x257143e0f9  1433  e8c2d9fdff     call 0x257141bac0         ;; code: CALL_IC, DEFAULT
0x257143e0fe  1438  488b75f8       REX.W movq rsi,[rbp-0x8]
0x257143e102  1442  4883c408       REX.W addq rsp,0x8
0x257143e106  1446  488bd0         REX.W movq rdx,rax
0x257143e109  1449  48b9712ee997b5250000 REX.W movq rcx,0x25b597e92e71    ;; debug: position 1704
                                                             ;; object: 0x25b597e92e71 <String[6]: length>
0x257143e113  1459  48b80000000024000000 REX.W movq rax,0x2400000000
0x257143e11d  1469  e8de21feff     call 0x2571420300         ;; code: contextual, LOAD_IC, DEFAULT
0x257143e122  1474  5a             pop rdx
0x257143e123  1475  488bc8         REX.W movq rcx,rax
0x257143e126  1478  480bc2         REX.W orq rax,rdx
0x257143e129  1481  a801           test al,0x1
0x257143e12b  1483  720c           jc 1497  (0x257143e139)
0x257143e12d  1485  488bc1         REX.W movq rax,rcx
0x257143e130  1488  e80b4cfdff     call 0x2571412d40         ;; code: BINARY_OP_IC, UNINITIALIZED (id = 240)
0x257143e135  1493  a80a           test al,0xa
0x257143e137  1495  eb0c           jmp 1509  (0x257143e145)
0x257143e139  1497  488bc2         REX.W movq rax,rdx
0x257143e13c  1500  4803c1         REX.W addq rax,rcx
0x257143e13f  1503  0f80e8ffffff   jo 1485  (0x257143e12d)
0x257143e145  1509  48b9b9e7ee97b5250000 REX.W movq rcx,0x25b597eee7b9    ;; debug: position 1688
                                                             ;; object: 0x25b597eee7b9 <String[3]: ret>
0x257143e14f  1519  488b5627       REX.W movq rdx,[rsi+0x27]
0x257143e153  1523  e8c83fffff     call 0x2571432120         ;; code: STORE_IC, UNINITIALIZED
0x257143e158  1528  488b4518       REX.W movq rax,[rbp+0x18]    ;; debug: statement 1717
                                                             ;; debug: position 1717
0x257143e15c  1532  50             push rax
0x257143e15d  1533  488b45e0       REX.W movq rax,[rbp-0x20]    ;; debug: position 1722
0x257143e161  1537  488bd0         REX.W movq rdx,rax
0x257143e164  1540  48b9712ee997b5250000 REX.W movq rcx,0x25b597e92e71    ;; debug: position 1726
                                                             ;; object: 0x25b597e92e71 <String[6]: length>
0x257143e16e  1550  48b80000000028000000 REX.W movq rax,0x2800000000
0x257143e178  1560  e88321feff     call 0x2571420300         ;; code: contextual, LOAD_IC, DEFAULT
0x257143e17d  1565  5a             pop rdx
0x257143e17e  1566  488bc8         REX.W movq rcx,rax
0x257143e181  1569  480bc2         REX.W orq rax,rdx
0x257143e184  1572  a801           test al,0x1
0x257143e186  1574  720c           jc 1588  (0x257143e194)
0x257143e188  1576  488bc1         REX.W movq rax,rcx
0x257143e18b  1579  e8d0bafeff     call 0x2571429c60         ;; code: BINARY_OP_IC, UNINITIALIZED (id = 300)
0x257143e190  1584  a80a           test al,0xa
0x257143e192  1586  eb0c           jmp 1600  (0x257143e1a0)
0x257143e194  1588  488bc2         REX.W movq rax,rdx
0x257143e197  1591  482bc1         REX.W subq rax,rcx
0x257143e19a  1594  0f80e8ffffff   jo 1576  (0x257143e188)
0x257143e1a0  1600  48894518       REX.W movq [rbp+0x18],rax    ;; debug: position 1719
0x257143e1a4  1604  48bb0133ef97b5250000 REX.W movq rbx,0x25b597ef3301    ;; object: 0x25b597ef3301 Cell for 6144
0x257143e1ae  1614  83430bf8       addl [rbx+0xb],0xf8
0x257143e1b2  1618  791d           jns 1649  (0x257143e1d1)
0x257143e1b4  1620  e82785ffff     call InterruptCheck  (0x25714366e0)    ;; code: BUILTIN
0x257143e1b9  1625  48bb0133ef97b5250000 REX.W movq rbx,0x25b597ef3301    ;; object: 0x25b597ef3301 Cell for 6144
0x257143e1c3  1635  49ba0000000000180000 REX.W movq r10,0x180000000000
0x257143e1cd  1645  4c895307       REX.W movq [rbx+0x7],r10
0x257143e1d1  1649  e941faffff     jmp 183  (0x257143dc17)
0x257143e1d6  1654  498b45a8       REX.W movq rax,[r13-0x58]
0x257143e1da  1658  48bb0133ef97b5250000 REX.W movq rbx,0x25b597ef3301    ;; object: 0x25b597ef3301 Cell for 6144
0x257143e1e4  1668  83430bf7       addl [rbx+0xb],0xf7
0x257143e1e8  1672  791f           jns 1705  (0x257143e209)
0x257143e1ea  1674  50             push rax
0x257143e1eb  1675  e8f084ffff     call InterruptCheck  (0x25714366e0)    ;; code: BUILTIN
0x257143e1f0  1680  58             pop rax
0x257143e1f1  1681  48bb0133ef97b5250000 REX.W movq rbx,0x25b597ef3301    ;; object: 0x25b597ef3301 Cell for 6144
0x257143e1fb  1691  49ba0000000000180000 REX.W movq r10,0x180000000000
0x257143e205  1701  4c895307       REX.W movq [rbx+0x7],r10
0x257143e209  1705  c9             leave                     ;; debug: statement 1739
0x257143e20a  1706  c21800         ret 0x18
0x257143e20d  1709  0f1f00         nop

Deoptimization Output Data (deopt points = 0)

Back edges (size = 3)
ast_id  pc_offset  loop_depth
   164       1107           3
    98       1218           2
    48       1625           1

0x25b597ef3409: [TypeFeedbackInfo]
 - ic_total_count: 23, ic_with_type_info_count: 0, ic_generic_count: 0

RelocInfo (size = 232)
0x257143db60  position  (1370)
0x257143db79  code target (BUILTIN)  (0x2571436820)
0x257143db7d  statement position  (1385)
0x257143db7d  position  (1400)
0x257143db7f  embedded object  (0x25b597e94611 <String[5]: Array>)
0x257143db96  code target (LOAD_IC)  (0x2571420300)
0x257143dba7  position  (1396)
0x257143dbb3  embedded object  (0x25b597ef31a1 <FixedArray[42]>)
0x257143dbc6  code target (js construct call) (STUB)  (0x2571417f00)
0x257143dbca  position  (1385)
0x257143dbce  statement position  (1413)
0x257143dbd0  embedded object  (0x25b597eee701 <String[14]: makeCumulative>)
0x257143dbe7  code target (LOAD_IC)  (0x2571420300)
0x257143dbee  embedded object  (0x25b597e04189 <undefined>)
0x257143dbf8  position  (1428)
0x257143dbfb  position  (1413)
0x257143dc0b  code target (CALL_IC)  (0x25714122c0)
0x257143dc17  statement position  (1446)
0x257143dc17  position  (1445)
0x257143dc3f  code target with id (COMPARE_IC)  (0x257142fc80) (id=52)
0x257143dc5f  statement position  (1456)
0x257143dc5f  position  (1460)
0x257143dc62  position  (1462)
0x257143dc69  position  (1466)
0x257143dc6b  embedded object  (0x25b597e92e71 <String[6]: length>)
0x257143dc7e  code target (LOAD_IC)  (0x2571420300)
0x257143dc9d  code target with id (COMPARE_IC)  (0x2571417ba0) (id=67)
0x257143dcbd  statement position  (1475)
0x257143dcbd  position  (1486)
0x257143dcbf  embedded object  (0x25b597e94611 <String[5]: Array>)
0x257143dcd6  code target (LOAD_IC)  (0x2571420300)
0x257143dcdb  position  (1492)
0x257143dcde  position  (1482)
0x257143dcea  embedded object  (0x25b597ef31a1 <FixedArray[42]>)
0x257143dcfd  code target (js construct call) (STUB)  (0x2571417f00)
0x257143dd01  position  (1480)
0x257143dd05  statement position  (1500)
0x257143dd05  statement position  (1505)
0x257143dd18  statement position  (1542)
0x257143dd18  position  (1550)
0x257143dd1a  embedded object  (0x25b597eee491 <String[4]: rand>)
0x257143dd31  code target (LOAD_IC)  (0x2571420300)
0x257143dd38  embedded object  (0x25b597e04189 <undefined>)
0x257143dd5e  code target (CALL_IC)  (0x25714122c0)
0x257143dd6a  position  (1542)
0x257143dd6e  statement position  (1565)
0x257143dd6e  statement position  (1579)
0x257143dd98  code target (STUB)  (0x2571414240)
0x257143de37  code target (STUB)  (0x2571409c20)
0x257143de80  embedded object  (0x25b597ef31a1 <FixedArray[42]>)
0x257143de8a  embedded object  (0x25b597e0da39 <Symbol: 156400422 <String[18]: megamorphic_symbol>>)
0x257143dec5  statement position  (1574)
0x257143df09  code target (STUB)  (0x2571409c20)
0x257143df29  statement position  (1596)
0x257143df29  position  (1600)
0x257143df2c  position  (1604)
0x257143df2f  position  (1610)
0x257143df37  position  (1609)
0x257143df42  code target (KEYED_LOAD_IC)  (0x257142efa0)
0x257143df61  code target with id (COMPARE_IC)  (0x2571417ba0) (id=201)
0x257143df81  statement position  (1626)
0x257143df81  position  (1626)
0x257143df84  position  (1631)
0x257143df87  position  (1636)
0x257143df8b  position  (1634)
0x257143df8e  code target with id (KEYED_STORE_IC)  (0x25714345e0) (id=220)
0x257143df92  statement position  (1649)
0x257143dfa0  embedded object  (0x25b597ef3301 Cell for 6144)
0x257143dfaf  code target (BUILTIN)  (0x25714366e0)
0x257143dfb5  embedded object  (0x25b597ef3301 Cell for 6144)
0x257143dfd4  statement position  (1530)
0x257143dfd4  position  (1529)
0x257143dff1  code target (STUB)  (0x257142abe0)
0x257143dff5  position  (1530)
0x257143e003  code target with id (BINARY_OP_IC)  (0x2571412d40) (id=133)
0x257143e00f  embedded object  (0x25b597ef3301 Cell for 6144)
0x257143e01e  code target (BUILTIN)  (0x25714366e0)
0x257143e024  embedded object  (0x25b597ef3301 Cell for 6144)
0x257143e03a  statement position  (1515)
0x257143e03a  position  (1514)
0x257143e03d  position  (1516)
0x257143e044  position  (1520)
0x257143e046  embedded object  (0x25b597e92e71 <String[6]: length>)
0x257143e059  code target (LOAD_IC)  (0x2571420300)
0x257143e078  code target with id (COMPARE_IC)  (0x2571417ba0) (id=116)
0x257143e098  statement position  (1684)
0x257143e098  position  (1684)
0x257143e09a  embedded object  (0x25b597eee7b9 <String[3]: ret>)
0x257143e0b1  code target (LOAD_IC)  (0x2571420300)
0x257143e0b6  position  (1691)
0x257143e0bd  position  (1695)
0x257143e0bf  embedded object  (0x25b597e5b659 <String[4]: join>)
0x257143e0d2  code target (LOAD_IC)  (0x2571420300)
0x257143e0e0  embedded object  (0x25b597e042e1 <String[0]: >)
0x257143e0ea  position  (1696)
0x257143e0fa  code target (CALL_IC)  (0x257141bac0)
0x257143e109  position  (1704)
0x257143e10b  embedded object  (0x25b597e92e71 <String[6]: length>)
0x257143e11e  code target (LOAD_IC)  (0x2571420300)
0x257143e131  code target with id (BINARY_OP_IC)  (0x2571412d40) (id=240)
0x257143e145  position  (1688)
0x257143e147  embedded object  (0x25b597eee7b9 <String[3]: ret>)
0x257143e154  code target (STORE_IC)  (0x2571432120)
0x257143e158  statement position  (1717)
0x257143e158  position  (1717)
0x257143e15d  position  (1722)
0x257143e164  position  (1726)
0x257143e166  embedded object  (0x25b597e92e71 <String[6]: length>)
0x257143e179  code target (LOAD_IC)  (0x2571420300)
0x257143e18c  code target with id (BINARY_OP_IC)  (0x2571429c60) (id=300)
0x257143e1a0  position  (1719)
0x257143e1a6  embedded object  (0x25b597ef3301 Cell for 6144)
0x257143e1b5  code target (BUILTIN)  (0x25714366e0)
0x257143e1bb  embedded object  (0x25b597ef3301 Cell for 6144)
0x257143e1dc  embedded object  (0x25b597ef3301 Cell for 6144)
0x257143e1ec  code target (BUILTIN)  (0x25714366e0)
0x257143e1f3  embedded object  (0x25b597ef3301 Cell for 6144)
0x257143e209  statement position  (1739)

--- End code ---
--- Raw source ---
(table) {
  var last = null;
  for (var c in table) {
    if (last) table[c] += table[last];
    last = c;
  }
}


--- Code ---
source_position = 856
kind = FUNCTION
name = makeCumulative
compiler = full-codegen
Instructions (size = 744)
0x257143e2a0     0  55             push rbp                  ;; debug: position 856
0x257143e2a1     1  4889e5         REX.W movq rbp,rsp
0x257143e2a4     4  56             push rsi
0x257143e2a5     5  57             push rdi
0x257143e2a6     6  498b55a8       REX.W movq rdx,[r13-0x58]
0x257143e2aa    10  52             push rdx
0x257143e2ab    11  52             push rdx
0x257143e2ac    12  52             push rdx
0x257143e2ad    13  493ba540090000 REX.W cmpq rsp,[r13+0x940]
0x257143e2b4    20  7305           jnc 27  (0x257143e2bb)
0x257143e2b6    22  e86585ffff     call StackCheck  (0x2571436820)    ;; code: BUILTIN
0x257143e2bb    27  48b80141e097b5250000 REX.W movq rax,0x25b597e04101    ;; debug: statement 868
                                                             ;; object: 0x25b597e04101 <null>
0x257143e2c5    37  488945e0       REX.W movq [rbp-0x20],rax
0x257143e2c9    41  488b4510       REX.W movq rax,[rbp+0x10]    ;; debug: statement 887
                                                             ;; debug: statement 901
0x257143e2cd    45  493b45a8       REX.W cmpq rax,[r13-0x58]
0x257143e2d1    49  0f8465020000   jz 668  (0x257143e53c)
0x257143e2d7    55  498b7db8       REX.W movq rdi,[r13-0x48]
0x257143e2db    59  483bc7         REX.W cmpq rax,rdi
0x257143e2de    62  0f8458020000   jz 668  (0x257143e53c)
0x257143e2e4    68  a801           test al,0x1
0x257143e2e6    70  740a           jz 82  (0x257143e2f2)
0x257143e2e8    72  488b48ff       REX.W movq rcx,[rax-0x1]
0x257143e2ec    76  80790bb2       cmpb [rcx+0xb],0xb2
0x257143e2f0    80  7305           jnc 87  (0x257143e2f7)
0x257143e2f2    82  e8495ffdff     call 0x2571414240         ;; code: STUB, ToObjectStub, minor: 0
0x257143e2f7    87  50             push rax
0x257143e2f8    88  488b48ff       REX.W movq rcx,[rax-0x1]
0x257143e2fc    92  80790bb3       cmpb [rcx+0xb],0xb3
0x257143e300    96  0f867b000000   jna 225  (0x257143e381)
0x257143e306   102  4d8b85b8000000 REX.W movq r8,[r13+0xb8]
0x257143e30d   109  488bc8         REX.W movq rcx,rax
0x257143e310   112  488b59ff       REX.W movq rbx,[rcx-0x1]
0x257143e314   116  8b530f         movl rdx,[rbx+0xf]
0x257143e317   119  81e2ff030000   andl rdx,0x3ff
0x257143e31d   125  48c1e220       REX.W shlq rdx, 32
0x257143e321   129  49ba00000000ff030000 REX.W movq r10,0x3ff00000000
0x257143e32b   139  493bd2         REX.W cmpq rdx,r10
0x257143e32e   142  0f844d000000   jz 225  (0x257143e381)
0x257143e334   148  e91a000000     jmp 179  (0x257143e353)
0x257143e339   153  488b59ff       REX.W movq rbx,[rcx-0x1]
0x257143e33d   157  8b530f         movl rdx,[rbx+0xf]
0x257143e340   160  81e2ff030000   andl rdx,0x3ff
0x257143e346   166  48c1e220       REX.W shlq rdx, 32
0x257143e34a   170  4885d2         REX.W testq rdx,rdx
0x257143e34d   173  0f852e000000   jnz 225  (0x257143e381)
0x257143e353   179  4c3b410f       REX.W cmpq r8,[rcx+0xf]
0x257143e357   183  0f8411000000   jz 206  (0x257143e36e)
0x257143e35d   189  4d8b95b8030000 REX.W movq r10,[r13+0x3b8]
0x257143e364   196  4c3b510f       REX.W cmpq r10,[rcx+0xf]
0x257143e368   200  0f8513000000   jnz 225  (0x257143e381)
0x257143e36e   206  488b4b17       REX.W movq rcx,[rbx+0x17]
0x257143e372   210  483bcf         REX.W cmpq rcx,rdi
0x257143e375   213  0f85beffffff   jnz 153  (0x257143e339)
0x257143e37b   219  488b40ff       REX.W movq rax,[rax-0x1]
0x257143e37f   223  eb23           jmp 260  (0x257143e3a4)
0x257143e381   225  50             push rax
0x257143e382   226  b801000000     movl rax,0x1
0x257143e387   231  48bbb04f890001000000 REX.W movq rbx,0x100894fb0
0x257143e391   241  e88ab8fcff     call 0x2571409c20         ;; code: STUB, CEntryStub, minor: 0
0x257143e396   246  4d8b5500       REX.W movq r10,[r13+0x0]
0x257143e39a   250  4c3950ff       REX.W cmpq [rax-0x1],r10
0x257143e39e   254  0f8535000000   jnz 313  (0x257143e3d9)
0x257143e3a4   260  8b500f         movl rdx,[rax+0xf]
0x257143e3a7   263  81e2ff030000   andl rdx,0x3ff
0x257143e3ad   269  48c1e220       REX.W shlq rdx, 32
0x257143e3b1   273  4885d2         REX.W testq rdx,rdx
0x257143e3b4   276  0f8416000000   jz 304  (0x257143e3d0)
0x257143e3ba   282  488b482f       REX.W movq rcx,[rax+0x2f]
0x257143e3be   286  488b4917       REX.W movq rcx,[rcx+0x17]
0x257143e3c2   290  488b490f       REX.W movq rcx,[rcx+0xf]
0x257143e3c6   294  50             push rax
0x257143e3c7   295  51             push rcx
0x257143e3c8   296  52             push rdx
0x257143e3c9   297  6a00           push 0x0
0x257143e3cb   299  e950000000     jmp 384  (0x257143e420)
0x257143e3d0   304  4883c408       REX.W addq rsp,0x8
0x257143e3d4   308  e963010000     jmp 668  (0x257143e53c)
0x257143e3d9   313  48bbf934ef97b5250000 REX.W movq rbx,0x25b597ef34f9    ;; object: 0x25b597ef34f9 <FixedArray[11]>
0x257143e3e3   323  49ba39dae097b5250000 REX.W movq r10,0x25b597e0da39    ;; object: 0x25b597e0da39 <Symbol: 156400422 <String[18]: megamorphic_symbol>>
0x257143e3ed   333  4c89532f       REX.W movq [rbx+0x2f],r10
0x257143e3f1   337  48bb0000000001000000 REX.W movq rbx,0x100000000
0x257143e3fb   347  488b0c24       REX.W movq rcx,[rsp]
0x257143e3ff   351  488b49ff       REX.W movq rcx,[rcx-0x1]
0x257143e403   355  80790bb3       cmpb [rcx+0xb],0xb3
0x257143e407   359  0f870a000000   ja 375  (0x257143e417)
0x257143e40d   365  48bb0000000000000000 REX.W movq rbx,0x0
0x257143e417   375  53             push rbx
0x257143e418   376  50             push rax
0x257143e419   377  488b4007       REX.W movq rax,[rax+0x7]
0x257143e41d   381  50             push rax
0x257143e41e   382  6a00           push 0x0
0x257143e420   384  488b0424       REX.W movq rax,[rsp]      ;; debug: statement 896
0x257143e424   388  483b442408     REX.W cmpq rax,[rsp+0x8]
0x257143e429   393  0f8309010000   jnc 664  (0x257143e538)
0x257143e42f   399  488b5c2410     REX.W movq rbx,[rsp+0x10]
0x257143e434   404  48c1f81d       REX.W sarq rax, 29
0x257143e438   408  488b5c030f     REX.W movq rbx,[rbx+rax*1+0xf]
0x257143e43d   413  488b542418     REX.W movq rdx,[rsp+0x18]
0x257143e442   418  488b4c2420     REX.W movq rcx,[rsp+0x20]
0x257143e447   423  483b51ff       REX.W cmpq rdx,[rcx-0x1]
0x257143e44b   427  7428           jz 469  (0x257143e475)
0x257143e44d   429  4885d2         REX.W testq rdx,rdx
0x257143e450   432  7423           jz 469  (0x257143e475)
0x257143e452   434  51             push rcx
0x257143e453   435  53             push rbx
0x257143e454   436  b802000000     movl rax,0x2
0x257143e459   441  48bbc090860001000000 REX.W movq rbx,0x1008690c0
0x257143e463   451  e8b8b7fcff     call 0x2571409c20         ;; code: STUB, CEntryStub, minor: 0
0x257143e468   456  493b45a8       REX.W cmpq rax,[r13-0x58]
0x257143e46c   460  0f848f000000   jz 609  (0x257143e501)
0x257143e472   466  488bd8         REX.W movq rbx,rax
0x257143e475   469  488bc3         REX.W movq rax,rbx
0x257143e478   472  488945e8       REX.W movq [rbp-0x18],rax
0x257143e47c   476  488b45e8       REX.W movq rax,[rbp-0x18]
0x257143e480   480  488945d8       REX.W movq [rbp-0x28],rax
0x257143e484   484  488b45e0       REX.W movq rax,[rbp-0x20]    ;; debug: statement 914
                                                             ;; debug: position 918
0x257143e488   488  e893dffdff     call 0x257141c420         ;; code: TO_BOOLEAN_IC, UNINITIALIZED (id = 61)
0x257143e48d   493  4885c0         REX.W testq rax,rax
0x257143e490   496  0f8463000000   jz 601  (0x257143e4f9)
0x257143e496   502  ff7510         push [rbp+0x10]           ;; debug: statement 924
                                                             ;; debug: position 924
0x257143e499   505  ff75d8         push [rbp-0x28]           ;; debug: position 930
0x257143e49c   508  488b542408     REX.W movq rdx,[rsp+0x8]
0x257143e4a1   513  488b0c24       REX.W movq rcx,[rsp]
0x257143e4a5   517  48b80000000005000000 REX.W movq rax,0x500000000    ;; debug: position 929
0x257143e4af   527  e8ec0affff     call 0x257142efa0         ;; code: KEYED_LOAD_IC, DEFAULT
0x257143e4b4   532  50             push rax
0x257143e4b5   533  ff7510         push [rbp+0x10]           ;; debug: position 936
0x257143e4b8   536  488b45e0       REX.W movq rax,[rbp-0x20]    ;; debug: position 942
0x257143e4bc   540  488bc8         REX.W movq rcx,rax
0x257143e4bf   543  5a             pop rdx
0x257143e4c0   544  48b80000000009000000 REX.W movq rax,0x900000000    ;; debug: position 941
0x257143e4ca   554  e8d10affff     call 0x257142efa0         ;; code: KEYED_LOAD_IC, DEFAULT
0x257143e4cf   559  5a             pop rdx
0x257143e4d0   560  488bc8         REX.W movq rcx,rax
0x257143e4d3   563  480bc2         REX.W orq rax,rdx
0x257143e4d6   566  a801           test al,0x1
0x257143e4d8   568  720c           jc 582  (0x257143e4e6)
0x257143e4da   570  488bc1         REX.W movq rax,rcx
0x257143e4dd   573  e85e48fdff     call 0x2571412d40         ;; code: BINARY_OP_IC, UNINITIALIZED (id = 70)
0x257143e4e2   578  a80a           test al,0xa
0x257143e4e4   580  eb0c           jmp 594  (0x257143e4f2)
0x257143e4e6   582  488bc2         REX.W movq rax,rdx
0x257143e4e9   585  4803c1         REX.W addq rax,rcx
0x257143e4ec   588  0f80e8ffffff   jo 570  (0x257143e4da)
0x257143e4f2   594  59             pop rcx                   ;; debug: position 933
0x257143e4f3   595  5a             pop rdx
0x257143e4f4   596  e8e760ffff     call KeyedStoreIC_Initialize  (0x25714345e0)    ;; code: KEYED_STORE_IC, UNINITIALIZED (id = 66)
0x257143e4f9   601  488b45d8       REX.W movq rax,[rbp-0x28]    ;; debug: statement 953
                                                             ;; debug: position 960
0x257143e4fd   605  488945e0       REX.W movq [rbp-0x20],rax    ;; debug: position 958
0x257143e501   609  8344240401     addl [rsp+0x4],0x1
0x257143e506   614  48bb6135ef97b5250000 REX.W movq rbx,0x25b597ef3561    ;; object: 0x25b597ef3561 Cell for 6144
0x257143e510   624  83430bff       addl [rbx+0xb],0xff
0x257143e514   628  791d           jns 659  (0x257143e533)
0x257143e516   630  e8c581ffff     call InterruptCheck  (0x25714366e0)    ;; code: BUILTIN
0x257143e51b   635  48bb6135ef97b5250000 REX.W movq rbx,0x25b597ef3561    ;; object: 0x25b597ef3561 Cell for 6144
0x257143e525   645  49ba0000000000180000 REX.W movq r10,0x180000000000
0x257143e52f   655  4c895307       REX.W movq [rbx+0x7],r10
0x257143e533   659  e9e8feffff     jmp 384  (0x257143e420)
0x257143e538   664  4883c428       REX.W addq rsp,0x28
0x257143e53c   668  498b45a8       REX.W movq rax,[r13-0x58]
0x257143e540   672  48bb6135ef97b5250000 REX.W movq rbx,0x25b597ef3561    ;; object: 0x25b597ef3561 Cell for 6144
0x257143e54a   682  83430bfd       addl [rbx+0xb],0xfd
0x257143e54e   686  791f           jns 719  (0x257143e56f)
0x257143e550   688  50             push rax
0x257143e551   689  e88a81ffff     call InterruptCheck  (0x25714366e0)    ;; code: BUILTIN
0x257143e556   694  58             pop rax
0x257143e557   695  48bb6135ef97b5250000 REX.W movq rbx,0x25b597ef3561    ;; object: 0x25b597ef3561 Cell for 6144
0x257143e561   705  49ba0000000000180000 REX.W movq r10,0x180000000000
0x257143e56b   715  4c895307       REX.W movq [rbx+0x7],r10
0x257143e56f   719  c9             leave                     ;; debug: statement 967
0x257143e570   720  c21000         ret 0x10
0x257143e573   723  0f1f440000     nop

Deoptimization Output Data (deopt points = 0)

Back edges (size = 1)
ast_id  pc_offset  loop_depth
    25        635           1

0x25b597ef35d1: [TypeFeedbackInfo]
 - ic_total_count: 5, ic_with_type_info_count: 0, ic_generic_count: 0

RelocInfo (size = 73)
0x257143e2a0  position  (856)
0x257143e2b7  code target (BUILTIN)  (0x2571436820)
0x257143e2bb  statement position  (868)
0x257143e2bd  embedded object  (0x25b597e04101 <null>)
0x257143e2c9  statement position  (887)
0x257143e2c9  statement position  (901)
0x257143e2f3  code target (STUB)  (0x2571414240)
0x257143e392  code target (STUB)  (0x2571409c20)
0x257143e3db  embedded object  (0x25b597ef34f9 <FixedArray[11]>)
0x257143e3e5  embedded object  (0x25b597e0da39 <Symbol: 156400422 <String[18]: megamorphic_symbol>>)
0x257143e420  statement position  (896)
0x257143e464  code target (STUB)  (0x2571409c20)
0x257143e484  statement position  (914)
0x257143e484  position  (918)
0x257143e489  code target with id (TO_BOOLEAN_IC)  (0x257141c420) (id=61)
0x257143e496  statement position  (924)
0x257143e496  position  (924)
0x257143e499  position  (930)
0x257143e4a5  position  (929)
0x257143e4b0  code target (KEYED_LOAD_IC)  (0x257142efa0)
0x257143e4b5  position  (936)
0x257143e4b8  position  (942)
0x257143e4c0  position  (941)
0x257143e4cb  code target (KEYED_LOAD_IC)  (0x257142efa0)
0x257143e4de  code target with id (BINARY_OP_IC)  (0x2571412d40) (id=70)
0x257143e4f2  position  (933)
0x257143e4f5  code target with id (KEYED_STORE_IC)  (0x25714345e0) (id=66)
0x257143e4f9  statement position  (953)
0x257143e4f9  position  (960)
0x257143e4fd  position  (958)
0x257143e508  embedded object  (0x25b597ef3561 Cell for 6144)
0x257143e517  code target (BUILTIN)  (0x25714366e0)
0x257143e51d  embedded object  (0x25b597ef3561 Cell for 6144)
0x257143e542  embedded object  (0x25b597ef3561 Cell for 6144)
0x257143e552  code target (BUILTIN)  (0x25714366e0)
0x257143e559  embedded object  (0x25b597ef3561 Cell for 6144)
0x257143e56f  statement position  (967)

--- End code ---
--- Code ---
kind = TO_BOOLEAN_IC
major_key = <NoCache>Stub
ic_state = MONOMORPHIC
extra_ic_state = 4
type = NORMAL
name = ToBooleanStub
compiler = crankshaft
Instructions (size = 108)
0x257143e600     0  493b45b8       REX.W cmpq rax,[r13-0x48]
0x257143e604     4  0f8405000000   jz 15  (0x257143e60f)
0x257143e60a    10  e916000000     jmp 37  (0x257143e625)
0x257143e60f    15  48b80000000000000000 REX.W movq rax,0x0
0x257143e619    25  c3             ret
0x257143e61a    26  48b80000000001000000 REX.W movq rax,0x100000000
0x257143e624    36  c3             ret
0x257143e625    37  49ba0060207125000000 REX.W movq r10,0x2571206000
0x257143e62f    47  e800000000     call 52  (0x257143e634)
0x257143e634    52  4883ec10       REX.W subq rsp,0x10
0x257143e638    56  ff742410       push [rsp+0x10]
0x257143e63c    60  4152           push r10
0x257143e63e    62  4c8b55f8       REX.W movq r10,[rbp-0x8]
0x257143e642    66  4c89542418     REX.W movq [rsp+0x18],r10
0x257143e647    71  48896c2420     REX.W movq [rsp+0x20],rbp
0x257143e64c    76  488d6c2420     REX.W leaq rbp,[rsp+0x20]
0x257143e651    81  49ba0000000006000000 REX.W movq r10,0x600000000
0x257143e65b    91  4c89542410     REX.W movq [rsp+0x10],r10
0x257143e660    96  c3             ret
0x257143e661    97  0f1f00         nop


Safepoints (size = 8)

RelocInfo (size = 0)

--- End code ---
--- Code ---
kind = TO_BOOLEAN_IC
major_key = <NoCache>Stub
ic_state = MONOMORPHIC
extra_ic_state = 36
type = NORMAL
name = ToBooleanStub
compiler = crankshaft
Instructions (size = 140)
0x257143e6e0     0  493b45b8       REX.W cmpq rax,[r13-0x48]
0x257143e6e4     4  0f8428000000   jz 50  (0x257143e712)
0x257143e6ea    10  a801           test al,0x1
0x257143e6ec    12  0f8436000000   jz 72  (0x257143e728)
0x257143e6f2    18  4c8b50ff       REX.W movq r10,[rax-0x1]
0x257143e6f6    22  41807a0b80     cmpb [r10+0xb],0x80
0x257143e6fb    27  7310           jnc 45  (0x257143e70d)
0x257143e6fd    29  4883780f00     REX.W cmpq [rax+0xf],0x0
0x257143e702    34  0f8515000000   jnz 61  (0x257143e71d)
0x257143e708    40  e905000000     jmp 50  (0x257143e712)
0x257143e70d    45  e916000000     jmp 72  (0x257143e728)
0x257143e712    50  48b80000000000000000 REX.W movq rax,0x0
0x257143e71c    60  c3             ret
0x257143e71d    61  48b80000000001000000 REX.W movq rax,0x100000000
0x257143e727    71  c3             ret
0x257143e728    72  49ba0060207125000000 REX.W movq r10,0x2571206000
0x257143e732    82  e800000000     call 87  (0x257143e737)
0x257143e737    87  4883ec10       REX.W subq rsp,0x10
0x257143e73b    91  ff742410       push [rsp+0x10]
0x257143e73f    95  4152           push r10
0x257143e741    97  4c8b55f8       REX.W movq r10,[rbp-0x8]
0x257143e745   101  4c89542418     REX.W movq [rsp+0x18],r10
0x257143e74a   106  48896c2420     REX.W movq [rsp+0x20],rbp
0x257143e74f   111  488d6c2420     REX.W leaq rbp,[rsp+0x20]
0x257143e754   116  49ba0000000006000000 REX.W movq r10,0x600000000
0x257143e75e   126  4c89542410     REX.W movq [rsp+0x10],r10
0x257143e763   131  c3             ret


Safepoints (size = 8)

RelocInfo (size = 0)

--- End code ---
--- Code ---
kind = HANDLER
major_key = <NoCache>Stub
name = LoadFieldStub
compiler = crankshaft
Instructions (size = 190)
0x257143e7e0     0  f20f104a27     movsd xmm1,[rdx+0x27]
0x257143e7e5     5  498b9d400c0000 REX.W movq rbx,[r13+0xc40]
0x257143e7ec    12  488bc3         REX.W movq rax,rbx
0x257143e7ef    15  4883c010       REX.W addq rax,0x10
0x257143e7f3    19  0f8228000000   jc 65  (0x257143e821)
0x257143e7f9    25  493b85480c0000 REX.W cmpq rax,[r13+0xc48]
0x257143e800    32  0f871b000000   ja 65  (0x257143e821)
0x257143e806    38  498985400c0000 REX.W movq [r13+0xc40],rax
0x257143e80d    45  48ffc3         REX.W incq rbx
0x257143e810    48  4d8b5508       REX.W movq r10,[r13+0x8]
0x257143e814    52  4c8953ff       REX.W movq [rbx-0x1],r10
0x257143e818    56  f20f114b07     movsd [rbx+0x7],xmm1
0x257143e81d    61  488bc3         REX.W movq rax,rbx
0x257143e820    64  c3             ret
0x257143e821    65  55             push rbp
0x257143e822    66  ff75f8         push [rbp-0x8]
0x257143e825    69  49ba0000000006000000 REX.W movq r10,0x600000000
0x257143e82f    79  4152           push r10
0x257143e831    81  488d6c2410     REX.W leaq rbp,[rsp+0x10]
0x257143e836    86  48bb0000000000000000 REX.W movq rbx,0x0
0x257143e840    96  50             push rax
0x257143e841    97  51             push rcx
0x257143e842    98  52             push rdx
0x257143e843    99  53             push rbx
0x257143e844   100  56             push rsi
0x257143e845   101  57             push rdi
0x257143e846   102  4150           push r8
0x257143e848   104  4151           push r9
0x257143e84a   106  4153           push r11
0x257143e84c   108  4154           push r12
0x257143e84e   110  4156           push r14
0x257143e850   112  4157           push r15
0x257143e852   114  488d6424e0     REX.W leaq rsp,[rsp-0x20]
0x257143e857   119  488b75f8       REX.W movq rsi,[rbp-0x8]
0x257143e85b   123  33c0           xorl rax,rax
0x257143e85d   125  498d9d982989fd REX.W leaq rbx,[r13-0x276d668]
0x257143e864   132  e8177afcff     call 0x2571406280         ;; code: STUB, CEntryStub, minor: 1
0x257143e869   137  4c8bd0         REX.W movq r10,rax
0x257143e86c   140  488d642420     REX.W leaq rsp,[rsp+0x20]
0x257143e871   145  415f           pop r15
0x257143e873   147  415e           pop r14
0x257143e875   149  415c           pop r12
0x257143e877   151  415b           pop r11
0x257143e879   153  4159           pop r9
0x257143e87b   155  4158           pop r8
0x257143e87d   157  5f             pop rdi
0x257143e87e   158  5e             pop rsi
0x257143e87f   159  5b             pop rbx
0x257143e880   160  5a             pop rdx
0x257143e881   161  59             pop rcx
0x257143e882   162  58             pop rax
0x257143e883   163  498bda         REX.W movq rbx,r10
0x257143e886   166  488be5         REX.W movq rsp,rbp
0x257143e889   169  5d             pop rbp
0x257143e88a   170  eb8c           jmp 56  (0x257143e818)


Safepoints (size = 18)
0x257143e869   137  00000000 | rbx | rsi (sp -> fp)  <none>

RelocInfo (size = 3)
0x257143e865  code target (STUB)  (0x2571406280)

--- End code ---
--- Code ---
kind = HANDLER
major_key = <NoCache>Stub
name = LoadFieldStub
compiler = crankshaft
Instructions (size = 190)
0x257143e900     0  f20f104a1f     movsd xmm1,[rdx+0x1f]
0x257143e905     5  498b9d400c0000 REX.W movq rbx,[r13+0xc40]
0x257143e90c    12  488bc3         REX.W movq rax,rbx
0x257143e90f    15  4883c010       REX.W addq rax,0x10
0x257143e913    19  0f8228000000   jc 65  (0x257143e941)
0x257143e919    25  493b85480c0000 REX.W cmpq rax,[r13+0xc48]
0x257143e920    32  0f871b000000   ja 65  (0x257143e941)
0x257143e926    38  498985400c0000 REX.W movq [r13+0xc40],rax
0x257143e92d    45  48ffc3         REX.W incq rbx
0x257143e930    48  4d8b5508       REX.W movq r10,[r13+0x8]
0x257143e934    52  4c8953ff       REX.W movq [rbx-0x1],r10
0x257143e938    56  f20f114b07     movsd [rbx+0x7],xmm1
0x257143e93d    61  488bc3         REX.W movq rax,rbx
0x257143e940    64  c3             ret
0x257143e941    65  55             push rbp
0x257143e942    66  ff75f8         push [rbp-0x8]
0x257143e945    69  49ba0000000006000000 REX.W movq r10,0x600000000
0x257143e94f    79  4152           push r10
0x257143e951    81  488d6c2410     REX.W leaq rbp,[rsp+0x10]
0x257143e956    86  48bb0000000000000000 REX.W movq rbx,0x0
0x257143e960    96  50             push rax
0x257143e961    97  51             push rcx
0x257143e962    98  52             push rdx
0x257143e963    99  53             push rbx
0x257143e964   100  56             push rsi
0x257143e965   101  57             push rdi
0x257143e966   102  4150           push r8
0x257143e968   104  4151           push r9
0x257143e96a   106  4153           push r11
0x257143e96c   108  4154           push r12
0x257143e96e   110  4156           push r14
0x257143e970   112  4157           push r15
0x257143e972   114  488d6424e0     REX.W leaq rsp,[rsp-0x20]
0x257143e977   119  488b75f8       REX.W movq rsi,[rbp-0x8]
0x257143e97b   123  33c0           xorl rax,rax
0x257143e97d   125  498d9d982989fd REX.W leaq rbx,[r13-0x276d668]
0x257143e984   132  e8f778fcff     call 0x2571406280         ;; code: STUB, CEntryStub, minor: 1
0x257143e989   137  4c8bd0         REX.W movq r10,rax
0x257143e98c   140  488d642420     REX.W leaq rsp,[rsp+0x20]
0x257143e991   145  415f           pop r15
0x257143e993   147  415e           pop r14
0x257143e995   149  415c           pop r12
0x257143e997   151  415b           pop r11
0x257143e999   153  4159           pop r9
0x257143e99b   155  4158           pop r8
0x257143e99d   157  5f             pop rdi
0x257143e99e   158  5e             pop rsi
0x257143e99f   159  5b             pop rbx
0x257143e9a0   160  5a             pop rdx
0x257143e9a1   161  59             pop rcx
0x257143e9a2   162  58             pop rax
0x257143e9a3   163  498bda         REX.W movq rbx,r10
0x257143e9a6   166  488be5         REX.W movq rsp,rbp
0x257143e9a9   169  5d             pop rbp
0x257143e9aa   170  eb8c           jmp 56  (0x257143e938)


Safepoints (size = 18)
0x257143e989   137  00000000 | rbx | rsi (sp -> fp)  <none>

RelocInfo (size = 3)
0x257143e985  code target (STUB)  (0x2571406280)

--- End code ---
--- Code ---
kind = HANDLER
major_key = <NoCache>Stub
name = StoreFieldStub
compiler = crankshaft
Instructions (size = 116)
0x257143ea20     0  a801           test al,0x1
0x257143ea22     2  7415           jz 25  (0x257143ea39)
0x257143ea24     4  4d8b5508       REX.W movq r10,[r13+0x8]
0x257143ea28     8  4c3950ff       REX.W cmpq [rax-0x1],r10
0x257143ea2c    12  f20f104807     movsd xmm1,[rax+0x7]
0x257143ea31    17  0f8517000000   jnz 46  (0x257143ea4e)
0x257143ea37    23  eb0f           jmp 40  (0x257143ea48)
0x257143ea39    25  4c8bd0         REX.W movq r10,rax
0x257143ea3c    28  49c1ea20       REX.W shrq r10, 32
0x257143ea40    32  0f57c9         xorps xmm1,xmm1
0x257143ea43    35  f2410f2aca     cvtsi2sd xmm1,r10
0x257143ea48    40  f20f114a27     movsd [rdx+0x27],xmm1
0x257143ea4d    45  c3             ret
0x257143ea4e    46  49ba0060207125000000 REX.W movq r10,0x2571206000
0x257143ea58    56  e800000000     call 61  (0x257143ea5d)
0x257143ea5d    61  4883ec10       REX.W subq rsp,0x10
0x257143ea61    65  ff742410       push [rsp+0x10]
0x257143ea65    69  4152           push r10
0x257143ea67    71  4c8b55f8       REX.W movq r10,[rbp-0x8]
0x257143ea6b    75  4c89542418     REX.W movq [rsp+0x18],r10
0x257143ea70    80  48896c2420     REX.W movq [rsp+0x20],rbp
0x257143ea75    85  488d6c2420     REX.W leaq rbp,[rsp+0x20]
0x257143ea7a    90  49ba0000000006000000 REX.W movq r10,0x600000000
0x257143ea84   100  4c89542410     REX.W movq [rsp+0x10],r10
0x257143ea89   105  c3             ret
0x257143ea8a   106  6690           nop


Safepoints (size = 8)

RelocInfo (size = 0)

--- End code ---
--- Code ---
kind = HANDLER
major_key = <NoCache>Stub
name = LoadFieldStub
compiler = crankshaft
Instructions (size = 190)
0x257143eba0     0  f20f104a2f     movsd xmm1,[rdx+0x2f]
0x257143eba5     5  498b9d400c0000 REX.W movq rbx,[r13+0xc40]
0x257143ebac    12  488bc3         REX.W movq rax,rbx
0x257143ebaf    15  4883c010       REX.W addq rax,0x10
0x257143ebb3    19  0f8228000000   jc 65  (0x257143ebe1)
0x257143ebb9    25  493b85480c0000 REX.W cmpq rax,[r13+0xc48]
0x257143ebc0    32  0f871b000000   ja 65  (0x257143ebe1)
0x257143ebc6    38  498985400c0000 REX.W movq [r13+0xc40],rax
0x257143ebcd    45  48ffc3         REX.W incq rbx
0x257143ebd0    48  4d8b5508       REX.W movq r10,[r13+0x8]
0x257143ebd4    52  4c8953ff       REX.W movq [rbx-0x1],r10
0x257143ebd8    56  f20f114b07     movsd [rbx+0x7],xmm1
0x257143ebdd    61  488bc3         REX.W movq rax,rbx
0x257143ebe0    64  c3             ret
0x257143ebe1    65  55             push rbp
0x257143ebe2    66  ff75f8         push [rbp-0x8]
0x257143ebe5    69  49ba0000000006000000 REX.W movq r10,0x600000000
0x257143ebef    79  4152           push r10
0x257143ebf1    81  488d6c2410     REX.W leaq rbp,[rsp+0x10]
0x257143ebf6    86  48bb0000000000000000 REX.W movq rbx,0x0
0x257143ec00    96  50             push rax
0x257143ec01    97  51             push rcx
0x257143ec02    98  52             push rdx
0x257143ec03    99  53             push rbx
0x257143ec04   100  56             push rsi
0x257143ec05   101  57             push rdi
0x257143ec06   102  4150           push r8
0x257143ec08   104  4151           push r9
0x257143ec0a   106  4153           push r11
0x257143ec0c   108  4154           push r12
0x257143ec0e   110  4156           push r14
0x257143ec10   112  4157           push r15
0x257143ec12   114  488d6424e0     REX.W leaq rsp,[rsp-0x20]
0x257143ec17   119  488b75f8       REX.W movq rsi,[rbp-0x8]
0x257143ec1b   123  33c0           xorl rax,rax
0x257143ec1d   125  498d9d982989fd REX.W leaq rbx,[r13-0x276d668]
0x257143ec24   132  e85776fcff     call 0x2571406280         ;; code: STUB, CEntryStub, minor: 1
0x257143ec29   137  4c8bd0         REX.W movq r10,rax
0x257143ec2c   140  488d642420     REX.W leaq rsp,[rsp+0x20]
0x257143ec31   145  415f           pop r15
0x257143ec33   147  415e           pop r14
0x257143ec35   149  415c           pop r12
0x257143ec37   151  415b           pop r11
0x257143ec39   153  4159           pop r9
0x257143ec3b   155  4158           pop r8
0x257143ec3d   157  5f             pop rdi
0x257143ec3e   158  5e             pop rsi
0x257143ec3f   159  5b             pop rbx
0x257143ec40   160  5a             pop rdx
0x257143ec41   161  59             pop rcx
0x257143ec42   162  58             pop rax
0x257143ec43   163  498bda         REX.W movq rbx,r10
0x257143ec46   166  488be5         REX.W movq rsp,rbp
0x257143ec49   169  5d             pop rbp
0x257143ec4a   170  eb8c           jmp 56  (0x257143ebd8)


Safepoints (size = 18)
0x257143ec29   137  00000000 | rbx | rsi (sp -> fp)  <none>

RelocInfo (size = 3)
0x257143ec25  code target (STUB)  (0x2571406280)

--- End code ---
--- Code ---
kind = HANDLER
major_key = <NoCache>Stub
name = StoreFieldStub
compiler = crankshaft
Instructions (size = 116)
0x257143ecc0     0  a801           test al,0x1
0x257143ecc2     2  7415           jz 25  (0x257143ecd9)
0x257143ecc4     4  4d8b5508       REX.W movq r10,[r13+0x8]
0x257143ecc8     8  4c3950ff       REX.W cmpq [rax-0x1],r10
0x257143eccc    12  f20f104807     movsd xmm1,[rax+0x7]
0x257143ecd1    17  0f8517000000   jnz 46  (0x257143ecee)
0x257143ecd7    23  eb0f           jmp 40  (0x257143ece8)
0x257143ecd9    25  4c8bd0         REX.W movq r10,rax
0x257143ecdc    28  49c1ea20       REX.W shrq r10, 32
0x257143ece0    32  0f57c9         xorps xmm1,xmm1
0x257143ece3    35  f2410f2aca     cvtsi2sd xmm1,r10
0x257143ece8    40  f20f114a2f     movsd [rdx+0x2f],xmm1
0x257143eced    45  c3             ret
0x257143ecee    46  49ba0060207125000000 REX.W movq r10,0x2571206000
0x257143ecf8    56  e800000000     call 61  (0x257143ecfd)
0x257143ecfd    61  4883ec10       REX.W subq rsp,0x10
0x257143ed01    65  ff742410       push [rsp+0x10]
0x257143ed05    69  4152           push r10
0x257143ed07    71  4c8b55f8       REX.W movq r10,[rbp-0x8]
0x257143ed0b    75  4c89542418     REX.W movq [rsp+0x18],r10
0x257143ed10    80  48896c2420     REX.W movq [rsp+0x20],rbp
0x257143ed15    85  488d6c2420     REX.W leaq rbp,[rsp+0x20]
0x257143ed1a    90  49ba0000000006000000 REX.W movq r10,0x600000000
0x257143ed24   100  4c89542410     REX.W movq [rsp+0x10],r10
0x257143ed29   105  c3             ret
0x257143ed2a   106  6690           nop


Safepoints (size = 8)

RelocInfo (size = 0)

--- End code ---
--- Code ---
kind = HANDLER
major_key = <NoCache>Stub
name = LoadFieldStub
compiler = crankshaft
Instructions (size = 190)
0x257143eda0     0  f20f104a37     movsd xmm1,[rdx+0x37]
0x257143eda5     5  498b9d400c0000 REX.W movq rbx,[r13+0xc40]
0x257143edac    12  488bc3         REX.W movq rax,rbx
0x257143edaf    15  4883c010       REX.W addq rax,0x10
0x257143edb3    19  0f8228000000   jc 65  (0x257143ede1)
0x257143edb9    25  493b85480c0000 REX.W cmpq rax,[r13+0xc48]
0x257143edc0    32  0f871b000000   ja 65  (0x257143ede1)
0x257143edc6    38  498985400c0000 REX.W movq [r13+0xc40],rax
0x257143edcd    45  48ffc3         REX.W incq rbx
0x257143edd0    48  4d8b5508       REX.W movq r10,[r13+0x8]
0x257143edd4    52  4c8953ff       REX.W movq [rbx-0x1],r10
0x257143edd8    56  f20f114b07     movsd [rbx+0x7],xmm1
0x257143eddd    61  488bc3         REX.W movq rax,rbx
0x257143ede0    64  c3             ret
0x257143ede1    65  55             push rbp
0x257143ede2    66  ff75f8         push [rbp-0x8]
0x257143ede5    69  49ba0000000006000000 REX.W movq r10,0x600000000
0x257143edef    79  4152           push r10
0x257143edf1    81  488d6c2410     REX.W leaq rbp,[rsp+0x10]
0x257143edf6    86  48bb0000000000000000 REX.W movq rbx,0x0
0x257143ee00    96  50             push rax
0x257143ee01    97  51             push rcx
0x257143ee02    98  52             push rdx
0x257143ee03    99  53             push rbx
0x257143ee04   100  56             push rsi
0x257143ee05   101  57             push rdi
0x257143ee06   102  4150           push r8
0x257143ee08   104  4151           push r9
0x257143ee0a   106  4153           push r11
0x257143ee0c   108  4154           push r12
0x257143ee0e   110  4156           push r14
0x257143ee10   112  4157           push r15
0x257143ee12   114  488d6424e0     REX.W leaq rsp,[rsp-0x20]
0x257143ee17   119  488b75f8       REX.W movq rsi,[rbp-0x8]
0x257143ee1b   123  33c0           xorl rax,rax
0x257143ee1d   125  498d9d982989fd REX.W leaq rbx,[r13-0x276d668]
0x257143ee24   132  e85774fcff     call 0x2571406280         ;; code: STUB, CEntryStub, minor: 1
0x257143ee29   137  4c8bd0         REX.W movq r10,rax
0x257143ee2c   140  488d642420     REX.W leaq rsp,[rsp+0x20]
0x257143ee31   145  415f           pop r15
0x257143ee33   147  415e           pop r14
0x257143ee35   149  415c           pop r12
0x257143ee37   151  415b           pop r11
0x257143ee39   153  4159           pop r9
0x257143ee3b   155  4158           pop r8
0x257143ee3d   157  5f             pop rdi
0x257143ee3e   158  5e             pop rsi
0x257143ee3f   159  5b             pop rbx
0x257143ee40   160  5a             pop rdx
0x257143ee41   161  59             pop rcx
0x257143ee42   162  58             pop rax
0x257143ee43   163  498bda         REX.W movq rbx,r10
0x257143ee46   166  488be5         REX.W movq rsp,rbp
0x257143ee49   169  5d             pop rbp
0x257143ee4a   170  eb8c           jmp 56  (0x257143edd8)


Safepoints (size = 18)
0x257143ee29   137  00000000 | rbx | rsi (sp -> fp)  <none>

RelocInfo (size = 3)
0x257143ee25  code target (STUB)  (0x2571406280)

--- End code ---
--- Code ---
kind = HANDLER
major_key = <NoCache>Stub
name = StoreFieldStub
compiler = crankshaft
Instructions (size = 116)
0x257143eec0     0  a801           test al,0x1
0x257143eec2     2  7415           jz 25  (0x257143eed9)
0x257143eec4     4  4d8b5508       REX.W movq r10,[r13+0x8]
0x257143eec8     8  4c3950ff       REX.W cmpq [rax-0x1],r10
0x257143eecc    12  f20f104807     movsd xmm1,[rax+0x7]
0x257143eed1    17  0f8517000000   jnz 46  (0x257143eeee)
0x257143eed7    23  eb0f           jmp 40  (0x257143eee8)
0x257143eed9    25  4c8bd0         REX.W movq r10,rax
0x257143eedc    28  49c1ea20       REX.W shrq r10, 32
0x257143eee0    32  0f57c9         xorps xmm1,xmm1
0x257143eee3    35  f2410f2aca     cvtsi2sd xmm1,r10
0x257143eee8    40  f20f114a37     movsd [rdx+0x37],xmm1
0x257143eeed    45  c3             ret
0x257143eeee    46  49ba0060207125000000 REX.W movq r10,0x2571206000
0x257143eef8    56  e800000000     call 61  (0x257143eefd)
0x257143eefd    61  4883ec10       REX.W subq rsp,0x10
0x257143ef01    65  ff742410       push [rsp+0x10]
0x257143ef05    69  4152           push r10
0x257143ef07    71  4c8b55f8       REX.W movq r10,[rbp-0x8]
0x257143ef0b    75  4c89542418     REX.W movq [rsp+0x18],r10
0x257143ef10    80  48896c2420     REX.W movq [rsp+0x20],rbp
0x257143ef15    85  488d6c2420     REX.W leaq rbp,[rsp+0x20]
0x257143ef1a    90  49ba0000000006000000 REX.W movq r10,0x600000000
0x257143ef24   100  4c89542410     REX.W movq [rsp+0x10],r10
0x257143ef29   105  c3             ret
0x257143ef2a   106  6690           nop


Safepoints (size = 8)

RelocInfo (size = 0)

--- End code ---
--- Code ---
kind = HANDLER
major_key = <NoCache>Stub
name = LoadFieldStub
compiler = crankshaft
Instructions (size = 190)
0x257143efa0     0  f20f104a3f     movsd xmm1,[rdx+0x3f]
0x257143efa5     5  498b9d400c0000 REX.W movq rbx,[r13+0xc40]
0x257143efac    12  488bc3         REX.W movq rax,rbx
0x257143efaf    15  4883c010       REX.W addq rax,0x10
0x257143efb3    19  0f8228000000   jc 65  (0x257143efe1)
0x257143efb9    25  493b85480c0000 REX.W cmpq rax,[r13+0xc48]
0x257143efc0    32  0f871b000000   ja 65  (0x257143efe1)
0x257143efc6    38  498985400c0000 REX.W movq [r13+0xc40],rax
0x257143efcd    45  48ffc3         REX.W incq rbx
0x257143efd0    48  4d8b5508       REX.W movq r10,[r13+0x8]
0x257143efd4    52  4c8953ff       REX.W movq [rbx-0x1],r10
0x257143efd8    56  f20f114b07     movsd [rbx+0x7],xmm1
0x257143efdd    61  488bc3         REX.W movq rax,rbx
0x257143efe0    64  c3             ret
0x257143efe1    65  55             push rbp
0x257143efe2    66  ff75f8         push [rbp-0x8]
0x257143efe5    69  49ba0000000006000000 REX.W movq r10,0x600000000
0x257143efef    79  4152           push r10
0x257143eff1    81  488d6c2410     REX.W leaq rbp,[rsp+0x10]
0x257143eff6    86  48bb0000000000000000 REX.W movq rbx,0x0
0x257143f000    96  50             push rax
0x257143f001    97  51             push rcx
0x257143f002    98  52             push rdx
0x257143f003    99  53             push rbx
0x257143f004   100  56             push rsi
0x257143f005   101  57             push rdi
0x257143f006   102  4150           push r8
0x257143f008   104  4151           push r9
0x257143f00a   106  4153           push r11
0x257143f00c   108  4154           push r12
0x257143f00e   110  4156           push r14
0x257143f010   112  4157           push r15
0x257143f012   114  488d6424e0     REX.W leaq rsp,[rsp-0x20]
0x257143f017   119  488b75f8       REX.W movq rsi,[rbp-0x8]
0x257143f01b   123  33c0           xorl rax,rax
0x257143f01d   125  498d9d982989fd REX.W leaq rbx,[r13-0x276d668]
0x257143f024   132  e85772fcff     call 0x2571406280         ;; code: STUB, CEntryStub, minor: 1
0x257143f029   137  4c8bd0         REX.W movq r10,rax
0x257143f02c   140  488d642420     REX.W leaq rsp,[rsp+0x20]
0x257143f031   145  415f           pop r15
0x257143f033   147  415e           pop r14
0x257143f035   149  415c           pop r12
0x257143f037   151  415b           pop r11
0x257143f039   153  4159           pop r9
0x257143f03b   155  4158           pop r8
0x257143f03d   157  5f             pop rdi
0x257143f03e   158  5e             pop rsi
0x257143f03f   159  5b             pop rbx
0x257143f040   160  5a             pop rdx
0x257143f041   161  59             pop rcx
0x257143f042   162  58             pop rax
0x257143f043   163  498bda         REX.W movq rbx,r10
0x257143f046   166  488be5         REX.W movq rsp,rbp
0x257143f049   169  5d             pop rbp
0x257143f04a   170  eb8c           jmp 56  (0x257143efd8)


Safepoints (size = 18)
0x257143f029   137  00000000 | rbx | rsi (sp -> fp)  <none>

RelocInfo (size = 3)
0x257143f025  code target (STUB)  (0x2571406280)

--- End code ---
--- Code ---
kind = HANDLER
major_key = <NoCache>Stub
name = StoreFieldStub
compiler = crankshaft
Instructions (size = 116)
0x257143f0c0     0  a801           test al,0x1
0x257143f0c2     2  7415           jz 25  (0x257143f0d9)
0x257143f0c4     4  4d8b5508       REX.W movq r10,[r13+0x8]
0x257143f0c8     8  4c3950ff       REX.W cmpq [rax-0x1],r10
0x257143f0cc    12  f20f104807     movsd xmm1,[rax+0x7]
0x257143f0d1    17  0f8517000000   jnz 46  (0x257143f0ee)
0x257143f0d7    23  eb0f           jmp 40  (0x257143f0e8)
0x257143f0d9    25  4c8bd0         REX.W movq r10,rax
0x257143f0dc    28  49c1ea20       REX.W shrq r10, 32
0x257143f0e0    32  0f57c9         xorps xmm1,xmm1
0x257143f0e3    35  f2410f2aca     cvtsi2sd xmm1,r10
0x257143f0e8    40  f20f114a3f     movsd [rdx+0x3f],xmm1
0x257143f0ed    45  c3             ret
0x257143f0ee    46  49ba0060207125000000 REX.W movq r10,0x2571206000
0x257143f0f8    56  e800000000     call 61  (0x257143f0fd)
0x257143f0fd    61  4883ec10       REX.W subq rsp,0x10
0x257143f101    65  ff742410       push [rsp+0x10]
0x257143f105    69  4152           push r10
0x257143f107    71  4c8b55f8       REX.W movq r10,[rbp-0x8]
0x257143f10b    75  4c89542418     REX.W movq [rsp+0x18],r10
0x257143f110    80  48896c2420     REX.W movq [rsp+0x20],rbp
0x257143f115    85  488d6c2420     REX.W leaq rbp,[rsp+0x20]
0x257143f11a    90  49ba0000000006000000 REX.W movq r10,0x600000000
0x257143f124   100  4c89542410     REX.W movq [rsp+0x10],r10
0x257143f129   105  c3             ret
0x257143f12a   106  6690           nop


Safepoints (size = 8)

RelocInfo (size = 0)

--- End code ---
--- Code ---
kind = HANDLER
major_key = <NoCache>Stub
name = LoadFieldStub
compiler = crankshaft
Instructions (size = 190)
0x257143f1a0     0  f20f104a47     movsd xmm1,[rdx+0x47]
0x257143f1a5     5  498b9d400c0000 REX.W movq rbx,[r13+0xc40]
0x257143f1ac    12  488bc3         REX.W movq rax,rbx
0x257143f1af    15  4883c010       REX.W addq rax,0x10
0x257143f1b3    19  0f8228000000   jc 65  (0x257143f1e1)
0x257143f1b9    25  493b85480c0000 REX.W cmpq rax,[r13+0xc48]
0x257143f1c0    32  0f871b000000   ja 65  (0x257143f1e1)
0x257143f1c6    38  498985400c0000 REX.W movq [r13+0xc40],rax
0x257143f1cd    45  48ffc3         REX.W incq rbx
0x257143f1d0    48  4d8b5508       REX.W movq r10,[r13+0x8]
0x257143f1d4    52  4c8953ff       REX.W movq [rbx-0x1],r10
0x257143f1d8    56  f20f114b07     movsd [rbx+0x7],xmm1
0x257143f1dd    61  488bc3         REX.W movq rax,rbx
0x257143f1e0    64  c3             ret
0x257143f1e1    65  55             push rbp
0x257143f1e2    66  ff75f8         push [rbp-0x8]
0x257143f1e5    69  49ba0000000006000000 REX.W movq r10,0x600000000
0x257143f1ef    79  4152           push r10
0x257143f1f1    81  488d6c2410     REX.W leaq rbp,[rsp+0x10]
0x257143f1f6    86  48bb0000000000000000 REX.W movq rbx,0x0
0x257143f200    96  50             push rax
0x257143f201    97  51             push rcx
0x257143f202    98  52             push rdx
0x257143f203    99  53             push rbx
0x257143f204   100  56             push rsi
0x257143f205   101  57             push rdi
0x257143f206   102  4150           push r8
0x257143f208   104  4151           push r9
0x257143f20a   106  4153           push r11
0x257143f20c   108  4154           push r12
0x257143f20e   110  4156           push r14
0x257143f210   112  4157           push r15
0x257143f212   114  488d6424e0     REX.W leaq rsp,[rsp-0x20]
0x257143f217   119  488b75f8       REX.W movq rsi,[rbp-0x8]
0x257143f21b   123  33c0           xorl rax,rax
0x257143f21d   125  498d9d982989fd REX.W leaq rbx,[r13-0x276d668]
0x257143f224   132  e85770fcff     call 0x2571406280         ;; code: STUB, CEntryStub, minor: 1
0x257143f229   137  4c8bd0         REX.W movq r10,rax
0x257143f22c   140  488d642420     REX.W leaq rsp,[rsp+0x20]
0x257143f231   145  415f           pop r15
0x257143f233   147  415e           pop r14
0x257143f235   149  415c           pop r12
0x257143f237   151  415b           pop r11
0x257143f239   153  4159           pop r9
0x257143f23b   155  4158           pop r8
0x257143f23d   157  5f             pop rdi
0x257143f23e   158  5e             pop rsi
0x257143f23f   159  5b             pop rbx
0x257143f240   160  5a             pop rdx
0x257143f241   161  59             pop rcx
0x257143f242   162  58             pop rax
0x257143f243   163  498bda         REX.W movq rbx,r10
0x257143f246   166  488be5         REX.W movq rsp,rbp
0x257143f249   169  5d             pop rbp
0x257143f24a   170  eb8c           jmp 56  (0x257143f1d8)


Safepoints (size = 18)
0x257143f229   137  00000000 | rbx | rsi (sp -> fp)  <none>

RelocInfo (size = 3)
0x257143f225  code target (STUB)  (0x2571406280)

--- End code ---
--- Code ---
kind = HANDLER
major_key = <NoCache>Stub
name = StoreFieldStub
compiler = crankshaft
Instructions (size = 116)
0x257143f2c0     0  a801           test al,0x1
0x257143f2c2     2  7415           jz 25  (0x257143f2d9)
0x257143f2c4     4  4d8b5508       REX.W movq r10,[r13+0x8]
0x257143f2c8     8  4c3950ff       REX.W cmpq [rax-0x1],r10
0x257143f2cc    12  f20f104807     movsd xmm1,[rax+0x7]
0x257143f2d1    17  0f8517000000   jnz 46  (0x257143f2ee)
0x257143f2d7    23  eb0f           jmp 40  (0x257143f2e8)
0x257143f2d9    25  4c8bd0         REX.W movq r10,rax
0x257143f2dc    28  49c1ea20       REX.W shrq r10, 32
0x257143f2e0    32  0f57c9         xorps xmm1,xmm1
0x257143f2e3    35  f2410f2aca     cvtsi2sd xmm1,r10
0x257143f2e8    40  f20f114a47     movsd [rdx+0x47],xmm1
0x257143f2ed    45  c3             ret
0x257143f2ee    46  49ba0060207125000000 REX.W movq r10,0x2571206000
0x257143f2f8    56  e800000000     call 61  (0x257143f2fd)
0x257143f2fd    61  4883ec10       REX.W subq rsp,0x10
0x257143f301    65  ff742410       push [rsp+0x10]
0x257143f305    69  4152           push r10
0x257143f307    71  4c8b55f8       REX.W movq r10,[rbp-0x8]
0x257143f30b    75  4c89542418     REX.W movq [rsp+0x18],r10
0x257143f310    80  48896c2420     REX.W movq [rsp+0x20],rbp
0x257143f315    85  488d6c2420     REX.W leaq rbp,[rsp+0x20]
0x257143f31a    90  49ba0000000006000000 REX.W movq r10,0x600000000
0x257143f324   100  4c89542410     REX.W movq [rsp+0x10],r10
0x257143f329   105  c3             ret
0x257143f32a   106  6690           nop


Safepoints (size = 8)

RelocInfo (size = 0)

--- End code ---
--- Code ---
kind = HANDLER
major_key = <NoCache>Stub
name = LoadFieldStub
compiler = crankshaft
Instructions (size = 190)
0x257143f3a0     0  f20f104a4f     movsd xmm1,[rdx+0x4f]
0x257143f3a5     5  498b9d400c0000 REX.W movq rbx,[r13+0xc40]
0x257143f3ac    12  488bc3         REX.W movq rax,rbx
0x257143f3af    15  4883c010       REX.W addq rax,0x10
0x257143f3b3    19  0f8228000000   jc 65  (0x257143f3e1)
0x257143f3b9    25  493b85480c0000 REX.W cmpq rax,[r13+0xc48]
0x257143f3c0    32  0f871b000000   ja 65  (0x257143f3e1)
0x257143f3c6    38  498985400c0000 REX.W movq [r13+0xc40],rax
0x257143f3cd    45  48ffc3         REX.W incq rbx
0x257143f3d0    48  4d8b5508       REX.W movq r10,[r13+0x8]
0x257143f3d4    52  4c8953ff       REX.W movq [rbx-0x1],r10
0x257143f3d8    56  f20f114b07     movsd [rbx+0x7],xmm1
0x257143f3dd    61  488bc3         REX.W movq rax,rbx
0x257143f3e0    64  c3             ret
0x257143f3e1    65  55             push rbp
0x257143f3e2    66  ff75f8         push [rbp-0x8]
0x257143f3e5    69  49ba0000000006000000 REX.W movq r10,0x600000000
0x257143f3ef    79  4152           push r10
0x257143f3f1    81  488d6c2410     REX.W leaq rbp,[rsp+0x10]
0x257143f3f6    86  48bb0000000000000000 REX.W movq rbx,0x0
0x257143f400    96  50             push rax
0x257143f401    97  51             push rcx
0x257143f402    98  52             push rdx
0x257143f403    99  53             push rbx
0x257143f404   100  56             push rsi
0x257143f405   101  57             push rdi
0x257143f406   102  4150           push r8
0x257143f408   104  4151           push r9
0x257143f40a   106  4153           push r11
0x257143f40c   108  4154           push r12
0x257143f40e   110  4156           push r14
0x257143f410   112  4157           push r15
0x257143f412   114  488d6424e0     REX.W leaq rsp,[rsp-0x20]
0x257143f417   119  488b75f8       REX.W movq rsi,[rbp-0x8]
0x257143f41b   123  33c0           xorl rax,rax
0x257143f41d   125  498d9d982989fd REX.W leaq rbx,[r13-0x276d668]
0x257143f424   132  e8576efcff     call 0x2571406280         ;; code: STUB, CEntryStub, minor: 1
0x257143f429   137  4c8bd0         REX.W movq r10,rax
0x257143f42c   140  488d642420     REX.W leaq rsp,[rsp+0x20]
0x257143f431   145  415f           pop r15
0x257143f433   147  415e           pop r14
0x257143f435   149  415c           pop r12
0x257143f437   151  415b           pop r11
0x257143f439   153  4159           pop r9
0x257143f43b   155  4158           pop r8
0x257143f43d   157  5f             pop rdi
0x257143f43e   158  5e             pop rsi
0x257143f43f   159  5b             pop rbx
0x257143f440   160  5a             pop rdx
0x257143f441   161  59             pop rcx
0x257143f442   162  58             pop rax
0x257143f443   163  498bda         REX.W movq rbx,r10
0x257143f446   166  488be5         REX.W movq rsp,rbp
0x257143f449   169  5d             pop rbp
0x257143f44a   170  eb8c           jmp 56  (0x257143f3d8)


Safepoints (size = 18)
0x257143f429   137  00000000 | rbx | rsi (sp -> fp)  <none>

RelocInfo (size = 3)
0x257143f425  code target (STUB)  (0x2571406280)

--- End code ---
--- Code ---
kind = HANDLER
major_key = <NoCache>Stub
name = StoreFieldStub
compiler = crankshaft
Instructions (size = 116)
0x257143f4c0     0  a801           test al,0x1
0x257143f4c2     2  7415           jz 25  (0x257143f4d9)
0x257143f4c4     4  4d8b5508       REX.W movq r10,[r13+0x8]
0x257143f4c8     8  4c3950ff       REX.W cmpq [rax-0x1],r10
0x257143f4cc    12  f20f104807     movsd xmm1,[rax+0x7]
0x257143f4d1    17  0f8517000000   jnz 46  (0x257143f4ee)
0x257143f4d7    23  eb0f           jmp 40  (0x257143f4e8)
0x257143f4d9    25  4c8bd0         REX.W movq r10,rax
0x257143f4dc    28  49c1ea20       REX.W shrq r10, 32
0x257143f4e0    32  0f57c9         xorps xmm1,xmm1
0x257143f4e3    35  f2410f2aca     cvtsi2sd xmm1,r10
0x257143f4e8    40  f20f114a4f     movsd [rdx+0x4f],xmm1
0x257143f4ed    45  c3             ret
0x257143f4ee    46  49ba0060207125000000 REX.W movq r10,0x2571206000
0x257143f4f8    56  e800000000     call 61  (0x257143f4fd)
0x257143f4fd    61  4883ec10       REX.W subq rsp,0x10
0x257143f501    65  ff742410       push [rsp+0x10]
0x257143f505    69  4152           push r10
0x257143f507    71  4c8b55f8       REX.W movq r10,[rbp-0x8]
0x257143f50b    75  4c89542418     REX.W movq [rsp+0x18],r10
0x257143f510    80  48896c2420     REX.W movq [rsp+0x20],rbp
0x257143f515    85  488d6c2420     REX.W leaq rbp,[rsp+0x20]
0x257143f51a    90  49ba0000000006000000 REX.W movq r10,0x600000000
0x257143f524   100  4c89542410     REX.W movq [rsp+0x10],r10
0x257143f529   105  c3             ret
0x257143f52a   106  6690           nop


Safepoints (size = 8)

RelocInfo (size = 0)

--- End code ---
--- Code ---
kind = HANDLER
major_key = <NoCache>Stub
name = LoadFieldStub
compiler = crankshaft
Instructions (size = 190)
0x257143f5a0     0  f20f104a57     movsd xmm1,[rdx+0x57]
0x257143f5a5     5  498b9d400c0000 REX.W movq rbx,[r13+0xc40]
0x257143f5ac    12  488bc3         REX.W movq rax,rbx
0x257143f5af    15  4883c010       REX.W addq rax,0x10
0x257143f5b3    19  0f8228000000   jc 65  (0x257143f5e1)
0x257143f5b9    25  493b85480c0000 REX.W cmpq rax,[r13+0xc48]
0x257143f5c0    32  0f871b000000   ja 65  (0x257143f5e1)
0x257143f5c6    38  498985400c0000 REX.W movq [r13+0xc40],rax
0x257143f5cd    45  48ffc3         REX.W incq rbx
0x257143f5d0    48  4d8b5508       REX.W movq r10,[r13+0x8]
0x257143f5d4    52  4c8953ff       REX.W movq [rbx-0x1],r10
0x257143f5d8    56  f20f114b07     movsd [rbx+0x7],xmm1
0x257143f5dd    61  488bc3         REX.W movq rax,rbx
0x257143f5e0    64  c3             ret
0x257143f5e1    65  55             push rbp
0x257143f5e2    66  ff75f8         push [rbp-0x8]
0x257143f5e5    69  49ba0000000006000000 REX.W movq r10,0x600000000
0x257143f5ef    79  4152           push r10
0x257143f5f1    81  488d6c2410     REX.W leaq rbp,[rsp+0x10]
0x257143f5f6    86  48bb0000000000000000 REX.W movq rbx,0x0
0x257143f600    96  50             push rax
0x257143f601    97  51             push rcx
0x257143f602    98  52             push rdx
0x257143f603    99  53             push rbx
0x257143f604   100  56             push rsi
0x257143f605   101  57             push rdi
0x257143f606   102  4150           push r8
0x257143f608   104  4151           push r9
0x257143f60a   106  4153           push r11
0x257143f60c   108  4154           push r12
0x257143f60e   110  4156           push r14
0x257143f610   112  4157           push r15
0x257143f612   114  488d6424e0     REX.W leaq rsp,[rsp-0x20]
0x257143f617   119  488b75f8       REX.W movq rsi,[rbp-0x8]
0x257143f61b   123  33c0           xorl rax,rax
0x257143f61d   125  498d9d982989fd REX.W leaq rbx,[r13-0x276d668]
0x257143f624   132  e8576cfcff     call 0x2571406280         ;; code: STUB, CEntryStub, minor: 1
0x257143f629   137  4c8bd0         REX.W movq r10,rax
0x257143f62c   140  488d642420     REX.W leaq rsp,[rsp+0x20]
0x257143f631   145  415f           pop r15
0x257143f633   147  415e           pop r14
0x257143f635   149  415c           pop r12
0x257143f637   151  415b           pop r11
0x257143f639   153  4159           pop r9
0x257143f63b   155  4158           pop r8
0x257143f63d   157  5f             pop rdi
0x257143f63e   158  5e             pop rsi
0x257143f63f   159  5b             pop rbx
0x257143f640   160  5a             pop rdx
0x257143f641   161  59             pop rcx
0x257143f642   162  58             pop rax
0x257143f643   163  498bda         REX.W movq rbx,r10
0x257143f646   166  488be5         REX.W movq rsp,rbp
0x257143f649   169  5d             pop rbp
0x257143f64a   170  eb8c           jmp 56  (0x257143f5d8)


Safepoints (size = 18)
0x257143f629   137  00000000 | rbx | rsi (sp -> fp)  <none>

RelocInfo (size = 3)
0x257143f625  code target (STUB)  (0x2571406280)

--- End code ---
--- Code ---
kind = HANDLER
major_key = <NoCache>Stub
name = StoreFieldStub
compiler = crankshaft
Instructions (size = 116)
0x257143f6c0     0  a801           test al,0x1
0x257143f6c2     2  7415           jz 25  (0x257143f6d9)
0x257143f6c4     4  4d8b5508       REX.W movq r10,[r13+0x8]
0x257143f6c8     8  4c3950ff       REX.W cmpq [rax-0x1],r10
0x257143f6cc    12  f20f104807     movsd xmm1,[rax+0x7]
0x257143f6d1    17  0f8517000000   jnz 46  (0x257143f6ee)
0x257143f6d7    23  eb0f           jmp 40  (0x257143f6e8)
0x257143f6d9    25  4c8bd0         REX.W movq r10,rax
0x257143f6dc    28  49c1ea20       REX.W shrq r10, 32
0x257143f6e0    32  0f57c9         xorps xmm1,xmm1
0x257143f6e3    35  f2410f2aca     cvtsi2sd xmm1,r10
0x257143f6e8    40  f20f114a57     movsd [rdx+0x57],xmm1
0x257143f6ed    45  c3             ret
0x257143f6ee    46  49ba0060207125000000 REX.W movq r10,0x2571206000
0x257143f6f8    56  e800000000     call 61  (0x257143f6fd)
0x257143f6fd    61  4883ec10       REX.W subq rsp,0x10
0x257143f701    65  ff742410       push [rsp+0x10]
0x257143f705    69  4152           push r10
0x257143f707    71  4c8b55f8       REX.W movq r10,[rbp-0x8]
0x257143f70b    75  4c89542418     REX.W movq [rsp+0x18],r10
0x257143f710    80  48896c2420     REX.W movq [rsp+0x20],rbp
0x257143f715    85  488d6c2420     REX.W leaq rbp,[rsp+0x20]
0x257143f71a    90  49ba0000000006000000 REX.W movq r10,0x600000000
0x257143f724   100  4c89542410     REX.W movq [rsp+0x10],r10
0x257143f729   105  c3             ret
0x257143f72a   106  6690           nop


Safepoints (size = 8)

RelocInfo (size = 0)

--- End code ---
--- Code ---
kind = HANDLER
major_key = <NoCache>Stub
name = LoadFieldStub
compiler = crankshaft
Instructions (size = 190)
0x257143f7a0     0  f20f104a5f     movsd xmm1,[rdx+0x5f]
0x257143f7a5     5  498b9d400c0000 REX.W movq rbx,[r13+0xc40]
0x257143f7ac    12  488bc3         REX.W movq rax,rbx
0x257143f7af    15  4883c010       REX.W addq rax,0x10
0x257143f7b3    19  0f8228000000   jc 65  (0x257143f7e1)
0x257143f7b9    25  493b85480c0000 REX.W cmpq rax,[r13+0xc48]
0x257143f7c0    32  0f871b000000   ja 65  (0x257143f7e1)
0x257143f7c6    38  498985400c0000 REX.W movq [r13+0xc40],rax
0x257143f7cd    45  48ffc3         REX.W incq rbx
0x257143f7d0    48  4d8b5508       REX.W movq r10,[r13+0x8]
0x257143f7d4    52  4c8953ff       REX.W movq [rbx-0x1],r10
0x257143f7d8    56  f20f114b07     movsd [rbx+0x7],xmm1
0x257143f7dd    61  488bc3         REX.W movq rax,rbx
0x257143f7e0    64  c3             ret
0x257143f7e1    65  55             push rbp
0x257143f7e2    66  ff75f8         push [rbp-0x8]
0x257143f7e5    69  49ba0000000006000000 REX.W movq r10,0x600000000
0x257143f7ef    79  4152           push r10
0x257143f7f1    81  488d6c2410     REX.W leaq rbp,[rsp+0x10]
0x257143f7f6    86  48bb0000000000000000 REX.W movq rbx,0x0
0x257143f800    96  50             push rax
0x257143f801    97  51             push rcx
0x257143f802    98  52             push rdx
0x257143f803    99  53             push rbx
0x257143f804   100  56             push rsi
0x257143f805   101  57             push rdi
0x257143f806   102  4150           push r8
0x257143f808   104  4151           push r9
0x257143f80a   106  4153           push r11
0x257143f80c   108  4154           push r12
0x257143f80e   110  4156           push r14
0x257143f810   112  4157           push r15
0x257143f812   114  488d6424e0     REX.W leaq rsp,[rsp-0x20]
0x257143f817   119  488b75f8       REX.W movq rsi,[rbp-0x8]
0x257143f81b   123  33c0           xorl rax,rax
0x257143f81d   125  498d9d982989fd REX.W leaq rbx,[r13-0x276d668]
0x257143f824   132  e8576afcff     call 0x2571406280         ;; code: STUB, CEntryStub, minor: 1
0x257143f829   137  4c8bd0         REX.W movq r10,rax
0x257143f82c   140  488d642420     REX.W leaq rsp,[rsp+0x20]
0x257143f831   145  415f           pop r15
0x257143f833   147  415e           pop r14
0x257143f835   149  415c           pop r12
0x257143f837   151  415b           pop r11
0x257143f839   153  4159           pop r9
0x257143f83b   155  4158           pop r8
0x257143f83d   157  5f             pop rdi
0x257143f83e   158  5e             pop rsi
0x257143f83f   159  5b             pop rbx
0x257143f840   160  5a             pop rdx
0x257143f841   161  59             pop rcx
0x257143f842   162  58             pop rax
0x257143f843   163  498bda         REX.W movq rbx,r10
0x257143f846   166  488be5         REX.W movq rsp,rbp
0x257143f849   169  5d             pop rbp
0x257143f84a   170  eb8c           jmp 56  (0x257143f7d8)


Safepoints (size = 18)
0x257143f829   137  00000000 | rbx | rsi (sp -> fp)  <none>

RelocInfo (size = 3)
0x257143f825  code target (STUB)  (0x2571406280)

--- End code ---
--- Code ---
kind = HANDLER
major_key = <NoCache>Stub
name = StoreFieldStub
compiler = crankshaft
Instructions (size = 116)
0x257143f8c0     0  a801           test al,0x1
0x257143f8c2     2  7415           jz 25  (0x257143f8d9)
0x257143f8c4     4  4d8b5508       REX.W movq r10,[r13+0x8]
0x257143f8c8     8  4c3950ff       REX.W cmpq [rax-0x1],r10
0x257143f8cc    12  f20f104807     movsd xmm1,[rax+0x7]
0x257143f8d1    17  0f8517000000   jnz 46  (0x257143f8ee)
0x257143f8d7    23  eb0f           jmp 40  (0x257143f8e8)
0x257143f8d9    25  4c8bd0         REX.W movq r10,rax
0x257143f8dc    28  49c1ea20       REX.W shrq r10, 32
0x257143f8e0    32  0f57c9         xorps xmm1,xmm1
0x257143f8e3    35  f2410f2aca     cvtsi2sd xmm1,r10
0x257143f8e8    40  f20f114a5f     movsd [rdx+0x5f],xmm1
0x257143f8ed    45  c3             ret
0x257143f8ee    46  49ba0060207125000000 REX.W movq r10,0x2571206000
0x257143f8f8    56  e800000000     call 61  (0x257143f8fd)
0x257143f8fd    61  4883ec10       REX.W subq rsp,0x10
0x257143f901    65  ff742410       push [rsp+0x10]
0x257143f905    69  4152           push r10
0x257143f907    71  4c8b55f8       REX.W movq r10,[rbp-0x8]
0x257143f90b    75  4c89542418     REX.W movq [rsp+0x18],r10
0x257143f910    80  48896c2420     REX.W movq [rsp+0x20],rbp
0x257143f915    85  488d6c2420     REX.W leaq rbp,[rsp+0x20]
0x257143f91a    90  49ba0000000006000000 REX.W movq r10,0x600000000
0x257143f924   100  4c89542410     REX.W movq [rsp+0x10],r10
0x257143f929   105  c3             ret
0x257143f92a   106  6690           nop


Safepoints (size = 8)

RelocInfo (size = 0)

--- End code ---
--- Code ---
kind = HANDLER
major_key = <NoCache>Stub
name = LoadFieldStub
compiler = crankshaft
Instructions (size = 190)
0x257143f9a0     0  f20f104a67     movsd xmm1,[rdx+0x67]
0x257143f9a5     5  498b9d400c0000 REX.W movq rbx,[r13+0xc40]
0x257143f9ac    12  488bc3         REX.W movq rax,rbx
0x257143f9af    15  4883c010       REX.W addq rax,0x10
0x257143f9b3    19  0f8228000000   jc 65  (0x257143f9e1)
0x257143f9b9    25  493b85480c0000 REX.W cmpq rax,[r13+0xc48]
0x257143f9c0    32  0f871b000000   ja 65  (0x257143f9e1)
0x257143f9c6    38  498985400c0000 REX.W movq [r13+0xc40],rax
0x257143f9cd    45  48ffc3         REX.W incq rbx
0x257143f9d0    48  4d8b5508       REX.W movq r10,[r13+0x8]
0x257143f9d4    52  4c8953ff       REX.W movq [rbx-0x1],r10
0x257143f9d8    56  f20f114b07     movsd [rbx+0x7],xmm1
0x257143f9dd    61  488bc3         REX.W movq rax,rbx
0x257143f9e0    64  c3             ret
0x257143f9e1    65  55             push rbp
0x257143f9e2    66  ff75f8         push [rbp-0x8]
0x257143f9e5    69  49ba0000000006000000 REX.W movq r10,0x600000000
0x257143f9ef    79  4152           push r10
0x257143f9f1    81  488d6c2410     REX.W leaq rbp,[rsp+0x10]
0x257143f9f6    86  48bb0000000000000000 REX.W movq rbx,0x0
0x257143fa00    96  50             push rax
0x257143fa01    97  51             push rcx
0x257143fa02    98  52             push rdx
0x257143fa03    99  53             push rbx
0x257143fa04   100  56             push rsi
0x257143fa05   101  57             push rdi
0x257143fa06   102  4150           push r8
0x257143fa08   104  4151           push r9
0x257143fa0a   106  4153           push r11
0x257143fa0c   108  4154           push r12
0x257143fa0e   110  4156           push r14
0x257143fa10   112  4157           push r15
0x257143fa12   114  488d6424e0     REX.W leaq rsp,[rsp-0x20]
0x257143fa17   119  488b75f8       REX.W movq rsi,[rbp-0x8]
0x257143fa1b   123  33c0           xorl rax,rax
0x257143fa1d   125  498d9d982989fd REX.W leaq rbx,[r13-0x276d668]
0x257143fa24   132  e85768fcff     call 0x2571406280         ;; code: STUB, CEntryStub, minor: 1
0x257143fa29   137  4c8bd0         REX.W movq r10,rax
0x257143fa2c   140  488d642420     REX.W leaq rsp,[rsp+0x20]
0x257143fa31   145  415f           pop r15
0x257143fa33   147  415e           pop r14
0x257143fa35   149  415c           pop r12
0x257143fa37   151  415b           pop r11
0x257143fa39   153  4159           pop r9
0x257143fa3b   155  4158           pop r8
0x257143fa3d   157  5f             pop rdi
0x257143fa3e   158  5e             pop rsi
0x257143fa3f   159  5b             pop rbx
0x257143fa40   160  5a             pop rdx
0x257143fa41   161  59             pop rcx
0x257143fa42   162  58             pop rax
0x257143fa43   163  498bda         REX.W movq rbx,r10
0x257143fa46   166  488be5         REX.W movq rsp,rbp
0x257143fa49   169  5d             pop rbp
0x257143fa4a   170  eb8c           jmp 56  (0x257143f9d8)


Safepoints (size = 18)
0x257143fa29   137  00000000 | rbx | rsi (sp -> fp)  <none>

RelocInfo (size = 3)
0x257143fa25  code target (STUB)  (0x2571406280)

--- End code ---
--- Code ---
kind = HANDLER
major_key = <NoCache>Stub
name = StoreFieldStub
compiler = crankshaft
Instructions (size = 116)
0x257143fac0     0  a801           test al,0x1
0x257143fac2     2  7415           jz 25  (0x257143fad9)
0x257143fac4     4  4d8b5508       REX.W movq r10,[r13+0x8]
0x257143fac8     8  4c3950ff       REX.W cmpq [rax-0x1],r10
0x257143facc    12  f20f104807     movsd xmm1,[rax+0x7]
0x257143fad1    17  0f8517000000   jnz 46  (0x257143faee)
0x257143fad7    23  eb0f           jmp 40  (0x257143fae8)
0x257143fad9    25  4c8bd0         REX.W movq r10,rax
0x257143fadc    28  49c1ea20       REX.W shrq r10, 32
0x257143fae0    32  0f57c9         xorps xmm1,xmm1
0x257143fae3    35  f2410f2aca     cvtsi2sd xmm1,r10
0x257143fae8    40  f20f114a67     movsd [rdx+0x67],xmm1
0x257143faed    45  c3             ret
0x257143faee    46  49ba0060207125000000 REX.W movq r10,0x2571206000
0x257143faf8    56  e800000000     call 61  (0x257143fafd)
0x257143fafd    61  4883ec10       REX.W subq rsp,0x10
0x257143fb01    65  ff742410       push [rsp+0x10]
0x257143fb05    69  4152           push r10
0x257143fb07    71  4c8b55f8       REX.W movq r10,[rbp-0x8]
0x257143fb0b    75  4c89542418     REX.W movq [rsp+0x18],r10
0x257143fb10    80  48896c2420     REX.W movq [rsp+0x20],rbp
0x257143fb15    85  488d6c2420     REX.W leaq rbp,[rsp+0x20]
0x257143fb1a    90  49ba0000000006000000 REX.W movq r10,0x600000000
0x257143fb24   100  4c89542410     REX.W movq [rsp+0x10],r10
0x257143fb29   105  c3             ret
0x257143fb2a   106  6690           nop


Safepoints (size = 8)

RelocInfo (size = 0)

--- End code ---
--- Code ---
kind = HANDLER
major_key = <NoCache>Stub
name = LoadFieldStub
compiler = crankshaft
Instructions (size = 190)
0x257143fba0     0  f20f104a6f     movsd xmm1,[rdx+0x6f]
0x257143fba5     5  498b9d400c0000 REX.W movq rbx,[r13+0xc40]
0x257143fbac    12  488bc3         REX.W movq rax,rbx
0x257143fbaf    15  4883c010       REX.W addq rax,0x10
0x257143fbb3    19  0f8228000000   jc 65  (0x257143fbe1)
0x257143fbb9    25  493b85480c0000 REX.W cmpq rax,[r13+0xc48]
0x257143fbc0    32  0f871b000000   ja 65  (0x257143fbe1)
0x257143fbc6    38  498985400c0000 REX.W movq [r13+0xc40],rax
0x257143fbcd    45  48ffc3         REX.W incq rbx
0x257143fbd0    48  4d8b5508       REX.W movq r10,[r13+0x8]
0x257143fbd4    52  4c8953ff       REX.W movq [rbx-0x1],r10
0x257143fbd8    56  f20f114b07     movsd [rbx+0x7],xmm1
0x257143fbdd    61  488bc3         REX.W movq rax,rbx
0x257143fbe0    64  c3             ret
0x257143fbe1    65  55             push rbp
0x257143fbe2    66  ff75f8         push [rbp-0x8]
0x257143fbe5    69  49ba0000000006000000 REX.W movq r10,0x600000000
0x257143fbef    79  4152           push r10
0x257143fbf1    81  488d6c2410     REX.W leaq rbp,[rsp+0x10]
0x257143fbf6    86  48bb0000000000000000 REX.W movq rbx,0x0
0x257143fc00    96  50             push rax
0x257143fc01    97  51             push rcx
0x257143fc02    98  52             push rdx
0x257143fc03    99  53             push rbx
0x257143fc04   100  56             push rsi
0x257143fc05   101  57             push rdi
0x257143fc06   102  4150           push r8
0x257143fc08   104  4151           push r9
0x257143fc0a   106  4153           push r11
0x257143fc0c   108  4154           push r12
0x257143fc0e   110  4156           push r14
0x257143fc10   112  4157           push r15
0x257143fc12   114  488d6424e0     REX.W leaq rsp,[rsp-0x20]
0x257143fc17   119  488b75f8       REX.W movq rsi,[rbp-0x8]
0x257143fc1b   123  33c0           xorl rax,rax
0x257143fc1d   125  498d9d982989fd REX.W leaq rbx,[r13-0x276d668]
0x257143fc24   132  e85766fcff     call 0x2571406280         ;; code: STUB, CEntryStub, minor: 1
0x257143fc29   137  4c8bd0         REX.W movq r10,rax
0x257143fc2c   140  488d642420     REX.W leaq rsp,[rsp+0x20]
0x257143fc31   145  415f           pop r15
0x257143fc33   147  415e           pop r14
0x257143fc35   149  415c           pop r12
0x257143fc37   151  415b           pop r11
0x257143fc39   153  4159           pop r9
0x257143fc3b   155  4158           pop r8
0x257143fc3d   157  5f             pop rdi
0x257143fc3e   158  5e             pop rsi
0x257143fc3f   159  5b             pop rbx
0x257143fc40   160  5a             pop rdx
0x257143fc41   161  59             pop rcx
0x257143fc42   162  58             pop rax
0x257143fc43   163  498bda         REX.W movq rbx,r10
0x257143fc46   166  488be5         REX.W movq rsp,rbp
0x257143fc49   169  5d             pop rbp
0x257143fc4a   170  eb8c           jmp 56  (0x257143fbd8)


Safepoints (size = 18)
0x257143fc29   137  00000000 | rbx | rsi (sp -> fp)  <none>

RelocInfo (size = 3)
0x257143fc25  code target (STUB)  (0x2571406280)

--- End code ---
--- Code ---
kind = HANDLER
major_key = <NoCache>Stub
name = StoreFieldStub
compiler = crankshaft
Instructions (size = 116)
0x257143fcc0     0  a801           test al,0x1
0x257143fcc2     2  7415           jz 25  (0x257143fcd9)
0x257143fcc4     4  4d8b5508       REX.W movq r10,[r13+0x8]
0x257143fcc8     8  4c3950ff       REX.W cmpq [rax-0x1],r10
0x257143fccc    12  f20f104807     movsd xmm1,[rax+0x7]
0x257143fcd1    17  0f8517000000   jnz 46  (0x257143fcee)
0x257143fcd7    23  eb0f           jmp 40  (0x257143fce8)
0x257143fcd9    25  4c8bd0         REX.W movq r10,rax
0x257143fcdc    28  49c1ea20       REX.W shrq r10, 32
0x257143fce0    32  0f57c9         xorps xmm1,xmm1
0x257143fce3    35  f2410f2aca     cvtsi2sd xmm1,r10
0x257143fce8    40  f20f114a6f     movsd [rdx+0x6f],xmm1
0x257143fced    45  c3             ret
0x257143fcee    46  49ba0060207125000000 REX.W movq r10,0x2571206000
0x257143fcf8    56  e800000000     call 61  (0x257143fcfd)
0x257143fcfd    61  4883ec10       REX.W subq rsp,0x10
0x257143fd01    65  ff742410       push [rsp+0x10]
0x257143fd05    69  4152           push r10
0x257143fd07    71  4c8b55f8       REX.W movq r10,[rbp-0x8]
0x257143fd0b    75  4c89542418     REX.W movq [rsp+0x18],r10
0x257143fd10    80  48896c2420     REX.W movq [rsp+0x20],rbp
0x257143fd15    85  488d6c2420     REX.W leaq rbp,[rsp+0x20]
0x257143fd1a    90  49ba0000000006000000 REX.W movq r10,0x600000000
0x257143fd24   100  4c89542410     REX.W movq [rsp+0x10],r10
0x257143fd29   105  c3             ret
0x257143fd2a   106  6690           nop


Safepoints (size = 8)

RelocInfo (size = 0)

--- End code ---
--- Code ---
kind = HANDLER
major_key = <NoCache>Stub
name = LoadFieldStub
compiler = crankshaft
Instructions (size = 190)
0x257143fda0     0  f20f104a77     movsd xmm1,[rdx+0x77]
0x257143fda5     5  498b9d400c0000 REX.W movq rbx,[r13+0xc40]
0x257143fdac    12  488bc3         REX.W movq rax,rbx
0x257143fdaf    15  4883c010       REX.W addq rax,0x10
0x257143fdb3    19  0f8228000000   jc 65  (0x257143fde1)
0x257143fdb9    25  493b85480c0000 REX.W cmpq rax,[r13+0xc48]
0x257143fdc0    32  0f871b000000   ja 65  (0x257143fde1)
0x257143fdc6    38  498985400c0000 REX.W movq [r13+0xc40],rax
0x257143fdcd    45  48ffc3         REX.W incq rbx
0x257143fdd0    48  4d8b5508       REX.W movq r10,[r13+0x8]
0x257143fdd4    52  4c8953ff       REX.W movq [rbx-0x1],r10
0x257143fdd8    56  f20f114b07     movsd [rbx+0x7],xmm1
0x257143fddd    61  488bc3         REX.W movq rax,rbx
0x257143fde0    64  c3             ret
0x257143fde1    65  55             push rbp
0x257143fde2    66  ff75f8         push [rbp-0x8]
0x257143fde5    69  49ba0000000006000000 REX.W movq r10,0x600000000
0x257143fdef    79  4152           push r10
0x257143fdf1    81  488d6c2410     REX.W leaq rbp,[rsp+0x10]
0x257143fdf6    86  48bb0000000000000000 REX.W movq rbx,0x0
0x257143fe00    96  50             push rax
0x257143fe01    97  51             push rcx
0x257143fe02    98  52             push rdx
0x257143fe03    99  53             push rbx
0x257143fe04   100  56             push rsi
0x257143fe05   101  57             push rdi
0x257143fe06   102  4150           push r8
0x257143fe08   104  4151           push r9
0x257143fe0a   106  4153           push r11
0x257143fe0c   108  4154           push r12
0x257143fe0e   110  4156           push r14
0x257143fe10   112  4157           push r15
0x257143fe12   114  488d6424e0     REX.W leaq rsp,[rsp-0x20]
0x257143fe17   119  488b75f8       REX.W movq rsi,[rbp-0x8]
0x257143fe1b   123  33c0           xorl rax,rax
0x257143fe1d   125  498d9d982989fd REX.W leaq rbx,[r13-0x276d668]
0x257143fe24   132  e85764fcff     call 0x2571406280         ;; code: STUB, CEntryStub, minor: 1
0x257143fe29   137  4c8bd0         REX.W movq r10,rax
0x257143fe2c   140  488d642420     REX.W leaq rsp,[rsp+0x20]
0x257143fe31   145  415f           pop r15
0x257143fe33   147  415e           pop r14
0x257143fe35   149  415c           pop r12
0x257143fe37   151  415b           pop r11
0x257143fe39   153  4159           pop r9
0x257143fe3b   155  4158           pop r8
0x257143fe3d   157  5f             pop rdi
0x257143fe3e   158  5e             pop rsi
0x257143fe3f   159  5b             pop rbx
0x257143fe40   160  5a             pop rdx
0x257143fe41   161  59             pop rcx
0x257143fe42   162  58             pop rax
0x257143fe43   163  498bda         REX.W movq rbx,r10
0x257143fe46   166  488be5         REX.W movq rsp,rbp
0x257143fe49   169  5d             pop rbp
0x257143fe4a   170  eb8c           jmp 56  (0x257143fdd8)


Safepoints (size = 18)
0x257143fe29   137  00000000 | rbx | rsi (sp -> fp)  <none>

RelocInfo (size = 3)
0x257143fe25  code target (STUB)  (0x2571406280)

--- End code ---
--- Code ---
kind = HANDLER
major_key = <NoCache>Stub
name = StoreFieldStub
compiler = crankshaft
Instructions (size = 116)
0x257143fec0     0  a801           test al,0x1
0x257143fec2     2  7415           jz 25  (0x257143fed9)
0x257143fec4     4  4d8b5508       REX.W movq r10,[r13+0x8]
0x257143fec8     8  4c3950ff       REX.W cmpq [rax-0x1],r10
0x257143fecc    12  f20f104807     movsd xmm1,[rax+0x7]
0x257143fed1    17  0f8517000000   jnz 46  (0x257143feee)
0x257143fed7    23  eb0f           jmp 40  (0x257143fee8)
0x257143fed9    25  4c8bd0         REX.W movq r10,rax
0x257143fedc    28  49c1ea20       REX.W shrq r10, 32
0x257143fee0    32  0f57c9         xorps xmm1,xmm1
0x257143fee3    35  f2410f2aca     cvtsi2sd xmm1,r10
0x257143fee8    40  f20f114a77     movsd [rdx+0x77],xmm1
0x257143feed    45  c3             ret
0x257143feee    46  49ba0060207125000000 REX.W movq r10,0x2571206000
0x257143fef8    56  e800000000     call 61  (0x257143fefd)
0x257143fefd    61  4883ec10       REX.W subq rsp,0x10
0x257143ff01    65  ff742410       push [rsp+0x10]
0x257143ff05    69  4152           push r10
0x257143ff07    71  4c8b55f8       REX.W movq r10,[rbp-0x8]
0x257143ff0b    75  4c89542418     REX.W movq [rsp+0x18],r10
0x257143ff10    80  48896c2420     REX.W movq [rsp+0x20],rbp
0x257143ff15    85  488d6c2420     REX.W leaq rbp,[rsp+0x20]
0x257143ff1a    90  49ba0000000006000000 REX.W movq r10,0x600000000
0x257143ff24   100  4c89542410     REX.W movq [rsp+0x10],r10
0x257143ff29   105  c3             ret
0x257143ff2a   106  6690           nop


Safepoints (size = 8)

RelocInfo (size = 0)

--- End code ---
--- Code ---
kind = HANDLER
major_key = <NoCache>Stub
name = LoadFieldStub
compiler = crankshaft
Instructions (size = 190)
0x257143ffa0     0  f20f104a7f     movsd xmm1,[rdx+0x7f]
0x257143ffa5     5  498b9d400c0000 REX.W movq rbx,[r13+0xc40]
0x257143ffac    12  488bc3         REX.W movq rax,rbx
0x257143ffaf    15  4883c010       REX.W addq rax,0x10
0x257143ffb3    19  0f8228000000   jc 65  (0x257143ffe1)
0x257143ffb9    25  493b85480c0000 REX.W cmpq rax,[r13+0xc48]
0x257143ffc0    32  0f871b000000   ja 65  (0x257143ffe1)
0x257143ffc6    38  498985400c0000 REX.W movq [r13+0xc40],rax
0x257143ffcd    45  48ffc3         REX.W incq rbx
0x257143ffd0    48  4d8b5508       REX.W movq r10,[r13+0x8]
0x257143ffd4    52  4c8953ff       REX.W movq [rbx-0x1],r10
0x257143ffd8    56  f20f114b07     movsd [rbx+0x7],xmm1
0x257143ffdd    61  488bc3         REX.W movq rax,rbx
0x257143ffe0    64  c3             ret
0x257143ffe1    65  55             push rbp
0x257143ffe2    66  ff75f8         push [rbp-0x8]
0x257143ffe5    69  49ba0000000006000000 REX.W movq r10,0x600000000
0x257143ffef    79  4152           push r10
0x257143fff1    81  488d6c2410     REX.W leaq rbp,[rsp+0x10]
0x257143fff6    86  48bb0000000000000000 REX.W movq rbx,0x0
0x2571440000    96  50             push rax
0x2571440001    97  51             push rcx
0x2571440002    98  52             push rdx
0x2571440003    99  53             push rbx
0x2571440004   100  56             push rsi
0x2571440005   101  57             push rdi
0x2571440006   102  4150           push r8
0x2571440008   104  4151           push r9
0x257144000a   106  4153           push r11
0x257144000c   108  4154           push r12
0x257144000e   110  4156           push r14
0x2571440010   112  4157           push r15
0x2571440012   114  488d6424e0     REX.W leaq rsp,[rsp-0x20]
0x2571440017   119  488b75f8       REX.W movq rsi,[rbp-0x8]
0x257144001b   123  33c0           xorl rax,rax
0x257144001d   125  498d9d982989fd REX.W leaq rbx,[r13-0x276d668]
0x2571440024   132  e85762fcff     call 0x2571406280         ;; code: STUB, CEntryStub, minor: 1
0x2571440029   137  4c8bd0         REX.W movq r10,rax
0x257144002c   140  488d642420     REX.W leaq rsp,[rsp+0x20]
0x2571440031   145  415f           pop r15
0x2571440033   147  415e           pop r14
0x2571440035   149  415c           pop r12
0x2571440037   151  415b           pop r11
0x2571440039   153  4159           pop r9
0x257144003b   155  4158           pop r8
0x257144003d   157  5f             pop rdi
0x257144003e   158  5e             pop rsi
0x257144003f   159  5b             pop rbx
0x2571440040   160  5a             pop rdx
0x2571440041   161  59             pop rcx
0x2571440042   162  58             pop rax
0x2571440043   163  498bda         REX.W movq rbx,r10
0x2571440046   166  488be5         REX.W movq rsp,rbp
0x2571440049   169  5d             pop rbp
0x257144004a   170  eb8c           jmp 56  (0x257143ffd8)


Safepoints (size = 18)
0x2571440029   137  00000000 | rbx | rsi (sp -> fp)  <none>

RelocInfo (size = 3)
0x2571440025  code target (STUB)  (0x2571406280)

--- End code ---
--- Code ---
kind = HANDLER
major_key = <NoCache>Stub
name = StoreFieldStub
compiler = crankshaft
Instructions (size = 116)
0x25714400c0     0  a801           test al,0x1
0x25714400c2     2  7415           jz 25  (0x25714400d9)
0x25714400c4     4  4d8b5508       REX.W movq r10,[r13+0x8]
0x25714400c8     8  4c3950ff       REX.W cmpq [rax-0x1],r10
0x25714400cc    12  f20f104807     movsd xmm1,[rax+0x7]
0x25714400d1    17  0f8517000000   jnz 46  (0x25714400ee)
0x25714400d7    23  eb0f           jmp 40  (0x25714400e8)
0x25714400d9    25  4c8bd0         REX.W movq r10,rax
0x25714400dc    28  49c1ea20       REX.W shrq r10, 32
0x25714400e0    32  0f57c9         xorps xmm1,xmm1
0x25714400e3    35  f2410f2aca     cvtsi2sd xmm1,r10
0x25714400e8    40  f20f114a7f     movsd [rdx+0x7f],xmm1
0x25714400ed    45  c3             ret
0x25714400ee    46  49ba0060207125000000 REX.W movq r10,0x2571206000
0x25714400f8    56  e800000000     call 61  (0x25714400fd)
0x25714400fd    61  4883ec10       REX.W subq rsp,0x10
0x2571440101    65  ff742410       push [rsp+0x10]
0x2571440105    69  4152           push r10
0x2571440107    71  4c8b55f8       REX.W movq r10,[rbp-0x8]
0x257144010b    75  4c89542418     REX.W movq [rsp+0x18],r10
0x2571440110    80  48896c2420     REX.W movq [rsp+0x20],rbp
0x2571440115    85  488d6c2420     REX.W leaq rbp,[rsp+0x20]
0x257144011a    90  49ba0000000006000000 REX.W movq r10,0x600000000
0x2571440124   100  4c89542410     REX.W movq [rsp+0x10],r10
0x2571440129   105  c3             ret
0x257144012a   106  6690           nop


Safepoints (size = 8)

RelocInfo (size = 0)

--- End code ---
--- Code ---
kind = HANDLER
major_key = <NoCache>Stub
name = LoadFieldStub
compiler = crankshaft
Instructions (size = 194)
0x25714401a0     0  f20f108a87000000 movsd xmm1,[rdx+0x87]
0x25714401a8     8  498b9d400c0000 REX.W movq rbx,[r13+0xc40]
0x25714401af    15  488bc3         REX.W movq rax,rbx
0x25714401b2    18  4883c010       REX.W addq rax,0x10
0x25714401b6    22  0f8228000000   jc 68  (0x25714401e4)
0x25714401bc    28  493b85480c0000 REX.W cmpq rax,[r13+0xc48]
0x25714401c3    35  0f871b000000   ja 68  (0x25714401e4)
0x25714401c9    41  498985400c0000 REX.W movq [r13+0xc40],rax
0x25714401d0    48  48ffc3         REX.W incq rbx
0x25714401d3    51  4d8b5508       REX.W movq r10,[r13+0x8]
0x25714401d7    55  4c8953ff       REX.W movq [rbx-0x1],r10
0x25714401db    59  f20f114b07     movsd [rbx+0x7],xmm1
0x25714401e0    64  488bc3         REX.W movq rax,rbx
0x25714401e3    67  c3             ret
0x25714401e4    68  55             push rbp
0x25714401e5    69  ff75f8         push [rbp-0x8]
0x25714401e8    72  49ba0000000006000000 REX.W movq r10,0x600000000
0x25714401f2    82  4152           push r10
0x25714401f4    84  488d6c2410     REX.W leaq rbp,[rsp+0x10]
0x25714401f9    89  48bb0000000000000000 REX.W movq rbx,0x0
0x2571440203    99  50             push rax
0x2571440204   100  51             push rcx
0x2571440205   101  52             push rdx
0x2571440206   102  53             push rbx
0x2571440207   103  56             push rsi
0x2571440208   104  57             push rdi
0x2571440209   105  4150           push r8
0x257144020b   107  4151           push r9
0x257144020d   109  4153           push r11
0x257144020f   111  4154           push r12
0x2571440211   113  4156           push r14
0x2571440213   115  4157           push r15
0x2571440215   117  488d6424e0     REX.W leaq rsp,[rsp-0x20]
0x257144021a   122  488b75f8       REX.W movq rsi,[rbp-0x8]
0x257144021e   126  33c0           xorl rax,rax
0x2571440220   128  498d9d982989fd REX.W leaq rbx,[r13-0x276d668]
0x2571440227   135  e85460fcff     call 0x2571406280         ;; code: STUB, CEntryStub, minor: 1
0x257144022c   140  4c8bd0         REX.W movq r10,rax
0x257144022f   143  488d642420     REX.W leaq rsp,[rsp+0x20]
0x2571440234   148  415f           pop r15
0x2571440236   150  415e           pop r14
0x2571440238   152  415c           pop r12
0x257144023a   154  415b           pop r11
0x257144023c   156  4159           pop r9
0x257144023e   158  4158           pop r8
0x2571440240   160  5f             pop rdi
0x2571440241   161  5e             pop rsi
0x2571440242   162  5b             pop rbx
0x2571440243   163  5a             pop rdx
0x2571440244   164  59             pop rcx
0x2571440245   165  58             pop rax
0x2571440246   166  498bda         REX.W movq rbx,r10
0x2571440249   169  488be5         REX.W movq rsp,rbp
0x257144024c   172  5d             pop rbp
0x257144024d   173  eb8c           jmp 59  (0x25714401db)
0x257144024f   175  90             nop


Safepoints (size = 18)
0x257144022c   140  00000000 | rbx | rsi (sp -> fp)  <none>

RelocInfo (size = 3)
0x2571440228  code target (STUB)  (0x2571406280)

--- End code ---
--- Code ---
kind = HANDLER
major_key = <NoCache>Stub
name = StoreFieldStub
compiler = crankshaft
Instructions (size = 120)
0x25714402e0     0  a801           test al,0x1
0x25714402e2     2  7415           jz 25  (0x25714402f9)
0x25714402e4     4  4d8b5508       REX.W movq r10,[r13+0x8]
0x25714402e8     8  4c3950ff       REX.W cmpq [rax-0x1],r10
0x25714402ec    12  f20f104807     movsd xmm1,[rax+0x7]
0x25714402f1    17  0f851a000000   jnz 49  (0x2571440311)
0x25714402f7    23  eb0f           jmp 40  (0x2571440308)
0x25714402f9    25  4c8bd0         REX.W movq r10,rax
0x25714402fc    28  49c1ea20       REX.W shrq r10, 32
0x2571440300    32  0f57c9         xorps xmm1,xmm1
0x2571440303    35  f2410f2aca     cvtsi2sd xmm1,r10
0x2571440308    40  f20f118a87000000 movsd [rdx+0x87],xmm1
0x2571440310    48  c3             ret
0x2571440311    49  49ba0060207125000000 REX.W movq r10,0x2571206000
0x257144031b    59  e800000000     call 64  (0x2571440320)
0x2571440320    64  4883ec10       REX.W subq rsp,0x10
0x2571440324    68  ff742410       push [rsp+0x10]
0x2571440328    72  4152           push r10
0x257144032a    74  4c8b55f8       REX.W movq r10,[rbp-0x8]
0x257144032e    78  4c89542418     REX.W movq [rsp+0x18],r10
0x2571440333    83  48896c2420     REX.W movq [rsp+0x20],rbp
0x2571440338    88  488d6c2420     REX.W leaq rbp,[rsp+0x20]
0x257144033d    93  49ba0000000006000000 REX.W movq r10,0x600000000
0x2571440347   103  4c89542410     REX.W movq [rsp+0x10],r10
0x257144034c   108  c3             ret
0x257144034d   109  0f1f00         nop


Safepoints (size = 8)

RelocInfo (size = 0)

--- End code ---
--- Raw source ---
(max) {
  last = (last * A + C) % M;
  return max * last / M;
}


--- Code ---
source_position = 174
kind = FUNCTION
name = rand
compiler = full-codegen
Instructions (size = 324)
0x25714403c0     0  55             push rbp                  ;; debug: position 174
0x25714403c1     1  4889e5         REX.W movq rbp,rsp
0x25714403c4     4  56             push rsi
0x25714403c5     5  57             push rdi
0x25714403c6     6  493ba540090000 REX.W cmpq rsp,[r13+0x940]
0x25714403cd    13  7305           jnc 20  (0x25714403d4)
0x25714403cf    15  e84c64ffff     call StackCheck  (0x2571436820)    ;; code: BUILTIN
0x25714403d4    20  48b971e4ee97b5250000 REX.W movq rcx,0x25b597eee471    ;; debug: statement 184
                                                             ;; debug: position 192
                                                             ;; object: 0x25b597eee471 <String[4]: last>
0x25714403de    30  488b5627       REX.W movq rdx,[rsi+0x27]
0x25714403e2    34  48b80000000004000000 REX.W movq rax,0x400000000
0x25714403ec    44  e80ffffdff     call 0x2571420300         ;; code: contextual, LOAD_IC, DEFAULT
0x25714403f1    49  50             push rax
0x25714403f2    50  48b971f0e497b5250000 REX.W movq rcx,0x25b597e4f071    ;; debug: position 199
                                                             ;; object: 0x25b597e4f071 <String[1]: A>
0x25714403fc    60  488b5627       REX.W movq rdx,[rsi+0x27]
0x2571440400    64  48b80000000006000000 REX.W movq rax,0x600000000
0x257144040a    74  e8f1fefdff     call 0x2571420300         ;; code: contextual, LOAD_IC, DEFAULT
0x257144040f    79  5a             pop rdx                   ;; debug: position 197
0x2571440410    80  e80b09fdff     call 0x2571410d20         ;; code: BINARY_OP_IC, UNINITIALIZED (id = 22)
0x2571440415    85  90             nop
0x2571440416    86  50             push rax
0x2571440417    87  48b9d973e697b5250000 REX.W movq rcx,0x25b597e673d9    ;; debug: position 203
                                                             ;; object: 0x25b597e673d9 <String[1]: C>
0x2571440421    97  488b5627       REX.W movq rdx,[rsi+0x27]
0x2571440425   101  48b80000000008000000 REX.W movq rax,0x800000000
0x257144042f   111  e8ccfefdff     call 0x2571420300         ;; code: contextual, LOAD_IC, DEFAULT
0x2571440434   116  5a             pop rdx                   ;; debug: position 201
0x2571440435   117  e80629fdff     call 0x2571412d40         ;; code: BINARY_OP_IC, UNINITIALIZED (id = 18)
0x257144043a   122  90             nop
0x257144043b   123  50             push rax
0x257144043c   124  48b9b9b5e697b5250000 REX.W movq rcx,0x25b597e6b5b9    ;; debug: position 208
                                                             ;; object: 0x25b597e6b5b9 <String[1]: M>
0x2571440446   134  488b5627       REX.W movq rdx,[rsi+0x27]
0x257144044a   138  48b8000000000a000000 REX.W movq rax,0xa00000000
0x2571440454   148  e8a7fefdff     call 0x2571420300         ;; code: contextual, LOAD_IC, DEFAULT
0x2571440459   153  5a             pop rdx                   ;; debug: position 206
0x257144045a   154  e861e3fdff     call 0x257141e7c0         ;; code: BINARY_OP_IC, UNINITIALIZED (id = 14)
0x257144045f   159  90             nop
0x2571440460   160  48b971e4ee97b5250000 REX.W movq rcx,0x25b597eee471    ;; debug: position 189
                                                             ;; object: 0x25b597eee471 <String[4]: last>
0x257144046a   170  488b5627       REX.W movq rdx,[rsi+0x27]
0x257144046e   174  e8ad1cffff     call 0x2571432120         ;; code: STORE_IC, UNINITIALIZED
0x2571440473   179  ff7510         push [rbp+0x10]           ;; debug: statement 213
                                                             ;; debug: position 220
0x2571440476   182  48b971e4ee97b5250000 REX.W movq rcx,0x25b597eee471    ;; debug: position 226
                                                             ;; object: 0x25b597eee471 <String[4]: last>
0x2571440480   192  488b5627       REX.W movq rdx,[rsi+0x27]
0x2571440484   196  48b80000000004000000 REX.W movq rax,0x400000000
0x257144048e   206  e86dfefdff     call 0x2571420300         ;; code: contextual, LOAD_IC, DEFAULT
0x2571440493   211  5a             pop rdx                   ;; debug: position 224
0x2571440494   212  e88708fdff     call 0x2571410d20         ;; code: BINARY_OP_IC, UNINITIALIZED (id = 42)
0x2571440499   217  90             nop
0x257144049a   218  50             push rax
0x257144049b   219  48b9b9b5e697b5250000 REX.W movq rcx,0x25b597e6b5b9    ;; debug: position 233
                                                             ;; object: 0x25b597e6b5b9 <String[1]: M>
0x25714404a5   229  488b5627       REX.W movq rdx,[rsi+0x27]
0x25714404a9   233  48b8000000000a000000 REX.W movq rax,0xa00000000
0x25714404b3   243  e848fefdff     call 0x2571420300         ;; code: contextual, LOAD_IC, DEFAULT
0x25714404b8   248  5a             pop rdx                   ;; debug: position 231
0x25714404b9   249  e8e20efdff     call 0x25714113a0         ;; code: BINARY_OP_IC, UNINITIALIZED (id = 38)
0x25714404be   254  90             nop
0x25714404bf   255  48bbb141ef97b5250000 REX.W movq rbx,0x25b597ef41b1    ;; object: 0x25b597ef41b1 Cell for 6144
0x25714404c9   265  83430bd1       addl [rbx+0xb],0xd1
0x25714404cd   269  791f           jns 302  (0x25714404ee)
0x25714404cf   271  50             push rax
0x25714404d0   272  e80b62ffff     call InterruptCheck  (0x25714366e0)    ;; code: BUILTIN
0x25714404d5   277  58             pop rax
0x25714404d6   278  48bbb141ef97b5250000 REX.W movq rbx,0x25b597ef41b1    ;; object: 0x25b597ef41b1 Cell for 6144
0x25714404e0   288  49ba0000000000180000 REX.W movq r10,0x180000000000
0x25714404ea   298  4c895307       REX.W movq [rbx+0x7],r10
0x25714404ee   302  c9             leave                     ;; debug: statement 236
0x25714404ef   303  c21000         ret 0x10
0x25714404f2   306  498b45a8       REX.W movq rax,[r13-0x58]
0x25714404f6   310  e9c4ffffff     jmp 255  (0x25714404bf)
0x25714404fb   315  0f1f440000     nop

Deoptimization Output Data (deopt points = 0)

Back edges (size = 0)
ast_id  pc_offset  loop_depth

0x25b597ef4219: [TypeFeedbackInfo]
 - ic_total_count: 12, ic_with_type_info_count: 0, ic_generic_count: 0

RelocInfo (size = 66)
0x25714403c0  position  (174)
0x25714403d0  code target (BUILTIN)  (0x2571436820)
0x25714403d4  statement position  (184)
0x25714403d4  position  (192)
0x25714403d6  embedded object  (0x25b597eee471 <String[4]: last>)
0x25714403ed  code target (LOAD_IC)  (0x2571420300)
0x25714403f2  position  (199)
0x25714403f4  embedded object  (0x25b597e4f071 <String[1]: A>)
0x257144040b  code target (LOAD_IC)  (0x2571420300)
0x257144040f  position  (197)
0x2571440411  code target with id (BINARY_OP_IC)  (0x2571410d20) (id=22)
0x2571440417  position  (203)
0x2571440419  embedded object  (0x25b597e673d9 <String[1]: C>)
0x2571440430  code target (LOAD_IC)  (0x2571420300)
0x2571440434  position  (201)
0x2571440436  code target with id (BINARY_OP_IC)  (0x2571412d40) (id=18)
0x257144043c  position  (208)
0x257144043e  embedded object  (0x25b597e6b5b9 <String[1]: M>)
0x2571440455  code target (LOAD_IC)  (0x2571420300)
0x2571440459  position  (206)
0x257144045b  code target with id (BINARY_OP_IC)  (0x257141e7c0) (id=14)
0x2571440460  position  (189)
0x2571440462  embedded object  (0x25b597eee471 <String[4]: last>)
0x257144046f  code target (STORE_IC)  (0x2571432120)
0x2571440473  statement position  (213)
0x2571440473  position  (220)
0x2571440476  position  (226)
0x2571440478  embedded object  (0x25b597eee471 <String[4]: last>)
0x257144048f  code target (LOAD_IC)  (0x2571420300)
0x2571440493  position  (224)
0x2571440495  code target with id (BINARY_OP_IC)  (0x2571410d20) (id=42)
0x257144049b  position  (233)
0x257144049d  embedded object  (0x25b597e6b5b9 <String[1]: M>)
0x25714404b4  code target (LOAD_IC)  (0x2571420300)
0x25714404b8  position  (231)
0x25714404ba  code target with id (BINARY_OP_IC)  (0x25714113a0) (id=38)
0x25714404c1  embedded object  (0x25b597ef41b1 Cell for 6144)
0x25714404d1  code target (BUILTIN)  (0x25714366e0)
0x25714404d8  embedded object  (0x25b597ef41b1 Cell for 6144)
0x25714404ee  statement position  (236)

--- End code ---
--- Raw source ---
(h){
var i=(typeof(this)==='number')?this:%non_number_to_number(this);
if(!(typeof(h)==='number'))h=%non_number_to_number(h);
return %NumberMod(i,h);
}


--- Code ---
source_position = 5082
kind = FUNCTION
name = MOD
compiler = full-codegen
Instructions (size = 316)
0x2571440580     0  55             push rbp                  ;; debug: position 5082
0x2571440581     1  4889e5         REX.W movq rbp,rsp
0x2571440584     4  56             push rsi
0x2571440585     5  57             push rdi
0x2571440586     6  41ff75a8       push [r13-0x58]
0x257144058a    10  493ba540090000 REX.W cmpq rsp,[r13+0x940]
0x2571440591    17  7305           jnc 24  (0x2571440598)
0x2571440593    19  e88862ffff     call StackCheck  (0x2571436820)    ;; code: BUILTIN
0x2571440598    24  488b4518       REX.W movq rax,[rbp+0x18]    ;; debug: statement 5087
                                                             ;; debug: position 5101
0x257144059c    28  eb0f           jmp 45  (0x25714405ad)
0x257144059e    30  493b45c0       REX.W cmpq rax,[r13-0x40]
0x25714405a2    34  0f841b000000   jz 67  (0x25714405c3)
0x25714405a8    40  e91f000000     jmp 76  (0x25714405cc)
0x25714405ad    45  a801           test al,0x1
0x25714405af    47  0f840e000000   jz 67  (0x25714405c3)
0x25714405b5    53  488b40ff       REX.W movq rax,[rax-0x1]
0x25714405b9    57  493b4508       REX.W cmpq rax,[r13+0x8]
0x25714405bd    61  0f8509000000   jnz 76  (0x25714405cc)
0x25714405c3    67  488b4518       REX.W movq rax,[rbp+0x18]    ;; debug: position 5119
0x25714405c7    71  e930000000     jmp 124  (0x25714405fc)
0x25714405cc    76  41ff75a8       push [r13-0x58]           ;; debug: position 5124
0x25714405d0    80  488b4627       REX.W movq rax,[rsi+0x27]
0x25714405d4    84  488b401f       REX.W movq rax,[rax+0x1f]
0x25714405d8    88  488b80cf020000 REX.W movq rax,[rax+0x2cf]
0x25714405df    95  ff3424         push [rsp]
0x25714405e2    98  4889442408     REX.W movq [rsp+0x8],rax
0x25714405e7   103  ff7518         push [rbp+0x18]           ;; debug: position 5146
0x25714405ea   106  488b7c2410     REX.W movq rdi,[rsp+0x10]    ;; debug: position 5124
0x25714405ef   111  e86cf4feff     call 0x257142fa60         ;; code: STUB, CallFunctionStub, minor: 4
0x25714405f4   116  488b75f8       REX.W movq rsi,[rbp-0x8]
0x25714405f8   120  4883c408       REX.W addq rsp,0x8
0x25714405fc   124  488945e8       REX.W movq [rbp-0x18],rax    ;; debug: position 5087
0x2571440600   128  488b4510       REX.W movq rax,[rbp+0x10]    ;; debug: statement 5153
                                                             ;; debug: position 5165
0x2571440604   132  eb0f           jmp 149  (0x2571440615)
0x2571440606   134  493b45c0       REX.W cmpq rax,[r13-0x40]
0x257144060a   138  0f844f000000   jz 223  (0x257144065f)
0x2571440610   144  e916000000     jmp 171  (0x257144062b)
0x2571440615   149  a801           test al,0x1
0x2571440617   151  0f8442000000   jz 223  (0x257144065f)
0x257144061d   157  488b40ff       REX.W movq rax,[rax-0x1]
0x2571440621   161  493b4508       REX.W cmpq rax,[r13+0x8]
0x2571440625   165  0f8434000000   jz 223  (0x257144065f)
0x257144062b   171  41ff75a8       push [r13-0x58]           ;; debug: statement 5180
                                                             ;; debug: position 5181
0x257144062f   175  488b4627       REX.W movq rax,[rsi+0x27]
0x2571440633   179  488b401f       REX.W movq rax,[rax+0x1f]
0x2571440637   183  488b80cf020000 REX.W movq rax,[rax+0x2cf]
0x257144063e   190  ff3424         push [rsp]
0x2571440641   193  4889442408     REX.W movq [rsp+0x8],rax
0x2571440646   198  ff7510         push [rbp+0x10]           ;; debug: position 5204
0x2571440649   201  488b7c2410     REX.W movq rdi,[rsp+0x10]    ;; debug: position 5182
0x257144064e   206  e80df4feff     call 0x257142fa60         ;; code: STUB, CallFunctionStub, minor: 4
0x2571440653   211  488b75f8       REX.W movq rsi,[rbp-0x8]
0x2571440657   215  4883c408       REX.W addq rsp,0x8
0x257144065b   219  48894510       REX.W movq [rbp+0x10],rax    ;; debug: position 5181
0x257144065f   223  ff75e8         push [rbp-0x18]           ;; debug: statement 5208
                                                             ;; debug: position 5226
0x2571440662   226  ff7510         push [rbp+0x10]           ;; debug: position 5228
0x2571440665   229  b802000000     movl rax,0x2
0x257144066a   234  48bbf0d5880001000000 REX.W movq rbx,0x10088d5f0
0x2571440674   244  e8a795fcff     call 0x2571409c20         ;; code: STUB, CEntryStub, minor: 0
0x2571440679   249  48bb8942ef97b5250000 REX.W movq rbx,0x25b597ef4289    ;; object: 0x25b597ef4289 Cell for 6144
0x2571440683   259  83430bff       addl [rbx+0xb],0xff
0x2571440687   263  791f           jns 296  (0x25714406a8)
0x2571440689   265  50             push rax
0x257144068a   266  e85160ffff     call InterruptCheck  (0x25714366e0)    ;; code: BUILTIN
0x257144068f   271  58             pop rax
0x2571440690   272  48bb8942ef97b5250000 REX.W movq rbx,0x25b597ef4289    ;; object: 0x25b597ef4289 Cell for 6144
0x257144069a   282  49ba0000000000180000 REX.W movq r10,0x180000000000
0x25714406a4   292  4c895307       REX.W movq [rbx+0x7],r10
0x25714406a8   296  c9             leave                     ;; debug: statement 5232
0x25714406a9   297  c21000         ret 0x10
0x25714406ac   300  498b45a8       REX.W movq rax,[r13-0x58]
0x25714406b0   304  e9c4ffffff     jmp 249  (0x2571440679)
0x25714406b5   309  0f1f00         nop

Deoptimization Output Data (deopt points = 0)

Back edges (size = 0)
ast_id  pc_offset  loop_depth

0x25b597ef42e9: [TypeFeedbackInfo]
 - ic_total_count: 0, ic_with_type_info_count: 0, ic_generic_count: 0

RelocInfo (size = 57)
0x2571440580  position  (5082)
0x2571440594  code target (BUILTIN)  (0x2571436820)
0x2571440598  statement position  (5087)
0x2571440598  position  (5101)
0x25714405c3  position  (5119)
0x25714405cc  position  (5124)
0x25714405e7  position  (5146)
0x25714405ea  position  (5124)
0x25714405f0  code target (STUB)  (0x257142fa60)
0x25714405fc  position  (5087)
0x2571440600  statement position  (5153)
0x2571440600  position  (5165)
0x257144062b  statement position  (5180)
0x257144062b  position  (5181)
0x2571440646  position  (5204)
0x2571440649  position  (5182)
0x257144064f  code target (STUB)  (0x257142fa60)
0x257144065b  position  (5181)
0x257144065f  statement position  (5208)
0x257144065f  position  (5226)
0x2571440662  position  (5228)
0x2571440675  code target (STUB)  (0x2571409c20)
0x257144067b  embedded object  (0x25b597ef4289 Cell for 6144)
0x257144068b  code target (BUILTIN)  (0x25714366e0)
0x2571440692  embedded object  (0x25b597ef4289 Cell for 6144)
0x25714406a8  statement position  (5232)

--- End code ---
--- Raw source ---
(h){
var i=(typeof(this)==='number')?this:%non_number_to_number(this);
if(!(typeof(h)==='number'))h=%non_number_to_number(h);
return %NumberDiv(i,h);
}


--- Code ---
source_position = 4779
kind = FUNCTION
name = DIV
compiler = full-codegen
Instructions (size = 316)
0x25714408a0     0  55             push rbp                  ;; debug: position 4779
0x25714408a1     1  4889e5         REX.W movq rbp,rsp
0x25714408a4     4  56             push rsi
0x25714408a5     5  57             push rdi
0x25714408a6     6  41ff75a8       push [r13-0x58]
0x25714408aa    10  493ba540090000 REX.W cmpq rsp,[r13+0x940]
0x25714408b1    17  7305           jnc 24  (0x25714408b8)
0x25714408b3    19  e8685fffff     call StackCheck  (0x2571436820)    ;; code: BUILTIN
0x25714408b8    24  488b4518       REX.W movq rax,[rbp+0x18]    ;; debug: statement 4784
                                                             ;; debug: position 4798
0x25714408bc    28  eb0f           jmp 45  (0x25714408cd)
0x25714408be    30  493b45c0       REX.W cmpq rax,[r13-0x40]
0x25714408c2    34  0f841b000000   jz 67  (0x25714408e3)
0x25714408c8    40  e91f000000     jmp 76  (0x25714408ec)
0x25714408cd    45  a801           test al,0x1
0x25714408cf    47  0f840e000000   jz 67  (0x25714408e3)
0x25714408d5    53  488b40ff       REX.W movq rax,[rax-0x1]
0x25714408d9    57  493b4508       REX.W cmpq rax,[r13+0x8]
0x25714408dd    61  0f8509000000   jnz 76  (0x25714408ec)
0x25714408e3    67  488b4518       REX.W movq rax,[rbp+0x18]    ;; debug: position 4816
0x25714408e7    71  e930000000     jmp 124  (0x257144091c)
0x25714408ec    76  41ff75a8       push [r13-0x58]           ;; debug: position 4821
0x25714408f0    80  488b4627       REX.W movq rax,[rsi+0x27]
0x25714408f4    84  488b401f       REX.W movq rax,[rax+0x1f]
0x25714408f8    88  488b80cf020000 REX.W movq rax,[rax+0x2cf]
0x25714408ff    95  ff3424         push [rsp]
0x2571440902    98  4889442408     REX.W movq [rsp+0x8],rax
0x2571440907   103  ff7518         push [rbp+0x18]           ;; debug: position 4843
0x257144090a   106  488b7c2410     REX.W movq rdi,[rsp+0x10]    ;; debug: position 4821
0x257144090f   111  e84cf1feff     call 0x257142fa60         ;; code: STUB, CallFunctionStub, minor: 4
0x2571440914   116  488b75f8       REX.W movq rsi,[rbp-0x8]
0x2571440918   120  4883c408       REX.W addq rsp,0x8
0x257144091c   124  488945e8       REX.W movq [rbp-0x18],rax    ;; debug: position 4784
0x2571440920   128  488b4510       REX.W movq rax,[rbp+0x10]    ;; debug: statement 4850
                                                             ;; debug: position 4862
0x2571440924   132  eb0f           jmp 149  (0x2571440935)
0x2571440926   134  493b45c0       REX.W cmpq rax,[r13-0x40]
0x257144092a   138  0f844f000000   jz 223  (0x257144097f)
0x2571440930   144  e916000000     jmp 171  (0x257144094b)
0x2571440935   149  a801           test al,0x1
0x2571440937   151  0f8442000000   jz 223  (0x257144097f)
0x257144093d   157  488b40ff       REX.W movq rax,[rax-0x1]
0x2571440941   161  493b4508       REX.W cmpq rax,[r13+0x8]
0x2571440945   165  0f8434000000   jz 223  (0x257144097f)
0x257144094b   171  41ff75a8       push [r13-0x58]           ;; debug: statement 4877
                                                             ;; debug: position 4878
0x257144094f   175  488b4627       REX.W movq rax,[rsi+0x27]
0x2571440953   179  488b401f       REX.W movq rax,[rax+0x1f]
0x2571440957   183  488b80cf020000 REX.W movq rax,[rax+0x2cf]
0x257144095e   190  ff3424         push [rsp]
0x2571440961   193  4889442408     REX.W movq [rsp+0x8],rax
0x2571440966   198  ff7510         push [rbp+0x10]           ;; debug: position 4901
0x2571440969   201  488b7c2410     REX.W movq rdi,[rsp+0x10]    ;; debug: position 4879
0x257144096e   206  e8edf0feff     call 0x257142fa60         ;; code: STUB, CallFunctionStub, minor: 4
0x2571440973   211  488b75f8       REX.W movq rsi,[rbp-0x8]
0x2571440977   215  4883c408       REX.W addq rsp,0x8
0x257144097b   219  48894510       REX.W movq [rbp+0x10],rax    ;; debug: position 4878
0x257144097f   223  ff75e8         push [rbp-0x18]           ;; debug: statement 4905
                                                             ;; debug: position 4923
0x2571440982   226  ff7510         push [rbp+0x10]           ;; debug: position 4925
0x2571440985   229  b802000000     movl rax,0x2
0x257144098a   234  48bb20d4880001000000 REX.W movq rbx,0x10088d420
0x2571440994   244  e88792fcff     call 0x2571409c20         ;; code: STUB, CEntryStub, minor: 0
0x2571440999   249  48bbc943ef97b5250000 REX.W movq rbx,0x25b597ef43c9    ;; object: 0x25b597ef43c9 Cell for 6144
0x25714409a3   259  83430bff       addl [rbx+0xb],0xff
0x25714409a7   263  791f           jns 296  (0x25714409c8)
0x25714409a9   265  50             push rax
0x25714409aa   266  e8315dffff     call InterruptCheck  (0x25714366e0)    ;; code: BUILTIN
0x25714409af   271  58             pop rax
0x25714409b0   272  48bbc943ef97b5250000 REX.W movq rbx,0x25b597ef43c9    ;; object: 0x25b597ef43c9 Cell for 6144
0x25714409ba   282  49ba0000000000180000 REX.W movq r10,0x180000000000
0x25714409c4   292  4c895307       REX.W movq [rbx+0x7],r10
0x25714409c8   296  c9             leave                     ;; debug: statement 4929
0x25714409c9   297  c21000         ret 0x10
0x25714409cc   300  498b45a8       REX.W movq rax,[r13-0x58]
0x25714409d0   304  e9c4ffffff     jmp 249  (0x2571440999)
0x25714409d5   309  0f1f00         nop

Deoptimization Output Data (deopt points = 0)

Back edges (size = 0)
ast_id  pc_offset  loop_depth

0x25b597ef4429: [TypeFeedbackInfo]
 - ic_total_count: 0, ic_with_type_info_count: 0, ic_generic_count: 0

RelocInfo (size = 57)
0x25714408a0  position  (4779)
0x25714408b4  code target (BUILTIN)  (0x2571436820)
0x25714408b8  statement position  (4784)
0x25714408b8  position  (4798)
0x25714408e3  position  (4816)
0x25714408ec  position  (4821)
0x2571440907  position  (4843)
0x257144090a  position  (4821)
0x2571440910  code target (STUB)  (0x257142fa60)
0x257144091c  position  (4784)
0x2571440920  statement position  (4850)
0x2571440920  position  (4862)
0x257144094b  statement position  (4877)
0x257144094b  position  (4878)
0x2571440966  position  (4901)
0x2571440969  position  (4879)
0x257144096f  code target (STUB)  (0x257142fa60)
0x257144097b  position  (4878)
0x257144097f  statement position  (4905)
0x257144097f  position  (4923)
0x2571440982  position  (4925)
0x2571440995  code target (STUB)  (0x2571409c20)
0x257144099b  embedded object  (0x25b597ef43c9 Cell for 6144)
0x25714409ab  code target (BUILTIN)  (0x25714366e0)
0x25714409b2  embedded object  (0x25b597ef43c9 Cell for 6144)
0x25714409c8  statement position  (4929)

--- End code ---
--- Code ---
kind = HANDLER
major_key = <NoCache>Stub
name = LoadFieldStub
compiler = crankshaft
Instructions (size = 190)
0x25714412c0     0  f20f104a17     movsd xmm1,[rdx+0x17]
0x25714412c5     5  498b9d400c0000 REX.W movq rbx,[r13+0xc40]
0x25714412cc    12  488bc3         REX.W movq rax,rbx
0x25714412cf    15  4883c010       REX.W addq rax,0x10
0x25714412d3    19  0f8228000000   jc 65  (0x2571441301)
0x25714412d9    25  493b85480c0000 REX.W cmpq rax,[r13+0xc48]
0x25714412e0    32  0f871b000000   ja 65  (0x2571441301)
0x25714412e6    38  498985400c0000 REX.W movq [r13+0xc40],rax
0x25714412ed    45  48ffc3         REX.W incq rbx
0x25714412f0    48  4d8b5508       REX.W movq r10,[r13+0x8]
0x25714412f4    52  4c8953ff       REX.W movq [rbx-0x1],r10
0x25714412f8    56  f20f114b07     movsd [rbx+0x7],xmm1
0x25714412fd    61  488bc3         REX.W movq rax,rbx
0x2571441300    64  c3             ret
0x2571441301    65  55             push rbp
0x2571441302    66  ff75f8         push [rbp-0x8]
0x2571441305    69  49ba0000000006000000 REX.W movq r10,0x600000000
0x257144130f    79  4152           push r10
0x2571441311    81  488d6c2410     REX.W leaq rbp,[rsp+0x10]
0x2571441316    86  48bb0000000000000000 REX.W movq rbx,0x0
0x2571441320    96  50             push rax
0x2571441321    97  51             push rcx
0x2571441322    98  52             push rdx
0x2571441323    99  53             push rbx
0x2571441324   100  56             push rsi
0x2571441325   101  57             push rdi
0x2571441326   102  4150           push r8
0x2571441328   104  4151           push r9
0x257144132a   106  4153           push r11
0x257144132c   108  4154           push r12
0x257144132e   110  4156           push r14
0x2571441330   112  4157           push r15
0x2571441332   114  488d6424e0     REX.W leaq rsp,[rsp-0x20]
0x2571441337   119  488b75f8       REX.W movq rsi,[rbp-0x8]
0x257144133b   123  33c0           xorl rax,rax
0x257144133d   125  498d9d982989fd REX.W leaq rbx,[r13-0x276d668]
0x2571441344   132  e8374ffcff     call 0x2571406280         ;; code: STUB, CEntryStub, minor: 1
0x2571441349   137  4c8bd0         REX.W movq r10,rax
0x257144134c   140  488d642420     REX.W leaq rsp,[rsp+0x20]
0x2571441351   145  415f           pop r15
0x2571441353   147  415e           pop r14
0x2571441355   149  415c           pop r12
0x2571441357   151  415b           pop r11
0x2571441359   153  4159           pop r9
0x257144135b   155  4158           pop r8
0x257144135d   157  5f             pop rdi
0x257144135e   158  5e             pop rsi
0x257144135f   159  5b             pop rbx
0x2571441360   160  5a             pop rdx
0x2571441361   161  59             pop rcx
0x2571441362   162  58             pop rax
0x2571441363   163  498bda         REX.W movq rbx,r10
0x2571441366   166  488be5         REX.W movq rsp,rbp
0x2571441369   169  5d             pop rbp
0x257144136a   170  eb8c           jmp 56  (0x25714412f8)


Safepoints (size = 18)
0x2571441349   137  00000000 | rbx | rsi (sp -> fp)  <none>

RelocInfo (size = 3)
0x2571441345  code target (STUB)  (0x2571406280)

--- End code ---
--- Raw source ---
(K){
if((%IS_VAR(this)===null)||(this===(void 0)))throw MakeTypeError(15,"Array.prototype.join");
var x=(%_ToObject(this));
var D=(x.length>>>0);
return InnerArrayJoin(K,x,D);
}


--- Code ---
source_position = 5726
kind = FUNCTION
name = join
compiler = full-codegen
Instructions (size = 388)
0x25714413e0     0  55             push rbp                  ;; debug: position 5726
0x25714413e1     1  4889e5         REX.W movq rbp,rsp
0x25714413e4     4  56             push rsi
0x25714413e5     5  57             push rdi
0x25714413e6     6  498b55a8       REX.W movq rdx,[r13-0x58]
0x25714413ea    10  52             push rdx
0x25714413eb    11  52             push rdx
0x25714413ec    12  493ba540090000 REX.W cmpq rsp,[r13+0x940]
0x25714413f3    19  7305           jnc 26  (0x25714413fa)
0x25714413f5    21  e82654ffff     call StackCheck  (0x2571436820)    ;; code: BUILTIN
0x25714413fa    26  488b4518       REX.W movq rax,[rbp+0x18]    ;; debug: statement 5731
                                                             ;; debug: position 5743
0x25714413fe    30  eb0f           jmp 47  (0x257144140f)
0x2571441400    32  493b45c0       REX.W cmpq rax,[r13-0x40]
0x2571441404    36  0f842e000000   jz 88  (0x2571441438)
0x257144140a    42  e90a000000     jmp 57  (0x2571441419)
0x257144140f    47  493b45b8       REX.W cmpq rax,[r13-0x48]
0x2571441413    51  0f841f000000   jz 88  (0x2571441438)
0x2571441419    57  488b4518       REX.W movq rax,[rbp+0x18]    ;; debug: position 5759
0x257144141d    61  eb0f           jmp 78  (0x257144142e)
0x257144141f    63  493b45c0       REX.W cmpq rax,[r13-0x40]
0x2571441423    67  0f840f000000   jz 88  (0x2571441438)
0x2571441429    73  e97c000000     jmp 202  (0x25714414aa)
0x257144142e    78  493b45a8       REX.W cmpq rax,[r13-0x58]
0x2571441432    82  0f8572000000   jnz 202  (0x25714414aa)
0x2571441438    88  48b9e956e897b5250000 REX.W movq rcx,0x25b597e856e9    ;; debug: statement 5776
                                                             ;; debug: position 5782
                                                             ;; object: 0x25b597e856e9 <String[13]: MakeTypeError>
0x2571441442    98  488b5627       REX.W movq rdx,[rsi+0x27]
0x2571441446   102  48b80000000006000000 REX.W movq rax,0x600000000
0x2571441450   112  e8abeefdff     call 0x2571420300         ;; code: contextual, LOAD_IC, DEFAULT
0x2571441455   117  50             push rax
0x2571441456   118  49ba8941e097b5250000 REX.W movq r10,0x25b597e04189    ;; object: 0x25b597e04189 <undefined>
0x2571441460   128  4152           push r10
0x2571441462   130  49ba000000000f000000 REX.W movq r10,0xf00000000
0x257144146c   140  4152           push r10
0x257144146e   142  49ba0946ef97b5250000 REX.W movq r10,0x25b597ef4609    ;; object: 0x25b597ef4609 <String[20]: Array.prototype.join>
0x2571441478   152  4152           push r10
0x257144147a   154  48ba0000000004000000 REX.W movq rdx,0x400000000
0x2571441484   164  488b7c2418     REX.W movq rdi,[rsp+0x18]
0x2571441489   169  e8320dfdff     call 0x25714121c0         ;; code: CALL_IC, DEFAULT
0x257144148e   174  488b75f8       REX.W movq rsi,[rbp-0x8]
0x2571441492   178  48890424       REX.W movq [rsp],rax
0x2571441496   182  b801000000     movl rax,0x1              ;; debug: position 5776
0x257144149b   187  48bb7098870001000000 REX.W movq rbx,0x100879870
0x25714414a5   197  e87687fcff     call 0x2571409c20         ;; code: STUB, CEntryStub, minor: 0
0x25714414aa   202  488b4518       REX.W movq rax,[rbp+0x18]    ;; debug: statement 5824
                                                             ;; debug: position 5842
0x25714414ae   206  e88d2dfdff     call 0x2571414240         ;; code: STUB, ToObjectStub, minor: 0
0x25714414b3   211  488945e8       REX.W movq [rbp-0x18],rax    ;; debug: position 5824
0x25714414b7   215  488b45e8       REX.W movq rax,[rbp-0x18]    ;; debug: statement 5850
                                                             ;; debug: position 5857
0x25714414bb   219  488bd0         REX.W movq rdx,rax
0x25714414be   222  48b9712ee997b5250000 REX.W movq rcx,0x25b597e92e71    ;; debug: position 5858
                                                             ;; object: 0x25b597e92e71 <String[6]: length>
0x25714414c8   232  48b80000000008000000 REX.W movq rax,0x800000000
0x25714414d2   242  e8e9bbfdff     call 0x257141d0c0         ;; code: contextual, LOAD_IC, DEFAULT
0x25714414d7   247  50             push rax
0x25714414d8   248  48b80000000000000000 REX.W movq rax,0x0
0x25714414e2   258  5a             pop rdx                   ;; debug: position 5865
0x25714414e3   259  e858bffcff     call 0x257140d440         ;; code: BINARY_OP_IC, UNINITIALIZED (id = 84)
0x25714414e8   264  90             nop
0x25714414e9   265  488945e0       REX.W movq [rbp-0x20],rax    ;; debug: position 5850
0x25714414ed   269  488bc6         REX.W movq rax,rsi        ;; debug: statement 5872
                                                             ;; debug: position 5879
0x25714414f0   272  ffb0ef000000   push [rax+0xef]
0x25714414f6   278  41ff75a8       push [r13-0x58]
0x25714414fa   282  ff7510         push [rbp+0x10]           ;; debug: position 5894
0x25714414fd   285  ff75e8         push [rbp-0x18]           ;; debug: position 5896
0x2571441500   288  ff75e0         push [rbp-0x20]           ;; debug: position 5898
0x2571441503   291  48ba000000000a000000 REX.W movq rdx,0xa00000000    ;; debug: position 5879
0x257144150d   301  488b7c2420     REX.W movq rdi,[rsp+0x20]
0x2571441512   306  e809b1fdff     call 0x257141c620         ;; code: CALL_IC, DEFAULT
0x2571441517   311  488b75f8       REX.W movq rsi,[rbp-0x8]
0x257144151b   315  4883c408       REX.W addq rsp,0x8
0x257144151f   319  48bba946ef97b5250000 REX.W movq rbx,0x25b597ef46a9    ;; object: 0x25b597ef46a9 Cell for 6144
0x2571441529   329  83430bd1       addl [rbx+0xb],0xd1
0x257144152d   333  791f           jns 366  (0x257144154e)
0x257144152f   335  50             push rax
0x2571441530   336  e8ab51ffff     call InterruptCheck  (0x25714366e0)    ;; code: BUILTIN
0x2571441535   341  58             pop rax
0x2571441536   342  48bba946ef97b5250000 REX.W movq rbx,0x25b597ef46a9    ;; object: 0x25b597ef46a9 Cell for 6144
0x2571441540   352  49ba0000000000180000 REX.W movq r10,0x180000000000
0x257144154a   362  4c895307       REX.W movq [rbx+0x7],r10
0x257144154e   366  c9             leave                     ;; debug: statement 5902
0x257144154f   367  c21000         ret 0x10
0x2571441552   370  498b45a8       REX.W movq rax,[r13-0x58]
0x2571441556   374  e9c4ffffff     jmp 319  (0x257144151f)
0x257144155b   379  0f1f440000     nop

Deoptimization Output Data (deopt points = 0)

Back edges (size = 0)
ast_id  pc_offset  loop_depth

0x25b597ef4711: [TypeFeedbackInfo]
 - ic_total_count: 5, ic_with_type_info_count: 0, ic_generic_count: 0

RelocInfo (size = 72)
0x25714413e0  position  (5726)
0x25714413f6  code target (BUILTIN)  (0x2571436820)
0x25714413fa  statement position  (5731)
0x25714413fa  position  (5743)
0x2571441419  position  (5759)
0x2571441438  statement position  (5776)
0x2571441438  position  (5782)
0x257144143a  embedded object  (0x25b597e856e9 <String[13]: MakeTypeError>)
0x2571441451  code target (LOAD_IC)  (0x2571420300)
0x2571441458  embedded object  (0x25b597e04189 <undefined>)
0x2571441470  embedded object  (0x25b597ef4609 <String[20]: Array.prototype.join>)
0x257144148a  code target (CALL_IC)  (0x25714121c0)
0x2571441496  position  (5776)
0x25714414a6  code target (STUB)  (0x2571409c20)
0x25714414aa  statement position  (5824)
0x25714414aa  position  (5842)
0x25714414af  code target (STUB)  (0x2571414240)
0x25714414b3  position  (5824)
0x25714414b7  statement position  (5850)
0x25714414b7  position  (5857)
0x25714414be  position  (5858)
0x25714414c0  embedded object  (0x25b597e92e71 <String[6]: length>)
0x25714414d3  code target (LOAD_IC)  (0x257141d0c0)
0x25714414e2  position  (5865)
0x25714414e4  code target with id (BINARY_OP_IC)  (0x257140d440) (id=84)
0x25714414e9  position  (5850)
0x25714414ed  statement position  (5872)
0x25714414ed  position  (5879)
0x25714414fa  position  (5894)
0x25714414fd  position  (5896)
0x2571441500  position  (5898)
0x2571441503  position  (5879)
0x2571441513  code target (CALL_IC)  (0x257141c620)
0x2571441521  embedded object  (0x25b597ef46a9 Cell for 6144)
0x2571441531  code target (BUILTIN)  (0x25714366e0)
0x2571441538  embedded object  (0x25b597ef46a9 Cell for 6144)
0x257144154e  statement position  (5902)

--- End code ---
--- Raw source ---
(h){
var i=(typeof(this)==='number')?this:%non_number_to_number(this);
if(!(typeof(h)==='number'))h=%non_number_to_number(h);
return %NumberShr(i,h);
}


--- Code ---
source_position = 7160
kind = FUNCTION
name = SHR
compiler = full-codegen
Instructions (size = 316)
0x25714415e0     0  55             push rbp                  ;; debug: position 7160
0x25714415e1     1  4889e5         REX.W movq rbp,rsp
0x25714415e4     4  56             push rsi
0x25714415e5     5  57             push rdi
0x25714415e6     6  41ff75a8       push [r13-0x58]
0x25714415ea    10  493ba540090000 REX.W cmpq rsp,[r13+0x940]
0x25714415f1    17  7305           jnc 24  (0x25714415f8)
0x25714415f3    19  e82852ffff     call StackCheck  (0x2571436820)    ;; code: BUILTIN
0x25714415f8    24  488b4518       REX.W movq rax,[rbp+0x18]    ;; debug: statement 7165
                                                             ;; debug: position 7179
0x25714415fc    28  eb0f           jmp 45  (0x257144160d)
0x25714415fe    30  493b45c0       REX.W cmpq rax,[r13-0x40]
0x2571441602    34  0f841b000000   jz 67  (0x2571441623)
0x2571441608    40  e91f000000     jmp 76  (0x257144162c)
0x257144160d    45  a801           test al,0x1
0x257144160f    47  0f840e000000   jz 67  (0x2571441623)
0x2571441615    53  488b40ff       REX.W movq rax,[rax-0x1]
0x2571441619    57  493b4508       REX.W cmpq rax,[r13+0x8]
0x257144161d    61  0f8509000000   jnz 76  (0x257144162c)
0x2571441623    67  488b4518       REX.W movq rax,[rbp+0x18]    ;; debug: position 7197
0x2571441627    71  e930000000     jmp 124  (0x257144165c)
0x257144162c    76  41ff75a8       push [r13-0x58]           ;; debug: position 7202
0x2571441630    80  488b4627       REX.W movq rax,[rsi+0x27]
0x2571441634    84  488b401f       REX.W movq rax,[rax+0x1f]
0x2571441638    88  488b80cf020000 REX.W movq rax,[rax+0x2cf]
0x257144163f    95  ff3424         push [rsp]
0x2571441642    98  4889442408     REX.W movq [rsp+0x8],rax
0x2571441647   103  ff7518         push [rbp+0x18]           ;; debug: position 7224
0x257144164a   106  488b7c2410     REX.W movq rdi,[rsp+0x10]    ;; debug: position 7202
0x257144164f   111  e80ce4feff     call 0x257142fa60         ;; code: STUB, CallFunctionStub, minor: 4
0x2571441654   116  488b75f8       REX.W movq rsi,[rbp-0x8]
0x2571441658   120  4883c408       REX.W addq rsp,0x8
0x257144165c   124  488945e8       REX.W movq [rbp-0x18],rax    ;; debug: position 7165
0x2571441660   128  488b4510       REX.W movq rax,[rbp+0x10]    ;; debug: statement 7231
                                                             ;; debug: position 7243
0x2571441664   132  eb0f           jmp 149  (0x2571441675)
0x2571441666   134  493b45c0       REX.W cmpq rax,[r13-0x40]
0x257144166a   138  0f844f000000   jz 223  (0x25714416bf)
0x2571441670   144  e916000000     jmp 171  (0x257144168b)
0x2571441675   149  a801           test al,0x1
0x2571441677   151  0f8442000000   jz 223  (0x25714416bf)
0x257144167d   157  488b40ff       REX.W movq rax,[rax-0x1]
0x2571441681   161  493b4508       REX.W cmpq rax,[r13+0x8]
0x2571441685   165  0f8434000000   jz 223  (0x25714416bf)
0x257144168b   171  41ff75a8       push [r13-0x58]           ;; debug: statement 7258
                                                             ;; debug: position 7259
0x257144168f   175  488b4627       REX.W movq rax,[rsi+0x27]
0x2571441693   179  488b401f       REX.W movq rax,[rax+0x1f]
0x2571441697   183  488b80cf020000 REX.W movq rax,[rax+0x2cf]
0x257144169e   190  ff3424         push [rsp]
0x25714416a1   193  4889442408     REX.W movq [rsp+0x8],rax
0x25714416a6   198  ff7510         push [rbp+0x10]           ;; debug: position 7282
0x25714416a9   201  488b7c2410     REX.W movq rdi,[rsp+0x10]    ;; debug: position 7260
0x25714416ae   206  e8ade3feff     call 0x257142fa60         ;; code: STUB, CallFunctionStub, minor: 4
0x25714416b3   211  488b75f8       REX.W movq rsi,[rbp-0x8]
0x25714416b7   215  4883c408       REX.W addq rsp,0x8
0x25714416bb   219  48894510       REX.W movq [rbp+0x10],rax    ;; debug: position 7259
0x25714416bf   223  ff75e8         push [rbp-0x18]           ;; debug: statement 7286
                                                             ;; debug: position 7304
0x25714416c2   226  ff7510         push [rbp+0x10]           ;; debug: position 7306
0x25714416c5   229  b802000000     movl rax,0x2
0x25714416ca   234  48bb30e1880001000000 REX.W movq rbx,0x10088e130
0x25714416d4   244  e84785fcff     call 0x2571409c20         ;; code: STUB, CEntryStub, minor: 0
0x25714416d9   249  48bb9947ef97b5250000 REX.W movq rbx,0x25b597ef4799    ;; object: 0x25b597ef4799 Cell for 6144
0x25714416e3   259  83430bff       addl [rbx+0xb],0xff
0x25714416e7   263  791f           jns 296  (0x2571441708)
0x25714416e9   265  50             push rax
0x25714416ea   266  e8f14fffff     call InterruptCheck  (0x25714366e0)    ;; code: BUILTIN
0x25714416ef   271  58             pop rax
0x25714416f0   272  48bb9947ef97b5250000 REX.W movq rbx,0x25b597ef4799    ;; object: 0x25b597ef4799 Cell for 6144
0x25714416fa   282  49ba0000000000180000 REX.W movq r10,0x180000000000
0x2571441704   292  4c895307       REX.W movq [rbx+0x7],r10
0x2571441708   296  c9             leave                     ;; debug: statement 7310
0x2571441709   297  c21000         ret 0x10
0x257144170c   300  498b45a8       REX.W movq rax,[r13-0x58]
0x2571441710   304  e9c4ffffff     jmp 249  (0x25714416d9)
0x2571441715   309  0f1f00         nop

Deoptimization Output Data (deopt points = 0)

Back edges (size = 0)
ast_id  pc_offset  loop_depth

0x25b597ef47f9: [TypeFeedbackInfo]
 - ic_total_count: 0, ic_with_type_info_count: 0, ic_generic_count: 0

RelocInfo (size = 57)
0x25714415e0  position  (7160)
0x25714415f4  code target (BUILTIN)  (0x2571436820)
0x25714415f8  statement position  (7165)
0x25714415f8  position  (7179)
0x2571441623  position  (7197)
0x257144162c  position  (7202)
0x2571441647  position  (7224)
0x257144164a  position  (7202)
0x2571441650  code target (STUB)  (0x257142fa60)
0x257144165c  position  (7165)
0x2571441660  statement position  (7231)
0x2571441660  position  (7243)
0x257144168b  statement position  (7258)
0x257144168b  position  (7259)
0x25714416a6  position  (7282)
0x25714416a9  position  (7260)
0x25714416af  code target (STUB)  (0x257142fa60)
0x25714416bb  position  (7259)
0x25714416bf  statement position  (7286)
0x25714416bf  position  (7304)
0x25714416c2  position  (7306)
0x25714416d5  code target (STUB)  (0x2571409c20)
0x25714416db  embedded object  (0x25b597ef4799 Cell for 6144)
0x25714416eb  code target (BUILTIN)  (0x25714366e0)
0x25714416f2  embedded object  (0x25b597ef4799 Cell for 6144)
0x2571441708  statement position  (7310)

--- End code ---
--- Raw source ---
(K,x,D){
if((K===(void 0))){
K=',';
}else if(!(typeof(K)==='string')){
K=$nonStringToString(K);
}
var V=%_FastOneByteArrayJoin(x,K);
if(!(V===(void 0)))return V;
if(D===1){
var C=x[0];
if((typeof(C)==='string'))return C;
if((C==null))return'';
return $nonStringToString(C);
}
return Join(x,D,K,ConvertToString);
}


--- Code ---
source_position = 5394
kind = FUNCTION
name = InnerArrayJoin
compiler = full-codegen
Instructions (size = 1548)
0x2571441780     0  55             push rbp                  ;; debug: position 5394
0x2571441781     1  4889e5         REX.W movq rbp,rsp
0x2571441784     4  56             push rsi
0x2571441785     5  57             push rdi
0x2571441786     6  498b55a8       REX.W movq rdx,[r13-0x58]
0x257144178a    10  52             push rdx
0x257144178b    11  52             push rdx
0x257144178c    12  493ba540090000 REX.W cmpq rsp,[r13+0x940]
0x2571441793    19  7305           jnc 26  (0x257144179a)
0x2571441795    21  e88650ffff     call StackCheck  (0x2571436820)    ;; code: BUILTIN
0x257144179a    26  488b4520       REX.W movq rax,[rbp+0x20]    ;; debug: statement 5403
                                                             ;; debug: position 5407
0x257144179e    30  eb0f           jmp 47  (0x25714417af)
0x25714417a0    32  493b45c0       REX.W cmpq rax,[r13-0x40]
0x25714417a4    36  0f840f000000   jz 57  (0x25714417b9)
0x25714417aa    42  e91d000000     jmp 76  (0x25714417cc)
0x25714417af    47  493b45a8       REX.W cmpq rax,[r13-0x58]
0x25714417b3    51  0f8513000000   jnz 76  (0x25714417cc)
0x25714417b9    57  48b89148ef97b5250000 REX.W movq rax,0x25b597ef4891    ;; debug: statement 5423
                                                             ;; debug: position 5424
                                                             ;; object: 0x25b597ef4891 <String[1]: ,>
0x25714417c3    67  48894520       REX.W movq [rbp+0x20],rax
0x25714417c7    71  e978000000     jmp 196  (0x2571441844)
0x25714417cc    76  488b4520       REX.W movq rax,[rbp+0x20]    ;; debug: statement 5436
                                                             ;; debug: position 5448
0x25714417d0    80  eb0f           jmp 97  (0x25714417e1)
0x25714417d2    82  493b45c0       REX.W cmpq rax,[r13-0x40]
0x25714417d6    86  0f8468000000   jz 196  (0x2571441844)
0x25714417dc    92  e916000000     jmp 119  (0x25714417f7)
0x25714417e1    97  a801           test al,0x1
0x25714417e3    99  0f840e000000   jz 119  (0x25714417f7)
0x25714417e9   105  488b50ff       REX.W movq rdx,[rax-0x1]
0x25714417ed   109  807a0b80       cmpb [rdx+0xb],0x80
0x25714417f1   113  0f824d000000   jc 196  (0x2571441844)
0x25714417f7   119  48b9b1a1e997b5250000 REX.W movq rcx,0x25b597e9a1b1    ;; debug: statement 5465
                                                             ;; debug: position 5467
                                                             ;; object: 0x25b597e9a1b1 <String[18]: $nonStringToString>
0x2571441801   129  488b5627       REX.W movq rdx,[rsi+0x27]
0x2571441805   133  48b80000000006000000 REX.W movq rax,0x600000000
0x257144180f   143  e8eceafdff     call 0x2571420300         ;; code: contextual, LOAD_IC, DEFAULT
0x2571441814   148  50             push rax
0x2571441815   149  49ba8941e097b5250000 REX.W movq r10,0x25b597e04189    ;; object: 0x25b597e04189 <undefined>
0x257144181f   159  4152           push r10
0x2571441821   161  ff7520         push [rbp+0x20]           ;; debug: position 5486
0x2571441824   164  48ba0000000004000000 REX.W movq rdx,0x400000000    ;; debug: position 5467
0x257144182e   174  488b7c2410     REX.W movq rdi,[rsp+0x10]
0x2571441833   179  e8880afdff     call 0x25714122c0         ;; code: CALL_IC, DEFAULT
0x2571441838   184  488b75f8       REX.W movq rsi,[rbp-0x8]
0x257144183c   188  4883c408       REX.W addq rsp,0x8
0x2571441840   192  48894520       REX.W movq [rbp+0x20],rax    ;; debug: position 5466
0x2571441844   196  ff7520         push [rbp+0x20]           ;; debug: statement 5492
                                                             ;; debug: position 5523
0x2571441847   199  488b4518       REX.W movq rax,[rbp+0x18]    ;; debug: position 5521
0x257144184b   203  4883ec10       REX.W subq rsp,0x10
0x257144184f   207  fc             cld
0x2571441850   208  a801           test al,0x1
0x2571441852   210  0f84c4010000   jz 668  (0x2571441a1c)
0x2571441858   216  488b58ff       REX.W movq rbx,[rax-0x1]
0x257144185c   220  807b0bbe       cmpb [rbx+0xb],0xbe
0x2571441860   224  0f85b6010000   jnz 668  (0x2571441a1c)
0x2571441866   230  807b0d1f       cmpb [rbx+0xd],0x1f
0x257144186a   234  0f87ac010000   ja 668  (0x2571441a1c)
0x2571441870   240  488b7817       REX.W movq rdi,[rax+0x17]
0x2571441874   244  4885ff         REX.W testq rdi,rdi
0x2571441877   247  0f8509000000   jnz 262  (0x2571441886)
0x257144187d   253  498b45d0       REX.W movq rax,[r13-0x30]
0x2571441881   257  e94f030000     jmp 1109  (0x2571441bd5)
0x2571441886   262  48c1ef20       REX.W shrq rdi, 32
0x257144188a   266  893c24         movl [rsp],rdi
0x257144188d   269  488b400f       REX.W movq rax,[rax+0xf]
0x2571441891   273  33d2           xorl rdx,rdx
0x2571441893   275  33c9           xorl rcx,rcx
0x2571441895   277  488b74d00f     REX.W movq rsi,[rax+rdx*8+0xf]
0x257144189a   282  40f6c601       testb rsi,0x1
0x257144189e   286  0f8478010000   jz 668  (0x2571441a1c)
0x25714418a4   292  488b5eff       REX.W movq rbx,[rsi-0x1]
0x25714418a8   296  0fb65b0b       movzxbl rbx,[rbx+0xb]
0x25714418ac   300  80e387         cmpb bl,0x87
0x25714418af   303  80fb04         cmpb bl,0x4
0x25714418b2   306  0f8564010000   jnz 668  (0x2571441a1c)
0x25714418b8   312  034e13         addl rcx,[rsi+0x13]
0x25714418bb   315  0f805b010000   jo 668  (0x2571441a1c)
0x25714418c1   321  ffc2           incl rdx
0x25714418c3   323  3bd7           cmpl rdx,rdi
0x25714418c5   325  0f8ccaffffff   jl 277  (0x2571441895)
0x25714418cb   331  83ff01         cmpl rdi,0x1
0x25714418ce   334  0f8509000000   jnz 349  (0x25714418dd)
0x25714418d4   340  488b400f       REX.W movq rax,[rax+0xf]
0x25714418d8   344  e9f8020000     jmp 1109  (0x2571441bd5)
0x25714418dd   349  488b742410     REX.W movq rsi,[rsp+0x10]
0x25714418e2   354  40f6c601       testb rsi,0x1
0x25714418e6   358  0f8430010000   jz 668  (0x2571441a1c)
0x25714418ec   364  488b5eff       REX.W movq rbx,[rsi-0x1]
0x25714418f0   368  0fb65b0b       movzxbl rbx,[rbx+0xb]
0x25714418f4   372  80e387         cmpb bl,0x87
0x25714418f7   375  80fb04         cmpb bl,0x4
0x25714418fa   378  0f851c010000   jnz 668  (0x2571441a1c)
0x2571441900   384  8b5e13         movl rbx,[rsi+0x13]
0x2571441903   387  ffca           decl rdx
0x2571441905   389  0fafda         imull rbx,rdx
0x2571441908   392  0f800e010000   jo 668  (0x2571441a1c)
0x257144190e   398  03cb           addl rcx,rbx
0x2571441910   400  0f8006010000   jo 668  (0x2571441a1c)
0x2571441916   406  8bd9           movl rbx,rcx
0x2571441918   408  4883c307       REX.W addq rbx,0x7
0x257144191c   412  4883e3f8       REX.W andq rbx,0xf8
0x2571441920   416  488d141d18000000 REX.W leaq rdx,[rbx*1+0x18]
0x2571441928   424  498db5400c0000 REX.W leaq rsi,[r13+0xc40]
0x257144192f   431  488b3e         REX.W movq rdi,[rsi]
0x2571441932   434  4803d7         REX.W addq rdx,rdi
0x2571441935   437  0f82e1000000   jc 668  (0x2571441a1c)
0x257144193b   443  493b95480c0000 REX.W cmpq rdx,[r13+0xc48]
0x2571441942   450  0f87d4000000   ja 668  (0x2571441a1c)
0x2571441948   456  488916         REX.W movq [rsi],rdx
0x257144194b   459  4883c701       REX.W addq rdi,0x1
0x257144194f   463  4d8b95a0000000 REX.W movq r10,[r13+0xa0]
0x2571441956   470  4c8957ff       REX.W movq [rdi-0x1],r10
0x257144195a   474  8bd9           movl rbx,rcx
0x257144195c   476  48c1e320       REX.W shlq rbx, 32
0x2571441960   480  48895f0f       REX.W movq [rdi+0xf],rbx
0x2571441964   484  48c7470703000000 REX.W movq [rdi+0x7],0x3
0x257144196c   492  48897c2408     REX.W movq [rsp+0x8],rdi
0x2571441971   497  488d7f17       REX.W leaq rdi,[rdi+0x17]
0x2571441975   501  488b742410     REX.W movq rsi,[rsp+0x10]
0x257144197a   506  837e1301       cmpl [rsi+0x13],0x1
0x257144197e   510  0f84a1000000   jz 677  (0x2571441a25)
0x2571441984   516  0f8f34010000   jg 830  (0x2571441abe)
0x257144198a   522  33d2           xorl rdx,rdx
0x257144198c   524  8b1c24         movl rbx,[rsp]
0x257144198f   527  e97b000000     jmp 655  (0x2571441a0f)
0x2571441994   532  488b74d00f     REX.W movq rsi,[rax+rdx*8+0xf]
0x2571441999   537  8b4e13         movl rcx,[rsi+0x13]
0x257144199c   540  488d7617       REX.W leaq rsi,[rsi+0x17]
0x25714419a0   544  83f908         cmpl rcx,0x8
0x25714419a3   547  7250           jc 629  (0x25714419f5)
0x25714419a5   549  83f910         cmpl rcx,0x10
0x25714419a8   552  7636           jna 608  (0x25714419e0)
0x25714419aa   554  83f918         cmpl rcx,0x18
0x25714419ad   557  7629           jna 600  (0x25714419d8)
0x25714419af   559  83f920         cmpl rcx,0x20
0x25714419b2   562  761c           jna 592  (0x25714419d0)
0x25714419b4   564  4c8bd1         REX.W movq r10,rcx
0x25714419b7   567  c1e903         shrl rcx, 3
0x25714419ba   570  f348a5         REX.W rep REX.W movsq
0x25714419bd   573  4183e207       andl r10,0x7
0x25714419c1   577  4a8b4c16f8     REX.W movq rcx,[rsi+r10*1-0x8]
0x25714419c6   582  4a894c17f8     REX.W movq [rdi+r10*1-0x8],rcx
0x25714419cb   587  4903fa         REX.W addq rdi,r10
0x25714419ce   590  eb3d           jmp 653  (0x2571441a0d)
0x25714419d0   592  4c8b5610       REX.W movq r10,[rsi+0x10]
0x25714419d4   596  4c895710       REX.W movq [rdi+0x10],r10
0x25714419d8   600  4c8b5608       REX.W movq r10,[rsi+0x8]
0x25714419dc   604  4c895708       REX.W movq [rdi+0x8],r10
0x25714419e0   608  4c8b16         REX.W movq r10,[rsi]
0x25714419e3   611  4c8917         REX.W movq [rdi],r10
0x25714419e6   614  4c8b540ef8     REX.W movq r10,[rsi+rcx*1-0x8]
0x25714419eb   619  4c89540ff8     REX.W movq [rdi+rcx*1-0x8],r10
0x25714419f0   624  4803f9         REX.W addq rdi,rcx
0x25714419f3   627  eb18           jmp 653  (0x2571441a0d)
0x25714419f5   629  85c9           testl rcx,rcx
0x25714419f7   631  7414           jz 653  (0x2571441a0d)
0x25714419f9   633  448a16         movb r10l,[rsi]
0x25714419fc   636  448817         movb [rdi],r10l
0x25714419ff   639  48ffc6         REX.W incq rsi
0x2571441a02   642  48ffc7         REX.W incq rdi
0x2571441a05   645  ffc9           decl rcx
0x2571441a07   647  0f85ecffffff   jnz 633  (0x25714419f9)
0x2571441a0d   653  ffc2           incl rdx
0x2571441a0f   655  3bd3           cmpl rdx,rbx
0x2571441a11   657  0f8c7dffffff   jl 532  (0x2571441994)
0x2571441a17   663  e9b4010000     jmp 1104  (0x2571441bd0)
0x2571441a1c   668  498b45a8       REX.W movq rax,[r13-0x58]
0x2571441a20   672  e9b0010000     jmp 1109  (0x2571441bd5)
0x2571441a25   677  0fb65e17       movzxbl rbx,[rsi+0x17]
0x2571441a29   681  33d2           xorl rdx,rdx
0x2571441a2b   683  e905000000     jmp 693  (0x2571441a35)
0x2571441a30   688  881f           movb [rdi],bl
0x2571441a32   690  48ffc7         REX.W incq rdi
0x2571441a35   693  488b74d00f     REX.W movq rsi,[rax+rdx*8+0xf]
0x2571441a3a   698  8b4e13         movl rcx,[rsi+0x13]
0x2571441a3d   701  488d7617       REX.W leaq rsi,[rsi+0x17]
0x2571441a41   705  83f908         cmpl rcx,0x8
0x2571441a44   708  7250           jc 790  (0x2571441a96)
0x2571441a46   710  83f910         cmpl rcx,0x10
0x2571441a49   713  7636           jna 769  (0x2571441a81)
0x2571441a4b   715  83f918         cmpl rcx,0x18
0x2571441a4e   718  7629           jna 761  (0x2571441a79)
0x2571441a50   720  83f920         cmpl rcx,0x20
0x2571441a53   723  761c           jna 753  (0x2571441a71)
0x2571441a55   725  4c8bd1         REX.W movq r10,rcx
0x2571441a58   728  c1e903         shrl rcx, 3
0x2571441a5b   731  f348a5         REX.W rep REX.W movsq
0x2571441a5e   734  4183e207       andl r10,0x7
0x2571441a62   738  4a8b4c16f8     REX.W movq rcx,[rsi+r10*1-0x8]
0x2571441a67   743  4a894c17f8     REX.W movq [rdi+r10*1-0x8],rcx
0x2571441a6c   748  4903fa         REX.W addq rdi,r10
0x2571441a6f   751  eb3d           jmp 814  (0x2571441aae)
0x2571441a71   753  4c8b5610       REX.W movq r10,[rsi+0x10]
0x2571441a75   757  4c895710       REX.W movq [rdi+0x10],r10
0x2571441a79   761  4c8b5608       REX.W movq r10,[rsi+0x8]
0x2571441a7d   765  4c895708       REX.W movq [rdi+0x8],r10
0x2571441a81   769  4c8b16         REX.W movq r10,[rsi]
0x2571441a84   772  4c8917         REX.W movq [rdi],r10
0x2571441a87   775  4c8b540ef8     REX.W movq r10,[rsi+rcx*1-0x8]
0x2571441a8c   780  4c89540ff8     REX.W movq [rdi+rcx*1-0x8],r10
0x2571441a91   785  4803f9         REX.W addq rdi,rcx
0x2571441a94   788  eb18           jmp 814  (0x2571441aae)
0x2571441a96   790  85c9           testl rcx,rcx
0x2571441a98   792  7414           jz 814  (0x2571441aae)
0x2571441a9a   794  448a16         movb r10l,[rsi]
0x2571441a9d   797  448817         movb [rdi],r10l
0x2571441aa0   800  48ffc6         REX.W incq rsi
0x2571441aa3   803  48ffc7         REX.W incq rdi
0x2571441aa6   806  ffc9           decl rcx
0x2571441aa8   808  0f85ecffffff   jnz 794  (0x2571441a9a)
0x2571441aae   814  ffc2           incl rdx
0x2571441ab0   816  3b1424         cmpl rdx,[rsp]
0x2571441ab3   819  0f8c77ffffff   jl 688  (0x2571441a30)
0x2571441ab9   825  e912010000     jmp 1104  (0x2571441bd0)
0x2571441abe   830  8b1424         movl rdx,[rsp]
0x2571441ac1   833  488d44d00f     REX.W leaq rax,[rax+rdx*8+0xf]
0x2571441ac6   838  48f7da         REX.W negq rdx
0x2571441ac9   841  488b742410     REX.W movq rsi,[rsp+0x10]
0x2571441ace   846  8b5e13         movl rbx,[rsi+0x13]
0x2571441ad1   849  488d7617       REX.W leaq rsi,[rsi+0x17]
0x2571441ad5   853  4889742410     REX.W movq [rsp+0x10],rsi
0x2571441ada   858  e970000000     jmp 975  (0x2571441b4f)
0x2571441adf   863  488b742410     REX.W movq rsi,[rsp+0x10]
0x2571441ae4   868  8bcb           movl rcx,rbx
0x2571441ae6   870  83f908         cmpl rcx,0x8
0x2571441ae9   873  7250           jc 955  (0x2571441b3b)
0x2571441aeb   875  83f910         cmpl rcx,0x10
0x2571441aee   878  7636           jna 934  (0x2571441b26)
0x2571441af0   880  83f918         cmpl rcx,0x18
0x2571441af3   883  7629           jna 926  (0x2571441b1e)
0x2571441af5   885  83f920         cmpl rcx,0x20
0x2571441af8   888  761c           jna 918  (0x2571441b16)
0x2571441afa   890  4c8bd1         REX.W movq r10,rcx
0x2571441afd   893  c1e903         shrl rcx, 3
0x2571441b00   896  f348a5         REX.W rep REX.W movsq
0x2571441b03   899  4183e207       andl r10,0x7
0x2571441b07   903  4a8b4c16f8     REX.W movq rcx,[rsi+r10*1-0x8]
0x2571441b0c   908  4a894c17f8     REX.W movq [rdi+r10*1-0x8],rcx
0x2571441b11   913  4903fa         REX.W addq rdi,r10
0x2571441b14   916  eb39           jmp 975  (0x2571441b4f)
0x2571441b16   918  4c8b5610       REX.W movq r10,[rsi+0x10]
0x2571441b1a   922  4c895710       REX.W movq [rdi+0x10],r10
0x2571441b1e   926  4c8b5608       REX.W movq r10,[rsi+0x8]
0x2571441b22   930  4c895708       REX.W movq [rdi+0x8],r10
0x2571441b26   934  4c8b16         REX.W movq r10,[rsi]
0x2571441b29   937  4c8917         REX.W movq [rdi],r10
0x2571441b2c   940  4c8b540ef8     REX.W movq r10,[rsi+rcx*1-0x8]
0x2571441b31   945  4c89540ff8     REX.W movq [rdi+rcx*1-0x8],r10
0x2571441b36   950  4803f9         REX.W addq rdi,rcx
0x2571441b39   953  eb14           jmp 975  (0x2571441b4f)
0x2571441b3b   955  448a16         movb r10l,[rsi]
0x2571441b3e   958  448817         movb [rdi],r10l
0x2571441b41   961  48ffc6         REX.W incq rsi
0x2571441b44   964  48ffc7         REX.W incq rdi
0x2571441b47   967  ffc9           decl rcx
0x2571441b49   969  0f85ecffffff   jnz 955  (0x2571441b3b)
0x2571441b4f   975  488b34d0       REX.W movq rsi,[rax+rdx*8]
0x2571441b53   979  8b4e13         movl rcx,[rsi+0x13]
0x2571441b56   982  488d7617       REX.W leaq rsi,[rsi+0x17]
0x2571441b5a   986  83f908         cmpl rcx,0x8
0x2571441b5d   989  7250           jc 1071  (0x2571441baf)
0x2571441b5f   991  83f910         cmpl rcx,0x10
0x2571441b62   994  7636           jna 1050  (0x2571441b9a)
0x2571441b64   996  83f918         cmpl rcx,0x18
0x2571441b67   999  7629           jna 1042  (0x2571441b92)
0x2571441b69  1001  83f920         cmpl rcx,0x20
0x2571441b6c  1004  761c           jna 1034  (0x2571441b8a)
0x2571441b6e  1006  4c8bd1         REX.W movq r10,rcx
0x2571441b71  1009  c1e903         shrl rcx, 3
0x2571441b74  1012  f348a5         REX.W rep REX.W movsq
0x2571441b77  1015  4183e207       andl r10,0x7
0x2571441b7b  1019  4a8b4c16f8     REX.W movq rcx,[rsi+r10*1-0x8]
0x2571441b80  1024  4a894c17f8     REX.W movq [rdi+r10*1-0x8],rcx
0x2571441b85  1029  4903fa         REX.W addq rdi,r10
0x2571441b88  1032  eb3d           jmp 1095  (0x2571441bc7)
0x2571441b8a  1034  4c8b5610       REX.W movq r10,[rsi+0x10]
0x2571441b8e  1038  4c895710       REX.W movq [rdi+0x10],r10
0x2571441b92  1042  4c8b5608       REX.W movq r10,[rsi+0x8]
0x2571441b96  1046  4c895708       REX.W movq [rdi+0x8],r10
0x2571441b9a  1050  4c8b16         REX.W movq r10,[rsi]
0x2571441b9d  1053  4c8917         REX.W movq [rdi],r10
0x2571441ba0  1056  4c8b540ef8     REX.W movq r10,[rsi+rcx*1-0x8]
0x2571441ba5  1061  4c89540ff8     REX.W movq [rdi+rcx*1-0x8],r10
0x2571441baa  1066  4803f9         REX.W addq rdi,rcx
0x2571441bad  1069  eb18           jmp 1095  (0x2571441bc7)
0x2571441baf  1071  85c9           testl rcx,rcx
0x2571441bb1  1073  7414           jz 1095  (0x2571441bc7)
0x2571441bb3  1075  448a16         movb r10l,[rsi]
0x2571441bb6  1078  448817         movb [rdi],r10l
0x2571441bb9  1081  48ffc6         REX.W incq rsi
0x2571441bbc  1084  48ffc7         REX.W incq rdi
0x2571441bbf  1087  ffc9           decl rcx
0x2571441bc1  1089  0f85ecffffff   jnz 1075  (0x2571441bb3)
0x2571441bc7  1095  48ffc2         REX.W incq rdx
0x2571441bca  1098  0f850fffffff   jnz 863  (0x2571441adf)
0x2571441bd0  1104  488b442408     REX.W movq rax,[rsp+0x8]
0x2571441bd5  1109  4883c418       REX.W addq rsp,0x18
0x2571441bd9  1113  488b75f8       REX.W movq rsi,[rbp-0x8]
0x2571441bdd  1117  488945e8       REX.W movq [rbp-0x18],rax    ;; debug: position 5492
0x2571441be1  1121  488b45e8       REX.W movq rax,[rbp-0x18]    ;; debug: statement 5527
                                                             ;; debug: position 5532
0x2571441be5  1125  eb0f           jmp 1142  (0x2571441bf6)
0x2571441be7  1127  493b45c0       REX.W cmpq rax,[r13-0x40]
0x2571441beb  1131  0f8446000000   jz 1207  (0x2571441c37)
0x2571441bf1  1137  e90a000000     jmp 1152  (0x2571441c00)
0x2571441bf6  1142  493b45a8       REX.W cmpq rax,[r13-0x58]
0x2571441bfa  1146  0f8437000000   jz 1207  (0x2571441c37)
0x2571441c00  1152  488b45e8       REX.W movq rax,[rbp-0x18]    ;; debug: statement 5546
                                                             ;; debug: position 5553
0x2571441c04  1156  48bb3149ef97b5250000 REX.W movq rbx,0x25b597ef4931    ;; object: 0x25b597ef4931 Cell for 6144
0x2571441c0e  1166  83430bd1       addl [rbx+0xb],0xd1
0x2571441c12  1170  791f           jns 1203  (0x2571441c33)
0x2571441c14  1172  50             push rax
0x2571441c15  1173  e8c64affff     call InterruptCheck  (0x25714366e0)    ;; code: BUILTIN
0x2571441c1a  1178  58             pop rax
0x2571441c1b  1179  48bb3149ef97b5250000 REX.W movq rbx,0x25b597ef4931    ;; object: 0x25b597ef4931 Cell for 6144
0x2571441c25  1189  49ba0000000000180000 REX.W movq r10,0x180000000000
0x2571441c2f  1199  4c895307       REX.W movq [rbx+0x7],r10
0x2571441c33  1203  c9             leave                     ;; debug: statement 5706
0x2571441c34  1204  c22000         ret 0x20
0x2571441c37  1207  ff7510         push [rbp+0x10]           ;; debug: statement 5556
                                                             ;; debug: position 5559
0x2571441c3a  1210  48b80000000001000000 REX.W movq rax,0x100000000
0x2571441c44  1220  5a             pop rdx
0x2571441c45  1221  e816f3fdff     call 0x2571420f60         ;; code: COMPARE_IC, UNINITIALIZED (id = 127)
0x2571441c4a  1226  90             nop
0x2571441c4b  1227  eb0f           jmp 1244  (0x2571441c5c)
0x2571441c4d  1229  493b45c0       REX.W cmpq rax,[r13-0x40]
0x2571441c51  1233  0f840e000000   jz 1253  (0x2571441c65)
0x2571441c57  1239  e9e1000000     jmp 1469  (0x2571441d3d)
0x2571441c5c  1244  4885c0         REX.W testq rax,rax
0x2571441c5f  1247  0f85d8000000   jnz 1469  (0x2571441d3d)
0x2571441c65  1253  ff7518         push [rbp+0x18]           ;; debug: statement 5567
                                                             ;; debug: position 5573
0x2571441c68  1256  48b80000000000000000 REX.W movq rax,0x0
0x2571441c72  1266  488bc8         REX.W movq rcx,rax
0x2571441c75  1269  5a             pop rdx
0x2571441c76  1270  48b80000000008000000 REX.W movq rax,0x800000000    ;; debug: position 5574
0x2571441c80  1280  e81bd3feff     call 0x257142efa0         ;; code: KEYED_LOAD_IC, DEFAULT
0x2571441c85  1285  488945e0       REX.W movq [rbp-0x20],rax    ;; debug: position 5567
0x2571441c89  1289  488b45e0       REX.W movq rax,[rbp-0x20]    ;; debug: statement 5579
                                                             ;; debug: position 5590
0x2571441c8d  1293  eb0f           jmp 1310  (0x2571441c9e)
0x2571441c8f  1295  493b45c0       REX.W cmpq rax,[r13-0x40]
0x2571441c93  1299  0f841b000000   jz 1332  (0x2571441cb4)
0x2571441c99  1305  e91f000000     jmp 1341  (0x2571441cbd)
0x2571441c9e  1310  a801           test al,0x1
0x2571441ca0  1312  0f8417000000   jz 1341  (0x2571441cbd)
0x2571441ca6  1318  488b50ff       REX.W movq rdx,[rax-0x1]
0x2571441caa  1322  807a0b80       cmpb [rdx+0xb],0x80
0x2571441cae  1326  0f8309000000   jnc 1341  (0x2571441cbd)
0x2571441cb4  1332  488b45e0       REX.W movq rax,[rbp-0x20]    ;; debug: statement 5605
                                                             ;; debug: position 5612
0x2571441cb8  1336  e947ffffff     jmp 1156  (0x2571441c04)
0x2571441cbd  1341  488b45e0       REX.W movq rax,[rbp-0x20]    ;; debug: statement 5615
                                                             ;; debug: position 5619
0x2571441cc1  1345  eb0f           jmp 1362  (0x2571441cd2)
0x2571441cc3  1347  493b45c0       REX.W cmpq rax,[r13-0x40]
0x2571441cc7  1351  0f8413000000   jz 1376  (0x2571441ce0)
0x2571441ccd  1357  e91d000000     jmp 1391  (0x2571441cef)
0x2571441cd2  1362  e8e9a7fdff     call 0x257141c4c0         ;; code: COMPARE_NIL_IC, PREMONOMORPHIC (id = 180)
0x2571441cd7  1367  4885c0         REX.W testq rax,rax
0x2571441cda  1370  0f840f000000   jz 1391  (0x2571441cef)
0x2571441ce0  1376  48b8e142e097b5250000 REX.W movq rax,0x25b597e042e1    ;; debug: statement 5628
                                                             ;; object: 0x25b597e042e1 <String[0]: >
0x2571441cea  1386  e915ffffff     jmp 1156  (0x2571441c04)
0x2571441cef  1391  48b9b1a1e997b5250000 REX.W movq rcx,0x25b597e9a1b1    ;; debug: statement 5638
                                                             ;; debug: position 5645
                                                             ;; object: 0x25b597e9a1b1 <String[18]: $nonStringToString>
0x2571441cf9  1401  488b5627       REX.W movq rdx,[rsi+0x27]
0x2571441cfd  1405  48b80000000006000000 REX.W movq rax,0x600000000
0x2571441d07  1415  e8f4e5fdff     call 0x2571420300         ;; code: contextual, LOAD_IC, DEFAULT
0x2571441d0c  1420  50             push rax
0x2571441d0d  1421  49ba8941e097b5250000 REX.W movq r10,0x25b597e04189    ;; object: 0x25b597e04189 <undefined>
0x2571441d17  1431  4152           push r10
0x2571441d19  1433  ff75e0         push [rbp-0x20]           ;; debug: position 5664
0x2571441d1c  1436  48ba000000000a000000 REX.W movq rdx,0xa00000000    ;; debug: position 5645
0x2571441d26  1446  488b7c2410     REX.W movq rdi,[rsp+0x10]
0x2571441d2b  1451  e89005fdff     call 0x25714122c0         ;; code: CALL_IC, DEFAULT
0x2571441d30  1456  488b75f8       REX.W movq rsi,[rbp-0x8]
0x2571441d34  1460  4883c408       REX.W addq rsp,0x8
0x2571441d38  1464  e9c7feffff     jmp 1156  (0x2571441c04)
0x2571441d3d  1469  488bc6         REX.W movq rax,rsi        ;; debug: statement 5670
                                                             ;; debug: position 5677
0x2571441d40  1472  ffb0a7000000   push [rax+0xa7]
0x2571441d46  1478  41ff75a8       push [r13-0x58]
0x2571441d4a  1482  ff7518         push [rbp+0x18]           ;; debug: position 5682
0x2571441d4d  1485  ff7510         push [rbp+0x10]           ;; debug: position 5684
0x2571441d50  1488  ff7520         push [rbp+0x20]           ;; debug: position 5686
0x2571441d53  1491  488bc6         REX.W movq rax,rsi        ;; debug: position 5688
0x2571441d56  1494  ffb0af000000   push [rax+0xaf]
0x2571441d5c  1500  48ba000000000c000000 REX.W movq rdx,0xc00000000    ;; debug: position 5677
0x2571441d66  1510  488b7c2428     REX.W movq rdi,[rsp+0x28]
0x2571441d6b  1515  e8f05efdff     call 0x2571417c60         ;; code: CALL_IC, DEFAULT
0x2571441d70  1520  488b75f8       REX.W movq rsi,[rbp-0x8]
0x2571441d74  1524  4883c408       REX.W addq rsp,0x8
0x2571441d78  1528  e987feffff     jmp 1156  (0x2571441c04)
0x2571441d7d  1533  498b45a8       REX.W movq rax,[r13-0x58]
0x2571441d81  1537  e97efeffff     jmp 1156  (0x2571441c04)
0x2571441d86  1542  6690           nop

Deoptimization Output Data (deopt points = 0)

Back edges (size = 0)
ast_id  pc_offset  loop_depth

0x25b597ef49d9: [TypeFeedbackInfo]
 - ic_total_count: 8, ic_with_type_info_count: 0, ic_generic_count: 0

RelocInfo (size = 136)
0x2571441780  position  (5394)
0x2571441796  code target (BUILTIN)  (0x2571436820)
0x257144179a  statement position  (5403)
0x257144179a  position  (5407)
0x25714417b9  statement position  (5423)
0x25714417b9  position  (5424)
0x25714417bb  embedded object  (0x25b597ef4891 <String[1]: ,>)
0x25714417cc  statement position  (5436)
0x25714417cc  position  (5448)
0x25714417f7  statement position  (5465)
0x25714417f7  position  (5467)
0x25714417f9  embedded object  (0x25b597e9a1b1 <String[18]: $nonStringToString>)
0x2571441810  code target (LOAD_IC)  (0x2571420300)
0x2571441817  embedded object  (0x25b597e04189 <undefined>)
0x2571441821  position  (5486)
0x2571441824  position  (5467)
0x2571441834  code target (CALL_IC)  (0x25714122c0)
0x2571441840  position  (5466)
0x2571441844  statement position  (5492)
0x2571441844  position  (5523)
0x2571441847  position  (5521)
0x2571441bdd  position  (5492)
0x2571441be1  statement position  (5527)
0x2571441be1  position  (5532)
0x2571441c00  statement position  (5546)
0x2571441c00  position  (5553)
0x2571441c06  embedded object  (0x25b597ef4931 Cell for 6144)
0x2571441c16  code target (BUILTIN)  (0x25714366e0)
0x2571441c1d  embedded object  (0x25b597ef4931 Cell for 6144)
0x2571441c33  statement position  (5706)
0x2571441c37  statement position  (5556)
0x2571441c37  position  (5559)
0x2571441c46  code target with id (COMPARE_IC)  (0x2571420f60) (id=127)
0x2571441c65  statement position  (5567)
0x2571441c65  position  (5573)
0x2571441c76  position  (5574)
0x2571441c81  code target (KEYED_LOAD_IC)  (0x257142efa0)
0x2571441c85  position  (5567)
0x2571441c89  statement position  (5579)
0x2571441c89  position  (5590)
0x2571441cb4  statement position  (5605)
0x2571441cb4  position  (5612)
0x2571441cbd  statement position  (5615)
0x2571441cbd  position  (5619)
0x2571441cd3  code target with id (COMPARE_NIL_IC)  (0x257141c4c0) (id=180)
0x2571441ce0  statement position  (5628)
0x2571441ce2  embedded object  (0x25b597e042e1 <String[0]: >)
0x2571441cef  statement position  (5638)
0x2571441cef  position  (5645)
0x2571441cf1  embedded object  (0x25b597e9a1b1 <String[18]: $nonStringToString>)
0x2571441d08  code target (LOAD_IC)  (0x2571420300)
0x2571441d0f  embedded object  (0x25b597e04189 <undefined>)
0x2571441d19  position  (5664)
0x2571441d1c  position  (5645)
0x2571441d2c  code target (CALL_IC)  (0x25714122c0)
0x2571441d3d  statement position  (5670)
0x2571441d3d  position  (5677)
0x2571441d4a  position  (5682)
0x2571441d4d  position  (5684)
0x2571441d50  position  (5686)
0x2571441d53  position  (5688)
0x2571441d5c  position  (5677)
0x2571441d6c  code target (CALL_IC)  (0x2571417c60)

--- End code ---
--- Code ---
kind = HANDLER
major_key = <NoCache>Stub
name = LoadConstantStub
compiler = crankshaft
Instructions (size = 24)
0x2571441e00     0  488b42ff       REX.W movq rax,[rdx-0x1]
0x2571441e04     4  488b402f       REX.W movq rax,[rax+0x2f]
0x2571441e08     8  488b80ef000000 REX.W movq rax,[rax+0xef]
0x2571441e0f    15  c3             ret


Safepoints (size = 8)

RelocInfo (size = 0)

--- End code ---
--- Raw source ---
(max) {
  last = (last * A + C) % M;
  return max * last / M;
}


--- Code ---
source_position = 174
kind = FUNCTION
name = rand
compiler = full-codegen
Instructions (size = 324)
0x2571441f40     0  55             push rbp                  ;; debug: position 174
0x2571441f41     1  4889e5         REX.W movq rbp,rsp
0x2571441f44     4  56             push rsi
0x2571441f45     5  57             push rdi
0x2571441f46     6  493ba540090000 REX.W cmpq rsp,[r13+0x940]
0x2571441f4d    13  7305           jnc 20  (0x2571441f54)
0x2571441f4f    15  e8cc48ffff     call StackCheck  (0x2571436820)    ;; code: BUILTIN
0x2571441f54    20  48b971e4ee97b5250000 REX.W movq rcx,0x25b597eee471    ;; debug: statement 184
                                                             ;; debug: position 192
                                                             ;; object: 0x25b597eee471 <String[4]: last>
0x2571441f5e    30  488b5627       REX.W movq rdx,[rsi+0x27]
0x2571441f62    34  48b80000000004000000 REX.W movq rax,0x400000000
0x2571441f6c    44  e88fe3fdff     call 0x2571420300         ;; code: contextual, LOAD_IC, DEFAULT
0x2571441f71    49  50             push rax
0x2571441f72    50  48b971f0e497b5250000 REX.W movq rcx,0x25b597e4f071    ;; debug: position 199
                                                             ;; object: 0x25b597e4f071 <String[1]: A>
0x2571441f7c    60  488b5627       REX.W movq rdx,[rsi+0x27]
0x2571441f80    64  48b80000000006000000 REX.W movq rax,0x600000000
0x2571441f8a    74  e871e3fdff     call 0x2571420300         ;; code: contextual, LOAD_IC, DEFAULT
0x2571441f8f    79  5a             pop rdx                   ;; debug: position 197
0x2571441f90    80  e88bedfcff     call 0x2571410d20         ;; code: BINARY_OP_IC, UNINITIALIZED (id = 22)
0x2571441f95    85  90             nop
0x2571441f96    86  50             push rax
0x2571441f97    87  48b9d973e697b5250000 REX.W movq rcx,0x25b597e673d9    ;; debug: position 203
                                                             ;; object: 0x25b597e673d9 <String[1]: C>
0x2571441fa1    97  488b5627       REX.W movq rdx,[rsi+0x27]
0x2571441fa5   101  48b80000000008000000 REX.W movq rax,0x800000000
0x2571441faf   111  e84ce3fdff     call 0x2571420300         ;; code: contextual, LOAD_IC, DEFAULT
0x2571441fb4   116  5a             pop rdx                   ;; debug: position 201
0x2571441fb5   117  e8860dfdff     call 0x2571412d40         ;; code: BINARY_OP_IC, UNINITIALIZED (id = 18)
0x2571441fba   122  90             nop
0x2571441fbb   123  50             push rax
0x2571441fbc   124  48b9b9b5e697b5250000 REX.W movq rcx,0x25b597e6b5b9    ;; debug: position 208
                                                             ;; object: 0x25b597e6b5b9 <String[1]: M>
0x2571441fc6   134  488b5627       REX.W movq rdx,[rsi+0x27]
0x2571441fca   138  48b8000000000a000000 REX.W movq rax,0xa00000000
0x2571441fd4   148  e827e3fdff     call 0x2571420300         ;; code: contextual, LOAD_IC, DEFAULT
0x2571441fd9   153  5a             pop rdx                   ;; debug: position 206
0x2571441fda   154  e8e1c7fdff     call 0x257141e7c0         ;; code: BINARY_OP_IC, UNINITIALIZED (id = 14)
0x2571441fdf   159  90             nop
0x2571441fe0   160  48b971e4ee97b5250000 REX.W movq rcx,0x25b597eee471    ;; debug: position 189
                                                             ;; object: 0x25b597eee471 <String[4]: last>
0x2571441fea   170  488b5627       REX.W movq rdx,[rsi+0x27]
0x2571441fee   174  e82d01ffff     call 0x2571432120         ;; code: STORE_IC, UNINITIALIZED
0x2571441ff3   179  ff7510         push [rbp+0x10]           ;; debug: statement 213
                                                             ;; debug: position 220
0x2571441ff6   182  48b971e4ee97b5250000 REX.W movq rcx,0x25b597eee471    ;; debug: position 226
                                                             ;; object: 0x25b597eee471 <String[4]: last>
0x2571442000   192  488b5627       REX.W movq rdx,[rsi+0x27]
0x2571442004   196  48b80000000004000000 REX.W movq rax,0x400000000
0x257144200e   206  e8ede2fdff     call 0x2571420300         ;; code: contextual, LOAD_IC, DEFAULT
0x2571442013   211  5a             pop rdx                   ;; debug: position 224
0x2571442014   212  e807edfcff     call 0x2571410d20         ;; code: BINARY_OP_IC, UNINITIALIZED (id = 42)
0x2571442019   217  90             nop
0x257144201a   218  50             push rax
0x257144201b   219  48b9b9b5e697b5250000 REX.W movq rcx,0x25b597e6b5b9    ;; debug: position 233
                                                             ;; object: 0x25b597e6b5b9 <String[1]: M>
0x2571442025   229  488b5627       REX.W movq rdx,[rsi+0x27]
0x2571442029   233  48b8000000000a000000 REX.W movq rax,0xa00000000
0x2571442033   243  e8c8e2fdff     call 0x2571420300         ;; code: contextual, LOAD_IC, DEFAULT
0x2571442038   248  5a             pop rdx                   ;; debug: position 231
0x2571442039   249  e862f3fcff     call 0x25714113a0         ;; code: BINARY_OP_IC, UNINITIALIZED (id = 38)
0x257144203e   254  90             nop
0x257144203f   255  48bb114bef97b5250000 REX.W movq rbx,0x25b597ef4b11    ;; object: 0x25b597ef4b11 Cell for 6144
0x2571442049   265  83430bd1       addl [rbx+0xb],0xd1
0x257144204d   269  791f           jns 302  (0x257144206e)
0x257144204f   271  50             push rax
0x2571442050   272  e88b46ffff     call InterruptCheck  (0x25714366e0)    ;; code: BUILTIN
0x2571442055   277  58             pop rax
0x2571442056   278  48bb114bef97b5250000 REX.W movq rbx,0x25b597ef4b11    ;; object: 0x25b597ef4b11 Cell for 6144
0x2571442060   288  49ba0000000000180000 REX.W movq r10,0x180000000000
0x257144206a   298  4c895307       REX.W movq [rbx+0x7],r10
0x257144206e   302  c9             leave                     ;; debug: statement 236
0x257144206f   303  c21000         ret 0x10
0x2571442072   306  498b45a8       REX.W movq rax,[r13-0x58]
0x2571442076   310  e9c4ffffff     jmp 255  (0x257144203f)
0x257144207b   315  0f1f440000     nop

Deoptimization Output Data (deopt points = 23)
ast id        pc  state
     2         6  NO_REGISTERS
     3         6  NO_REGISTERS
    25        20  NO_REGISTERS
    23        50  NO_REGISTERS
    28        50  NO_REGISTERS
    26        79  TOS_REG
    19        87  NO_REGISTERS
    31        87  NO_REGISTERS
    29       116  TOS_REG
    15       124  NO_REGISTERS
    34       124  NO_REGISTERS
    32       153  TOS_REG
    11       160  TOS_REG
     6       179  TOS_REG
     4       179  NO_REGISTERS
    45       179  NO_REGISTERS
    43       182  NO_REGISTERS
    48       182  NO_REGISTERS
    46       211  TOS_REG
    39       219  NO_REGISTERS
    51       219  NO_REGISTERS
    49       248  TOS_REG
    35       255  TOS_REG

Back edges (size = 0)
ast_id  pc_offset  loop_depth

0x25b597ef4cf9: [TypeFeedbackInfo]
 - ic_total_count: 12, ic_with_type_info_count: 0, ic_generic_count: 0

RelocInfo (size = 66)
0x2571441f40  position  (174)
0x2571441f50  code target (BUILTIN)  (0x2571436820)
0x2571441f54  statement position  (184)
0x2571441f54  position  (192)
0x2571441f56  embedded object  (0x25b597eee471 <String[4]: last>)
0x2571441f6d  code target (LOAD_IC)  (0x2571420300)
0x2571441f72  position  (199)
0x2571441f74  embedded object  (0x25b597e4f071 <String[1]: A>)
0x2571441f8b  code target (LOAD_IC)  (0x2571420300)
0x2571441f8f  position  (197)
0x2571441f91  code target with id (BINARY_OP_IC)  (0x2571410d20) (id=22)
0x2571441f97  position  (203)
0x2571441f99  embedded object  (0x25b597e673d9 <String[1]: C>)
0x2571441fb0  code target (LOAD_IC)  (0x2571420300)
0x2571441fb4  position  (201)
0x2571441fb6  code target with id (BINARY_OP_IC)  (0x2571412d40) (id=18)
0x2571441fbc  position  (208)
0x2571441fbe  embedded object  (0x25b597e6b5b9 <String[1]: M>)
0x2571441fd5  code target (LOAD_IC)  (0x2571420300)
0x2571441fd9  position  (206)
0x2571441fdb  code target with id (BINARY_OP_IC)  (0x257141e7c0) (id=14)
0x2571441fe0  position  (189)
0x2571441fe2  embedded object  (0x25b597eee471 <String[4]: last>)
0x2571441fef  code target (STORE_IC)  (0x2571432120)
0x2571441ff3  statement position  (213)
0x2571441ff3  position  (220)
0x2571441ff6  position  (226)
0x2571441ff8  embedded object  (0x25b597eee471 <String[4]: last>)
0x257144200f  code target (LOAD_IC)  (0x2571420300)
0x2571442013  position  (224)
0x2571442015  code target with id (BINARY_OP_IC)  (0x2571410d20) (id=42)
0x257144201b  position  (233)
0x257144201d  embedded object  (0x25b597e6b5b9 <String[1]: M>)
0x2571442034  code target (LOAD_IC)  (0x2571420300)
0x2571442038  position  (231)
0x257144203a  code target with id (BINARY_OP_IC)  (0x25714113a0) (id=38)
0x2571442041  embedded object  (0x25b597ef4b11 Cell for 6144)
0x2571442051  code target (BUILTIN)  (0x25714366e0)
0x2571442058  embedded object  (0x25b597ef4b11 Cell for 6144)
0x257144206e  statement position  (236)

--- End code ---
--- Raw source ---
(max) {
  last = (last * A + C) % M;
  return max * last / M;
}


--- Optimized code ---
optimization_id = 2
source_position = 174
kind = OPTIMIZED_FUNCTION
name = rand
stack_slots = 1
compiler = crankshaft
Instructions (size = 498)
0x2571442100     0  55             push rbp
0x2571442101     1  4889e5         REX.W movq rbp,rsp
0x2571442104     4  56             push rsi
0x2571442105     5  57             push rdi
0x2571442106     6  4883ec08       REX.W subq rsp,0x8
0x257144210a    10  488b45f8       REX.W movq rax,[rbp-0x8]
0x257144210e    14  488945e8       REX.W movq [rbp-0x18],rax
0x2571442112    18  488bf0         REX.W movq rsi,rax
0x2571442115    21  493ba540090000 REX.W cmpq rsp,[r13+0x940]
0x257144211c    28  7305           jnc 35  (0x2571442123)
0x257144211e    30  e8fd46ffff     call StackCheck  (0x2571436820)    ;; code: BUILTIN
0x2571442123    35  48b8d1f2ee97b5250000 REX.W movq rax,0x25b597eef2d1    ;; object: 0x25b597eef2d1 PropertyCell for 20885 (data, dictionary_index: 165, attrs: [WE_])
0x257144212d    45  8b4013         movl rax,[rax+0x13]
0x2571442130    48  69c0250f0000   imull rax,rax,0xf25       ;; debug: position 197
0x2571442136    54  0f807f010000   jo 443  (0x25714422bb)
0x257144213c    60  488bd8         REX.W movq rbx,rax
0x257144213f    63  81c385730000   addl rbx,0x7385           ;; debug: position 201
0x2571442145    69  0f8075010000   jo 448  (0x25714422c0)
0x257144214b    75  b88156f71d     movl rax,0x1df75681       ;; debug: position 206
0x2571442150    80  f7eb           imull rbx
0x2571442152    82  c1fa0e         sarl rdx, 14
0x2571442155    85  8bc3           movl rax,rbx
0x2571442157    87  c1e81f         shrl rax, 31
0x257144215a    90  03d0           addl rdx,rax
0x257144215c    92  69d2c0220200   imull rdx,rdx,0x222c0
0x2571442162    98  8bc3           movl rax,rbx
0x2571442164   100  2bc2           subl rax,rdx
0x2571442166   102  7509           jnz 113  (0x2571442171)
0x2571442168   104  83fb00         cmpl rbx,0x0
0x257144216b   107  0f8c54010000   jl 453  (0x25714422c5)
0x2571442171   113  488bd8         REX.W movq rbx,rax
0x2571442174   116  8bd3           movl rdx,rbx
0x2571442176   118  48c1e220       REX.W shlq rdx, 32
0x257144217a   122  48b8d1f2ee97b5250000 REX.W movq rax,0x25b597eef2d1    ;; object: 0x25b597eef2d1 PropertyCell for 20885 (data, dictionary_index: 165, attrs: [WE_])
0x2571442184   132  4889500f       REX.W movq [rax+0xf],rdx
0x2571442188   136  48b8d1f2ee97b5250000 REX.W movq rax,0x25b597eef2d1    ;; object: 0x25b597eef2d1 PropertyCell for 20885 (data, dictionary_index: 165, attrs: [WE_])
0x2571442192   146  8b4013         movl rax,[rax+0x13]
0x2571442195   149  488b5510       REX.W movq rdx,[rbp+0x10]
0x2571442199   153  f6c201         testb rdx,0x1             ;; debug: position 224
0x257144219c   156  0f857c000000   jnz 286  (0x257144221e)
0x25714421a2   162  48c1ea20       REX.W shrq rdx, 32
0x25714421a6   166  448bd0         movl r10,rax
0x25714421a9   169  0fafc2         imull rax,rdx
0x25714421ac   172  0f8018010000   jo 458  (0x25714422ca)
0x25714421b2   178  85c0           testl rax,rax
0x25714421b4   180  7509           jnz 191  (0x25714421bf)
0x25714421b6   182  440bd2         orl r10,rdx
0x25714421b9   185  0f880b010000   js 458  (0x25714422ca)
0x25714421bf   191  0f57c9         xorps xmm1,xmm1           ;; debug: position 231
0x25714421c2   194  f20f2ac8       cvtsi2sd xmm1,rax
0x25714421c6   198  49ba0000000000160141 REX.W movq r10,0x4101160000000000
0x25714421d0   208  66490f6ed2     REX.W movq xmm2,r10
0x25714421d5   213  c5f35eca       vdivsd xmm1,xmm1,xmm2
0x25714421d9   217  0f28c9         movaps xmm1,xmm1
0x25714421dc   220  498b9d400c0000 REX.W movq rbx,[r13+0xc40]
0x25714421e3   227  488bc3         REX.W movq rax,rbx
0x25714421e6   230  4883c010       REX.W addq rax,0x10
0x25714421ea   234  0f8276000000   jc 358  (0x2571442266)
0x25714421f0   240  493b85480c0000 REX.W cmpq rax,[r13+0xc48]
0x25714421f7   247  0f8769000000   ja 358  (0x2571442266)
0x25714421fd   253  498985400c0000 REX.W movq [r13+0xc40],rax
0x2571442204   260  48ffc3         REX.W incq rbx
0x2571442207   263  4d8b5508       REX.W movq r10,[r13+0x8]
0x257144220b   267  4c8953ff       REX.W movq [rbx-0x1],r10
0x257144220f   271  f20f114b07     movsd [rbx+0x7],xmm1
0x2571442214   276  488bc3         REX.W movq rax,rbx
0x2571442217   279  488be5         REX.W movq rsp,rbp
0x257144221a   282  5d             pop rbp
0x257144221b   283  c21000         ret 0x10
0x257144221e   286  4d8b5508       REX.W movq r10,[r13+0x8]    ;; debug: position 224
0x2571442222   290  4c3952ff       REX.W cmpq [rdx-0x1],r10
0x2571442226   294  0f85a3000000   jnz 463  (0x25714422cf)
0x257144222c   300  f20f104207     movsd xmm0,[rdx+0x7]
0x2571442231   305  f20f2cd0       cvttsd2sil rdx,xmm0
0x2571442235   309  0f57c9         xorps xmm1,xmm1
0x2571442238   312  f20f2aca       cvtsi2sd xmm1,rdx
0x257144223c   316  660f2ec1       ucomisd xmm0,xmm1
0x2571442240   320  0f8589000000   jnz 463  (0x25714422cf)
0x2571442246   326  0f8a83000000   jpe 463  (0x25714422cf)
0x257144224c   332  85d2           testl rdx,rdx
0x257144224e   334  0f8552ffffff   jnz 166  (0x25714421a6)
0x2571442254   340  660f50d0       movmskpd rdx,xmm0
0x2571442258   344  83e201         andl rdx,0x1
0x257144225b   347  0f856e000000   jnz 463  (0x25714422cf)
0x2571442261   353  e940ffffff     jmp 166  (0x25714421a6)
0x2571442266   358  48bb0000000000000000 REX.W movq rbx,0x0    ;; debug: position 231
0x2571442270   368  50             push rax
0x2571442271   369  51             push rcx
0x2571442272   370  52             push rdx
0x2571442273   371  53             push rbx
0x2571442274   372  56             push rsi
0x2571442275   373  57             push rdi
0x2571442276   374  4150           push r8
0x2571442278   376  4151           push r9
0x257144227a   378  4153           push r11
0x257144227c   380  4154           push r12
0x257144227e   382  4156           push r14
0x2571442280   384  4157           push r15
0x2571442282   386  488d6424e0     REX.W leaq rsp,[rsp-0x20]
0x2571442287   391  488b75f8       REX.W movq rsi,[rbp-0x8]
0x257144228b   395  33c0           xorl rax,rax
0x257144228d   397  498d9d982989fd REX.W leaq rbx,[r13-0x276d668]
0x2571442294   404  e8e73ffcff     call 0x2571406280         ;; code: STUB, CEntryStub, minor: 1
0x2571442299   409  4c8bd0         REX.W movq r10,rax
0x257144229c   412  488d642420     REX.W leaq rsp,[rsp+0x20]
0x25714422a1   417  415f           pop r15
0x25714422a3   419  415e           pop r14
0x25714422a5   421  415c           pop r12
0x25714422a7   423  415b           pop r11
0x25714422a9   425  4159           pop r9
0x25714422ab   427  4158           pop r8
0x25714422ad   429  5f             pop rdi
0x25714422ae   430  5e             pop rsi
0x25714422af   431  5b             pop rbx
0x25714422b0   432  5a             pop rdx
0x25714422b1   433  59             pop rcx
0x25714422b2   434  58             pop rax
0x25714422b3   435  498bda         REX.W movq rbx,r10
0x25714422b6   438  e954ffffff     jmp 271  (0x257144220f)
0x25714422bb   443  e84a3dccff     call 0x257110600a         ;; deoptimization bailout 1
0x25714422c0   448  e84f3dccff     call 0x2571106014         ;; deoptimization bailout 2
0x25714422c5   453  e8543dccff     call 0x257110601e         ;; deoptimization bailout 3
0x25714422ca   458  e8593dccff     call 0x2571106028         ;; deoptimization bailout 4
0x25714422cf   463  e85e3dccff     call 0x2571106032         ;; deoptimization bailout 5

Inlined functions (count = 0)

Deoptimization Input Data (deopt points = 6)
 index  ast id    argc     pc
     0       3       0     35
     1       3       0     -1
     2       3       0     -1
     3       3       0     -1
     4       6       0     -1
     5       6       0     -1

Safepoints (size = 30)
0x2571442123    35  1 (sp -> fp)       0
0x2571442299   409  0 | rbx (sp -> fp)  <none>

RelocInfo (size = 37)
0x257144211f  code target (BUILTIN)  (0x2571436820)
0x2571442125  embedded object  (0x25b597eef2d1 PropertyCell for 20885 (data, dictionary_index: 165, attrs: [WE_]))
0x2571442130  position  (197)
0x257144213f  position  (201)
0x257144214b  position  (206)
0x257144217c  embedded object  (0x25b597eef2d1 PropertyCell for 20885 (data, dictionary_index: 165, attrs: [WE_]))
0x257144218a  embedded object  (0x25b597eef2d1 PropertyCell for 20885 (data, dictionary_index: 165, attrs: [WE_]))
0x2571442199  position  (224)
0x25714421bf  position  (231)
0x257144221e  position  (224)
0x2571442266  position  (231)
0x2571442295  code target (STUB)  (0x2571406280)
0x25714422bc  runtime entry  (deoptimization bailout 1)
0x25714422c1  runtime entry  (deoptimization bailout 2)
0x25714422c6  runtime entry  (deoptimization bailout 3)
0x25714422cb  runtime entry  (deoptimization bailout 4)
0x25714422d0  runtime entry  (deoptimization bailout 5)

--- End code ---
--- Raw source ---
(n, table) {
  var line = new Array(60);
  makeCumulative(table);
  while (n>0) {
    if (n<line.length) line = new Array(n);
    for (var i=0; i<line.length; i++) {
      var r = rand(1);
      for (var c in table) {
        if (r < table[c]) {
          line[i] = c;
          break;
        }
      }
    }
    ret += line.join('').length;
    n -= line.length;
  }
}


--- Code ---
source_position = 1370
kind = FUNCTION
name = fastaRandom
compiler = full-codegen
Instructions (size = 1752)
0x2571442360     0  55             push rbp                  ;; debug: position 1370
0x2571442361     1  4889e5         REX.W movq rbp,rsp
0x2571442364     4  56             push rsi
0x2571442365     5  57             push rdi
0x2571442366     6  498b55a8       REX.W movq rdx,[r13-0x58]
0x257144236a    10  52             push rdx
0x257144236b    11  52             push rdx
0x257144236c    12  52             push rdx
0x257144236d    13  52             push rdx
0x257144236e    14  52             push rdx
0x257144236f    15  493ba540090000 REX.W cmpq rsp,[r13+0x940]
0x2571442376    22  7305           jnc 29  (0x257144237d)
0x2571442378    24  e8a344ffff     call StackCheck  (0x2571436820)    ;; code: BUILTIN
0x257144237d    29  48b91146e997b5250000 REX.W movq rcx,0x25b597e94611    ;; debug: statement 1385
                                                             ;; debug: position 1400
                                                             ;; object: 0x25b597e94611 <String[5]: Array>
0x2571442387    39  488b5627       REX.W movq rdx,[rsi+0x27]
0x257144238b    43  48b80000000008000000 REX.W movq rax,0x800000000
0x2571442395    53  e866dffdff     call 0x2571420300         ;; code: contextual, LOAD_IC, DEFAULT
0x257144239a    58  50             push rax
0x257144239b    59  49ba000000003c000000 REX.W movq r10,0x3c00000000
0x25714423a5    69  4152           push r10
0x25714423a7    71  b801000000     movl rax,0x1              ;; debug: position 1396
0x25714423ac    76  488b7c2408     REX.W movq rdi,[rsp+0x8]
0x25714423b1    81  48bba131ef97b5250000 REX.W movq rbx,0x25b597ef31a1    ;; object: 0x25b597ef31a1 <FixedArray[42]>
0x25714423bb    91  48ba0000000005000000 REX.W movq rdx,0x500000000
0x25714423c5   101  e8365bfdff     call 0x2571417f00         ;; code: constructor, STUB, CallConstructStub, minor: 1
0x25714423ca   106  488945e0       REX.W movq [rbp-0x20],rax    ;; debug: position 1385
0x25714423ce   110  48b901e7ee97b5250000 REX.W movq rcx,0x25b597eee701    ;; debug: statement 1413
                                                             ;; object: 0x25b597eee701 <String[14]: makeCumulative>
0x25714423d8   120  488b5627       REX.W movq rdx,[rsi+0x27]
0x25714423dc   124  48b8000000000c000000 REX.W movq rax,0xc00000000
0x25714423e6   134  e815dffdff     call 0x2571420300         ;; code: contextual, LOAD_IC, DEFAULT
0x25714423eb   139  50             push rax
0x25714423ec   140  49ba8941e097b5250000 REX.W movq r10,0x25b597e04189    ;; object: 0x25b597e04189 <undefined>
0x25714423f6   150  4152           push r10
0x25714423f8   152  ff7510         push [rbp+0x10]           ;; debug: position 1428
0x25714423fb   155  48ba000000000a000000 REX.W movq rdx,0xa00000000    ;; debug: position 1413
0x2571442405   165  488b7c2410     REX.W movq rdi,[rsp+0x10]
0x257144240a   170  e8b1fefcff     call 0x25714122c0         ;; code: CALL_IC, DEFAULT
0x257144240f   175  488b75f8       REX.W movq rsi,[rbp-0x8]
0x2571442413   179  4883c408       REX.W addq rsp,0x8
0x2571442417   183  ff7518         push [rbp+0x18]           ;; debug: statement 1446
                                                             ;; debug: position 1445
0x257144241a   186  48b80000000000000000 REX.W movq rax,0x0
0x2571442424   196  5a             pop rdx
0x2571442425   197  488bca         REX.W movq rcx,rdx
0x2571442428   200  480bc8         REX.W orq rcx,rax
0x257144242b   203  f6c101         testb rcx,0x1
0x257144242e   206  730e           jnc 222  (0x257144243e)
0x2571442430   208  483bd0         REX.W cmpq rdx,rax
0x2571442433   211  0f8f26000000   jg 255  (0x257144245f)
0x2571442439   217  e998050000     jmp 1654  (0x25714429d6)
0x257144243e   222  e83dd8feff     call 0x257142fc80         ;; code: COMPARE_IC, UNINITIALIZED (id = 52)
0x2571442443   227  a815           test al,0x15
0x2571442445   229  eb0f           jmp 246  (0x2571442456)
0x2571442447   231  493b45c0       REX.W cmpq rax,[r13-0x40]
0x257144244b   235  0f840e000000   jz 255  (0x257144245f)
0x2571442451   241  e980050000     jmp 1654  (0x25714429d6)
0x2571442456   246  4885c0         REX.W testq rax,rax
0x2571442459   249  0f8e77050000   jle 1654  (0x25714429d6)
0x257144245f   255  ff7518         push [rbp+0x18]           ;; debug: statement 1456
                                                             ;; debug: position 1460
0x2571442462   258  488b45e0       REX.W movq rax,[rbp-0x20]    ;; debug: position 1462
0x2571442466   262  488bd0         REX.W movq rdx,rax
0x2571442469   265  48b9712ee997b5250000 REX.W movq rcx,0x25b597e92e71    ;; debug: position 1466
                                                             ;; object: 0x25b597e92e71 <String[6]: length>
0x2571442473   275  48b8000000000e000000 REX.W movq rax,0xe00000000
0x257144247d   285  e87edefdff     call 0x2571420300         ;; code: contextual, LOAD_IC, DEFAULT
0x2571442482   290  5a             pop rdx
0x2571442483   291  488bca         REX.W movq rcx,rdx
0x2571442486   294  480bc8         REX.W orq rcx,rax
0x2571442489   297  f6c101         testb rcx,0x1
0x257144248c   300  730e           jnc 316  (0x257144249c)
0x257144248e   302  483bd0         REX.W cmpq rdx,rax
0x2571442491   305  0f8c26000000   jl 349  (0x25714424bd)
0x2571442497   311  e969000000     jmp 421  (0x2571442505)
0x257144249c   316  e8ff56fdff     call 0x2571417ba0         ;; code: COMPARE_IC, UNINITIALIZED (id = 67)
0x25714424a1   321  a815           test al,0x15
0x25714424a3   323  eb0f           jmp 340  (0x25714424b4)
0x25714424a5   325  493b45c0       REX.W cmpq rax,[r13-0x40]
0x25714424a9   329  0f840e000000   jz 349  (0x25714424bd)
0x25714424af   335  e951000000     jmp 421  (0x2571442505)
0x25714424b4   340  4885c0         REX.W testq rax,rax
0x25714424b7   343  0f8d48000000   jge 421  (0x2571442505)
0x25714424bd   349  48b91146e997b5250000 REX.W movq rcx,0x25b597e94611    ;; debug: statement 1475
                                                             ;; debug: position 1486
                                                             ;; object: 0x25b597e94611 <String[5]: Array>
0x25714424c7   359  488b5627       REX.W movq rdx,[rsi+0x27]
0x25714424cb   363  48b80000000008000000 REX.W movq rax,0x800000000
0x25714424d5   373  e826defdff     call 0x2571420300         ;; code: contextual, LOAD_IC, DEFAULT
0x25714424da   378  50             push rax
0x25714424db   379  ff7518         push [rbp+0x18]           ;; debug: position 1492
0x25714424de   382  b801000000     movl rax,0x1              ;; debug: position 1482
0x25714424e3   387  488b7c2408     REX.W movq rdi,[rsp+0x8]
0x25714424e8   392  48bba131ef97b5250000 REX.W movq rbx,0x25b597ef31a1    ;; object: 0x25b597ef31a1 <FixedArray[42]>
0x25714424f2   402  48ba0000000006000000 REX.W movq rdx,0x600000000
0x25714424fc   412  e8ff59fdff     call 0x2571417f00         ;; code: constructor, STUB, CallConstructStub, minor: 1
0x2571442501   417  488945e0       REX.W movq [rbp-0x20],rax    ;; debug: position 1480
0x2571442505   421  48b80000000000000000 REX.W movq rax,0x0    ;; debug: statement 1500
                                                             ;; debug: statement 1505
0x257144250f   431  488945d8       REX.W movq [rbp-0x28],rax
0x2571442513   435  e922030000     jmp 1242  (0x257144283a)
0x2571442518   440  48b991e4ee97b5250000 REX.W movq rcx,0x25b597eee491    ;; debug: statement 1542
                                                             ;; debug: position 1550
                                                             ;; object: 0x25b597eee491 <String[4]: rand>
0x2571442522   450  488b5627       REX.W movq rdx,[rsi+0x27]
0x2571442526   454  48b80000000014000000 REX.W movq rax,0x1400000000
0x2571442530   464  e8cbddfdff     call 0x2571420300         ;; code: contextual, LOAD_IC, DEFAULT
0x2571442535   469  50             push rax
0x2571442536   470  49ba8941e097b5250000 REX.W movq r10,0x25b597e04189    ;; object: 0x25b597e04189 <undefined>
0x2571442540   480  4152           push r10
0x2571442542   482  49ba0000000001000000 REX.W movq r10,0x100000000
0x257144254c   492  4152           push r10
0x257144254e   494  48ba0000000012000000 REX.W movq rdx,0x1200000000
0x2571442558   504  488b7c2410     REX.W movq rdi,[rsp+0x10]
0x257144255d   509  e85efdfcff     call 0x25714122c0         ;; code: CALL_IC, DEFAULT
0x2571442562   514  488b75f8       REX.W movq rsi,[rbp-0x8]
0x2571442566   518  4883c408       REX.W addq rsp,0x8
0x257144256a   522  488945d0       REX.W movq [rbp-0x30],rax    ;; debug: position 1542
0x257144256e   526  488b4510       REX.W movq rax,[rbp+0x10]    ;; debug: statement 1565
                                                             ;; debug: statement 1579
0x2571442572   530  493b45a8       REX.W cmpq rax,[r13-0x58]
0x2571442576   534  0f8458020000   jz 1140  (0x25714427d4)
0x257144257c   540  498b7db8       REX.W movq rdi,[r13-0x48]
0x2571442580   544  483bc7         REX.W cmpq rax,rdi
0x2571442583   547  0f844b020000   jz 1140  (0x25714427d4)
0x2571442589   553  a801           test al,0x1
0x257144258b   555  740a           jz 567  (0x2571442597)
0x257144258d   557  488b48ff       REX.W movq rcx,[rax-0x1]
0x2571442591   561  80790bb2       cmpb [rcx+0xb],0xb2
0x2571442595   565  7305           jnc 572  (0x257144259c)
0x2571442597   567  e8a41cfdff     call 0x2571414240         ;; code: STUB, ToObjectStub, minor: 0
0x257144259c   572  50             push rax
0x257144259d   573  488b48ff       REX.W movq rcx,[rax-0x1]
0x25714425a1   577  80790bb3       cmpb [rcx+0xb],0xb3
0x25714425a5   581  0f867b000000   jna 710  (0x2571442626)
0x25714425ab   587  4d8b85b8000000 REX.W movq r8,[r13+0xb8]
0x25714425b2   594  488bc8         REX.W movq rcx,rax
0x25714425b5   597  488b59ff       REX.W movq rbx,[rcx-0x1]
0x25714425b9   601  8b530f         movl rdx,[rbx+0xf]
0x25714425bc   604  81e2ff030000   andl rdx,0x3ff
0x25714425c2   610  48c1e220       REX.W shlq rdx, 32
0x25714425c6   614  49ba00000000ff030000 REX.W movq r10,0x3ff00000000
0x25714425d0   624  493bd2         REX.W cmpq rdx,r10
0x25714425d3   627  0f844d000000   jz 710  (0x2571442626)
0x25714425d9   633  e91a000000     jmp 664  (0x25714425f8)
0x25714425de   638  488b59ff       REX.W movq rbx,[rcx-0x1]
0x25714425e2   642  8b530f         movl rdx,[rbx+0xf]
0x25714425e5   645  81e2ff030000   andl rdx,0x3ff
0x25714425eb   651  48c1e220       REX.W shlq rdx, 32
0x25714425ef   655  4885d2         REX.W testq rdx,rdx
0x25714425f2   658  0f852e000000   jnz 710  (0x2571442626)
0x25714425f8   664  4c3b410f       REX.W cmpq r8,[rcx+0xf]
0x25714425fc   668  0f8411000000   jz 691  (0x2571442613)
0x2571442602   674  4d8b95b8030000 REX.W movq r10,[r13+0x3b8]
0x2571442609   681  4c3b510f       REX.W cmpq r10,[rcx+0xf]
0x257144260d   685  0f8513000000   jnz 710  (0x2571442626)
0x2571442613   691  488b4b17       REX.W movq rcx,[rbx+0x17]
0x2571442617   695  483bcf         REX.W cmpq rcx,rdi
0x257144261a   698  0f85beffffff   jnz 638  (0x25714425de)
0x2571442620   704  488b40ff       REX.W movq rax,[rax-0x1]
0x2571442624   708  eb23           jmp 745  (0x2571442649)
0x2571442626   710  50             push rax
0x2571442627   711  b801000000     movl rax,0x1
0x257144262c   716  48bbb04f890001000000 REX.W movq rbx,0x100894fb0
0x2571442636   726  e8e575fcff     call 0x2571409c20         ;; code: STUB, CEntryStub, minor: 0
0x257144263b   731  4d8b5500       REX.W movq r10,[r13+0x0]
0x257144263f   735  4c3950ff       REX.W cmpq [rax-0x1],r10
0x2571442643   739  0f8535000000   jnz 798  (0x257144267e)
0x2571442649   745  8b500f         movl rdx,[rax+0xf]
0x257144264c   748  81e2ff030000   andl rdx,0x3ff
0x2571442652   754  48c1e220       REX.W shlq rdx, 32
0x2571442656   758  4885d2         REX.W testq rdx,rdx
0x2571442659   761  0f8416000000   jz 789  (0x2571442675)
0x257144265f   767  488b482f       REX.W movq rcx,[rax+0x2f]
0x2571442663   771  488b4917       REX.W movq rcx,[rcx+0x17]
0x2571442667   775  488b490f       REX.W movq rcx,[rcx+0xf]
0x257144266b   779  50             push rax
0x257144266c   780  51             push rcx
0x257144266d   781  52             push rdx
0x257144266e   782  6a00           push 0x0
0x2571442670   784  e950000000     jmp 869  (0x25714426c5)
0x2571442675   789  4883c408       REX.W addq rsp,0x8
0x2571442679   793  e956010000     jmp 1140  (0x25714427d4)
0x257144267e   798  48bba131ef97b5250000 REX.W movq rbx,0x25b597ef31a1    ;; object: 0x25b597ef31a1 <FixedArray[42]>
0x2571442688   808  49ba39dae097b5250000 REX.W movq r10,0x25b597e0da39    ;; object: 0x25b597e0da39 <Symbol: 156400422 <String[18]: megamorphic_symbol>>
0x2571442692   818  4c895347       REX.W movq [rbx+0x47],r10
0x2571442696   822  48bb0000000001000000 REX.W movq rbx,0x100000000
0x25714426a0   832  488b0c24       REX.W movq rcx,[rsp]
0x25714426a4   836  488b49ff       REX.W movq rcx,[rcx-0x1]
0x25714426a8   840  80790bb3       cmpb [rcx+0xb],0xb3
0x25714426ac   844  0f870a000000   ja 860  (0x25714426bc)
0x25714426b2   850  48bb0000000000000000 REX.W movq rbx,0x0
0x25714426bc   860  53             push rbx
0x25714426bd   861  50             push rax
0x25714426be   862  488b4007       REX.W movq rax,[rax+0x7]
0x25714426c2   866  50             push rax
0x25714426c3   867  6a00           push 0x0
0x25714426c5   869  488b0424       REX.W movq rax,[rsp]      ;; debug: statement 1574
0x25714426c9   873  483b442408     REX.W cmpq rax,[rsp+0x8]
0x25714426ce   878  0f83fc000000   jnc 1136  (0x25714427d0)
0x25714426d4   884  488b5c2410     REX.W movq rbx,[rsp+0x10]
0x25714426d9   889  48c1f81d       REX.W sarq rax, 29
0x25714426dd   893  488b5c030f     REX.W movq rbx,[rbx+rax*1+0xf]
0x25714426e2   898  488b542418     REX.W movq rdx,[rsp+0x18]
0x25714426e7   903  488b4c2420     REX.W movq rcx,[rsp+0x20]
0x25714426ec   908  483b51ff       REX.W cmpq rdx,[rcx-0x1]
0x25714426f0   912  7428           jz 954  (0x257144271a)
0x25714426f2   914  4885d2         REX.W testq rdx,rdx
0x25714426f5   917  7423           jz 954  (0x257144271a)
0x25714426f7   919  51             push rcx
0x25714426f8   920  53             push rbx
0x25714426f9   921  b802000000     movl rax,0x2
0x25714426fe   926  48bbc090860001000000 REX.W movq rbx,0x1008690c0
0x2571442708   936  e81375fcff     call 0x2571409c20         ;; code: STUB, CEntryStub, minor: 0
0x257144270d   941  493b45a8       REX.W cmpq rax,[r13-0x58]
0x2571442711   945  0f8482000000   jz 1081  (0x2571442799)
0x2571442717   951  488bd8         REX.W movq rbx,rax
0x257144271a   954  488bc3         REX.W movq rax,rbx
0x257144271d   957  488945e8       REX.W movq [rbp-0x18],rax
0x2571442721   961  488b45e8       REX.W movq rax,[rbp-0x18]
0x2571442725   965  488945c8       REX.W movq [rbp-0x38],rax
0x2571442729   969  ff75d0         push [rbp-0x30]           ;; debug: statement 1596
                                                             ;; debug: position 1600
0x257144272c   972  ff7510         push [rbp+0x10]           ;; debug: position 1604
0x257144272f   975  488b45c8       REX.W movq rax,[rbp-0x38]    ;; debug: position 1610
0x2571442733   979  488bc8         REX.W movq rcx,rax
0x2571442736   982  5a             pop rdx
0x2571442737   983  48b80000000016000000 REX.W movq rax,0x1600000000    ;; debug: position 1609
0x2571442741   993  e85ac8feff     call 0x257142efa0         ;; code: KEYED_LOAD_IC, DEFAULT
0x2571442746   998  5a             pop rdx
0x2571442747   999  488bca         REX.W movq rcx,rdx
0x257144274a  1002  480bc8         REX.W orq rcx,rax
0x257144274d  1005  f6c101         testb rcx,0x1
0x2571442750  1008  730e           jnc 1024  (0x2571442760)
0x2571442752  1010  483bd0         REX.W cmpq rdx,rax
0x2571442755  1013  0f8c26000000   jl 1057  (0x2571442781)
0x257144275b  1019  e939000000     jmp 1081  (0x2571442799)
0x2571442760  1024  e83b54fdff     call 0x2571417ba0         ;; code: COMPARE_IC, UNINITIALIZED (id = 201)
0x2571442765  1029  a815           test al,0x15
0x2571442767  1031  eb0f           jmp 1048  (0x2571442778)
0x2571442769  1033  493b45c0       REX.W cmpq rax,[r13-0x40]
0x257144276d  1037  0f840e000000   jz 1057  (0x2571442781)
0x2571442773  1043  e921000000     jmp 1081  (0x2571442799)
0x2571442778  1048  4885c0         REX.W testq rax,rax
0x257144277b  1051  0f8d18000000   jge 1081  (0x2571442799)
0x2571442781  1057  ff75e0         push [rbp-0x20]           ;; debug: statement 1626
                                                             ;; debug: position 1626
0x2571442784  1060  ff75d8         push [rbp-0x28]           ;; debug: position 1631
0x2571442787  1063  488b45c8       REX.W movq rax,[rbp-0x38]    ;; debug: position 1636
0x257144278b  1067  59             pop rcx                   ;; debug: position 1634
0x257144278c  1068  5a             pop rdx
0x257144278d  1069  e84e1effff     call KeyedStoreIC_Initialize  (0x25714345e0)    ;; code: KEYED_STORE_IC, UNINITIALIZED (id = 220)
0x2571442792  1074  33c0           xorl rax,rax              ;; debug: statement 1649
0x2571442794  1076  e937000000     jmp 1136  (0x25714427d0)
0x2571442799  1081  8344240401     addl [rsp+0x4],0x1
0x257144279e  1086  48bb9950ef97b5250000 REX.W movq rbx,0x25b597ef5099    ;; object: 0x25b597ef5099 Cell for 6144
0x25714427a8  1096  83430bff       addl [rbx+0xb],0xff
0x25714427ac  1100  791d           jns 1131  (0x25714427cb)
0x25714427ae  1102  e82d3fffff     call InterruptCheck  (0x25714366e0)    ;; code: BUILTIN
0x25714427b3  1107  48bb9950ef97b5250000 REX.W movq rbx,0x25b597ef5099    ;; object: 0x25b597ef5099 Cell for 6144
0x25714427bd  1117  49ba0000000000180000 REX.W movq r10,0x180000000000
0x25714427c7  1127  4c895307       REX.W movq [rbx+0x7],r10
0x25714427cb  1131  e9f5feffff     jmp 869  (0x25714426c5)
0x25714427d0  1136  4883c428       REX.W addq rsp,0x28
0x25714427d4  1140  488b45d8       REX.W movq rax,[rbp-0x28]    ;; debug: statement 1530
                                                             ;; debug: position 1529
0x25714427d8  1144  a801           test al,0x1
0x25714427da  1146  7314           jnc 1168  (0x25714427f0)
0x25714427dc  1148  49ba0000000001000000 REX.W movq r10,0x100000000
0x25714427e6  1158  4903c2         REX.W addq rax,r10
0x25714427e9  1161  711e           jno 1193  (0x2571442809)
0x25714427eb  1163  492bc2         REX.W subq rax,r10
0x25714427ee  1166  eb05           jmp 1173  (0x25714427f5)
0x25714427f0  1168  e8eb83feff     call 0x257142abe0         ;; code: STUB, ToNumberStub, minor: 0
0x25714427f5  1173  488bd0         REX.W movq rdx,rax        ;; debug: position 1530
0x25714427f8  1176  48b80000000001000000 REX.W movq rax,0x100000000
0x2571442802  1186  e83905fdff     call 0x2571412d40         ;; code: BINARY_OP_IC, UNINITIALIZED (id = 133)
0x2571442807  1191  a82d           test al,0x2d
0x2571442809  1193  488945d8       REX.W movq [rbp-0x28],rax
0x257144280d  1197  48bb9950ef97b5250000 REX.W movq rbx,0x25b597ef5099    ;; object: 0x25b597ef5099 Cell for 6144
0x2571442817  1207  83430bfc       addl [rbx+0xb],0xfc
0x257144281b  1211  791d           jns 1242  (0x257144283a)
0x257144281d  1213  e8be3effff     call InterruptCheck  (0x25714366e0)    ;; code: BUILTIN
0x2571442822  1218  48bb9950ef97b5250000 REX.W movq rbx,0x25b597ef5099    ;; object: 0x25b597ef5099 Cell for 6144
0x257144282c  1228  49ba0000000000180000 REX.W movq r10,0x180000000000
0x2571442836  1238  4c895307       REX.W movq [rbx+0x7],r10
0x257144283a  1242  ff75d8         push [rbp-0x28]           ;; debug: statement 1515
                                                             ;; debug: position 1514
0x257144283d  1245  488b45e0       REX.W movq rax,[rbp-0x20]    ;; debug: position 1516
0x2571442841  1249  488bd0         REX.W movq rdx,rax
0x2571442844  1252  48b9712ee997b5250000 REX.W movq rcx,0x25b597e92e71    ;; debug: position 1520
                                                             ;; object: 0x25b597e92e71 <String[6]: length>
0x257144284e  1262  48b80000000010000000 REX.W movq rax,0x1000000000
0x2571442858  1272  e8a3dafdff     call 0x2571420300         ;; code: contextual, LOAD_IC, DEFAULT
0x257144285d  1277  5a             pop rdx
0x257144285e  1278  488bca         REX.W movq rcx,rdx
0x2571442861  1281  480bc8         REX.W orq rcx,rax
0x2571442864  1284  f6c101         testb rcx,0x1
0x2571442867  1287  730e           jnc 1303  (0x2571442877)
0x2571442869  1289  483bd0         REX.W cmpq rdx,rax
0x257144286c  1292  0f8ca6fcffff   jl 440  (0x2571442518)
0x2571442872  1298  e921000000     jmp 1336  (0x2571442898)
0x2571442877  1303  e82453fdff     call 0x2571417ba0         ;; code: COMPARE_IC, UNINITIALIZED (id = 116)
0x257144287c  1308  a815           test al,0x15
0x257144287e  1310  eb0f           jmp 1327  (0x257144288f)
0x2571442880  1312  493b45c0       REX.W cmpq rax,[r13-0x40]
0x2571442884  1316  0f848efcffff   jz 440  (0x2571442518)
0x257144288a  1322  e909000000     jmp 1336  (0x2571442898)
0x257144288f  1327  4885c0         REX.W testq rax,rax
0x2571442892  1330  0f8c80fcffff   jl 440  (0x2571442518)
0x2571442898  1336  48b9b9e7ee97b5250000 REX.W movq rcx,0x25b597eee7b9    ;; debug: statement 1684
                                                             ;; debug: position 1684
                                                             ;; object: 0x25b597eee7b9 <String[3]: ret>
0x25714428a2  1346  488b5627       REX.W movq rdx,[rsi+0x27]
0x25714428a6  1350  48b80000000018000000 REX.W movq rax,0x1800000000
0x25714428b0  1360  e84bdafdff     call 0x2571420300         ;; code: contextual, LOAD_IC, DEFAULT
0x25714428b5  1365  50             push rax
0x25714428b6  1366  ff75e0         push [rbp-0x20]           ;; debug: position 1691
0x25714428b9  1369  488b1424       REX.W movq rdx,[rsp]
0x25714428bd  1373  48b959b6e597b5250000 REX.W movq rcx,0x25b597e5b659    ;; debug: position 1695
                                                             ;; object: 0x25b597e5b659 <String[4]: join>
0x25714428c7  1383  48b80000000022000000 REX.W movq rax,0x2200000000
0x25714428d1  1393  e82adafdff     call 0x2571420300         ;; code: contextual, LOAD_IC, DEFAULT
0x25714428d6  1398  ff3424         push [rsp]
0x25714428d9  1401  4889442408     REX.W movq [rsp+0x8],rax
0x25714428de  1406  49bae142e097b5250000 REX.W movq r10,0x25b597e042e1    ;; object: 0x25b597e042e1 <String[0]: >
0x25714428e8  1416  4152           push r10
0x25714428ea  1418  48ba0000000020000000 REX.W movq rdx,0x2000000000    ;; debug: position 1696
0x25714428f4  1428  488b7c2410     REX.W movq rdi,[rsp+0x10]
0x25714428f9  1433  e8c291fdff     call 0x257141bac0         ;; code: CALL_IC, DEFAULT
0x25714428fe  1438  488b75f8       REX.W movq rsi,[rbp-0x8]
0x2571442902  1442  4883c408       REX.W addq rsp,0x8
0x2571442906  1446  488bd0         REX.W movq rdx,rax
0x2571442909  1449  48b9712ee997b5250000 REX.W movq rcx,0x25b597e92e71    ;; debug: position 1704
                                                             ;; object: 0x25b597e92e71 <String[6]: length>
0x2571442913  1459  48b80000000024000000 REX.W movq rax,0x2400000000
0x257144291d  1469  e8ded9fdff     call 0x2571420300         ;; code: contextual, LOAD_IC, DEFAULT
0x2571442922  1474  5a             pop rdx
0x2571442923  1475  488bc8         REX.W movq rcx,rax
0x2571442926  1478  480bc2         REX.W orq rax,rdx
0x2571442929  1481  a801           test al,0x1
0x257144292b  1483  720c           jc 1497  (0x2571442939)
0x257144292d  1485  488bc1         REX.W movq rax,rcx
0x2571442930  1488  e80b04fdff     call 0x2571412d40         ;; code: BINARY_OP_IC, UNINITIALIZED (id = 240)
0x2571442935  1493  a80a           test al,0xa
0x2571442937  1495  eb0c           jmp 1509  (0x2571442945)
0x2571442939  1497  488bc2         REX.W movq rax,rdx
0x257144293c  1500  4803c1         REX.W addq rax,rcx
0x257144293f  1503  0f80e8ffffff   jo 1485  (0x257144292d)
0x2571442945  1509  48b9b9e7ee97b5250000 REX.W movq rcx,0x25b597eee7b9    ;; debug: position 1688
                                                             ;; object: 0x25b597eee7b9 <String[3]: ret>
0x257144294f  1519  488b5627       REX.W movq rdx,[rsi+0x27]
0x2571442953  1523  e8c8f7feff     call 0x2571432120         ;; code: STORE_IC, UNINITIALIZED
0x2571442958  1528  488b4518       REX.W movq rax,[rbp+0x18]    ;; debug: statement 1717
                                                             ;; debug: position 1717
0x257144295c  1532  50             push rax
0x257144295d  1533  488b45e0       REX.W movq rax,[rbp-0x20]    ;; debug: position 1722
0x2571442961  1537  488bd0         REX.W movq rdx,rax
0x2571442964  1540  48b9712ee997b5250000 REX.W movq rcx,0x25b597e92e71    ;; debug: position 1726
                                                             ;; object: 0x25b597e92e71 <String[6]: length>
0x257144296e  1550  48b80000000028000000 REX.W movq rax,0x2800000000
0x2571442978  1560  e883d9fdff     call 0x2571420300         ;; code: contextual, LOAD_IC, DEFAULT
0x257144297d  1565  5a             pop rdx
0x257144297e  1566  488bc8         REX.W movq rcx,rax
0x2571442981  1569  480bc2         REX.W orq rax,rdx
0x2571442984  1572  a801           test al,0x1
0x2571442986  1574  720c           jc 1588  (0x2571442994)
0x2571442988  1576  488bc1         REX.W movq rax,rcx
0x257144298b  1579  e8d072feff     call 0x2571429c60         ;; code: BINARY_OP_IC, UNINITIALIZED (id = 300)
0x2571442990  1584  a80a           test al,0xa
0x2571442992  1586  eb0c           jmp 1600  (0x25714429a0)
0x2571442994  1588  488bc2         REX.W movq rax,rdx
0x2571442997  1591  482bc1         REX.W subq rax,rcx
0x257144299a  1594  0f80e8ffffff   jo 1576  (0x2571442988)
0x25714429a0  1600  48894518       REX.W movq [rbp+0x18],rax    ;; debug: position 1719
0x25714429a4  1604  48bb9950ef97b5250000 REX.W movq rbx,0x25b597ef5099    ;; object: 0x25b597ef5099 Cell for 6144
0x25714429ae  1614  83430bf8       addl [rbx+0xb],0xf8
0x25714429b2  1618  791d           jns 1649  (0x25714429d1)
0x25714429b4  1620  e8273dffff     call InterruptCheck  (0x25714366e0)    ;; code: BUILTIN
0x25714429b9  1625  48bb9950ef97b5250000 REX.W movq rbx,0x25b597ef5099    ;; object: 0x25b597ef5099 Cell for 6144
0x25714429c3  1635  49ba0000000000180000 REX.W movq r10,0x180000000000
0x25714429cd  1645  4c895307       REX.W movq [rbx+0x7],r10
0x25714429d1  1649  e941faffff     jmp 183  (0x2571442417)
0x25714429d6  1654  498b45a8       REX.W movq rax,[r13-0x58]
0x25714429da  1658  48bb9950ef97b5250000 REX.W movq rbx,0x25b597ef5099    ;; object: 0x25b597ef5099 Cell for 6144
0x25714429e4  1668  83430bf7       addl [rbx+0xb],0xf7
0x25714429e8  1672  791f           jns 1705  (0x2571442a09)
0x25714429ea  1674  50             push rax
0x25714429eb  1675  e8f03cffff     call InterruptCheck  (0x25714366e0)    ;; code: BUILTIN
0x25714429f0  1680  58             pop rax
0x25714429f1  1681  48bb9950ef97b5250000 REX.W movq rbx,0x25b597ef5099    ;; object: 0x25b597ef5099 Cell for 6144
0x25714429fb  1691  49ba0000000000180000 REX.W movq r10,0x180000000000
0x2571442a05  1701  4c895307       REX.W movq [rbx+0x7],r10
0x2571442a09  1705  c9             leave                     ;; debug: statement 1739
0x2571442a0a  1706  c21800         ret 0x18
0x2571442a0d  1709  0f1f00         nop

Deoptimization Output Data (deopt points = 143)
ast id        pc  state
     2        15  NO_REGISTERS
     3        15  NO_REGISTERS
    16        29  NO_REGISTERS
    31        29  NO_REGISTERS
    29        59  NO_REGISTERS
    32        71  NO_REGISTERS
    28       106  TOS_REG
    26       106  TOS_REG
    21       110  TOS_REG
    19       110  NO_REGISTERS
    17       110  NO_REGISTERS
    42       110  NO_REGISTERS
    40       140  NO_REGISTERS
    45       152  NO_REGISTERS
    43       155  NO_REGISTERS
    37       175  TOS_REG
    35       183  NO_REGISTERS
    55       183  NO_REGISTERS
    53       186  NO_REGISTERS
    56       196  TOS_REG
    50       231  TOS_REG
    49       255  NO_REGISTERS
    59       255  NO_REGISTERS
    70       255  NO_REGISTERS
    68       258  NO_REGISTERS
    79       258  NO_REGISTERS
    77       262  TOS_REG
    73       290  TOS_REG
    71       290  TOS_REG
    65       325  TOS_REG
    63       349  NO_REGISTERS
    92       349  NO_REGISTERS
    90       379  NO_REGISTERS
    95       379  NO_REGISTERS
    93       382  NO_REGISTERS
    89       417  TOS_REG
    87       417  TOS_REG
    82       421  TOS_REG
    80       421  NO_REGISTERS
    64       421  NO_REGISTERS
    62       421  NO_REGISTERS
   101       421  NO_REGISTERS
   111       431  TOS_REG
   106       435  TOS_REG
   104       435  NO_REGISTERS
   102       435  NO_REGISTERS
   100       440  NO_REGISTERS
   138       440  NO_REGISTERS
   141       440  NO_REGISTERS
   158       440  NO_REGISTERS
   156       470  NO_REGISTERS
   159       494  NO_REGISTERS
   153       514  TOS_REG
   151       522  TOS_REG
   146       526  TOS_REG
   144       526  NO_REGISTERS
   142       526  NO_REGISTERS
   176       526  NO_REGISTERS
   174       530  TOS_REG
   166       553  TOS_REG
   168       572  TOS_REG
   167       731  TOS_REG
   165       869  NO_REGISTERS
   169       941  TOS_REG
   170       961  NO_REGISTERS
   177       961  NO_REGISTERS
   180       961  NO_REGISTERS
   192       961  NO_REGISTERS
   190       965  TOS_REG
   185       969  TOS_REG
   183       969  NO_REGISTERS
   181       969  NO_REGISTERS
   193       969  NO_REGISTERS
   204       969  NO_REGISTERS
   202       972  NO_REGISTERS
   213       972  NO_REGISTERS
   211       975  NO_REGISTERS
   210       975  NO_REGISTERS
   208       979  TOS_REG
   207       998  TOS_REG
   205       998  TOS_REG
   199      1033  TOS_REG
   197      1057  NO_REGISTERS
   214      1057  NO_REGISTERS
   229      1057  NO_REGISTERS
   227      1060  NO_REGISTERS
   226      1060  NO_REGISTERS
   224      1063  NO_REGISTERS
   232      1063  NO_REGISTERS
   230      1067  TOS_REG
   219      1074  TOS_REG
   217      1074  NO_REGISTERS
   215      1081  NO_REGISTERS
   198      1081  NO_REGISTERS
   196      1081  NO_REGISTERS
   194      1081  NO_REGISTERS
   178      1081  NO_REGISTERS
   162      1131  NO_REGISTERS
   164      1131  NO_REGISTERS
   163      1140  NO_REGISTERS
   139      1140  NO_REGISTERS
    99      1140  NO_REGISTERS
   137      1140  NO_REGISTERS
   135      1144  TOS_REG
   132      1173  TOS_REG
   131      1197  TOS_REG
   129      1197  NO_REGISTERS
    96      1242  NO_REGISTERS
    98      1242  NO_REGISTERS
   119      1242  NO_REGISTERS
   117      1245  NO_REGISTERS
   128      1245  NO_REGISTERS
   126      1249  TOS_REG
   122      1277  TOS_REG
   120      1277  TOS_REG
   114      1312  TOS_REG
    97      1336  NO_REGISTERS
   269      1336  NO_REGISTERS
   267      1365  TOS_REG
   289      1366  NO_REGISTERS
   287      1369  NO_REGISTERS
   283      1398  TOS_REG
   290      1418  NO_REGISTERS
   278      1438  TOS_REG
   276      1446  TOS_REG
   272      1474  TOS_REG
   270      1474  TOS_REG
   237      1509  TOS_REG
   235      1528  TOS_REG
   233      1528  NO_REGISTERS
   315      1528  NO_REGISTERS
   313      1532  TOS_REG
   324      1533  NO_REGISTERS
   322      1537  TOS_REG
   318      1565  TOS_REG
   316      1565  TOS_REG
   297      1600  TOS_REG
   295      1604  TOS_REG
   293      1604  NO_REGISTERS
    60      1604  NO_REGISTERS
    46      1649  NO_REGISTERS
    48      1649  NO_REGISTERS
    47      1654  NO_REGISTERS

Back edges (size = 3)
ast_id  pc_offset  loop_depth
   164       1107           3
    98       1218           2
    48       1625           1

0x25b597ef5aa1: [TypeFeedbackInfo]
 - ic_total_count: 23, ic_with_type_info_count: 0, ic_generic_count: 0

RelocInfo (size = 232)
0x2571442360  position  (1370)
0x2571442379  code target (BUILTIN)  (0x2571436820)
0x257144237d  statement position  (1385)
0x257144237d  position  (1400)
0x257144237f  embedded object  (0x25b597e94611 <String[5]: Array>)
0x2571442396  code target (LOAD_IC)  (0x2571420300)
0x25714423a7  position  (1396)
0x25714423b3  embedded object  (0x25b597ef31a1 <FixedArray[42]>)
0x25714423c6  code target (js construct call) (STUB)  (0x2571417f00)
0x25714423ca  position  (1385)
0x25714423ce  statement position  (1413)
0x25714423d0  embedded object  (0x25b597eee701 <String[14]: makeCumulative>)
0x25714423e7  code target (LOAD_IC)  (0x2571420300)
0x25714423ee  embedded object  (0x25b597e04189 <undefined>)
0x25714423f8  position  (1428)
0x25714423fb  position  (1413)
0x257144240b  code target (CALL_IC)  (0x25714122c0)
0x2571442417  statement position  (1446)
0x2571442417  position  (1445)
0x257144243f  code target with id (COMPARE_IC)  (0x257142fc80) (id=52)
0x257144245f  statement position  (1456)
0x257144245f  position  (1460)
0x2571442462  position  (1462)
0x2571442469  position  (1466)
0x257144246b  embedded object  (0x25b597e92e71 <String[6]: length>)
0x257144247e  code target (LOAD_IC)  (0x2571420300)
0x257144249d  code target with id (COMPARE_IC)  (0x2571417ba0) (id=67)
0x25714424bd  statement position  (1475)
0x25714424bd  position  (1486)
0x25714424bf  embedded object  (0x25b597e94611 <String[5]: Array>)
0x25714424d6  code target (LOAD_IC)  (0x2571420300)
0x25714424db  position  (1492)
0x25714424de  position  (1482)
0x25714424ea  embedded object  (0x25b597ef31a1 <FixedArray[42]>)
0x25714424fd  code target (js construct call) (STUB)  (0x2571417f00)
0x2571442501  position  (1480)
0x2571442505  statement position  (1500)
0x2571442505  statement position  (1505)
0x2571442518  statement position  (1542)
0x2571442518  position  (1550)
0x257144251a  embedded object  (0x25b597eee491 <String[4]: rand>)
0x2571442531  code target (LOAD_IC)  (0x2571420300)
0x2571442538  embedded object  (0x25b597e04189 <undefined>)
0x257144255e  code target (CALL_IC)  (0x25714122c0)
0x257144256a  position  (1542)
0x257144256e  statement position  (1565)
0x257144256e  statement position  (1579)
0x2571442598  code target (STUB)  (0x2571414240)
0x2571442637  code target (STUB)  (0x2571409c20)
0x2571442680  embedded object  (0x25b597ef31a1 <FixedArray[42]>)
0x257144268a  embedded object  (0x25b597e0da39 <Symbol: 156400422 <String[18]: megamorphic_symbol>>)
0x25714426c5  statement position  (1574)
0x2571442709  code target (STUB)  (0x2571409c20)
0x2571442729  statement position  (1596)
0x2571442729  position  (1600)
0x257144272c  position  (1604)
0x257144272f  position  (1610)
0x2571442737  position  (1609)
0x2571442742  code target (KEYED_LOAD_IC)  (0x257142efa0)
0x2571442761  code target with id (COMPARE_IC)  (0x2571417ba0) (id=201)
0x2571442781  statement position  (1626)
0x2571442781  position  (1626)
0x2571442784  position  (1631)
0x2571442787  position  (1636)
0x257144278b  position  (1634)
0x257144278e  code target with id (KEYED_STORE_IC)  (0x25714345e0) (id=220)
0x2571442792  statement position  (1649)
0x25714427a0  embedded object  (0x25b597ef5099 Cell for 6144)
0x25714427af  code target (BUILTIN)  (0x25714366e0)
0x25714427b5  embedded object  (0x25b597ef5099 Cell for 6144)
0x25714427d4  statement position  (1530)
0x25714427d4  position  (1529)
0x25714427f1  code target (STUB)  (0x257142abe0)
0x25714427f5  position  (1530)
0x2571442803  code target with id (BINARY_OP_IC)  (0x2571412d40) (id=133)
0x257144280f  embedded object  (0x25b597ef5099 Cell for 6144)
0x257144281e  code target (BUILTIN)  (0x25714366e0)
0x2571442824  embedded object  (0x25b597ef5099 Cell for 6144)
0x257144283a  statement position  (1515)
0x257144283a  position  (1514)
0x257144283d  position  (1516)
0x2571442844  position  (1520)
0x2571442846  embedded object  (0x25b597e92e71 <String[6]: length>)
0x2571442859  code target (LOAD_IC)  (0x2571420300)
0x2571442878  code target with id (COMPARE_IC)  (0x2571417ba0) (id=116)
0x2571442898  statement position  (1684)
0x2571442898  position  (1684)
0x257144289a  embedded object  (0x25b597eee7b9 <String[3]: ret>)
0x25714428b1  code target (LOAD_IC)  (0x2571420300)
0x25714428b6  position  (1691)
0x25714428bd  position  (1695)
0x25714428bf  embedded object  (0x25b597e5b659 <String[4]: join>)
0x25714428d2  code target (LOAD_IC)  (0x2571420300)
0x25714428e0  embedded object  (0x25b597e042e1 <String[0]: >)
0x25714428ea  position  (1696)
0x25714428fa  code target (CALL_IC)  (0x257141bac0)
0x2571442909  position  (1704)
0x257144290b  embedded object  (0x25b597e92e71 <String[6]: length>)
0x257144291e  code target (LOAD_IC)  (0x2571420300)
0x2571442931  code target with id (BINARY_OP_IC)  (0x2571412d40) (id=240)
0x2571442945  position  (1688)
0x2571442947  embedded object  (0x25b597eee7b9 <String[3]: ret>)
0x2571442954  code target (STORE_IC)  (0x2571432120)
0x2571442958  statement position  (1717)
0x2571442958  position  (1717)
0x257144295d  position  (1722)
0x2571442964  position  (1726)
0x2571442966  embedded object  (0x25b597e92e71 <String[6]: length>)
0x2571442979  code target (LOAD_IC)  (0x2571420300)
0x257144298c  code target with id (BINARY_OP_IC)  (0x2571429c60) (id=300)
0x25714429a0  position  (1719)
0x25714429a6  embedded object  (0x25b597ef5099 Cell for 6144)
0x25714429b5  code target (BUILTIN)  (0x25714366e0)
0x25714429bb  embedded object  (0x25b597ef5099 Cell for 6144)
0x25714429dc  embedded object  (0x25b597ef5099 Cell for 6144)
0x25714429ec  code target (BUILTIN)  (0x25714366e0)
0x25714429f3  embedded object  (0x25b597ef5099 Cell for 6144)
0x2571442a09  statement position  (1739)

--- End code ---
--- Raw source ---
(table) {
  var last = null;
  for (var c in table) {
    if (last) table[c] += table[last];
    last = c;
  }
}


--- Code ---
source_position = 856
kind = FUNCTION
name = makeCumulative
compiler = full-codegen
Instructions (size = 744)
0x2571442aa0     0  55             push rbp                  ;; debug: position 856
0x2571442aa1     1  4889e5         REX.W movq rbp,rsp
0x2571442aa4     4  56             push rsi
0x2571442aa5     5  57             push rdi
0x2571442aa6     6  498b55a8       REX.W movq rdx,[r13-0x58]
0x2571442aaa    10  52             push rdx
0x2571442aab    11  52             push rdx
0x2571442aac    12  52             push rdx
0x2571442aad    13  493ba540090000 REX.W cmpq rsp,[r13+0x940]
0x2571442ab4    20  7305           jnc 27  (0x2571442abb)
0x2571442ab6    22  e8653dffff     call StackCheck  (0x2571436820)    ;; code: BUILTIN
0x2571442abb    27  48b80141e097b5250000 REX.W movq rax,0x25b597e04101    ;; debug: statement 868
                                                             ;; object: 0x25b597e04101 <null>
0x2571442ac5    37  488945e0       REX.W movq [rbp-0x20],rax
0x2571442ac9    41  488b4510       REX.W movq rax,[rbp+0x10]    ;; debug: statement 887
                                                             ;; debug: statement 901
0x2571442acd    45  493b45a8       REX.W cmpq rax,[r13-0x58]
0x2571442ad1    49  0f8465020000   jz 668  (0x2571442d3c)
0x2571442ad7    55  498b7db8       REX.W movq rdi,[r13-0x48]
0x2571442adb    59  483bc7         REX.W cmpq rax,rdi
0x2571442ade    62  0f8458020000   jz 668  (0x2571442d3c)
0x2571442ae4    68  a801           test al,0x1
0x2571442ae6    70  740a           jz 82  (0x2571442af2)
0x2571442ae8    72  488b48ff       REX.W movq rcx,[rax-0x1]
0x2571442aec    76  80790bb2       cmpb [rcx+0xb],0xb2
0x2571442af0    80  7305           jnc 87  (0x2571442af7)
0x2571442af2    82  e84917fdff     call 0x2571414240         ;; code: STUB, ToObjectStub, minor: 0
0x2571442af7    87  50             push rax
0x2571442af8    88  488b48ff       REX.W movq rcx,[rax-0x1]
0x2571442afc    92  80790bb3       cmpb [rcx+0xb],0xb3
0x2571442b00    96  0f867b000000   jna 225  (0x2571442b81)
0x2571442b06   102  4d8b85b8000000 REX.W movq r8,[r13+0xb8]
0x2571442b0d   109  488bc8         REX.W movq rcx,rax
0x2571442b10   112  488b59ff       REX.W movq rbx,[rcx-0x1]
0x2571442b14   116  8b530f         movl rdx,[rbx+0xf]
0x2571442b17   119  81e2ff030000   andl rdx,0x3ff
0x2571442b1d   125  48c1e220       REX.W shlq rdx, 32
0x2571442b21   129  49ba00000000ff030000 REX.W movq r10,0x3ff00000000
0x2571442b2b   139  493bd2         REX.W cmpq rdx,r10
0x2571442b2e   142  0f844d000000   jz 225  (0x2571442b81)
0x2571442b34   148  e91a000000     jmp 179  (0x2571442b53)
0x2571442b39   153  488b59ff       REX.W movq rbx,[rcx-0x1]
0x2571442b3d   157  8b530f         movl rdx,[rbx+0xf]
0x2571442b40   160  81e2ff030000   andl rdx,0x3ff
0x2571442b46   166  48c1e220       REX.W shlq rdx, 32
0x2571442b4a   170  4885d2         REX.W testq rdx,rdx
0x2571442b4d   173  0f852e000000   jnz 225  (0x2571442b81)
0x2571442b53   179  4c3b410f       REX.W cmpq r8,[rcx+0xf]
0x2571442b57   183  0f8411000000   jz 206  (0x2571442b6e)
0x2571442b5d   189  4d8b95b8030000 REX.W movq r10,[r13+0x3b8]
0x2571442b64   196  4c3b510f       REX.W cmpq r10,[rcx+0xf]
0x2571442b68   200  0f8513000000   jnz 225  (0x2571442b81)
0x2571442b6e   206  488b4b17       REX.W movq rcx,[rbx+0x17]
0x2571442b72   210  483bcf         REX.W cmpq rcx,rdi
0x2571442b75   213  0f85beffffff   jnz 153  (0x2571442b39)
0x2571442b7b   219  488b40ff       REX.W movq rax,[rax-0x1]
0x2571442b7f   223  eb23           jmp 260  (0x2571442ba4)
0x2571442b81   225  50             push rax
0x2571442b82   226  b801000000     movl rax,0x1
0x2571442b87   231  48bbb04f890001000000 REX.W movq rbx,0x100894fb0
0x2571442b91   241  e88a70fcff     call 0x2571409c20         ;; code: STUB, CEntryStub, minor: 0
0x2571442b96   246  4d8b5500       REX.W movq r10,[r13+0x0]
0x2571442b9a   250  4c3950ff       REX.W cmpq [rax-0x1],r10
0x2571442b9e   254  0f8535000000   jnz 313  (0x2571442bd9)
0x2571442ba4   260  8b500f         movl rdx,[rax+0xf]
0x2571442ba7   263  81e2ff030000   andl rdx,0x3ff
0x2571442bad   269  48c1e220       REX.W shlq rdx, 32
0x2571442bb1   273  4885d2         REX.W testq rdx,rdx
0x2571442bb4   276  0f8416000000   jz 304  (0x2571442bd0)
0x2571442bba   282  488b482f       REX.W movq rcx,[rax+0x2f]
0x2571442bbe   286  488b4917       REX.W movq rcx,[rcx+0x17]
0x2571442bc2   290  488b490f       REX.W movq rcx,[rcx+0xf]
0x2571442bc6   294  50             push rax
0x2571442bc7   295  51             push rcx
0x2571442bc8   296  52             push rdx
0x2571442bc9   297  6a00           push 0x0
0x2571442bcb   299  e950000000     jmp 384  (0x2571442c20)
0x2571442bd0   304  4883c408       REX.W addq rsp,0x8
0x2571442bd4   308  e963010000     jmp 668  (0x2571442d3c)
0x2571442bd9   313  48bbf934ef97b5250000 REX.W movq rbx,0x25b597ef34f9    ;; object: 0x25b597ef34f9 <FixedArray[11]>
0x2571442be3   323  49ba39dae097b5250000 REX.W movq r10,0x25b597e0da39    ;; object: 0x25b597e0da39 <Symbol: 156400422 <String[18]: megamorphic_symbol>>
0x2571442bed   333  4c89532f       REX.W movq [rbx+0x2f],r10
0x2571442bf1   337  48bb0000000001000000 REX.W movq rbx,0x100000000
0x2571442bfb   347  488b0c24       REX.W movq rcx,[rsp]
0x2571442bff   351  488b49ff       REX.W movq rcx,[rcx-0x1]
0x2571442c03   355  80790bb3       cmpb [rcx+0xb],0xb3
0x2571442c07   359  0f870a000000   ja 375  (0x2571442c17)
0x2571442c0d   365  48bb0000000000000000 REX.W movq rbx,0x0
0x2571442c17   375  53             push rbx
0x2571442c18   376  50             push rax
0x2571442c19   377  488b4007       REX.W movq rax,[rax+0x7]
0x2571442c1d   381  50             push rax
0x2571442c1e   382  6a00           push 0x0
0x2571442c20   384  488b0424       REX.W movq rax,[rsp]      ;; debug: statement 896
0x2571442c24   388  483b442408     REX.W cmpq rax,[rsp+0x8]
0x2571442c29   393  0f8309010000   jnc 664  (0x2571442d38)
0x2571442c2f   399  488b5c2410     REX.W movq rbx,[rsp+0x10]
0x2571442c34   404  48c1f81d       REX.W sarq rax, 29
0x2571442c38   408  488b5c030f     REX.W movq rbx,[rbx+rax*1+0xf]
0x2571442c3d   413  488b542418     REX.W movq rdx,[rsp+0x18]
0x2571442c42   418  488b4c2420     REX.W movq rcx,[rsp+0x20]
0x2571442c47   423  483b51ff       REX.W cmpq rdx,[rcx-0x1]
0x2571442c4b   427  7428           jz 469  (0x2571442c75)
0x2571442c4d   429  4885d2         REX.W testq rdx,rdx
0x2571442c50   432  7423           jz 469  (0x2571442c75)
0x2571442c52   434  51             push rcx
0x2571442c53   435  53             push rbx
0x2571442c54   436  b802000000     movl rax,0x2
0x2571442c59   441  48bbc090860001000000 REX.W movq rbx,0x1008690c0
0x2571442c63   451  e8b86ffcff     call 0x2571409c20         ;; code: STUB, CEntryStub, minor: 0
0x2571442c68   456  493b45a8       REX.W cmpq rax,[r13-0x58]
0x2571442c6c   460  0f848f000000   jz 609  (0x2571442d01)
0x2571442c72   466  488bd8         REX.W movq rbx,rax
0x2571442c75   469  488bc3         REX.W movq rax,rbx
0x2571442c78   472  488945e8       REX.W movq [rbp-0x18],rax
0x2571442c7c   476  488b45e8       REX.W movq rax,[rbp-0x18]
0x2571442c80   480  488945d8       REX.W movq [rbp-0x28],rax
0x2571442c84   484  488b45e0       REX.W movq rax,[rbp-0x20]    ;; debug: statement 914
                                                             ;; debug: position 918
0x2571442c88   488  e89397fdff     call 0x257141c420         ;; code: TO_BOOLEAN_IC, UNINITIALIZED (id = 61)
0x2571442c8d   493  4885c0         REX.W testq rax,rax
0x2571442c90   496  0f8463000000   jz 601  (0x2571442cf9)
0x2571442c96   502  ff7510         push [rbp+0x10]           ;; debug: statement 924
                                                             ;; debug: position 924
0x2571442c99   505  ff75d8         push [rbp-0x28]           ;; debug: position 930
0x2571442c9c   508  488b542408     REX.W movq rdx,[rsp+0x8]
0x2571442ca1   513  488b0c24       REX.W movq rcx,[rsp]
0x2571442ca5   517  48b80000000005000000 REX.W movq rax,0x500000000    ;; debug: position 929
0x2571442caf   527  e8ecc2feff     call 0x257142efa0         ;; code: KEYED_LOAD_IC, DEFAULT
0x2571442cb4   532  50             push rax
0x2571442cb5   533  ff7510         push [rbp+0x10]           ;; debug: position 936
0x2571442cb8   536  488b45e0       REX.W movq rax,[rbp-0x20]    ;; debug: position 942
0x2571442cbc   540  488bc8         REX.W movq rcx,rax
0x2571442cbf   543  5a             pop rdx
0x2571442cc0   544  48b80000000009000000 REX.W movq rax,0x900000000    ;; debug: position 941
0x2571442cca   554  e8d1c2feff     call 0x257142efa0         ;; code: KEYED_LOAD_IC, DEFAULT
0x2571442ccf   559  5a             pop rdx
0x2571442cd0   560  488bc8         REX.W movq rcx,rax
0x2571442cd3   563  480bc2         REX.W orq rax,rdx
0x2571442cd6   566  a801           test al,0x1
0x2571442cd8   568  720c           jc 582  (0x2571442ce6)
0x2571442cda   570  488bc1         REX.W movq rax,rcx
0x2571442cdd   573  e85e00fdff     call 0x2571412d40         ;; code: BINARY_OP_IC, UNINITIALIZED (id = 70)
0x2571442ce2   578  a80a           test al,0xa
0x2571442ce4   580  eb0c           jmp 594  (0x2571442cf2)
0x2571442ce6   582  488bc2         REX.W movq rax,rdx
0x2571442ce9   585  4803c1         REX.W addq rax,rcx
0x2571442cec   588  0f80e8ffffff   jo 570  (0x2571442cda)
0x2571442cf2   594  59             pop rcx                   ;; debug: position 933
0x2571442cf3   595  5a             pop rdx
0x2571442cf4   596  e8e718ffff     call KeyedStoreIC_Initialize  (0x25714345e0)    ;; code: KEYED_STORE_IC, UNINITIALIZED (id = 66)
0x2571442cf9   601  488b45d8       REX.W movq rax,[rbp-0x28]    ;; debug: statement 953
                                                             ;; debug: position 960
0x2571442cfd   605  488945e0       REX.W movq [rbp-0x20],rax    ;; debug: position 958
0x2571442d01   609  8344240401     addl [rsp+0x4],0x1
0x2571442d06   614  48bb715bef97b5250000 REX.W movq rbx,0x25b597ef5b71    ;; object: 0x25b597ef5b71 Cell for 6144
0x2571442d10   624  83430bff       addl [rbx+0xb],0xff
0x2571442d14   628  791d           jns 659  (0x2571442d33)
0x2571442d16   630  e8c539ffff     call InterruptCheck  (0x25714366e0)    ;; code: BUILTIN
0x2571442d1b   635  48bb715bef97b5250000 REX.W movq rbx,0x25b597ef5b71    ;; object: 0x25b597ef5b71 Cell for 6144
0x2571442d25   645  49ba0000000000180000 REX.W movq r10,0x180000000000
0x2571442d2f   655  4c895307       REX.W movq [rbx+0x7],r10
0x2571442d33   659  e9e8feffff     jmp 384  (0x2571442c20)
0x2571442d38   664  4883c428       REX.W addq rsp,0x28
0x2571442d3c   668  498b45a8       REX.W movq rax,[r13-0x58]
0x2571442d40   672  48bb715bef97b5250000 REX.W movq rbx,0x25b597ef5b71    ;; object: 0x25b597ef5b71 Cell for 6144
0x2571442d4a   682  83430bfd       addl [rbx+0xb],0xfd
0x2571442d4e   686  791f           jns 719  (0x2571442d6f)
0x2571442d50   688  50             push rax
0x2571442d51   689  e88a39ffff     call InterruptCheck  (0x25714366e0)    ;; code: BUILTIN
0x2571442d56   694  58             pop rax
0x2571442d57   695  48bb715bef97b5250000 REX.W movq rbx,0x25b597ef5b71    ;; object: 0x25b597ef5b71 Cell for 6144
0x2571442d61   705  49ba0000000000180000 REX.W movq r10,0x180000000000
0x2571442d6b   715  4c895307       REX.W movq [rbx+0x7],r10
0x2571442d6f   719  c9             leave                     ;; debug: statement 967
0x2571442d70   720  c21000         ret 0x10
0x2571442d73   723  0f1f440000     nop

Deoptimization Output Data (deopt points = 51)
ast id        pc  state
     2        13  NO_REGISTERS
     3        13  NO_REGISTERS
    10        27  NO_REGISTERS
    20        37  TOS_REG
    15        41  TOS_REG
    13        41  NO_REGISTERS
    11        41  NO_REGISTERS
    37        41  NO_REGISTERS
    35        45  TOS_REG
    27        68  TOS_REG
    29        87  TOS_REG
    28       246  TOS_REG
    26       384  NO_REGISTERS
    30       456  TOS_REG
    31       476  NO_REGISTERS
    38       476  NO_REGISTERS
    41       476  NO_REGISTERS
    53       476  NO_REGISTERS
    51       480  TOS_REG
    46       484  TOS_REG
    44       484  NO_REGISTERS
    42       484  NO_REGISTERS
    54       484  NO_REGISTERS
    62       484  NO_REGISTERS
    60       488  TOS_REG
    58       502  NO_REGISTERS
    97       502  NO_REGISTERS
    95       505  NO_REGISTERS
    94       505  NO_REGISTERS
    92       508  NO_REGISTERS
    91       532  TOS_REG
   106       533  NO_REGISTERS
   104       536  NO_REGISTERS
   103       536  NO_REGISTERS
   101       540  TOS_REG
   100       559  TOS_REG
    98       559  TOS_REG
    67       594  TOS_REG
    65       601  TOS_REG
    63       601  NO_REGISTERS
    59       601  NO_REGISTERS
    57       601  NO_REGISTERS
   116       601  NO_REGISTERS
   114       605  TOS_REG
   109       609  TOS_REG
   107       609  NO_REGISTERS
    55       609  NO_REGISTERS
    39       609  NO_REGISTERS
    23       659  NO_REGISTERS
    25       659  NO_REGISTERS
    24       668  NO_REGISTERS

Back edges (size = 1)
ast_id  pc_offset  loop_depth
    25        635           1

0x25b597ef5f21: [TypeFeedbackInfo]
 - ic_total_count: 5, ic_with_type_info_count: 0, ic_generic_count: 0

RelocInfo (size = 73)
0x2571442aa0  position  (856)
0x2571442ab7  code target (BUILTIN)  (0x2571436820)
0x2571442abb  statement position  (868)
0x2571442abd  embedded object  (0x25b597e04101 <null>)
0x2571442ac9  statement position  (887)
0x2571442ac9  statement position  (901)
0x2571442af3  code target (STUB)  (0x2571414240)
0x2571442b92  code target (STUB)  (0x2571409c20)
0x2571442bdb  embedded object  (0x25b597ef34f9 <FixedArray[11]>)
0x2571442be5  embedded object  (0x25b597e0da39 <Symbol: 156400422 <String[18]: megamorphic_symbol>>)
0x2571442c20  statement position  (896)
0x2571442c64  code target (STUB)  (0x2571409c20)
0x2571442c84  statement position  (914)
0x2571442c84  position  (918)
0x2571442c89  code target with id (TO_BOOLEAN_IC)  (0x257141c420) (id=61)
0x2571442c96  statement position  (924)
0x2571442c96  position  (924)
0x2571442c99  position  (930)
0x2571442ca5  position  (929)
0x2571442cb0  code target (KEYED_LOAD_IC)  (0x257142efa0)
0x2571442cb5  position  (936)
0x2571442cb8  position  (942)
0x2571442cc0  position  (941)
0x2571442ccb  code target (KEYED_LOAD_IC)  (0x257142efa0)
0x2571442cde  code target with id (BINARY_OP_IC)  (0x2571412d40) (id=70)
0x2571442cf2  position  (933)
0x2571442cf5  code target with id (KEYED_STORE_IC)  (0x25714345e0) (id=66)
0x2571442cf9  statement position  (953)
0x2571442cf9  position  (960)
0x2571442cfd  position  (958)
0x2571442d08  embedded object  (0x25b597ef5b71 Cell for 6144)
0x2571442d17  code target (BUILTIN)  (0x25714366e0)
0x2571442d1d  embedded object  (0x25b597ef5b71 Cell for 6144)
0x2571442d42  embedded object  (0x25b597ef5b71 Cell for 6144)
0x2571442d52  code target (BUILTIN)  (0x25714366e0)
0x2571442d59  embedded object  (0x25b597ef5b71 Cell for 6144)
0x2571442d6f  statement position  (967)

--- End code ---
--- Raw source ---
(n, table) {
  var line = new Array(60);
  makeCumulative(table);
  while (n>0) {
    if (n<line.length) line = new Array(n);
    for (var i=0; i<line.length; i++) {
      var r = rand(1);
      for (var c in table) {
        if (r < table[c]) {
          line[i] = c;
          break;
        }
      }
    }
    ret += line.join('').length;
    n -= line.length;
  }
}


--- Optimized code ---
optimization_id = 3
source_position = 1370
kind = OPTIMIZED_FUNCTION
name = fastaRandom
stack_slots = 23
compiler = crankshaft
Instructions (size = 3086)
0x2571506060     0  55             push rbp
0x2571506061     1  4889e5         REX.W movq rbp,rsp
0x2571506064     4  56             push rsi
0x2571506065     5  57             push rdi
0x2571506066     6  4881ecb8000000 REX.W subq rsp,0xb8
0x257150606d    13  488b45f8       REX.W movq rax,[rbp-0x8]
0x2571506071    17  488945c0       REX.W movq [rbp-0x40],rax
0x2571506075    21  488bf0         REX.W movq rsi,rax
0x2571506078    24  493ba540090000 REX.W cmpq rsp,[r13+0x940]
0x257150607f    31  7305           jnc 38  (0x2571506086)
0x2571506081    33  e89a07f3ff     call StackCheck  (0x2571436820)    ;; code: BUILTIN
0x2571506086    38  49bae9b5ec97b5250000 REX.W movq r10,0x25b597ecb5e9    ;; debug: position 1396
                                                             ;; object: 0x25b597ecb5e9 <JS Function Array (SharedFunctionInfo 0x25b597ea4209)>
0x2571506090    48  4152           push r10
0x2571506092    50  49ba000000003c000000 REX.W movq r10,0x3c00000000
0x257150609c    60  4152           push r10
0x257150609e    62  48bfe9b5ec97b5250000 REX.W movq rdi,0x25b597ecb5e9    ;; object: 0x25b597ecb5e9 <JS Function Array (SharedFunctionInfo 0x25b597ea4209)>
0x25715060a8    72  488b75c0       REX.W movq rsi,[rbp-0x40]
0x25715060ac    76  b801000000     movl rax,0x1
0x25715060b1    81  48bba934ef97b5250000 REX.W movq rbx,0x25b597ef34a9    ;; object: 0x25b597ef34a9 <AllocationSite>
0x25715060bb    91  e82071f0ff     call 0x257140d1e0         ;; code: constructor, STUB, ArraySingleArgumentConstructorStub, minor: 3
0x25715060c0    96  488945b8       REX.W movq [rbp-0x48],rax
0x25715060c4   100  488bd8         REX.W movq rbx,rax
0x25715060c7   103  488b5510       REX.W movq rdx,[rbp+0x10]    ;; debug: position 1413
0x25715060cb   107  49ba8941e097b5250000 REX.W movq r10,0x25b597e04189    ;; object: 0x25b597e04189 <undefined>
0x25715060d5   117  493bd2         REX.W cmpq rdx,r10
0x25715060d8   120  0f8453080000   jz 2257  (0x2571506931)
0x25715060de   126  49ba0141e097b5250000 REX.W movq r10,0x25b597e04101    ;; object: 0x25b597e04101 <null>
0x25715060e8   136  493bd2         REX.W cmpq rdx,r10
0x25715060eb   139  0f8440080000   jz 2257  (0x2571506931)
0x25715060f1   145  48be2155ec97b5250000 REX.W movq rsi,0x25b597ec5521    ;; object: 0x25b597ec5521 <FixedArray[196]>
0x25715060fb   155  488bc2         REX.W movq rax,rdx
0x25715060fe   158  a801           test al,0x1
0x2571506100   160  0f84270a0000   jz 2765  (0x2571506b2d)
0x2571506106   166  488b48ff       REX.W movq rcx,[rax-0x1]
0x257150610a   170  80790bb3       cmpb [rcx+0xb],0xb3
0x257150610e   174  0f86190a0000   jna 2765  (0x2571506b2d)
0x2571506114   180  498b7db8       REX.W movq rdi,[r13-0x48]
0x2571506118   184  4d8b85b8000000 REX.W movq r8,[r13+0xb8]
0x257150611f   191  488bc8         REX.W movq rcx,rax
0x2571506122   194  488b59ff       REX.W movq rbx,[rcx-0x1]
0x2571506126   198  8b530f         movl rdx,[rbx+0xf]
0x2571506129   201  81e2ff030000   andl rdx,0x3ff
0x257150612f   207  48c1e220       REX.W shlq rdx, 32
0x2571506133   211  49ba00000000ff030000 REX.W movq r10,0x3ff00000000
0x257150613d   221  493bd2         REX.W cmpq rdx,r10
0x2571506140   224  0f8449000000   jz 303  (0x257150618f)
0x2571506146   230  e91a000000     jmp 261  (0x2571506165)
0x257150614b   235  488b59ff       REX.W movq rbx,[rcx-0x1]
0x257150614f   239  8b530f         movl rdx,[rbx+0xf]
0x2571506152   242  81e2ff030000   andl rdx,0x3ff
0x2571506158   248  48c1e220       REX.W shlq rdx, 32
0x257150615c   252  4885d2         REX.W testq rdx,rdx
0x257150615f   255  0f852a000000   jnz 303  (0x257150618f)
0x2571506165   261  4c3b410f       REX.W cmpq r8,[rcx+0xf]
0x2571506169   265  0f8411000000   jz 288  (0x2571506180)
0x257150616f   271  4d8b95b8030000 REX.W movq r10,[r13+0x3b8]
0x2571506176   278  4c3b510f       REX.W cmpq r10,[rcx+0xf]
0x257150617a   282  0f850f000000   jnz 303  (0x257150618f)
0x2571506180   288  488b4b17       REX.W movq rcx,[rbx+0x17]
0x2571506184   292  483bcf         REX.W cmpq rcx,rdi
0x2571506187   295  75c2           jnz 235  (0x257150614b)
0x2571506189   297  488b40ff       REX.W movq rax,[rax-0x1]
0x257150618d   301  eb20           jmp 335  (0x25715061af)
0x257150618f   303  50             push rax
0x2571506190   304  b801000000     movl rax,0x1
0x2571506195   309  498d9df80c89fd REX.W leaq rbx,[r13-0x276f308]
0x257150619c   316  e87f3af0ff     call 0x2571409c20         ;; code: STUB, CEntryStub, minor: 0
0x25715061a1   321  4d8b5500       REX.W movq r10,[r13+0x0]
0x25715061a5   325  4c3950ff       REX.W cmpq [rax-0x1],r10
0x25715061a9   329  0f857e090000   jnz 2765  (0x2571506b2d)
0x25715061af   335  488945b0       REX.W movq [rbp-0x50],rax
0x25715061b3   339  8b580f         movl rbx,[rax+0xf]
0x25715061b6   342  81e3ff030000   andl rbx,0x3ff
0x25715061bc   348  48c1e320       REX.W shlq rbx, 32
0x25715061c0   352  4885db         REX.W testq rbx,rbx
0x25715061c3   355  7509           jnz 366  (0x25715061ce)
0x25715061c5   357  498b9db8000000 REX.W movq rbx,[r13+0xb8]
0x25715061cc   364  eb0c           jmp 378  (0x25715061da)
0x25715061ce   366  488b582f       REX.W movq rbx,[rax+0x2f]
0x25715061d2   370  488b5b17       REX.W movq rbx,[rbx+0x17]
0x25715061d6   374  488b5b0f       REX.W movq rbx,[rbx+0xf]
0x25715061da   378  f6c301         testb rbx,0x1
0x25715061dd   381  0f844f090000   jz 2770  (0x2571506b32)
0x25715061e3   387  48895da8       REX.W movq [rbp-0x58],rbx
0x25715061e7   391  8b780f         movl rdi,[rax+0xf]
0x25715061ea   394  81e7ff030000   andl rdi,0x3ff
0x25715061f0   400  48c1e720       REX.W shlq rdi, 32
0x25715061f4   404  48897da0       REX.W movq [rbp-0x60],rdi
0x25715061f8   408  448b400f       movl r8,[rax+0xf]
0x25715061fc   412  4181e0ff030000 andl r8,0x3ff
0x2571506203   419  49c1e020       REX.W shlq r8, 32
0x2571506207   423  4d85c0         REX.W testq r8,r8
0x257150620a   426  7509           jnz 437  (0x2571506215)
0x257150620c   428  4d8b85b8000000 REX.W movq r8,[r13+0xb8]
0x2571506213   435  eb0c           jmp 449  (0x2571506221)
0x2571506215   437  4c8b402f       REX.W movq r8,[rax+0x2f]
0x2571506219   441  4d8b4017       REX.W movq r8,[r8+0x17]
0x257150621d   445  4d8b4017       REX.W movq r8,[r8+0x17]
0x2571506221   449  41f6c001       testb r8,0x1
0x2571506225   453  0f840c090000   jz 2775  (0x2571506b37)
0x257150622b   459  4c894580       REX.W movq [rbp-0x80],r8
0x257150622f   463  4c8bcf         REX.W movq r9,rdi
0x2571506232   466  49c1e920       REX.W shrq r9, 32
0x2571506236   470  4c898d78ffffff REX.W movq [rbp-0x88],r9
0x257150623d   477  4c8b6510       REX.W movq r12,[rbp+0x10]
0x2571506241   481  48ba0141e097b5250000 REX.W movq rdx,0x25b597e04101    ;; object: 0x25b597e04101 <null>
0x257150624b   491  4533db         xorl r11,r11
0x257150624e   494  4c895d98       REX.W movq [rbp-0x68],r11
0x2571506252   498  453bd9         cmpl r11,r9
0x2571506255   501  0f8db8010000   jge 947  (0x2571506413)
0x257150625b   507  4e8b74db0f     REX.W movq r14,[rbx+r11*8+0xf]
0x2571506260   512  4c897590       REX.W movq [rbp-0x70],r14
0x2571506264   516  493b4424ff     REX.W cmpq rax,[r12-0x1]
0x2571506269   521  0f85cd080000   jnz 2780  (0x2571506b3c)
0x257150626f   527  493ba540090000 REX.W cmpq rsp,[r13+0x940]
0x2571506276   534  0f82ba060000   jc 2262  (0x2571506936)
0x257150627c   540  493b55b8       REX.W cmpq rdx,[r13-0x48]
0x2571506280   544  0f843e010000   jz 868  (0x25715063c4)
0x2571506286   550  f6c201         testb rdx,0x1
0x2571506289   553  0f84b2080000   jz 2785  (0x2571506b41)
0x257150628f   559  4c8b52ff       REX.W movq r10,[rdx-0x1]
0x2571506293   563  41807a0b80     cmpb [r10+0xb],0x80
0x2571506298   568  7310           jnc 586  (0x25715062aa)
0x257150629a   570  48837a0f00     REX.W cmpq [rdx+0xf],0x0
0x257150629f   575  0f850a000000   jnz 591  (0x25715062af)
0x25715062a5   581  e91a010000     jmp 868  (0x25715063c4)
0x25715062aa   586  e8a1fdbfff     call 0x2571106050         ;; deoptimization bailout 8
0x25715062af   591  4b8b4cd80f     REX.W movq rcx,[r8+r11*8+0xf]
0x25715062b4   596  4d89e7         REX.W movq r15,r12
0x25715062b7   599  49ba0000000001000000 REX.W movq r10,0x100000000
0x25715062c1   609  4985ca         REX.W testq rcx,r10
0x25715062c4   612  0f85b1060000   jnz 2331  (0x257150697b)
0x25715062ca   618  48d1f9         REX.W sarq rcx, 1
0x25715062cd   621  48c1e920       REX.W shrq rcx, 32
0x25715062d1   625  83f900         cmpl rcx,0x0
0x25715062d4   628  7c07           jl 637  (0x25715062dd)
0x25715062d6   630  4d8b7ccf17     REX.W movq r15,[r15+rcx*8+0x17]
0x25715062db   635  eb0b           jmp 648  (0x25715062e8)
0x25715062dd   637  4d8b7f07       REX.W movq r15,[r15+0x7]
0x25715062e1   641  f7d9           negl rcx
0x25715062e3   643  4d8b7ccf07     REX.W movq r15,[r15+rcx*8+0x7]
0x25715062e8   648  4c897d88       REX.W movq [rbp-0x78],r15
0x25715062ec   652  48be2155ec97b5250000 REX.W movq rsi,0x25b597ec5521    ;; object: 0x25b597ec5521 <FixedArray[196]>
0x25715062f6   662  488bca         REX.W movq rcx,rdx
0x25715062f9   665  4c89e2         REX.W movq rdx,r12
0x25715062fc   668  e8bf43f1ff     call KeyedLoadIC_Megamorphic  (0x257141a6c0)    ;; code: KEYED_LOAD_IC, MEGAMORPHIC
0x2571506301   673  488b5d88       REX.W movq rbx,[rbp-0x78]
0x2571506305   677  f6c301         testb rbx,0x1
0x2571506308   680  7421           jz 715  (0x257150632b)
0x257150630a   682  4d8b5508       REX.W movq r10,[r13+0x8]
0x257150630e   686  4c3953ff       REX.W cmpq [rbx-0x1],r10
0x2571506312   690  f20f104b07     movsd xmm1,[rbx+0x7]
0x2571506317   695  7502           jnz 699  (0x257150631b)
0x2571506319   697  eb1f           jmp 730  (0x257150633a)
0x257150631b   699  493b5da8       REX.W cmpq rbx,[r13-0x58]
0x257150631f   703  0f8521080000   jnz 2790  (0x2571506b46)
0x2571506325   709  660f76c9       pcmpeqd xmm1,xmm1
0x2571506329   713  eb0f           jmp 730  (0x257150633a)
0x257150632b   715  4c8bd3         REX.W movq r10,rbx
0x257150632e   718  49c1ea20       REX.W shrq r10, 32
0x2571506332   722  0f57c9         xorps xmm1,xmm1
0x2571506335   725  f2410f2aca     cvtsi2sd xmm1,r10
0x257150633a   730  a801           test al,0x1
0x257150633c   732  7421           jz 767  (0x257150635f)
0x257150633e   734  4d8b5508       REX.W movq r10,[r13+0x8]
0x2571506342   738  4c3950ff       REX.W cmpq [rax-0x1],r10
0x2571506346   742  f20f105007     movsd xmm2,[rax+0x7]
0x257150634b   747  7502           jnz 751  (0x257150634f)
0x257150634d   749  eb1f           jmp 782  (0x257150636e)
0x257150634f   751  493b45a8       REX.W cmpq rax,[r13-0x58]
0x2571506353   755  0f85f2070000   jnz 2795  (0x2571506b4b)
0x2571506359   761  660f76d2       pcmpeqd xmm2,xmm2
0x257150635d   765  eb0f           jmp 782  (0x257150636e)
0x257150635f   767  4c8bd0         REX.W movq r10,rax
0x2571506362   770  49c1ea20       REX.W shrq r10, 32
0x2571506366   774  0f57d2         xorps xmm2,xmm2
0x2571506369   777  f2410f2ad2     cvtsi2sd xmm2,r10
0x257150636e   782  c5eb58c9       vaddsd xmm1,xmm2,xmm1
0x2571506372   786  498b9d400c0000 REX.W movq rbx,[r13+0xc40]
0x2571506379   793  488bc3         REX.W movq rax,rbx
0x257150637c   796  4883c010       REX.W addq rax,0x10
0x2571506380   800  0f8243060000   jc 2409  (0x25715069c9)
0x2571506386   806  493b85480c0000 REX.W cmpq rax,[r13+0xc48]
0x257150638d   813  0f8736060000   ja 2409  (0x25715069c9)
0x2571506393   819  498985400c0000 REX.W movq [r13+0xc40],rax
0x257150639a   826  48ffc3         REX.W incq rbx
0x257150639d   829  4d8b5508       REX.W movq r10,[r13+0x8]
0x25715063a1   833  4c8953ff       REX.W movq [rbx-0x1],r10
0x25715063a5   837  f20f114b07     movsd [rbx+0x7],xmm1
0x25715063aa   842  48be2155ec97b5250000 REX.W movq rsi,0x25b597ec5521    ;; object: 0x25b597ec5521 <FixedArray[196]>
0x25715063b4   852  488b5510       REX.W movq rdx,[rbp+0x10]
0x25715063b8   856  488b4d90       REX.W movq rcx,[rbp-0x70]
0x25715063bc   860  488bc3         REX.W movq rax,rbx
0x25715063bf   863  e89ce2f2ff     call KeyedStoreIC_PreMonomorphic  (0x2571434660)    ;; code: KEYED_STORE_IC, PREMONOMORPHIC
0x25715063c4   868  488b4598       REX.W movq rax,[rbp-0x68]
0x25715063c8   872  448d5801       leal r11,[rax+0x1]
0x25715063cc   876  488b5590       REX.W movq rdx,[rbp-0x70]
0x25715063d0   880  4c8b6510       REX.W movq r12,[rbp+0x10]
0x25715063d4   884  488b45b0       REX.W movq rax,[rbp-0x50]
0x25715063d8   888  488b5da8       REX.W movq rbx,[rbp-0x58]
0x25715063dc   892  488b7da0       REX.W movq rdi,[rbp-0x60]
0x25715063e0   896  4c8b4580       REX.W movq r8,[rbp-0x80]
0x25715063e4   900  4c8b8d78ffffff REX.W movq r9,[rbp-0x88]
0x25715063eb   907  e95efeffff     jmp 494  (0x257150624e)
0x25715063f0   912  4881ec90000000 REX.W subq rsp,0x90
0x25715063f7   919  488b75f8       REX.W movq rsi,[rbp-0x8]
0x25715063fb   923  4c8b4520       REX.W movq r8,[rbp+0x20]
0x25715063ff   927  488b4d18       REX.W movq rcx,[rbp+0x18]
0x2571506403   931  488b5510       REX.W movq rdx,[rbp+0x10]
0x2571506407   935  488bde         REX.W movq rbx,rsi
0x257150640a   938  488b45e0       REX.W movq rax,[rbp-0x20]
0x257150640e   942  e914000000     jmp 967  (0x2571506427)
0x2571506413   947  4c8b4520       REX.W movq r8,[rbp+0x20]
0x2571506417   951  488b4d18       REX.W movq rcx,[rbp+0x18]
0x257150641b   955  488b5510       REX.W movq rdx,[rbp+0x10]
0x257150641f   959  488b5dc0       REX.W movq rbx,[rbp-0x40]
0x2571506423   963  488b45b8       REX.W movq rax,[rbp-0x48]
0x2571506427   967  4c898570ffffff REX.W movq [rbp-0x90],r8
0x257150642e   974  48895598       REX.W movq [rbp-0x68],rdx
0x2571506432   978  48895d88       REX.W movq [rbp-0x78],rbx
0x2571506436   982  49ba0000000000160141 REX.W movq r10,0x4101160000000000    ;; debug: position 231
0x2571506440   992  66490f6ed2     REX.W movq xmm2,r10
0x2571506445   997  f20f119540ffffff movsd [rbp-0xc0],xmm2
0x257150644d  1005  48898d68ffffff REX.W movq [rbp-0x98],rcx    ;; debug: position 1446
0x2571506454  1012  4c8bc9         REX.W movq r9,rcx
0x2571506457  1015  41f6c101       testb r9,0x1
0x257150645b  1019  0f85bd050000   jnz 2494  (0x2571506a1e)
0x2571506461  1025  49c1e920       REX.W shrq r9, 32
0x2571506465  1029  4c898d60ffffff REX.W movq [rbp-0xa0],r9
0x257150646c  1036  4183f900       cmpl r9,0x0
0x2571506470  1040  0f8eaa040000   jle 2240  (0x2571506920)
0x2571506476  1046  a801           test al,0x1               ;; debug: position 1461
0x2571506478  1048  0f84d2060000   jz 2800  (0x2571506b50)
0x257150647e  1054  49baf1ac301cf9160000 REX.W movq r10,0x16f91c30acf1    ;; object: 0x16f91c30acf1 <Map(FAST_HOLEY_ELEMENTS)>
0x2571506488  1064  4c3950ff       REX.W cmpq [rax-0x1],r10
0x257150648c  1068  0f85c3060000   jnz 2805  (0x2571506b55)
0x2571506492  1074  8b701b         movl rsi,[rax+0x1b]
0x2571506495  1077  443bce         cmpl r9,rsi
0x2571506498  1080  0f8c08000000   jl 1094  (0x25715064a6)
0x257150649e  1086  488bd8         REX.W movq rbx,rax        ;; debug: position 1482
0x25715064a1  1089  e92b000000     jmp 1137  (0x25715064d1)
0x25715064a6  1094  49bae9b5ec97b5250000 REX.W movq r10,0x25b597ecb5e9    ;; object: 0x25b597ecb5e9 <JS Function Array (SharedFunctionInfo 0x25b597ea4209)>
0x25715064b0  1104  4152           push r10
0x25715064b2  1106  51             push rcx
0x25715064b3  1107  48bfe9b5ec97b5250000 REX.W movq rdi,0x25b597ecb5e9    ;; object: 0x25b597ecb5e9 <JS Function Array (SharedFunctionInfo 0x25b597ea4209)>
0x25715064bd  1117  488bf3         REX.W movq rsi,rbx
0x25715064c0  1120  b801000000     movl rax,0x1
0x25715064c5  1125  498b5da8       REX.W movq rbx,[r13-0x58]
0x25715064c9  1129  e8b238f2ff     call 0x2571429d80         ;; code: constructor, STUB, CallConstructStub, minor: 0
0x25715064ce  1134  488bd8         REX.W movq rbx,rax
0x25715064d1  1137  48899d58ffffff REX.W movq [rbp-0xa8],rbx
0x25715064d8  1144  f6c301         testb rbx,0x1             ;; debug: position 1515
0x25715064db  1147  0f8479060000   jz 2810  (0x2571506b5a)
0x25715064e1  1153  488b7d98       REX.W movq rdi,[rbp-0x68]    ;; debug: position 1482
0x25715064e5  1157  f20f108d40ffffff movsd xmm1,[rbp-0xc0]
0x25715064ed  1165  33c9           xorl rcx,rcx
0x25715064ef  1167  48898d50ffffff REX.W movq [rbp-0xb0],rcx    ;; debug: position 1515
0x25715064f6  1174  49baf1ac301cf9160000 REX.W movq r10,0x16f91c30acf1    ;; object: 0x16f91c30acf1 <Map(FAST_HOLEY_ELEMENTS)>
0x2571506500  1184  4c3953ff       REX.W cmpq [rbx-0x1],r10
0x2571506504  1188  0f8555060000   jnz 2815  (0x2571506b5f)
0x257150650a  1194  8b431b         movl rax,[rbx+0x1b]
0x257150650d  1197  3bc8           cmpl rcx,rax
0x257150650f  1199  0f8d3f030000   jge 2036  (0x2571506854)
0x2571506515  1205  493ba540090000 REX.W cmpq rsp,[r13+0x940]
0x257150651c  1212  0f8232050000   jc 2548  (0x2571506a54)
0x2571506522  1218  48b8d1f2ee97b5250000 REX.W movq rax,0x25b597eef2d1    ;; debug: position 1550
                                                             ;; object: 0x25b597eef2d1 PropertyCell for 81354 (data, dictionary_index: 165, attrs: [WE_])
0x257150652c  1228  8b4013         movl rax,[rax+0x13]
0x257150652f  1231  69c0250f0000   imull rax,rax,0xf25       ;; debug: position 197
0x2571506535  1237  0f8029060000   jo 2820  (0x2571506b64)
0x257150653b  1243  488bf0         REX.W movq rsi,rax
0x257150653e  1246  81c685730000   addl rsi,0x7385           ;; debug: position 201
0x2571506544  1252  0f801f060000   jo 2825  (0x2571506b69)
0x257150654a  1258  b88156f71d     movl rax,0x1df75681       ;; debug: position 206
0x257150654f  1263  f7ee           imull rsi
0x2571506551  1265  c1fa0e         sarl rdx, 14
0x2571506554  1268  8bc6           movl rax,rsi
0x2571506556  1270  c1e81f         shrl rax, 31
0x2571506559  1273  03d0           addl rdx,rax
0x257150655b  1275  69d2c0220200   imull rdx,rdx,0x222c0
0x2571506561  1281  8bc6           movl rax,rsi
0x2571506563  1283  2bc2           subl rax,rdx
0x2571506565  1285  7509           jnz 1296  (0x2571506570)
0x2571506567  1287  83fe00         cmpl rsi,0x0
0x257150656a  1290  0f8cfe050000   jl 2830  (0x2571506b6e)
0x2571506570  1296  8bd0           movl rdx,rax
0x2571506572  1298  48c1e220       REX.W shlq rdx, 32
0x2571506576  1302  48b8d1f2ee97b5250000 REX.W movq rax,0x25b597eef2d1    ;; debug: position 1550
                                                             ;; object: 0x25b597eef2d1 PropertyCell for 81354 (data, dictionary_index: 165, attrs: [WE_])
0x2571506580  1312  4889500f       REX.W movq [rax+0xf],rdx    ;; debug: position 206
0x2571506584  1316  48b8d1f2ee97b5250000 REX.W movq rax,0x25b597eef2d1    ;; debug: position 1550
                                                             ;; object: 0x25b597eef2d1 PropertyCell for 81354 (data, dictionary_index: 165, attrs: [WE_])
0x257150658e  1326  8b4013         movl rax,[rax+0x13]       ;; debug: position 206
0x2571506591  1329  0f57d2         xorps xmm2,xmm2           ;; debug: position 231
0x2571506594  1332  f20f2ad0       cvtsi2sd xmm2,rax
0x2571506598  1336  c5eb5ed1       vdivsd xmm2,xmm2,xmm1
0x257150659c  1340  0f28d2         movaps xmm2,xmm2
0x257150659f  1343  f20f119538ffffff movsd [rbp-0xc8],xmm2
0x25715065a7  1351  49ba8941e097b5250000 REX.W movq r10,0x25b597e04189    ;; object: 0x25b597e04189 <undefined>
0x25715065b1  1361  493bfa         REX.W cmpq rdi,r10
0x25715065b4  1364  0f844a030000   jz 2212  (0x2571506904)
0x25715065ba  1370  49ba0141e097b5250000 REX.W movq r10,0x25b597e04101    ;; object: 0x25b597e04101 <null>
0x25715065c4  1380  493bfa         REX.W cmpq rdi,r10
0x25715065c7  1383  0f8445030000   jz 2226  (0x2571506912)
0x25715065cd  1389  488b7588       REX.W movq rsi,[rbp-0x78]
0x25715065d1  1393  488bc7         REX.W movq rax,rdi
0x25715065d4  1396  a801           test al,0x1
0x25715065d6  1398  0f8497050000   jz 2835  (0x2571506b73)
0x25715065dc  1404  488b48ff       REX.W movq rcx,[rax-0x1]
0x25715065e0  1408  80790bb3       cmpb [rcx+0xb],0xb3
0x25715065e4  1412  0f8689050000   jna 2835  (0x2571506b73)
0x25715065ea  1418  498b7db8       REX.W movq rdi,[r13-0x48]
0x25715065ee  1422  4d8b85b8000000 REX.W movq r8,[r13+0xb8]
0x25715065f5  1429  488bc8         REX.W movq rcx,rax
0x25715065f8  1432  488b59ff       REX.W movq rbx,[rcx-0x1]
0x25715065fc  1436  8b530f         movl rdx,[rbx+0xf]
0x25715065ff  1439  81e2ff030000   andl rdx,0x3ff
0x2571506605  1445  48c1e220       REX.W shlq rdx, 32
0x2571506609  1449  49ba00000000ff030000 REX.W movq r10,0x3ff00000000
0x2571506613  1459  493bd2         REX.W cmpq rdx,r10
0x2571506616  1462  0f8449000000   jz 1541  (0x2571506665)
0x257150661c  1468  e91a000000     jmp 1499  (0x257150663b)
0x2571506621  1473  488b59ff       REX.W movq rbx,[rcx-0x1]
0x2571506625  1477  8b530f         movl rdx,[rbx+0xf]
0x2571506628  1480  81e2ff030000   andl rdx,0x3ff
0x257150662e  1486  48c1e220       REX.W shlq rdx, 32
0x2571506632  1490  4885d2         REX.W testq rdx,rdx
0x2571506635  1493  0f852a000000   jnz 1541  (0x2571506665)
0x257150663b  1499  4c3b410f       REX.W cmpq r8,[rcx+0xf]
0x257150663f  1503  0f8411000000   jz 1526  (0x2571506656)
0x2571506645  1509  4d8b95b8030000 REX.W movq r10,[r13+0x3b8]
0x257150664c  1516  4c3b510f       REX.W cmpq r10,[rcx+0xf]
0x2571506650  1520  0f850f000000   jnz 1541  (0x2571506665)
0x2571506656  1526  488b4b17       REX.W movq rcx,[rbx+0x17]
0x257150665a  1530  483bcf         REX.W cmpq rcx,rdi
0x257150665d  1533  75c2           jnz 1473  (0x2571506621)
0x257150665f  1535  488b40ff       REX.W movq rax,[rax-0x1]
0x2571506663  1539  eb20           jmp 1573  (0x2571506685)
0x2571506665  1541  50             push rax
0x2571506666  1542  b801000000     movl rax,0x1
0x257150666b  1547  498d9df80c89fd REX.W leaq rbx,[r13-0x276f308]
0x2571506672  1554  e8a935f0ff     call 0x2571409c20         ;; code: STUB, CEntryStub, minor: 0
0x2571506677  1559  4d8b5500       REX.W movq r10,[r13+0x0]
0x257150667b  1563  4c3950ff       REX.W cmpq [rax-0x1],r10
0x257150667f  1567  0f85ee040000   jnz 2835  (0x2571506b73)
0x2571506685  1573  8b580f         movl rbx,[rax+0xf]
0x2571506688  1576  81e3ff030000   andl rbx,0x3ff
0x257150668e  1582  48c1e320       REX.W shlq rbx, 32
0x2571506692  1586  4885db         REX.W testq rbx,rbx
0x2571506695  1589  7509           jnz 1600  (0x25715066a0)
0x2571506697  1591  498b9db8000000 REX.W movq rbx,[r13+0xb8]
0x257150669e  1598  eb0c           jmp 1612  (0x25715066ac)
0x25715066a0  1600  488b582f       REX.W movq rbx,[rax+0x2f]
0x25715066a4  1604  488b5b17       REX.W movq rbx,[rbx+0x17]
0x25715066a8  1608  488b5b0f       REX.W movq rbx,[rbx+0xf]
0x25715066ac  1612  f6c301         testb rbx,0x1
0x25715066af  1615  0f84c3040000   jz 2840  (0x2571506b78)
0x25715066b5  1621  8b500f         movl rdx,[rax+0xf]
0x25715066b8  1624  81e2ff030000   andl rdx,0x3ff
0x25715066be  1630  48c1e220       REX.W shlq rdx, 32
0x25715066c2  1634  8b480f         movl rcx,[rax+0xf]
0x25715066c5  1637  81e1ff030000   andl rcx,0x3ff
0x25715066cb  1643  48c1e120       REX.W shlq rcx, 32
0x25715066cf  1647  4885c9         REX.W testq rcx,rcx
0x25715066d2  1650  7509           jnz 1661  (0x25715066dd)
0x25715066d4  1652  498b8db8000000 REX.W movq rcx,[r13+0xb8]
0x25715066db  1659  eb0c           jmp 1673  (0x25715066e9)
0x25715066dd  1661  488b482f       REX.W movq rcx,[rax+0x2f]
0x25715066e1  1665  488b4917       REX.W movq rcx,[rcx+0x17]
0x25715066e5  1669  488b4917       REX.W movq rcx,[rcx+0x17]
0x25715066e9  1673  f6c101         testb rcx,0x1
0x25715066ec  1676  0f848b040000   jz 2845  (0x2571506b7d)
0x25715066f2  1682  488bf2         REX.W movq rsi,rdx
0x25715066f5  1685  48c1ee20       REX.W shrq rsi, 32
0x25715066f9  1689  4c8b4598       REX.W movq r8,[rbp-0x68]
0x25715066fd  1693  493b40ff       REX.W cmpq rax,[r8-0x1]
0x2571506701  1697  0f857b040000   jnz 2850  (0x2571506b82)
0x2571506707  1703  f20f108d38ffffff movsd xmm1,[rbp-0xc8]
0x257150670f  1711  33ff           xorl rdi,rdi
0x2571506711  1713  3bfe           cmpl rdi,rsi
0x2571506713  1715  0f8d12010000   jge 1995  (0x257150682b)
0x2571506719  1721  4c8b4cfb0f     REX.W movq r9,[rbx+rdi*8+0xf]
0x257150671e  1726  493ba540090000 REX.W cmpq rsp,[r13+0x940]
0x2571506725  1733  0f826e030000   jc 2617  (0x2571506a99)
0x257150672b  1739  4c8b5cf90f     REX.W movq r11,[rcx+rdi*8+0xf]    ;; debug: position 1602
0x2571506730  1744  4d8be0         REX.W movq r12,r8
0x2571506733  1747  49ba0000000001000000 REX.W movq r10,0x100000000
0x257150673d  1757  4d85da         REX.W testq r11,r10
0x2571506740  1760  0f8598030000   jnz 2686  (0x2571506ade)
0x2571506746  1766  49d1fb         REX.W sarq r11, 1
0x2571506749  1769  49c1eb20       REX.W shrq r11, 32
0x257150674d  1773  4183fb00       cmpl r11,0x0
0x2571506751  1777  7c07           jl 1786  (0x257150675a)
0x2571506753  1779  4f8b64dc17     REX.W movq r12,[r12+r11*8+0x17]
0x2571506758  1784  eb0d           jmp 1799  (0x2571506767)
0x257150675a  1786  4d8b642407     REX.W movq r12,[r12+0x7]
0x257150675f  1791  41f7db         negl r11
0x2571506762  1794  4f8b64dc07     REX.W movq r12,[r12+r11*8+0x7]
0x2571506767  1799  41f6c401       testb r12,0x1
0x257150676b  1803  7424           jz 1841  (0x2571506791)
0x257150676d  1805  4d8b5508       REX.W movq r10,[r13+0x8]
0x2571506771  1809  4d395424ff     REX.W cmpq [r12-0x1],r10
0x2571506776  1814  f2410f10542407 movsd xmm2,[r12+0x7]
0x257150677d  1821  7502           jnz 1825  (0x2571506781)
0x257150677f  1823  eb1f           jmp 1856  (0x25715067a0)
0x2571506781  1825  4d3b65a8       REX.W cmpq r12,[r13-0x58]
0x2571506785  1829  0f85fc030000   jnz 2855  (0x2571506b87)
0x257150678b  1835  660f76d2       pcmpeqd xmm2,xmm2
0x257150678f  1839  eb0f           jmp 1856  (0x25715067a0)
0x2571506791  1841  4d89e2         REX.W movq r10,r12
0x2571506794  1844  49c1ea20       REX.W shrq r10, 32
0x2571506798  1848  0f57d2         xorps xmm2,xmm2
0x257150679b  1851  f2410f2ad2     cvtsi2sd xmm2,r10
0x25715067a0  1856  660f2eca       ucomisd xmm1,xmm2
0x25715067a4  1860  0f8a06000000   jpe 1872  (0x25715067b0)
0x25715067aa  1866  0f8208000000   jc 1880  (0x25715067b8)
0x25715067b0  1872  83c701         addl rdi,0x1
0x25715067b3  1875  e959ffffff     jmp 1713  (0x2571506711)
0x25715067b8  1880  488b8d58ffffff REX.W movq rcx,[rbp-0xa8]
0x25715067bf  1887  488b710f       REX.W movq rsi,[rcx+0xf]
0x25715067c3  1891  49ba0942301cf9160000 REX.W movq r10,0x16f91c304209    ;; object: 0x16f91c304209 <Map(FAST_SMI_ELEMENTS)>
0x25715067cd  1901  4c3956ff       REX.W cmpq [rsi-0x1],r10
0x25715067d1  1905  0f85b5030000   jnz 2860  (0x2571506b8c)
0x25715067d7  1911  448b591b       movl r11,[rcx+0x1b]
0x25715067db  1915  4c8ba550ffffff REX.W movq r12,[rbp-0xb0]
0x25715067e2  1922  4539e3         cmpl r11,r12
0x25715067e5  1925  0f86a6030000   jna 2865  (0x2571506b91)
0x25715067eb  1931  4c89e0         REX.W movq rax,r12
0x25715067ee  1934  4c894cc60f     REX.W movq [rsi+rax*8+0xf],r9
0x25715067f3  1939  488d44c60f     REX.W leaq rax,[rsi+rax*8+0xf]
0x25715067f8  1944  41f6c101       testb r9,0x1
0x25715067fc  1948  0f8424000000   jz 1990  (0x2571506826)
0x2571506802  1954  4981e10000f0ff REX.W andq r9,0xfffffffffff00000
0x2571506809  1961  41f6410804     testb [r9+0x8],0x4
0x257150680e  1966  7416           jz 1990  (0x2571506826)
0x2571506810  1968  49c7c10000f0ff REX.W movq r9,0xfff00000
0x2571506817  1975  4c23ce         REX.W andq r9,rsi
0x257150681a  1978  41f6410808     testb [r9+0x8],0x8
0x257150681f  1983  7405           jz 1990  (0x2571506826)
0x2571506821  1985  e8dac5f3ff     call 0x2571442e00         ;; code: STUB, RecordWriteStub, minor: 8342
0x2571506826  1990  e90e000000     jmp 2009  (0x2571506839)
0x257150682b  1995  488b8d58ffffff REX.W movq rcx,[rbp-0xa8]
0x2571506832  2002  4c8ba550ffffff REX.W movq r12,[rbp-0xb0]
0x2571506839  2009  418d442401     leal rax,[r12+0x1]        ;; debug: position 1530
0x257150683e  2014  488bd9         REX.W movq rbx,rcx
0x2571506841  2017  488bc8         REX.W movq rcx,rax
0x2571506844  2020  498bf8         REX.W movq rdi,r8
0x2571506847  2023  f20f108d40ffffff movsd xmm1,[rbp-0xc0]
0x257150684f  2031  e99bfcffff     jmp 1167  (0x25715064ef)
0x2571506854  2036  4c8bc7         REX.W movq r8,rdi         ;; debug: position 1515
0x2571506857  2039  488bcb         REX.W movq rcx,rbx
0x257150685a  2042  48b8b1f6ee97b5250000 REX.W movq rax,0x25b597eef6b1    ;; debug: position 1530
                                                             ;; object: 0x25b597eef6b1 PropertyCell for 1403360 (data, dictionary_index: 198, attrs: [WE_])
0x2571506864  2052  8b4013         movl rax,[rax+0x13]
0x2571506867  2055  48898548ffffff REX.W movq [rbp-0xb8],rax
0x257150686e  2062  51             push rcx                  ;; debug: position 1696
0x257150686f  2063  49bae142e097b5250000 REX.W movq r10,0x25b597e042e1    ;; object: 0x25b597e042e1 <String[0]: >
0x2571506879  2073  4152           push r10
0x257150687b  2075  48bf81bcec97b5250000 REX.W movq rdi,0x25b597ecbc81    ;; object: 0x25b597ecbc81 <JS Function join (SharedFunctionInfo 0x25b597e5b5c1)>
0x2571506885  2085  488b772f       REX.W movq rsi,[rdi+0x2f]
0x2571506889  2089  ff5717         call [rdi+0x17]
0x257150688c  2092  a801           test al,0x1
0x257150688e  2094  0f8402030000   jz 2870  (0x2571506b96)
0x2571506894  2100  4c8b50ff       REX.W movq r10,[rax-0x1]
0x2571506898  2104  41f6420b80     testb [r10+0xb],0x80
0x257150689d  2109  0f85f8020000   jnz 2875  (0x2571506b9b)
0x25715068a3  2115  8b5813         movl rbx,[rax+0x13]
0x25715068a6  2118  039d48ffffff   addl rbx,[rbp-0xb8]       ;; debug: position 1689
0x25715068ac  2124  0f80ee020000   jo 2880  (0x2571506ba0)
0x25715068b2  2130  8bd3           movl rdx,rbx
0x25715068b4  2132  48c1e220       REX.W shlq rdx, 32
0x25715068b8  2136  48b8b1f6ee97b5250000 REX.W movq rax,0x25b597eef6b1    ;; debug: position 1530
                                                             ;; object: 0x25b597eef6b1 PropertyCell for 1403360 (data, dictionary_index: 198, attrs: [WE_])
0x25715068c2  2146  4889500f       REX.W movq [rax+0xf],rdx    ;; debug: position 1689
0x25715068c6  2150  488b8558ffffff REX.W movq rax,[rbp-0xa8]
0x25715068cd  2157  8b501b         movl rdx,[rax+0x1b]
0x25715068d0  2160  488b8d60ffffff REX.W movq rcx,[rbp-0xa0]
0x25715068d7  2167  2bca           subl rcx,rdx              ;; debug: position 1720
0x25715068d9  2169  0f80c6020000   jo 2885  (0x2571506ba5)
0x25715068df  2175  8bd9           movl rbx,rcx              ;; debug: position 1446
0x25715068e1  2177  48c1e320       REX.W shlq rbx, 32
0x25715068e5  2181  488bcb         REX.W movq rcx,rbx        ;; debug: position 1720
0x25715068e8  2184  4c8b8570ffffff REX.W movq r8,[rbp-0x90]
0x25715068ef  2191  488b5598       REX.W movq rdx,[rbp-0x68]
0x25715068f3  2195  488b5d88       REX.W movq rbx,[rbp-0x78]
0x25715068f7  2199  f20f109540ffffff movsd xmm2,[rbp-0xc0]
0x25715068ff  2207  e949fbffff     jmp 1005  (0x257150644d)
0x2571506904  2212  488bc3         REX.W movq rax,rbx        ;; debug: position 231
0x2571506907  2215  4c8be1         REX.W movq r12,rcx
0x257150690a  2218  0f28ca         movaps xmm1,xmm2
0x257150690d  2221  e909000000     jmp 2235  (0x257150691b)
0x2571506912  2226  488bc3         REX.W movq rax,rbx
0x2571506915  2229  4c8be1         REX.W movq r12,rcx
0x2571506918  2232  0f28ca         movaps xmm1,xmm2
0x257150691b  2235  e852f8bfff     call 0x2571106172         ;; deoptimization bailout 37
0x2571506920  2240  48b88941e097b5250000 REX.W movq rax,0x25b597e04189    ;; debug: position 1720
                                                             ;; object: 0x25b597e04189 <undefined>
0x257150692a  2250  488be5         REX.W movq rsp,rbp
0x257150692d  2253  5d             pop rbp
0x257150692e  2254  c21800         ret 0x18
0x2571506931  2257  e846f8bfff     call 0x257110617c         ;; debug: position 1413
                                                             ;; deoptimization bailout 38
0x2571506936  2262  50             push rax
0x2571506937  2263  51             push rcx
0x2571506938  2264  52             push rdx
0x2571506939  2265  53             push rbx
0x257150693a  2266  56             push rsi
0x257150693b  2267  57             push rdi
0x257150693c  2268  4150           push r8
0x257150693e  2270  4151           push r9
0x2571506940  2272  4153           push r11
0x2571506942  2274  4154           push r12
0x2571506944  2276  4156           push r14
0x2571506946  2278  4157           push r15
0x2571506948  2280  488d6424e0     REX.W leaq rsp,[rsp-0x20]
0x257150694d  2285  488b75f8       REX.W movq rsi,[rbp-0x8]
0x2571506951  2289  33c0           xorl rax,rax
0x2571506953  2291  498d9d686b87fd REX.W leaq rbx,[r13-0x2789498]
0x257150695a  2298  e821f9efff     call 0x2571406280         ;; code: STUB, CEntryStub, minor: 1
0x257150695f  2303  488d642420     REX.W leaq rsp,[rsp+0x20]
0x2571506964  2308  415f           pop r15
0x2571506966  2310  415e           pop r14
0x2571506968  2312  415c           pop r12
0x257150696a  2314  415b           pop r11
0x257150696c  2316  4159           pop r9
0x257150696e  2318  4158           pop r8
0x2571506970  2320  5f             pop rdi
0x2571506971  2321  5e             pop rsi
0x2571506972  2322  5b             pop rbx
0x2571506973  2323  5a             pop rdx
0x2571506974  2324  59             pop rcx
0x2571506975  2325  58             pop rax
0x2571506976  2326  e901f9ffff     jmp 540  (0x257150627c)
0x257150697b  2331  50             push rax
0x257150697c  2332  51             push rcx
0x257150697d  2333  52             push rdx
0x257150697e  2334  53             push rbx
0x257150697f  2335  56             push rsi
0x2571506980  2336  57             push rdi
0x2571506981  2337  4150           push r8
0x2571506983  2339  4151           push r9
0x2571506985  2341  4153           push r11
0x2571506987  2343  4154           push r12
0x2571506989  2345  4156           push r14
0x257150698b  2347  4157           push r15
0x257150698d  2349  488d6424e0     REX.W leaq rsp,[rsp-0x20]
0x2571506992  2354  4157           push r15
0x2571506994  2356  51             push rcx
0x2571506995  2357  33f6           xorl rsi,rsi
0x2571506997  2359  b802000000     movl rax,0x2
0x257150699c  2364  498d9d483589fd REX.W leaq rbx,[r13-0x276cab8]
0x25715069a3  2371  e8d8f8efff     call 0x2571406280         ;; code: STUB, CEntryStub, minor: 1
0x25715069a8  2376  4889442420     REX.W movq [rsp+0x20],rax
0x25715069ad  2381  488d642420     REX.W leaq rsp,[rsp+0x20]
0x25715069b2  2386  415f           pop r15
0x25715069b4  2388  415e           pop r14
0x25715069b6  2390  415c           pop r12
0x25715069b8  2392  415b           pop r11
0x25715069ba  2394  4159           pop r9
0x25715069bc  2396  4158           pop r8
0x25715069be  2398  5f             pop rdi
0x25715069bf  2399  5e             pop rsi
0x25715069c0  2400  5b             pop rbx
0x25715069c1  2401  5a             pop rdx
0x25715069c2  2402  59             pop rcx
0x25715069c3  2403  58             pop rax
0x25715069c4  2404  e91ff9ffff     jmp 648  (0x25715062e8)
0x25715069c9  2409  48bb0000000000000000 REX.W movq rbx,0x0
0x25715069d3  2419  50             push rax
0x25715069d4  2420  51             push rcx
0x25715069d5  2421  52             push rdx
0x25715069d6  2422  53             push rbx
0x25715069d7  2423  56             push rsi
0x25715069d8  2424  57             push rdi
0x25715069d9  2425  4150           push r8
0x25715069db  2427  4151           push r9
0x25715069dd  2429  4153           push r11
0x25715069df  2431  4154           push r12
0x25715069e1  2433  4156           push r14
0x25715069e3  2435  4157           push r15
0x25715069e5  2437  488d6424e0     REX.W leaq rsp,[rsp-0x20]
0x25715069ea  2442  488b75f8       REX.W movq rsi,[rbp-0x8]
0x25715069ee  2446  33c0           xorl rax,rax
0x25715069f0  2448  498d9d982989fd REX.W leaq rbx,[r13-0x276d668]
0x25715069f7  2455  e884f8efff     call 0x2571406280         ;; code: STUB, CEntryStub, minor: 1
0x25715069fc  2460  4c8bd0         REX.W movq r10,rax
0x25715069ff  2463  488d642420     REX.W leaq rsp,[rsp+0x20]
0x2571506a04  2468  415f           pop r15
0x2571506a06  2470  415e           pop r14
0x2571506a08  2472  415c           pop r12
0x2571506a0a  2474  415b           pop r11
0x2571506a0c  2476  4159           pop r9
0x2571506a0e  2478  4158           pop r8
0x2571506a10  2480  5f             pop rdi
0x2571506a11  2481  5e             pop rsi
0x2571506a12  2482  5b             pop rbx
0x2571506a13  2483  5a             pop rdx
0x2571506a14  2484  59             pop rcx
0x2571506a15  2485  58             pop rax
0x2571506a16  2486  498bda         REX.W movq rbx,r10
0x2571506a19  2489  e987f9ffff     jmp 837  (0x25715063a5)
0x2571506a1e  2494  4d8b5508       REX.W movq r10,[r13+0x8]    ;; debug: position 1446
0x2571506a22  2498  4d3951ff       REX.W cmpq [r9-0x1],r10
0x2571506a26  2502  0f857e010000   jnz 2890  (0x2571506baa)
0x2571506a2c  2508  f2410f104107   movsd xmm0,[r9+0x7]
0x2571506a32  2514  f2440f2cc8     cvttsd2sil r9,xmm0
0x2571506a37  2519  0f57c9         xorps xmm1,xmm1
0x2571506a3a  2522  f2410f2ac9     cvtsi2sd xmm1,r9
0x2571506a3f  2527  660f2ec1       ucomisd xmm0,xmm1
0x2571506a43  2531  0f8561010000   jnz 2890  (0x2571506baa)
0x2571506a49  2537  0f8a5b010000   jpe 2890  (0x2571506baa)
0x2571506a4f  2543  e911faffff     jmp 1029  (0x2571506465)
0x2571506a54  2548  50             push rax                  ;; debug: position 1515
0x2571506a55  2549  51             push rcx
0x2571506a56  2550  52             push rdx
0x2571506a57  2551  53             push rbx
0x2571506a58  2552  56             push rsi
0x2571506a59  2553  57             push rdi
0x2571506a5a  2554  4150           push r8
0x2571506a5c  2556  4151           push r9
0x2571506a5e  2558  4153           push r11
0x2571506a60  2560  4154           push r12
0x2571506a62  2562  4156           push r14
0x2571506a64  2564  4157           push r15
0x2571506a66  2566  488d6424e0     REX.W leaq rsp,[rsp-0x20]
0x2571506a6b  2571  488b75f8       REX.W movq rsi,[rbp-0x8]
0x2571506a6f  2575  33c0           xorl rax,rax
0x2571506a71  2577  498d9d686b87fd REX.W leaq rbx,[r13-0x2789498]
0x2571506a78  2584  e803f8efff     call 0x2571406280         ;; code: STUB, CEntryStub, minor: 1
0x2571506a7d  2589  488d642420     REX.W leaq rsp,[rsp+0x20]
0x2571506a82  2594  415f           pop r15
0x2571506a84  2596  415e           pop r14
0x2571506a86  2598  415c           pop r12
0x2571506a88  2600  415b           pop r11
0x2571506a8a  2602  4159           pop r9
0x2571506a8c  2604  4158           pop r8
0x2571506a8e  2606  5f             pop rdi
0x2571506a8f  2607  5e             pop rsi
0x2571506a90  2608  5b             pop rbx
0x2571506a91  2609  5a             pop rdx
0x2571506a92  2610  59             pop rcx
0x2571506a93  2611  58             pop rax
0x2571506a94  2612  e989faffff     jmp 1218  (0x2571506522)
0x2571506a99  2617  50             push rax                  ;; debug: position 231
0x2571506a9a  2618  51             push rcx
0x2571506a9b  2619  52             push rdx
0x2571506a9c  2620  53             push rbx
0x2571506a9d  2621  56             push rsi
0x2571506a9e  2622  57             push rdi
0x2571506a9f  2623  4150           push r8
0x2571506aa1  2625  4151           push r9
0x2571506aa3  2627  4153           push r11
0x2571506aa5  2629  4154           push r12
0x2571506aa7  2631  4156           push r14
0x2571506aa9  2633  4157           push r15
0x2571506aab  2635  488d6424e0     REX.W leaq rsp,[rsp-0x20]
0x2571506ab0  2640  488b75f8       REX.W movq rsi,[rbp-0x8]
0x2571506ab4  2644  33c0           xorl rax,rax
0x2571506ab6  2646  498d9d686b87fd REX.W leaq rbx,[r13-0x2789498]
0x2571506abd  2653  e8bef7efff     call 0x2571406280         ;; code: STUB, CEntryStub, minor: 1
0x2571506ac2  2658  488d642420     REX.W leaq rsp,[rsp+0x20]
0x2571506ac7  2663  415f           pop r15
0x2571506ac9  2665  415e           pop r14
0x2571506acb  2667  415c           pop r12
0x2571506acd  2669  415b           pop r11
0x2571506acf  2671  4159           pop r9
0x2571506ad1  2673  4158           pop r8
0x2571506ad3  2675  5f             pop rdi
0x2571506ad4  2676  5e             pop rsi
0x2571506ad5  2677  5b             pop rbx
0x2571506ad6  2678  5a             pop rdx
0x2571506ad7  2679  59             pop rcx
0x2571506ad8  2680  58             pop rax
0x2571506ad9  2681  e94dfcffff     jmp 1739  (0x257150672b)
0x2571506ade  2686  50             push rax                  ;; debug: position 1602
0x2571506adf  2687  51             push rcx
0x2571506ae0  2688  52             push rdx
0x2571506ae1  2689  53             push rbx
0x2571506ae2  2690  56             push rsi
0x2571506ae3  2691  57             push rdi
0x2571506ae4  2692  4150           push r8
0x2571506ae6  2694  4151           push r9
0x2571506ae8  2696  4153           push r11
0x2571506aea  2698  4154           push r12
0x2571506aec  2700  4156           push r14
0x2571506aee  2702  4157           push r15
0x2571506af0  2704  488d6424e0     REX.W leaq rsp,[rsp-0x20]
0x2571506af5  2709  4154           push r12
0x2571506af7  2711  4153           push r11
0x2571506af9  2713  33f6           xorl rsi,rsi
0x2571506afb  2715  b802000000     movl rax,0x2
0x2571506b00  2720  498d9d483589fd REX.W leaq rbx,[r13-0x276cab8]
0x2571506b07  2727  e874f7efff     call 0x2571406280         ;; code: STUB, CEntryStub, minor: 1
0x2571506b0c  2732  4889442430     REX.W movq [rsp+0x30],rax
0x2571506b11  2737  488d642420     REX.W leaq rsp,[rsp+0x20]
0x2571506b16  2742  415f           pop r15
0x2571506b18  2744  415e           pop r14
0x2571506b1a  2746  415c           pop r12
0x2571506b1c  2748  415b           pop r11
0x2571506b1e  2750  4159           pop r9
0x2571506b20  2752  4158           pop r8
0x2571506b22  2754  5f             pop rdi
0x2571506b23  2755  5e             pop rsi
0x2571506b24  2756  5b             pop rbx
0x2571506b25  2757  5a             pop rdx
0x2571506b26  2758  59             pop rcx
0x2571506b27  2759  58             pop rax
0x2571506b28  2760  e93afcffff     jmp 1799  (0x2571506767)
0x2571506b2d  2765  e8e2f4bfff     call 0x2571106014         ;; deoptimization bailout 2
0x2571506b32  2770  e8f1f4bfff     call 0x2571106028         ;; deoptimization bailout 4
0x2571506b37  2775  e8f6f4bfff     call 0x2571106032         ;; deoptimization bailout 5
0x2571506b3c  2780  e8fbf4bfff     call 0x257110603c         ;; deoptimization bailout 6
0x2571506b41  2785  e80af5bfff     call 0x2571106050         ;; deoptimization bailout 8
0x2571506b46  2790  e819f5bfff     call 0x2571106064         ;; deoptimization bailout 10
0x2571506b4b  2795  e81ef5bfff     call 0x257110606e         ;; deoptimization bailout 11
0x2571506b50  2800  e837f5bfff     call 0x257110608c         ;; deoptimization bailout 14
0x2571506b55  2805  e83cf5bfff     call 0x2571106096         ;; deoptimization bailout 15
0x2571506b5a  2810  e84bf5bfff     call 0x25711060aa         ;; deoptimization bailout 17
0x2571506b5f  2815  e850f5bfff     call 0x25711060b4         ;; deoptimization bailout 18
0x2571506b64  2820  e85ff5bfff     call 0x25711060c8         ;; deoptimization bailout 20
0x2571506b69  2825  e864f5bfff     call 0x25711060d2         ;; deoptimization bailout 21
0x2571506b6e  2830  e869f5bfff     call 0x25711060dc         ;; deoptimization bailout 22
0x2571506b73  2835  e86ef5bfff     call 0x25711060e6         ;; deoptimization bailout 23
0x2571506b78  2840  e87df5bfff     call 0x25711060fa         ;; deoptimization bailout 25
0x2571506b7d  2845  e882f5bfff     call 0x2571106104         ;; deoptimization bailout 26
0x2571506b82  2850  e887f5bfff     call 0x257110610e         ;; deoptimization bailout 27
0x2571506b87  2855  e896f5bfff     call 0x2571106122         ;; deoptimization bailout 29
0x2571506b8c  2860  e89bf5bfff     call 0x257110612c         ;; deoptimization bailout 30
0x2571506b91  2865  e8a0f5bfff     call 0x2571106136         ;; deoptimization bailout 31
0x2571506b96  2870  e8aff5bfff     call 0x257110614a         ;; deoptimization bailout 33
0x2571506b9b  2875  e8b4f5bfff     call 0x2571106154         ;; deoptimization bailout 34
0x2571506ba0  2880  e8b9f5bfff     call 0x257110615e         ;; deoptimization bailout 35
0x2571506ba5  2885  e8bef5bfff     call 0x2571106168         ;; deoptimization bailout 36
0x2571506baa  2890  e8d7f5bfff     call 0x2571106186         ;; deoptimization bailout 39
0x2571506baf  2895  90             nop

Inlined functions (count = 2)
 0x25b597eeed01 <SharedFunctionInfo makeCumulative>
 0x25b597eeec51 <SharedFunctionInfo rand>

Deoptimization Input Data (deopt points = 40)
 index  ast id    argc     pc
     0       3       0     38
     1      26       0    103
     2       2       0     -1
     3      27       0    339
     4      27       0     -1
     5      27       0     -1
     6      23       0     -1
     7      26       0    540
     8      26       0     -1
     9      98       0    673
    10      98       0     -1
    11      98       0     -1
    12      63       0    868
    13      48       0     -1
    14      49       0     -1
    15      49       0     -1
    16      87       0   1134
    17      96       0     -1
    18      96       0     -1
    19     100       0   1218
    20       2       0     -1
    21       2       0     -1
    22       2       0     -1
    23     151       0     -1
    24     166       0   1573
    25     166       0     -1
    26     166       0     -1
    27     162       0     -1
    28     165       0   1739
    29     205       0     -1
    30     197       0     -1
    31     197       0     -1
    32     276       0   2092
    33     276       0     -1
    34     276       0     -1
    35     276       0     -1
    36     235       0     -1
    37     151       0     -1
    38       2       0     -1
    39      46       0     -1

Safepoints (size = 190)
0x2571506086    38  00000000000000000100000 (sp -> fp)       0
0x25715060c0    96  00000000000000000100000 (sp -> fp)       1
0x25715061a1   321  00000000000000001100000 (sp -> fp)       3
0x2571506301   673  00000000011100111100000 (sp -> fp)       9
0x25715063c4   868  00000000010100111100000 (sp -> fp)      12
0x25715064ce  1134  00000011001010000000000 (sp -> fp)      16
0x2571506677  1559  00001011001010000000000 (sp -> fp)      24
0x257150688c  2092  00001011001010000000000 (sp -> fp)      32
0x257150695f  2303  00000000010100111100000 | rax | rdx | rbx | r8 | r12 | r14 (sp -> fp)       7
0x25715069a8  2376  00000000010100111100000 | rax | rdx | rbx | r8 | r12 | r14 | r15 (sp -> fp)  <none> argc: 2
0x25715069fc  2460  00000000010100111100000 | rbx (sp -> fp)  <none>
0x2571506a7d  2589  00001011001010000000000 | rbx | rdi (sp -> fp)      19
0x2571506ac2  2658  00001011001010000000000 | rax | rcx | rbx | r8 | r9 (sp -> fp)      28
0x2571506b0c  2732  00001011001010000000000 | rax | rcx | rbx | r8 | r9 | r12 (sp -> fp)  <none> argc: 2

RelocInfo (size = 298)
0x2571506082  code target (BUILTIN)  (0x2571436820)
0x2571506086  position  (1396)
0x2571506088  embedded object  (0x25b597ecb5e9 <JS Function Array (SharedFunctionInfo 0x25b597ea4209)>)
0x25715060a0  embedded object  (0x25b597ecb5e9 <JS Function Array (SharedFunctionInfo 0x25b597ea4209)>)
0x25715060b3  embedded object  (0x25b597ef34a9 <AllocationSite>)
0x25715060bc  code target (js construct call) (STUB)  (0x257140d1e0)
0x25715060c7  position  (1413)
0x25715060cd  embedded object  (0x25b597e04189 <undefined>)
0x25715060e0  embedded object  (0x25b597e04101 <null>)
0x25715060f3  embedded object  (0x25b597ec5521 <FixedArray[196]>)
0x257150619d  code target (STUB)  (0x2571409c20)
0x2571506243  embedded object  (0x25b597e04101 <null>)
0x25715062ab  runtime entry  (deoptimization bailout 8)
0x25715062ee  embedded object  (0x25b597ec5521 <FixedArray[196]>)
0x25715062fd  code target (KEYED_LOAD_IC)  (0x257141a6c0)
0x25715063ac  embedded object  (0x25b597ec5521 <FixedArray[196]>)
0x25715063c0  code target (KEYED_STORE_IC)  (0x2571434660)
0x2571506436  position  (231)
0x257150644d  position  (1446)
0x2571506476  position  (1461)
0x2571506480  embedded object  (0x16f91c30acf1 <Map(FAST_HOLEY_ELEMENTS)>)
0x257150649e  position  (1482)
0x25715064a8  embedded object  (0x25b597ecb5e9 <JS Function Array (SharedFunctionInfo 0x25b597ea4209)>)
0x25715064b5  embedded object  (0x25b597ecb5e9 <JS Function Array (SharedFunctionInfo 0x25b597ea4209)>)
0x25715064ca  code target (js construct call) (STUB)  (0x2571429d80)
0x25715064d8  position  (1515)
0x25715064e1  position  (1482)
0x25715064ef  position  (1515)
0x25715064f8  embedded object  (0x16f91c30acf1 <Map(FAST_HOLEY_ELEMENTS)>)
0x2571506522  position  (1550)
0x2571506524  embedded object  (0x25b597eef2d1 PropertyCell for 81354 (data, dictionary_index: 165, attrs: [WE_]))
0x257150652f  position  (197)
0x257150653e  position  (201)
0x257150654a  position  (206)
0x2571506576  position  (1550)
0x2571506578  embedded object  (0x25b597eef2d1 PropertyCell for 81354 (data, dictionary_index: 165, attrs: [WE_]))
0x2571506580  position  (206)
0x2571506584  position  (1550)
0x2571506586  embedded object  (0x25b597eef2d1 PropertyCell for 81354 (data, dictionary_index: 165, attrs: [WE_]))
0x257150658e  position  (206)
0x2571506591  position  (231)
0x25715065a9  embedded object  (0x25b597e04189 <undefined>)
0x25715065bc  embedded object  (0x25b597e04101 <null>)
0x2571506673  code target (STUB)  (0x2571409c20)
0x257150672b  position  (1602)
0x25715067c5  embedded object  (0x16f91c304209 <Map(FAST_SMI_ELEMENTS)>)
0x2571506822  code target (STUB)  (0x2571442e00)
0x2571506839  position  (1530)
0x2571506854  position  (1515)
0x257150685a  position  (1530)
0x257150685c  embedded object  (0x25b597eef6b1 PropertyCell for 1403360 (data, dictionary_index: 198, attrs: [WE_]))
0x257150686e  position  (1696)
0x2571506871  embedded object  (0x25b597e042e1 <String[0]: >)
0x257150687d  embedded object  (0x25b597ecbc81 <JS Function join (SharedFunctionInfo 0x25b597e5b5c1)>)
0x25715068a6  position  (1689)
0x25715068b8  position  (1530)
0x25715068ba  embedded object  (0x25b597eef6b1 PropertyCell for 1403360 (data, dictionary_index: 198, attrs: [WE_]))
0x25715068c2  position  (1689)
0x25715068d7  position  (1720)
0x25715068df  position  (1446)
0x25715068e5  position  (1720)
0x2571506904  position  (231)
0x257150691c  runtime entry  (deoptimization bailout 37)
0x2571506920  position  (1720)
0x2571506922  embedded object  (0x25b597e04189 <undefined>)
0x2571506931  position  (1413)
0x2571506932  runtime entry  (deoptimization bailout 38)
0x257150695b  code target (STUB)  (0x2571406280)
0x25715069a4  code target (STUB)  (0x2571406280)
0x25715069f8  code target (STUB)  (0x2571406280)
0x2571506a1e  position  (1446)
0x2571506a54  position  (1515)
0x2571506a79  code target (STUB)  (0x2571406280)
0x2571506a99  position  (231)
0x2571506abe  code target (STUB)  (0x2571406280)
0x2571506ade  position  (1602)
0x2571506b08  code target (STUB)  (0x2571406280)
0x2571506b2e  runtime entry  (deoptimization bailout 2)
0x2571506b33  runtime entry  (deoptimization bailout 4)
0x2571506b38  runtime entry  (deoptimization bailout 5)
0x2571506b3d  runtime entry  (deoptimization bailout 6)
0x2571506b42  runtime entry  (deoptimization bailout 8)
0x2571506b47  runtime entry  (deoptimization bailout 10)
0x2571506b4c  runtime entry  (deoptimization bailout 11)
0x2571506b51  runtime entry  (deoptimization bailout 14)
0x2571506b56  runtime entry  (deoptimization bailout 15)
0x2571506b5b  runtime entry  (deoptimization bailout 17)
0x2571506b60  runtime entry  (deoptimization bailout 18)
0x2571506b65  runtime entry  (deoptimization bailout 20)
0x2571506b6a  runtime entry  (deoptimization bailout 21)
0x2571506b6f  runtime entry  (deoptimization bailout 22)
0x2571506b74  runtime entry  (deoptimization bailout 23)
0x2571506b79  runtime entry  (deoptimization bailout 25)
0x2571506b7e  runtime entry  (deoptimization bailout 26)
0x2571506b83  runtime entry  (deoptimization bailout 27)
0x2571506b88  runtime entry  (deoptimization bailout 29)
0x2571506b8d  runtime entry  (deoptimization bailout 30)
0x2571506b92  runtime entry  (deoptimization bailout 31)
0x2571506b97  runtime entry  (deoptimization bailout 33)
0x2571506b9c  runtime entry  (deoptimization bailout 34)
0x2571506ba1  runtime entry  (deoptimization bailout 35)
0x2571506ba6  runtime entry  (deoptimization bailout 36)
0x2571506bab  runtime entry  (deoptimization bailout 39)

--- End code ---
--- Raw source ---
(K){
if((%IS_VAR(this)===null)||(this===(void 0)))throw MakeTypeError(15,"Array.prototype.join");
var x=(%_ToObject(this));
var D=(x.length>>>0);
return InnerArrayJoin(K,x,D);
}


--- Code ---
source_position = 5726
kind = FUNCTION
name = join
compiler = full-codegen
Instructions (size = 388)
0x2571506ce0     0  55             push rbp                  ;; debug: position 5726
0x2571506ce1     1  4889e5         REX.W movq rbp,rsp
0x2571506ce4     4  56             push rsi
0x2571506ce5     5  57             push rdi
0x2571506ce6     6  498b55a8       REX.W movq rdx,[r13-0x58]
0x2571506cea    10  52             push rdx
0x2571506ceb    11  52             push rdx
0x2571506cec    12  493ba540090000 REX.W cmpq rsp,[r13+0x940]
0x2571506cf3    19  7305           jnc 26  (0x2571506cfa)
0x2571506cf5    21  e826fbf2ff     call StackCheck  (0x2571436820)    ;; code: BUILTIN
0x2571506cfa    26  488b4518       REX.W movq rax,[rbp+0x18]    ;; debug: statement 5731
                                                             ;; debug: position 5743
0x2571506cfe    30  eb0f           jmp 47  (0x2571506d0f)
0x2571506d00    32  493b45c0       REX.W cmpq rax,[r13-0x40]
0x2571506d04    36  0f842e000000   jz 88  (0x2571506d38)
0x2571506d0a    42  e90a000000     jmp 57  (0x2571506d19)
0x2571506d0f    47  493b45b8       REX.W cmpq rax,[r13-0x48]
0x2571506d13    51  0f841f000000   jz 88  (0x2571506d38)
0x2571506d19    57  488b4518       REX.W movq rax,[rbp+0x18]    ;; debug: position 5759
0x2571506d1d    61  eb0f           jmp 78  (0x2571506d2e)
0x2571506d1f    63  493b45c0       REX.W cmpq rax,[r13-0x40]
0x2571506d23    67  0f840f000000   jz 88  (0x2571506d38)
0x2571506d29    73  e97c000000     jmp 202  (0x2571506daa)
0x2571506d2e    78  493b45a8       REX.W cmpq rax,[r13-0x58]
0x2571506d32    82  0f8572000000   jnz 202  (0x2571506daa)
0x2571506d38    88  48b9e956e897b5250000 REX.W movq rcx,0x25b597e856e9    ;; debug: statement 5776
                                                             ;; debug: position 5782
                                                             ;; object: 0x25b597e856e9 <String[13]: MakeTypeError>
0x2571506d42    98  488b5627       REX.W movq rdx,[rsi+0x27]
0x2571506d46   102  48b80000000006000000 REX.W movq rax,0x600000000
0x2571506d50   112  e8ab95f1ff     call 0x2571420300         ;; code: contextual, LOAD_IC, DEFAULT
0x2571506d55   117  50             push rax
0x2571506d56   118  49ba8941e097b5250000 REX.W movq r10,0x25b597e04189    ;; object: 0x25b597e04189 <undefined>
0x2571506d60   128  4152           push r10
0x2571506d62   130  49ba000000000f000000 REX.W movq r10,0xf00000000
0x2571506d6c   140  4152           push r10
0x2571506d6e   142  49ba0946ef97b5250000 REX.W movq r10,0x25b597ef4609    ;; object: 0x25b597ef4609 <String[20]: Array.prototype.join>
0x2571506d78   152  4152           push r10
0x2571506d7a   154  48ba0000000004000000 REX.W movq rdx,0x400000000
0x2571506d84   164  488b7c2418     REX.W movq rdi,[rsp+0x18]
0x2571506d89   169  e832b4f0ff     call 0x25714121c0         ;; code: CALL_IC, DEFAULT
0x2571506d8e   174  488b75f8       REX.W movq rsi,[rbp-0x8]
0x2571506d92   178  48890424       REX.W movq [rsp],rax
0x2571506d96   182  b801000000     movl rax,0x1              ;; debug: position 5776
0x2571506d9b   187  48bb7098870001000000 REX.W movq rbx,0x100879870
0x2571506da5   197  e8762ef0ff     call 0x2571409c20         ;; code: STUB, CEntryStub, minor: 0
0x2571506daa   202  488b4518       REX.W movq rax,[rbp+0x18]    ;; debug: statement 5824
                                                             ;; debug: position 5842
0x2571506dae   206  e88dd4f0ff     call 0x2571414240         ;; code: STUB, ToObjectStub, minor: 0
0x2571506db3   211  488945e8       REX.W movq [rbp-0x18],rax    ;; debug: position 5824
0x2571506db7   215  488b45e8       REX.W movq rax,[rbp-0x18]    ;; debug: statement 5850
                                                             ;; debug: position 5857
0x2571506dbb   219  488bd0         REX.W movq rdx,rax
0x2571506dbe   222  48b9712ee997b5250000 REX.W movq rcx,0x25b597e92e71    ;; debug: position 5858
                                                             ;; object: 0x25b597e92e71 <String[6]: length>
0x2571506dc8   232  48b80000000008000000 REX.W movq rax,0x800000000
0x2571506dd2   242  e8e962f1ff     call 0x257141d0c0         ;; code: contextual, LOAD_IC, DEFAULT
0x2571506dd7   247  50             push rax
0x2571506dd8   248  48b80000000000000000 REX.W movq rax,0x0
0x2571506de2   258  5a             pop rdx                   ;; debug: position 5865
0x2571506de3   259  e85866f0ff     call 0x257140d440         ;; code: BINARY_OP_IC, UNINITIALIZED (id = 84)
0x2571506de8   264  90             nop
0x2571506de9   265  488945e0       REX.W movq [rbp-0x20],rax    ;; debug: position 5850
0x2571506ded   269  488bc6         REX.W movq rax,rsi        ;; debug: statement 5872
                                                             ;; debug: position 5879
0x2571506df0   272  ffb0ef000000   push [rax+0xef]
0x2571506df6   278  41ff75a8       push [r13-0x58]
0x2571506dfa   282  ff7510         push [rbp+0x10]           ;; debug: position 5894
0x2571506dfd   285  ff75e8         push [rbp-0x18]           ;; debug: position 5896
0x2571506e00   288  ff75e0         push [rbp-0x20]           ;; debug: position 5898
0x2571506e03   291  48ba000000000a000000 REX.W movq rdx,0xa00000000    ;; debug: position 5879
0x2571506e0d   301  488b7c2420     REX.W movq rdi,[rsp+0x20]
0x2571506e12   306  e80958f1ff     call 0x257141c620         ;; code: CALL_IC, DEFAULT
0x2571506e17   311  488b75f8       REX.W movq rsi,[rbp-0x8]
0x2571506e1b   315  4883c408       REX.W addq rsp,0x8
0x2571506e1f   319  48bbc171ef97b5250000 REX.W movq rbx,0x25b597ef71c1    ;; object: 0x25b597ef71c1 Cell for 6144
0x2571506e29   329  83430bd1       addl [rbx+0xb],0xd1
0x2571506e2d   333  791f           jns 366  (0x2571506e4e)
0x2571506e2f   335  50             push rax
0x2571506e30   336  e8abf8f2ff     call InterruptCheck  (0x25714366e0)    ;; code: BUILTIN
0x2571506e35   341  58             pop rax
0x2571506e36   342  48bbc171ef97b5250000 REX.W movq rbx,0x25b597ef71c1    ;; object: 0x25b597ef71c1 Cell for 6144
0x2571506e40   352  49ba0000000000180000 REX.W movq r10,0x180000000000
0x2571506e4a   362  4c895307       REX.W movq [rbx+0x7],r10
0x2571506e4e   366  c9             leave                     ;; debug: statement 5902
0x2571506e4f   367  c21000         ret 0x10
0x2571506e52   370  498b45a8       REX.W movq rax,[r13-0x58]
0x2571506e56   374  e9c4ffffff     jmp 319  (0x2571506e1f)
0x2571506e5b   379  0f1f440000     nop

Deoptimization Output Data (deopt points = 46)
ast id        pc  state
     2        12  NO_REGISTERS
     3        12  NO_REGISTERS
    22        26  NO_REGISTERS
    20        30  TOS_REG
    17        32  TOS_REG
    15        57  NO_REGISTERS
    31        57  NO_REGISTERS
    29        61  TOS_REG
    26        63  TOS_REG
    11        88  NO_REGISTERS
    48        88  NO_REGISTERS
    46       118  NO_REGISTERS
    49       142  NO_REGISTERS
    52       154  NO_REGISTERS
    43       174  TOS_REG
    41       182  NO_REGISTERS
    39       202  NO_REGISTERS
    12       202  NO_REGISTERS
    10       202  NO_REGISTERS
    55       202  NO_REGISTERS
    70       202  NO_REGISTERS
    68       206  TOS_REG
    65       211  TOS_REG
    60       215  TOS_REG
    58       215  NO_REGISTERS
    56       215  NO_REGISTERS
    71       215  NO_REGISTERS
    93       215  NO_REGISTERS
    91       219  TOS_REG
    87       247  TOS_REG
    85       248  NO_REGISTERS
    94       258  TOS_REG
    81       265  TOS_REG
    76       269  TOS_REG
    74       269  NO_REGISTERS
    72       269  NO_REGISTERS
   104       269  NO_REGISTERS
   102       278  NO_REGISTERS
   107       282  NO_REGISTERS
   105       285  NO_REGISTERS
   110       285  NO_REGISTERS
   108       288  NO_REGISTERS
   113       288  NO_REGISTERS
   111       291  NO_REGISTERS
    99       311  TOS_REG
    97       319  TOS_REG

Back edges (size = 0)
ast_id  pc_offset  loop_depth

0x25b597ef7519: [TypeFeedbackInfo]
 - ic_total_count: 5, ic_with_type_info_count: 0, ic_generic_count: 0

RelocInfo (size = 72)
0x2571506ce0  position  (5726)
0x2571506cf6  code target (BUILTIN)  (0x2571436820)
0x2571506cfa  statement position  (5731)
0x2571506cfa  position  (5743)
0x2571506d19  position  (5759)
0x2571506d38  statement position  (5776)
0x2571506d38  position  (5782)
0x2571506d3a  embedded object  (0x25b597e856e9 <String[13]: MakeTypeError>)
0x2571506d51  code target (LOAD_IC)  (0x2571420300)
0x2571506d58  embedded object  (0x25b597e04189 <undefined>)
0x2571506d70  embedded object  (0x25b597ef4609 <String[20]: Array.prototype.join>)
0x2571506d8a  code target (CALL_IC)  (0x25714121c0)
0x2571506d96  position  (5776)
0x2571506da6  code target (STUB)  (0x2571409c20)
0x2571506daa  statement position  (5824)
0x2571506daa  position  (5842)
0x2571506daf  code target (STUB)  (0x2571414240)
0x2571506db3  position  (5824)
0x2571506db7  statement position  (5850)
0x2571506db7  position  (5857)
0x2571506dbe  position  (5858)
0x2571506dc0  embedded object  (0x25b597e92e71 <String[6]: length>)
0x2571506dd3  code target (LOAD_IC)  (0x257141d0c0)
0x2571506de2  position  (5865)
0x2571506de4  code target with id (BINARY_OP_IC)  (0x257140d440) (id=84)
0x2571506de9  position  (5850)
0x2571506ded  statement position  (5872)
0x2571506ded  position  (5879)
0x2571506dfa  position  (5894)
0x2571506dfd  position  (5896)
0x2571506e00  position  (5898)
0x2571506e03  position  (5879)
0x2571506e13  code target (CALL_IC)  (0x257141c620)
0x2571506e21  embedded object  (0x25b597ef71c1 Cell for 6144)
0x2571506e31  code target (BUILTIN)  (0x25714366e0)
0x2571506e38  embedded object  (0x25b597ef71c1 Cell for 6144)
0x2571506e4e  statement position  (5902)

--- End code ---
--- Raw source ---
(K){
if((%IS_VAR(this)===null)||(this===(void 0)))throw MakeTypeError(15,"Array.prototype.join");
var x=(%_ToObject(this));
var D=(x.length>>>0);
return InnerArrayJoin(K,x,D);
}


--- Optimized code ---
optimization_id = 4
source_position = 5726
kind = OPTIMIZED_FUNCTION
name = join
stack_slots = 1
compiler = crankshaft
Instructions (size = 798)
0x2571506ee0     0  55             push rbp
0x2571506ee1     1  4889e5         REX.W movq rbp,rsp
0x2571506ee4     4  56             push rsi
0x2571506ee5     5  57             push rdi
0x2571506ee6     6  4883ec08       REX.W subq rsp,0x8
0x2571506eea    10  488b45f8       REX.W movq rax,[rbp-0x8]
0x2571506eee    14  488945e8       REX.W movq [rbp-0x18],rax
0x2571506ef2    18  488bf0         REX.W movq rsi,rax
0x2571506ef5    21  493ba540090000 REX.W cmpq rsp,[r13+0x940]
0x2571506efc    28  7305           jnc 35  (0x2571506f03)
0x2571506efe    30  e81df9f2ff     call StackCheck  (0x2571436820)    ;; code: BUILTIN
0x2571506f03    35  488b4518       REX.W movq rax,[rbp+0x18]    ;; debug: position 5748
0x2571506f07    39  49ba0141e097b5250000 REX.W movq r10,0x25b597e04101    ;; object: 0x25b597e04101 <null>
0x2571506f11    49  493bc2         REX.W cmpq rax,r10
0x2571506f14    52  0f8421010000   jz 347  (0x257150703b)
0x2571506f1a    58  49ba8941e097b5250000 REX.W movq r10,0x25b597e04189    ;; debug: position 5763
                                                             ;; object: 0x25b597e04189 <undefined>
0x2571506f24    68  493bc2         REX.W cmpq rax,r10
0x2571506f27    71  0f840e010000   jz 347  (0x257150703b)
0x2571506f2d    77  a801           test al,0x1               ;; debug: position 5776
0x2571506f2f    79  0f8432000000   jz 135  (0x2571506f67)
0x2571506f35    85  488b58ff       REX.W movq rbx,[rax-0x1]
0x2571506f39    89  0fb6530b       movzxbl rdx,[rbx+0xb]
0x2571506f3d    93  81fab2000000   cmpl rdx,0xb2
0x2571506f43    99  0f8c0c000000   jl 117  (0x2571506f55)
0x2571506f49   105  488bd8         REX.W movq rbx,rax
0x2571506f4c   108  488b55e8       REX.W movq rdx,[rbp-0x18]
0x2571506f50   112  e971000000     jmp 230  (0x2571506fc6)
0x2571506f55   117  0fb65b08       movzxbl rbx,[rbx+0x8]
0x2571506f59   121  83fb00         cmpl rbx,0x0
0x2571506f5c   124  0f850a000000   jnz 140  (0x2571506f6c)
0x2571506f62   130  e8a3f0bfff     call 0x257110600a         ;; deoptimization bailout 1
0x2571506f67   135  bb31000000     movl rbx,0x31
0x2571506f6c   140  488b55e8       REX.W movq rdx,[rbp-0x18]
0x2571506f70   144  488b4a27       REX.W movq rcx,[rdx+0x27]
0x2571506f74   148  488b491f       REX.W movq rcx,[rcx+0x1f]
0x2571506f78   152  488b5cd90f     REX.W movq rbx,[rcx+rbx*8+0xf]
0x2571506f7d   157  488b5b1f       REX.W movq rbx,[rbx+0x1f]
0x2571506f81   161  498bb5400c0000 REX.W movq rsi,[r13+0xc40]
0x2571506f88   168  488bce         REX.W movq rcx,rsi
0x2571506f8b   171  4883c120       REX.W addq rcx,0x20
0x2571506f8f   175  0f821f010000   jc 468  (0x25715070b4)
0x2571506f95   181  493b8d480c0000 REX.W cmpq rcx,[r13+0xc48]
0x2571506f9c   188  0f8712010000   ja 468  (0x25715070b4)
0x2571506fa2   194  49898d400c0000 REX.W movq [r13+0xc40],rcx
0x2571506fa9   201  48ffc6         REX.W incq rsi
0x2571506fac   204  48895eff       REX.W movq [rsi-0x1],rbx
0x2571506fb0   208  498b9db8000000 REX.W movq rbx,[r13+0xb8]
0x2571506fb7   215  48895e07       REX.W movq [rsi+0x7],rbx
0x2571506fbb   219  48895e0f       REX.W movq [rsi+0xf],rbx
0x2571506fbf   223  48894617       REX.W movq [rsi+0x17],rax
0x2571506fc3   227  488bde         REX.W movq rbx,rsi
0x2571506fc6   230  f6c301         testb rbx,0x1
0x2571506fc9   233  0f84d4010000   jz 707  (0x25715071a3)
0x2571506fcf   239  49baf1ac301cf9160000 REX.W movq r10,0x16f91c30acf1    ;; object: 0x16f91c30acf1 <Map(FAST_HOLEY_ELEMENTS)>
0x2571506fd9   249  4c3953ff       REX.W cmpq [rbx-0x1],r10
0x2571506fdd   253  0f85c5010000   jnz 712  (0x25715071a8)
0x2571506fe3   259  8b4b1b         movl rcx,[rbx+0x1b]
0x2571506fe6   262  488bb2ef000000 REX.W movq rsi,[rdx+0xef]    ;; debug: position 5879
0x2571506fed   269  49ba39bcec97b5250000 REX.W movq r10,0x25b597ecbc39    ;; object: 0x25b597ecbc39 <JS Function InnerArrayJoin (SharedFunctionInfo 0x25b597e5b4e9)>
0x2571506ff7   279  493bf2         REX.W cmpq rsi,r10
0x2571506ffa   282  0f85ad010000   jnz 717  (0x25715071ad)
0x2571507000   288  81f9ffffff7f   cmpl rcx,0x7fffffff
0x2571507006   294  0f870c010000   ja 568  (0x2571507118)
0x257150700c   300  48c1e120       REX.W shlq rcx, 32
0x2571507010   304  49ba8941e097b5250000 REX.W movq r10,0x25b597e04189    ;; object: 0x25b597e04189 <undefined>
0x257150701a   314  4152           push r10
0x257150701c   316  488b7510       REX.W movq rsi,[rbp+0x10]
0x2571507020   320  56             push rsi
0x2571507021   321  53             push rbx
0x2571507022   322  51             push rcx
0x2571507023   323  48bf39bcec97b5250000 REX.W movq rdi,0x25b597ecbc39    ;; object: 0x25b597ecbc39 <JS Function InnerArrayJoin (SharedFunctionInfo 0x25b597e5b4e9)>
0x257150702d   333  488b772f       REX.W movq rsi,[rdi+0x2f]
0x2571507031   337  ff5717         call [rdi+0x17]
0x2571507034   340  488be5         REX.W movq rsp,rbp
0x2571507037   343  5d             pop rbp
0x2571507038   344  c21000         ret 0x10
0x257150703b   347  49baa075ef97b5250000 REX.W movq r10,0x25b597ef75a0    ;; debug: position 5782
                                                             ;; property cell
0x2571507045   357  4d8b12         REX.W movq r10,[r10]
0x2571507048   360  4152           push r10
0x257150704a   362  49ba000000000f000000 REX.W movq r10,0xf00000000
0x2571507054   372  4152           push r10
0x2571507056   374  49ba0946ef97b5250000 REX.W movq r10,0x25b597ef4609    ;; object: 0x25b597ef4609 <String[20]: Array.prototype.join>
0x2571507060   384  4152           push r10
0x2571507062   386  48bf8920ed97b5250000 REX.W movq rdi,0x25b597ed2089    ;; object: 0x25b597ed2089 <JS Function MakeTypeError (SharedFunctionInfo 0x25b597e85651)>
0x257150706c   396  488b772f       REX.W movq rsi,[rdi+0x2f]
0x2571507070   400  48bf8920ed97b5250000 REX.W movq rdi,0x25b597ed2089    ;; object: 0x25b597ed2089 <JS Function MakeTypeError (SharedFunctionInfo 0x25b597e85651)>
0x257150707a   410  b802000000     movl rax,0x2
0x257150707f   415  bb04000000     movl rbx,0x4
0x2571507084   420  e8f729f0ff     call ArgumentsAdaptorTrampoline  (0x2571409a80)    ;; code: BUILTIN
0x2571507089   425  50             push rax                  ;; debug: position 5776
0x257150708a   426  488b75e8       REX.W movq rsi,[rbp-0x18]
0x257150708e   430  0f1f840000000000 nop
0x2571507096   438  b801000000     movl rax,0x1
0x257150709b   443  498d9db85587fd REX.W leaq rbx,[r13-0x278aa48]
0x25715070a2   450  e8792bf0ff     call 0x2571409c20         ;; code: STUB, CEntryStub, minor: 0
0x25715070a7   455  6666660f1f840000000000 nop
0x25715070b2   466  6690           nop
0x25715070b4   468  48be0000000000000000 REX.W movq rsi,0x0
0x25715070be   478  50             push rax
0x25715070bf   479  51             push rcx
0x25715070c0   480  52             push rdx
0x25715070c1   481  53             push rbx
0x25715070c2   482  56             push rsi
0x25715070c3   483  57             push rdi
0x25715070c4   484  4150           push r8
0x25715070c6   486  4151           push r9
0x25715070c8   488  4153           push r11
0x25715070ca   490  4154           push r12
0x25715070cc   492  4156           push r14
0x25715070ce   494  4157           push r15
0x25715070d0   496  488d6424e0     REX.W leaq rsp,[rsp-0x20]
0x25715070d5   501  49ba0000000020000000 REX.W movq r10,0x2000000000
0x25715070df   511  4152           push r10
0x25715070e1   513  6a00           push 0x0
0x25715070e3   515  488bf2         REX.W movq rsi,rdx
0x25715070e6   518  b802000000     movl rax,0x2
0x25715070eb   523  498d9df86f87fd REX.W leaq rbx,[r13-0x2789008]
0x25715070f2   530  e889f1efff     call 0x2571406280         ;; code: STUB, CEntryStub, minor: 1
0x25715070f7   535  4889442458     REX.W movq [rsp+0x58],rax
0x25715070fc   540  488d642420     REX.W leaq rsp,[rsp+0x20]
0x2571507101   545  415f           pop r15
0x2571507103   547  415e           pop r14
0x2571507105   549  415c           pop r12
0x2571507107   551  415b           pop r11
0x2571507109   553  4159           pop r9
0x257150710b   555  4158           pop r8
0x257150710d   557  5f             pop rdi
0x257150710e   558  5e             pop rsi
0x257150710f   559  5b             pop rbx
0x2571507110   560  5a             pop rdx
0x2571507111   561  59             pop rcx
0x2571507112   562  58             pop rax
0x2571507113   563  e994feffff     jmp 204  (0x2571506fac)
0x2571507118   568  f2480f2ac9     REX.W cvtsi2sd xmm1,rcx    ;; debug: position 5879
0x257150711d   573  498b8d400c0000 REX.W movq rcx,[r13+0xc40]
0x2571507124   580  488bf1         REX.W movq rsi,rcx
0x2571507127   583  4883c610       REX.W addq rsi,0x10
0x257150712b   587  0f8221000000   jc 626  (0x2571507152)
0x2571507131   593  493bb5480c0000 REX.W cmpq rsi,[r13+0xc48]
0x2571507138   600  0f8714000000   ja 626  (0x2571507152)
0x257150713e   606  4989b5400c0000 REX.W movq [r13+0xc40],rsi
0x2571507145   613  48ffc1         REX.W incq rcx
0x2571507148   616  4d8b5508       REX.W movq r10,[r13+0x8]
0x257150714c   620  4c8951ff       REX.W movq [rcx-0x1],r10
0x2571507150   624  eb47           jmp 697  (0x2571507199)
0x2571507152   626  33c9           xorl rcx,rcx
0x2571507154   628  50             push rax
0x2571507155   629  51             push rcx
0x2571507156   630  52             push rdx
0x2571507157   631  53             push rbx
0x2571507158   632  56             push rsi
0x2571507159   633  57             push rdi
0x257150715a   634  4150           push r8
0x257150715c   636  4151           push r9
0x257150715e   638  4153           push r11
0x2571507160   640  4154           push r12
0x2571507162   642  4156           push r14
0x2571507164   644  4157           push r15
0x2571507166   646  488d6424e0     REX.W leaq rsp,[rsp-0x20]
0x257150716b   651  488b75f8       REX.W movq rsi,[rbp-0x8]
0x257150716f   655  33c0           xorl rax,rax
0x2571507171   657  498d9d982989fd REX.W leaq rbx,[r13-0x276d668]
0x2571507178   664  e803f1efff     call 0x2571406280         ;; code: STUB, CEntryStub, minor: 1
0x257150717d   669  4889442470     REX.W movq [rsp+0x70],rax
0x2571507182   674  488d642420     REX.W leaq rsp,[rsp+0x20]
0x2571507187   679  415f           pop r15
0x2571507189   681  415e           pop r14
0x257150718b   683  415c           pop r12
0x257150718d   685  415b           pop r11
0x257150718f   687  4159           pop r9
0x2571507191   689  4158           pop r8
0x2571507193   691  5f             pop rdi
0x2571507194   692  5e             pop rsi
0x2571507195   693  5b             pop rbx
0x2571507196   694  5a             pop rdx
0x2571507197   695  59             pop rcx
0x2571507198   696  58             pop rax
0x2571507199   697  f20f114907     movsd [rcx+0x7],xmm1
0x257150719e   702  e96dfeffff     jmp 304  (0x2571507010)
0x25715071a3   707  e86ceebfff     call 0x2571106014         ;; deoptimization bailout 2
0x25715071a8   712  e871eebfff     call 0x257110601e         ;; deoptimization bailout 3
0x25715071ad   717  e876eebfff     call 0x2571106028         ;; deoptimization bailout 4
0x25715071b2   722  6690           nop

Inlined functions (count = 0)

Deoptimization Input Data (deopt points = 8)
 index  ast id    argc     pc
     0       3       0     35
     1      12       0     -1
     2      12       0     -1
     3      12       0     -1
     4      81       0     -1
     5      97       0    340
     6      41       0    425
     7      39       0    455

Safepoints (size = 74)
0x2571506f03    35  1 (sp -> fp)       0
0x2571507034   340  1 (sp -> fp)       5
0x2571507089   425  1 (sp -> fp)       6
0x25715070a7   455  1 (sp -> fp)       7
0x25715070f7   535  1 | rax | rdx | rbx | rsi (sp -> fp)  <none> argc: 2
0x257150717d   669  1 | rax | rcx | rdx | rbx (sp -> fp)  <none>

RelocInfo (size = 60)
0x2571506eff  code target (BUILTIN)  (0x2571436820)
0x2571506f03  position  (5748)
0x2571506f09  embedded object  (0x25b597e04101 <null>)
0x2571506f1a  position  (5763)
0x2571506f1c  embedded object  (0x25b597e04189 <undefined>)
0x2571506f2d  position  (5776)
0x2571506f63  runtime entry  (deoptimization bailout 1)
0x2571506fd1  embedded object  (0x16f91c30acf1 <Map(FAST_HOLEY_ELEMENTS)>)
0x2571506fe6  position  (5879)
0x2571506fef  embedded object  (0x25b597ecbc39 <JS Function InnerArrayJoin (SharedFunctionInfo 0x25b597e5b4e9)>)
0x2571507012  embedded object  (0x25b597e04189 <undefined>)
0x2571507025  embedded object  (0x25b597ecbc39 <JS Function InnerArrayJoin (SharedFunctionInfo 0x25b597e5b4e9)>)
0x257150703b  position  (5782)
0x257150703d  property cell
0x2571507058  embedded object  (0x25b597ef4609 <String[20]: Array.prototype.join>)
0x2571507064  embedded object  (0x25b597ed2089 <JS Function MakeTypeError (SharedFunctionInfo 0x25b597e85651)>)
0x2571507072  embedded object  (0x25b597ed2089 <JS Function MakeTypeError (SharedFunctionInfo 0x25b597e85651)>)
0x2571507085  code target (BUILTIN)  (0x2571409a80)
0x2571507089  position  (5776)
0x25715070a3  code target (STUB)  (0x2571409c20)
0x25715070f3  code target (STUB)  (0x2571406280)
0x2571507118  position  (5879)
0x2571507179  code target (STUB)  (0x2571406280)
0x25715071a4  runtime entry  (deoptimization bailout 2)
0x25715071a9  runtime entry  (deoptimization bailout 3)
0x25715071ae  runtime entry  (deoptimization bailout 4)

--- End code ---
--- Code ---
kind = HANDLER
major_key = <NoCache>Stub
name = StoreFieldStub
compiler = crankshaft
Instructions (size = 116)
0x2571507320     0  a801           test al,0x1
0x2571507322     2  7415           jz 25  (0x2571507339)
0x2571507324     4  4d8b5508       REX.W movq r10,[r13+0x8]
0x2571507328     8  4c3950ff       REX.W cmpq [rax-0x1],r10
0x257150732c    12  f20f104807     movsd xmm1,[rax+0x7]
0x2571507331    17  0f8517000000   jnz 46  (0x257150734e)
0x2571507337    23  eb0f           jmp 40  (0x2571507348)
0x2571507339    25  4c8bd0         REX.W movq r10,rax
0x257150733c    28  49c1ea20       REX.W shrq r10, 32
0x2571507340    32  0f57c9         xorps xmm1,xmm1
0x2571507343    35  f2410f2aca     cvtsi2sd xmm1,r10
0x2571507348    40  f20f114a1f     movsd [rdx+0x1f],xmm1
0x257150734d    45  c3             ret
0x257150734e    46  49ba0060207125000000 REX.W movq r10,0x2571206000
0x2571507358    56  e800000000     call 61  (0x257150735d)
0x257150735d    61  4883ec10       REX.W subq rsp,0x10
0x2571507361    65  ff742410       push [rsp+0x10]
0x2571507365    69  4152           push r10
0x2571507367    71  4c8b55f8       REX.W movq r10,[rbp-0x8]
0x257150736b    75  4c89542418     REX.W movq [rsp+0x18],r10
0x2571507370    80  48896c2420     REX.W movq [rsp+0x20],rbp
0x2571507375    85  488d6c2420     REX.W leaq rbp,[rsp+0x20]
0x257150737a    90  49ba0000000006000000 REX.W movq r10,0x600000000
0x2571507384   100  4c89542410     REX.W movq [rsp+0x10],r10
0x2571507389   105  c3             ret
0x257150738a   106  6690           nop


Safepoints (size = 8)

RelocInfo (size = 0)

--- End code ---
--- Code ---
kind = HANDLER
major_key = <NoCache>Stub
name = ElementsTransitionAndStoreStub
compiler = crankshaft
Instructions (size = 356)
0x25715089a0     0  55             push rbp
0x25715089a1     1  4889e5         REX.W movq rbp,rsp
0x25715089a4     4  56             push rsi
0x25715089a5     5  49ba0000000006000000 REX.W movq r10,0x600000000
0x25715089af    15  4152           push r10
0x25715089b1    17  4883ec08       REX.W subq rsp,0x8
0x25715089b5    21  f20f110c24     movsd [rsp],xmm1
0x25715089ba    26  488d7a2f       REX.W leaq rdi,[rdx+0x2f]
0x25715089be    30  49ba0000007aa90d0000 REX.W movq r10,0xda97a000000
0x25715089c8    40  493bfa         REX.W cmpq rdi,r10
0x25715089cb    43  0f8c1e000000   jl 79  (0x25715089ef)
0x25715089d1    49  493bbd400c0000 REX.W cmpq rdi,[r13+0xc40]
0x25715089d8    56  0f8f11000000   jg 79  (0x25715089ef)
0x25715089de    62  4d8b95f0080000 REX.W movq r10,[r13+0x8f0]
0x25715089e5    69  4c3957f0       REX.W cmpq [rdi-0x10],r10
0x25715089e9    73  0f84e2000000   jz 305  (0x2571508ad1)
0x25715089ef    79  488bfb         REX.W movq rdi,rbx
0x25715089f2    82  48897aff       REX.W movq [rdx-0x1],rdi
0x25715089f6    86  40f6c701       testb rdi,0x1
0x25715089fa    90  0f8426000000   jz 134  (0x2571508a26)
0x2571508a00    96  4c8d42ff       REX.W leaq r8,[rdx-0x1]
0x2571508a04   100  4881e70000f0ff REX.W andq rdi,0xfffffffffff00000
0x2571508a0b   107  f6470804       testb [rdi+0x8],0x4
0x2571508a0f   111  7415           jz 134  (0x2571508a26)
0x2571508a11   113  48c7c70000f0ff REX.W movq rdi,0xfff00000
0x2571508a18   120  4823fa         REX.W andq rdi,rdx
0x2571508a1b   123  f6470808       testb [rdi+0x8],0x8
0x2571508a1f   127  7405           jz 134  (0x2571508a26)
0x2571508a21   129  e87aeaffff     call 0x25715074a0         ;; code: STUB, RecordWriteStub, minor: 10354
0x2571508a26   134  488b7a0f       REX.W movq rdi,[rdx+0xf]
0x2571508a2a   138  49ba0942301cf9160000 REX.W movq r10,0x16f91c304209    ;; object: 0x16f91c304209 <Map(FAST_SMI_ELEMENTS)>
0x2571508a34   148  4c3957ff       REX.W cmpq [rdi-0x1],r10
0x2571508a38   152  0f859d000000   jnz 315  (0x2571508adb)
0x2571508a3e   158  448b421b       movl r8,[rdx+0x1b]
0x2571508a42   162  4c8bca         REX.W movq r9,rdx
0x2571508a45   165  41f6c101       testb r9,0x1
0x2571508a49   169  0f854f000000   jnz 254  (0x2571508a9e)
0x2571508a4f   175  49c1e920       REX.W shrq r9, 32
0x2571508a53   179  453bc1         cmpl r8,r9
0x2571508a56   182  0f8689000000   jna 325  (0x2571508ae5)
0x2571508a5c   188  488bd8         REX.W movq rbx,rax
0x2571508a5f   191  4a895ccf0f     REX.W movq [rdi+r9*8+0xf],rbx
0x2571508a64   196  4e8d4ccf0f     REX.W leaq r9,[rdi+r9*8+0xf]
0x2571508a69   201  f6c301         testb rbx,0x1
0x2571508a6c   204  0f8422000000   jz 244  (0x2571508a94)
0x2571508a72   210  4881e30000f0ff REX.W andq rbx,0xfffffffffff00000
0x2571508a79   217  f6430804       testb [rbx+0x8],0x4
0x2571508a7d   221  7415           jz 244  (0x2571508a94)
0x2571508a7f   223  48c7c30000f0ff REX.W movq rbx,0xfff00000
0x2571508a86   230  4823df         REX.W andq rbx,rdi
0x2571508a89   233  f6430808       testb [rbx+0x8],0x8
0x2571508a8d   237  7405           jz 244  (0x2571508a94)
0x2571508a8f   239  e88cf4ffff     call 0x2571507f20         ;; code: STUB, RecordWriteStub, minor: 10551
0x2571508a94   244  f20f100c24     movsd xmm1,[rsp]
0x2571508a99   249  488be5         REX.W movq rsp,rbp
0x2571508a9c   252  5d             pop rbp
0x2571508a9d   253  c3             ret
0x2571508a9e   254  4d8b5508       REX.W movq r10,[r13+0x8]
0x2571508aa2   258  4d3951ff       REX.W cmpq [r9-0x1],r10
0x2571508aa6   262  0f8543000000   jnz 335  (0x2571508aef)
0x2571508aac   268  f2410f104107   movsd xmm0,[r9+0x7]
0x2571508ab2   274  f2440f2cc8     cvttsd2sil r9,xmm0
0x2571508ab7   279  0f57c9         xorps xmm1,xmm1
0x2571508aba   282  f2410f2ac9     cvtsi2sd xmm1,r9
0x2571508abf   287  660f2ec1       ucomisd xmm0,xmm1
0x2571508ac3   291  0f8526000000   jnz 335  (0x2571508aef)
0x2571508ac9   297  0f8a20000000   jpe 335  (0x2571508aef)
0x2571508acf   303  eb82           jmp 179  (0x2571508a53)
0x2571508ad1   305  f20f100c24     movsd xmm1,[rsp]
0x2571508ad6   310  e825d5cfff     call 0x2571206000         ;; lazy deoptimization bailout 0
0x2571508adb   315  f20f100c24     movsd xmm1,[rsp]
0x2571508ae0   320  e825d5cfff     call 0x257120600a         ;; lazy deoptimization bailout 1
0x2571508ae5   325  f20f100c24     movsd xmm1,[rsp]
0x2571508aea   330  e825d5cfff     call 0x2571206014         ;; lazy deoptimization bailout 2
0x2571508aef   335  f20f100c24     movsd xmm1,[rsp]
0x2571508af4   340  e825d5cfff     call 0x257120601e         ;; lazy deoptimization bailout 3
0x2571508af9   345  0f1f00         nop


Safepoints (size = 8)

RelocInfo (size = 17)
0x2571508a22  code target (STUB)  (0x25715074a0)
0x2571508a2c  embedded object  (0x16f91c304209 <Map(FAST_SMI_ELEMENTS)>)
0x2571508a90  code target (STUB)  (0x2571507f20)
0x2571508ad7  runtime entry
0x2571508ae1  runtime entry
0x2571508aeb  runtime entry
0x2571508af5  runtime entry

--- End code ---
